
pacemaker.elf:     file format elf32-littlenios2
pacemaker.elf
architecture: nios2:r1, flags 0x00000112:
EXEC_P, HAS_SYMS, D_PAGED
start address 0x00800244

Program Header:
    LOAD off    0x00001000 vaddr 0x00800000 paddr 0x00800000 align 2**12
         filesz 0x00000020 memsz 0x00000020 flags r-x
    LOAD off    0x00001020 vaddr 0x00800020 paddr 0x00800020 align 2**12
         filesz 0x0001600c memsz 0x0001600c flags r-x
    LOAD off    0x0001702c vaddr 0x0081602c paddr 0x00817d04 align 2**12
         filesz 0x00001cd8 memsz 0x00001cd8 flags rw-
    LOAD off    0x000199dc vaddr 0x008199dc paddr 0x008199dc align 2**12
         filesz 0x00000000 memsz 0x00000194 flags rw-

Sections:
Idx Name          Size      VMA       LMA       File off  Algn
  0 .entry        00000020  00800000  00800000  00001000  2**5
                  CONTENTS, ALLOC, LOAD, READONLY, CODE
  1 .exceptions   00000224  00800020  00800020  00001020  2**2
                  CONTENTS, ALLOC, LOAD, READONLY, CODE
  2 .text         0001580c  00800244  00800244  00001244  2**2
                  CONTENTS, ALLOC, LOAD, READONLY, CODE
  3 .rodata       000005dc  00815a50  00815a50  00016a50  2**2
                  CONTENTS, ALLOC, LOAD, READONLY, DATA
  4 .rwdata       00001cd8  0081602c  00817d04  0001702c  2**2
                  CONTENTS, ALLOC, LOAD, DATA, SMALL_DATA
  5 .bss          00000194  008199dc  008199dc  000199dc  2**2
                  ALLOC, SMALL_DATA
  6 .sdram        00000000  00819b70  00819b70  00018d04  2**0
                  CONTENTS
  7 .onchip_mem   00000000  01008000  01008000  00018d04  2**0
                  CONTENTS
  8 .comment      00000023  00000000  00000000  00018d04  2**0
                  CONTENTS, READONLY
  9 .debug_aranges 00000fe8  00000000  00000000  00018d28  2**3
                  CONTENTS, READONLY, DEBUGGING
 10 .debug_info   000263f9  00000000  00000000  00019d10  2**0
                  CONTENTS, READONLY, DEBUGGING
 11 .debug_abbrev 00009a3c  00000000  00000000  00040109  2**0
                  CONTENTS, READONLY, DEBUGGING
 12 .debug_line   0000d2d0  00000000  00000000  00049b45  2**0
                  CONTENTS, READONLY, DEBUGGING
 13 .debug_frame  00002604  00000000  00000000  00056e18  2**2
                  CONTENTS, READONLY, DEBUGGING
 14 .debug_str    00004562  00000000  00000000  0005941c  2**0
                  CONTENTS, READONLY, DEBUGGING
 15 .debug_loc    00017791  00000000  00000000  0005d97e  2**0
                  CONTENTS, READONLY, DEBUGGING
 16 .debug_alt_sim_info 00000060  00000000  00000000  00075110  2**2
                  CONTENTS, READONLY, DEBUGGING
 17 .debug_ranges 000018c0  00000000  00000000  00075170  2**3
                  CONTENTS, READONLY, DEBUGGING
 18 .thread_model 00000003  00000000  00000000  0007a2d9  2**0
                  CONTENTS, READONLY
 19 .cpu          00000003  00000000  00000000  0007a2dc  2**0
                  CONTENTS, READONLY
 20 .qsys         00000001  00000000  00000000  0007a2df  2**0
                  CONTENTS, READONLY
 21 .simulation_enabled 00000001  00000000  00000000  0007a2e0  2**0
                  CONTENTS, READONLY
 22 .stderr_dev   00000009  00000000  00000000  0007a2e1  2**0
                  CONTENTS, READONLY
 23 .stdin_dev    00000009  00000000  00000000  0007a2ea  2**0
                  CONTENTS, READONLY
 24 .stdout_dev   00000009  00000000  00000000  0007a2f3  2**0
                  CONTENTS, READONLY
 25 .sopc_system_name 0000000c  00000000  00000000  0007a2fc  2**0
                  CONTENTS, READONLY
 26 .quartus_project_dir 0000002d  00000000  00000000  0007a308  2**0
                  CONTENTS, READONLY
 27 .sopcinfo     0006b17b  00000000  00000000  0007a335  2**0
                  CONTENTS, READONLY
SYMBOL TABLE:
00800000 l    d  .entry	00000000 .entry
00800020 l    d  .exceptions	00000000 .exceptions
00800244 l    d  .text	00000000 .text
00815a50 l    d  .rodata	00000000 .rodata
0081602c l    d  .rwdata	00000000 .rwdata
008199dc l    d  .bss	00000000 .bss
00819b70 l    d  .sdram	00000000 .sdram
01008000 l    d  .onchip_mem	00000000 .onchip_mem
00000000 l    d  .comment	00000000 .comment
00000000 l    d  .debug_aranges	00000000 .debug_aranges
00000000 l    d  .debug_info	00000000 .debug_info
00000000 l    d  .debug_abbrev	00000000 .debug_abbrev
00000000 l    d  .debug_line	00000000 .debug_line
00000000 l    d  .debug_frame	00000000 .debug_frame
00000000 l    d  .debug_str	00000000 .debug_str
00000000 l    d  .debug_loc	00000000 .debug_loc
00000000 l    d  .debug_alt_sim_info	00000000 .debug_alt_sim_info
00000000 l    d  .debug_ranges	00000000 .debug_ranges
00000000 l    df *ABS*	00000000 ../pacemaker_bsp//obj/HAL/src/crt0.o
0080028c l       .text	00000000 alt_after_alt_main
00000000 l    df *ABS*	00000000 alt_irq_handler.c
00000000 l    df *ABS*	00000000 alt_instruction_exception_entry.c
00000000 l    df *ABS*	00000000 main.c
00000000 l    df *ABS*	00000000 sccharts.c
00000000 l    df *ABS*	00000000 libgcc2.c
00000000 l    df *ABS*	00000000 adddf3.c
00000000 l    df *ABS*	00000000 gedf2.c
00000000 l    df *ABS*	00000000 ledf2.c
00000000 l    df *ABS*	00000000 muldf3.c
00000000 l    df *ABS*	00000000 subdf3.c
00000000 l    df *ABS*	00000000 floatsidf.c
00000000 l    df *ABS*	00000000 floatunsidf.c
00000000 l    df *ABS*	00000000 libgcc2.c
00000000 l    df *ABS*	00000000 libgcc2.c
00000000 l    df *ABS*	00000000 printf.c
00000000 l    df *ABS*	00000000 vfprintf.c
00815be2 l     O .rodata	00000010 zeroes.4404
00808fdc l     F .text	000000bc __sbprintf
00815bf2 l     O .rodata	00000010 blanks.4403
00000000 l    df *ABS*	00000000 wsetup.c
00000000 l    df *ABS*	00000000 dtoa.c
008091ec l     F .text	00000200 quorem
00000000 l    df *ABS*	00000000 fflush.c
00000000 l    df *ABS*	00000000 findfp.c
0080ad1c l     F .text	00000008 __fp_unlock
0080ad30 l     F .text	0000019c __sinit.part.1
0080aecc l     F .text	00000008 __fp_lock
00000000 l    df *ABS*	00000000 mallocr.c
00000000 l    df *ABS*	00000000 fwalk.c
00000000 l    df *ABS*	00000000 impure.c
0081602c l     O .rwdata	00000424 impure_data
00000000 l    df *ABS*	00000000 locale.c
00816470 l     O .rwdata	00000020 lc_ctype_charset
00816450 l     O .rwdata	00000020 lc_message_charset
00816490 l     O .rwdata	00000038 lconv
00000000 l    df *ABS*	00000000 makebuf.c
00000000 l    df *ABS*	00000000 mallocr.c
00000000 l    df *ABS*	00000000 memchr.c
00000000 l    df *ABS*	00000000 memcpy.c
00000000 l    df *ABS*	00000000 memset.c
00000000 l    df *ABS*	00000000 mprec.c
00815c24 l     O .rodata	0000000c p05.2768
00000000 l    df *ABS*	00000000 s_fpclassify.c
00000000 l    df *ABS*	00000000 sbrkr.c
00000000 l    df *ABS*	00000000 stdio.c
00000000 l    df *ABS*	00000000 strcmp.c
00000000 l    df *ABS*	00000000 strlen.c
00000000 l    df *ABS*	00000000 vfprintf.c
0080d7e4 l     F .text	000000fc __sprint_r.part.0
00815d58 l     O .rodata	00000010 blanks.4348
00815d48 l     O .rodata	00000010 zeroes.4349
0080ed70 l     F .text	000000bc __sbprintf
00000000 l    df *ABS*	00000000 writer.c
00000000 l    df *ABS*	00000000 closer.c
00000000 l    df *ABS*	00000000 mallocr.c
00000000 l    df *ABS*	00000000 fclose.c
00000000 l    df *ABS*	00000000 fputwc.c
00000000 l    df *ABS*	00000000 fstatr.c
00000000 l    df *ABS*	00000000 fvwrite.c
00000000 l    df *ABS*	00000000 int_errno.c
00000000 l    df *ABS*	00000000 isattyr.c
00000000 l    df *ABS*	00000000 lseekr.c
00000000 l    df *ABS*	00000000 memmove.c
00000000 l    df *ABS*	00000000 readr.c
00000000 l    df *ABS*	00000000 mallocr.c
00000000 l    df *ABS*	00000000 wbuf.c
00000000 l    df *ABS*	00000000 wcrtomb.c
00000000 l    df *ABS*	00000000 wctomb_r.c
00000000 l    df *ABS*	00000000 libgcc2.c
00000000 l    df *ABS*	00000000 libgcc2.c
00000000 l    df *ABS*	00000000 lib2-divmod.c
00000000 l    df *ABS*	00000000 divdf3.c
00000000 l    df *ABS*	00000000 eqdf2.c
00000000 l    df *ABS*	00000000 fixdfsi.c
00000000 l    df *ABS*	00000000 alt_alarm_start.c
00000000 l    df *ABS*	00000000 alt_close.c
00811a5c l     F .text	0000003c alt_get_errno
00000000 l    df *ABS*	00000000 alt_dev.c
00811b68 l     F .text	0000002c alt_dev_null_write
00000000 l    df *ABS*	00000000 alt_errno.c
00000000 l    df *ABS*	00000000 alt_fstat.c
00811b94 l     F .text	0000003c alt_get_errno
00000000 l    df *ABS*	00000000 alt_iic.c
00000000 l    df *ABS*	00000000 alt_iic_isr_register.c
00000000 l    df *ABS*	00000000 alt_irq_vars.c
00000000 l    df *ABS*	00000000 alt_isatty.c
00811f20 l     F .text	0000003c alt_get_errno
00000000 l    df *ABS*	00000000 alt_load.c
00812000 l     F .text	00000068 alt_load_section
00000000 l    df *ABS*	00000000 alt_lseek.c
008120ec l     F .text	0000003c alt_get_errno
00000000 l    df *ABS*	00000000 alt_main.c
00000000 l    df *ABS*	00000000 alt_malloc_lock.c
00000000 l    df *ABS*	00000000 alt_read.c
008122c0 l     F .text	0000003c alt_get_errno
00000000 l    df *ABS*	00000000 alt_release_fd.c
00000000 l    df *ABS*	00000000 alt_sbrk.c
00817cf0 l     O .rwdata	00000004 heap_end
00000000 l    df *ABS*	00000000 alt_tick.c
00000000 l    df *ABS*	00000000 alt_write.c
008126b0 l     F .text	0000003c alt_get_errno
00000000 l    df *ABS*	00000000 alt_sys_init.c
008127e4 l     F .text	00000034 alt_dev_reg
00816a78 l     O .rwdata	00001060 jtag_uart
00817ad8 l     O .rwdata	00000120 lcd
00817bf8 l     O .rwdata	000000c4 uart
00000000 l    df *ABS*	00000000 altera_avalon_jtag_uart_fd.c
00000000 l    df *ABS*	00000000 altera_avalon_jtag_uart_init.c
00812b0c l     F .text	0000020c altera_avalon_jtag_uart_irq
00812d18 l     F .text	000000a0 altera_avalon_jtag_uart_timeout
00000000 l    df *ABS*	00000000 altera_avalon_jtag_uart_ioctl.c
00000000 l    df *ABS*	00000000 altera_avalon_jtag_uart_read.c
00000000 l    df *ABS*	00000000 altera_avalon_jtag_uart_write.c
00000000 l    df *ABS*	00000000 altera_avalon_lcd_16207.c
00817cfc l     O .rwdata	00000004 colstart
00813350 l     F .text	000000b8 lcd_write_command
00813408 l     F .text	000000d8 lcd_write_data
008134e0 l     F .text	000000d0 lcd_clear_screen
008135b0 l     F .text	000001ec lcd_repaint_screen
0081379c l     F .text	000000cc lcd_scroll_up
00813868 l     F .text	000002ac lcd_handle_escape
00813fec l     F .text	000000ac alt_lcd_16207_timeout
00000000 l    df *ABS*	00000000 altera_avalon_lcd_16207_fd.c
00000000 l    df *ABS*	00000000 altera_avalon_timer_sc.c
0081422c l     F .text	00000078 alt_avalon_timer_sc_irq
00000000 l    df *ABS*	00000000 altera_avalon_uart_fd.c
00000000 l    df *ABS*	00000000 altera_avalon_uart_init.c
008144dc l     F .text	0000009c altera_avalon_uart_irq
00814578 l     F .text	000000e4 altera_avalon_uart_rxirq
0081465c l     F .text	00000148 altera_avalon_uart_txirq
00000000 l    df *ABS*	00000000 altera_avalon_uart_read.c
008147f8 l     F .text	0000003c alt_get_errno
00000000 l    df *ABS*	00000000 altera_avalon_uart_write.c
00814a10 l     F .text	0000003c alt_get_errno
00000000 l    df *ABS*	00000000 alt_dcache_flush_all.c
00000000 l    df *ABS*	00000000 alt_dev_llist_insert.c
00814c40 l     F .text	0000003c alt_get_errno
00000000 l    df *ABS*	00000000 alt_do_ctors.c
00000000 l    df *ABS*	00000000 alt_do_dtors.c
00000000 l    df *ABS*	00000000 alt_icache_flush_all.c
00000000 l    df *ABS*	00000000 alt_io_redirect.c
00814eb0 l     F .text	000000c4 alt_open_fd
00000000 l    df *ABS*	00000000 alt_open.c
00814ff0 l     F .text	0000003c alt_get_errno
0081502c l     F .text	000000c4 alt_file_locked
00000000 l    df *ABS*	00000000 alt_usleep.c
00000000 l    df *ABS*	00000000 altera_nios2_gen2_irq.c
00000000 l    df *ABS*	00000000 alt_busy_sleep.c
00000000 l    df *ABS*	00000000 alt_find_dev.c
00000000 l    df *ABS*	00000000 alt_find_file.c
00000000 l    df *ABS*	00000000 alt_get_fd.c
00000000 l    df *ABS*	00000000 alt_icache_flush.c
00000000 l    df *ABS*	00000000 atexit.c
00000000 l    df *ABS*	00000000 ctype_.c
00815eab l     O .rodata	00000180 _ctype_b
00000000 l    df *ABS*	00000000 exit.c
00000000 l    df *ABS*	00000000 memcmp.c
00000000 l    df *ABS*	00000000 __atexit.c
00000000 l    df *ABS*	00000000 __call_atexit.c
00000000 l    df *ABS*	00000000 alt_exit.c
00819a44 g     O .bss	00000004 alt_instruction_exception_handler
0080d2f4 g     F .text	00000074 _mprec_log10
0080d3e0 g     F .text	0000008c __any_on
0080f7c8 g     F .text	00000054 _isatty_r
00815c30 g     O .rodata	00000028 __mprec_tinytens
008121fc g     F .text	0000007c alt_main
00819a70 g     O .bss	00000100 alt_irq
0080f81c g     F .text	00000060 _lseek_r
00817d04 g       *ABS*	00000000 __flash_rwdata_start
00811828 g     F .text	00000088 .hidden __eqdf2
00819b70 g       *ABS*	00000000 __alt_heap_start
00806d8c g     F .text	0000003c printf
008100f4 g     F .text	0000009c _wcrtomb_r
0080d60c g     F .text	0000005c __sseek
0080b06c g     F .text	00000010 __sinit
0080ff9c g     F .text	00000140 __swbuf_r
0080b678 g     F .text	0000007c _setlocale_r
0080aed4 g     F .text	00000068 __sfmoreglue
0081229c g     F .text	00000024 __malloc_unlock
008199dc g     O .bss	00000001 LRI_state
008199dd g     O .bss	00000001 URI_state
0080f87c g     F .text	0000015c memmove
0080b054 g     F .text	00000018 _cleanup
0080c470 g     F .text	000000a8 _Balloc
00805990 g     F .text	000000dc .hidden __gtdf2
00815274 g     F .text	00000024 altera_nios2_gen2_irq_init
00800000 g     F .entry	0000001c __reset
00800020 g       *ABS*	00000000 __flash_exceptions_start
0080f2b0 g     F .text	0000005c _fstat_r
00819a28 g     O .bss	00000004 errno
0080d588 g     F .text	00000008 __seofread
00819a34 g     O .bss	00000004 alt_argv
0081fcbc g       *ABS*	00000000 _gp
00815244 g     F .text	00000030 usleep
00804c08 g     F .text	00000220 reset
008168f8 g     O .rwdata	00000180 alt_fd_list
008153f0 g     F .text	00000090 alt_find_dev
0080c200 g     F .text	00000148 memcpy
0080ad24 g     F .text	0000000c _cleanup_r
00806b74 g     F .text	000000dc .hidden __floatsidf
00814f74 g     F .text	0000007c alt_io_redirect
00805a6c g     F .text	000000f4 .hidden __ltdf2
00815a50 g       *ABS*	00000000 __DTOR_END__
008199ec g     O .bss	00000001 VS_temp
00814e14 g     F .text	0000009c alt_exception_cause_generated_bad_addr
0080d46c g     F .text	00000074 __fpclassifyd
0080d250 g     F .text	000000a4 __ratio
0080ed54 g     F .text	0000001c __vfiprintf_internal
00812f10 g     F .text	0000021c altera_avalon_jtag_uart_read
00806d5c g     F .text	00000030 _printf_r
00810e84 g     F .text	00000064 .hidden __udivsi3
00811f5c g     F .text	000000a4 isatty
00815c80 g     O .rodata	000000c8 __mprec_tens
0080b6f4 g     F .text	0000000c __locale_charset
0081562c g     F .text	00000090 alt_icache_flush
00819a24 g     O .bss	00000004 __malloc_top_pad
00817cc4 g     O .rwdata	00000004 __mb_cur_max
0080b724 g     F .text	0000000c _localeconv_r
0080f30c g     F .text	000004bc __sfvwrite_r
0080c87c g     F .text	0000003c __i2b
008199f0 g     O .bss	00000004 PVARP_timer
0080d4e0 g     F .text	00000054 _sbrk_r
0080f9d8 g     F .text	00000060 _read_r
00817ce4 g     O .rwdata	00000004 alt_max_fd
0080efa4 g     F .text	000000f0 _fclose_r
0080acec g     F .text	00000030 fflush
00819a20 g     O .bss	00000004 __malloc_max_sbrked_mem
008199f4 g     O .bss	00000004 VRP_timer
008050e4 g     F .text	000008ac .hidden __adddf3
0080cff8 g     F .text	0000010c __b2d
00810854 g     F .text	00000538 .hidden __umoddi3
00812128 g     F .text	000000d4 lseek
00817cbc g     O .rwdata	00000004 _global_impure_ptr
0080fa38 g     F .text	00000564 _realloc_r
00819b70 g       *ABS*	00000000 __bss_end
00811e30 g     F .text	000000f0 alt_iic_isr_register
008125a8 g     F .text	00000108 alt_tick
008102dc g     F .text	00000578 .hidden __udivdi3
0080f20c g     F .text	00000024 _fputwc_r
00815c58 g     O .rodata	00000028 __mprec_bigtens
0080c660 g     F .text	00000104 __s2b
00806c50 g     F .text	000000a8 .hidden __floatunsidf
0080cd38 g     F .text	00000060 __mcmp
00814430 g     F .text	000000ac altera_avalon_uart_init
0080b08c g     F .text	00000018 __fp_lock_all
00811de4 g     F .text	0000004c alt_ic_irq_enabled
0081250c g     F .text	0000009c alt_alarm_stop
00819a2c g     O .bss	00000004 alt_irq_active
01008000 g       *ABS*	00000000 __alt_mem_onchip_mem
008000fc g     F .exceptions	000000d4 alt_irq_handler
008168d0 g     O .rwdata	00000028 alt_dev_null
00814bf8 g     F .text	00000048 alt_dcache_flush_all
0080c764 g     F .text	00000068 __hi0bits
008118b0 g     F .text	00000080 .hidden __fixdfsi
008199f8 g     O .bss	00000001 AP_output
00817d04 g       *ABS*	00000000 __ram_rwdata_end
00817cdc g     O .rwdata	00000008 alt_dev_list
008126ec g     F .text	000000f8 write
00800318 g     F .text	00000070 uart_isr
008199f9 g     O .bss	00000001 VS_input
0081602c g       *ABS*	00000000 __ram_rodata_end
00811bd0 g     F .text	000000b0 fstat
00805a6c g     F .text	000000f4 .hidden __ledf2
0080cab0 g     F .text	00000140 __pow5mult
0080d8f8 g     F .text	0000145c ___vfiprintf_internal_r
00819a18 g     O .bss	00000004 __nlocale_changed
00810ee8 g     F .text	00000058 .hidden __umodsi3
00819b70 g       *ABS*	00000000 end
00813b14 g     F .text	000004d8 altera_avalon_lcd_16207_write
00814a4c g     F .text	000001ac altera_avalon_uart_write
008003ec g     F .text	00000050 send_uart
00812a4c g     F .text	000000c0 altera_avalon_jtag_uart_init
008001d0 g     F .exceptions	00000074 alt_instruction_exception_entry
00815a50 g       *ABS*	00000000 __CTOR_LIST__
01000000 g       *ABS*	00000000 __alt_stack_pointer
008142a4 g     F .text	0000007c alt_avalon_timer_sc_init
00814380 g     F .text	00000060 altera_avalon_uart_write_fd
00806cf8 g     F .text	00000064 .hidden __clzsi2
008143e0 g     F .text	00000050 altera_avalon_uart_close_fd
0081312c g     F .text	00000224 altera_avalon_jtag_uart_write
00800388 g     F .text	00000064 uart_init
0080b07c g     F .text	00000004 __sfp_lock_acquire
0080c11c g     F .text	000000e4 memchr
00806dc8 g     F .text	000021f8 ___vfprintf_internal_r
0080b1e0 g     F .text	00000310 _free_r
0080b700 g     F .text	00000010 __locale_mb_cur_max
0081589c g     F .text	00000180 __call_exitprocs
00819a14 g     O .bss	00000004 __mlocale_changed
00817cc8 g     O .rwdata	00000004 __malloc_sbrk_base
00800244 g     F .text	0000004c _start
00819a3c g     O .bss	00000004 _alt_tick_rate
00805074 g     F .text	00000070 .hidden __floatundidf
0080cbf0 g     F .text	00000148 __lshift
00819a40 g     O .bss	00000004 _alt_nticks
008122fc g     F .text	000000fc read
0080043c g     F .text	00000044 resetHeartEvents
00812850 g     F .text	00000098 alt_sys_init
008199df g     O .bss	00000001 PVARP_state
00815784 g     F .text	00000118 __register_exitproc
0080c8b8 g     F .text	000001f8 __multiply
00812db8 g     F .text	00000068 altera_avalon_jtag_uart_close
008199e1 g     O .bss	00000001 VRP_state
0081602c g       *ABS*	00000000 __ram_rwdata_start
00815a50 g       *ABS*	00000000 __ram_rodata_start
00819a48 g     O .bss	00000028 __malloc_current_mallinfo
0080d104 g     F .text	0000014c __d2b
008199fc g     O .bss	00000004 AVI_timer
008199de g     O .bss	00000001 URI_timeout
00819a00 g     O .bss	00000004 LRI_timer
008128e8 g     F .text	00000060 altera_avalon_jtag_uart_read_fd
00815588 g     F .text	000000a4 alt_get_fd
00815298 g     F .text	00000158 alt_busy_sleep
0080ee8c g     F .text	00000054 _close_r
00815708 g     F .text	0000007c memcmp
008129a8 g     F .text	00000050 altera_avalon_jtag_uart_close_fd
00819b70 g       *ABS*	00000000 __alt_stack_base
008129f8 g     F .text	00000054 altera_avalon_jtag_uart_ioctl_fd
00809098 g     F .text	00000154 __swsetup_r
00804e28 g     F .text	0000024c tick
00810f40 g     F .text	000008e8 .hidden __divdf3
0080af3c g     F .text	00000118 __sfp
0080d368 g     F .text	00000078 __copybits
008164c8 g     O .rwdata	00000408 __malloc_av_
0080b088 g     F .text	00000004 __sinit_lock_release
00805b60 g     F .text	00000718 .hidden __muldf3
0080d534 g     F .text	00000054 __sread
008199e8 g     O .bss	00000004 AEI_timer
00815480 g     F .text	00000108 alt_find_file
00814c7c g     F .text	000000a4 alt_dev_llist_insert
00812278 g     F .text	00000024 __malloc_lock
0081245c g     F .text	000000b0 sbrk
00819a04 g     O .bss	00000001 AS_input
0080ac90 g     F .text	0000005c _fflush_r
0080eee0 g     F .text	000000c4 _calloc_r
00819a05 g     O .bss	00000001 VP_output
008199dc g       *ABS*	00000000 __bss_start
0080c348 g     F .text	00000128 memset
008006f8 g     F .text	00000484 main
00819a38 g     O .bss	00000004 alt_envp
00819a1c g     O .bss	00000004 __malloc_max_total_mem
00812948 g     F .text	00000060 altera_avalon_jtag_uart_write_fd
008100dc g     F .text	00000018 __swbuf
00814098 g     F .text	00000134 altera_avalon_lcd_16207_init
00819a08 g     O .bss	00000004 URI_timer
0080d668 g     F .text	00000008 __sclose
01000000 g       *ABS*	00000000 __alt_heap_limit
0080f094 g     F .text	00000014 fclose
008093ec g     F .text	00001688 _dtoa_r
0080b910 g     F .text	0000080c _malloc_r
00810250 g     F .text	00000030 __ascii_wctomb
008199e4 g     O .bss	00000001 AEI_state
00817ce8 g     O .rwdata	00000004 alt_errno
0080b4f0 g     F .text	000000c4 _fwalk
00810d8c g     F .text	00000084 .hidden __divsi3
008199e0 g     O .bss	00000001 PVARP_timeout
0080b0bc g     F .text	00000124 _malloc_trim_r
00815a50 g       *ABS*	00000000 __CTOR_END__
0080d670 g     F .text	000000dc strcmp
00815a50 g       *ABS*	00000000 __flash_rodata_start
00815a50 g       *ABS*	00000000 __DTOR_LIST__
00811828 g     F .text	00000088 .hidden __nedf2
00812818 g     F .text	00000038 alt_irq_init
008123f8 g     F .text	00000064 alt_release_fd
00815aa0 g     O .rodata	00000100 .hidden __clz_tab
00819a10 g     O .bss	00000004 _PathLocale
008156bc g     F .text	00000014 atexit
0080ee2c g     F .text	00000060 _write_r
008199e2 g     O .bss	00000001 VRP_timeout
0080b730 g     F .text	00000018 setlocale
00817cc0 g     O .rwdata	00000004 _impure_ptr
00819a30 g     O .bss	00000004 alt_argc
0080aa74 g     F .text	0000021c __sflush_r
00814d80 g     F .text	00000060 _do_dtors
0080b71c g     F .text	00000008 __locale_cjk_lang
00800020 g       .exceptions	00000000 alt_irq_entry
0080cf94 g     F .text	00000064 __ulp
0080b0a4 g     F .text	00000018 __fp_unlock_all
008141cc g     F .text	00000060 altera_avalon_lcd_16207_write_fd
00817cd4 g     O .rwdata	00000008 alt_fs_list
00800020 g       *ABS*	00000000 __ram_exceptions_start
0080b748 g     F .text	0000000c localeconv
00800290 g     F .text	00000088 timerISR
00811c80 g     F .text	00000050 alt_ic_isr_register
00817d04 g       *ABS*	00000000 _edata
00814320 g     F .text	00000060 altera_avalon_uart_read_fd
00819b70 g       *ABS*	00000000 _end
0080f0a8 g     F .text	00000164 __fputwc
00800244 g       *ABS*	00000000 __ram_exceptions_end
00812e20 g     F .text	000000f0 altera_avalon_jtag_uart_ioctl
00811d58 g     F .text	0000008c alt_ic_irq_disable
0080d590 g     F .text	0000007c __swrite
00817ccc g     O .rwdata	00000004 __malloc_trim_threshold
0080b710 g     F .text	0000000c __locale_msgcharset
008156d0 g     F .text	00000038 exit
0080b5b4 g     F .text	000000c4 _fwalk_reent
0080cd98 g     F .text	000001fc __mdiff
00800480 g     F .text	00000278 c_implementation
00810e10 g     F .text	00000074 .hidden __modsi3
00800b7c g     F .text	0000408c logic
00817d00 g     O .rwdata	00000004 __ctype_ptr__
01000000 g       *ABS*	00000000 __alt_data_end
00800020 g     F .exceptions	00000000 alt_exception
0080b080 g     F .text	00000004 __sfp_lock_release
00800000 g       *ABS*	00000000 __alt_mem_sdram
00815daa g     O .rodata	00000101 _ctype_
008147a4 g     F .text	00000054 altera_avalon_uart_close
00815a1c g     F .text	00000034 _exit
00811930 g     F .text	0000012c alt_alarm_start
0080b754 g     F .text	000001bc __smakebuf_r
008199e3 g     O .bss	00000001 AVI_state
0080d74c g     F .text	00000098 strlen
008150f0 g     F .text	00000154 open
00805990 g     F .text	000000dc .hidden __gedf2
00817cd0 g     O .rwdata	00000004 __wctomb
0080d8e0 g     F .text	00000018 __sprint_r
00814de0 g     F .text	00000034 alt_icache_flush_all
00817cec g     O .rwdata	00000004 alt_priority_mask
00811cd0 g     F .text	00000088 alt_ic_irq_enable
00808fc0 g     F .text	0000001c __vfprintf_internal
00814834 g     F .text	000001dc altera_avalon_uart_read
00810280 g     F .text	0000005c _wctomb_r
00806278 g     F .text	000008fc .hidden __subdf3
0080c7cc g     F .text	000000b0 __lo0bits
00817cf4 g     O .rwdata	00000008 alt_alarm_list
00814d20 g     F .text	00000060 _do_ctors
00819a0c g     O .bss	00000001 AS_temp
00810190 g     F .text	000000c0 wcrtomb
00811a98 g     F .text	000000d0 close
00812068 g     F .text	00000084 alt_load
0080f230 g     F .text	00000080 fputwc
0080b084 g     F .text	00000004 __sinit_lock_acquire
0080c540 g     F .text	00000120 __multadd
0080c518 g     F .text	00000028 _Bfree



Disassembly of section .entry:

00800000 <__reset>:
#if NIOS2_ICACHE_SIZE > 0 && defined(ALT_ALLOW_CODE_AT_RESET) && (!defined(ALT_SIM_OPTIMIZE) || defined(NIOS2_ECC_PRESENT))
    /* Assume the instruction cache size is always a power of two. */
#if NIOS2_ICACHE_SIZE > 0x8000
    movhi r2, %hi(NIOS2_ICACHE_SIZE)
#else
    movui r2, NIOS2_ICACHE_SIZE
  800000:	00840014 	movui	r2,4096
#endif

0:
    initi r2
  800004:	1001483a 	initi	r2
    addi r2, r2, -NIOS2_ICACHE_LINE_SIZE
  800008:	10bff804 	addi	r2,r2,-32
    bgt r2, zero, 0b
  80000c:	00bffd16 	blt	zero,r2,800004 <__alt_mem_onchip_mem+0xff7f8004>
 * Jump to the _start entry point in the .text section if reset code
 * is allowed or if optimizing for RTL simulation.
 */
#if defined(ALT_ALLOW_CODE_AT_RESET) || defined(ALT_SIM_OPTIMIZE)
    /* Jump to the _start entry point in the .text section. */
    movhi r1, %hi(_start)
  800010:	00402034 	movhi	at,128
    ori r1, r1, %lo(_start)
  800014:	08409114 	ori	at,at,580
    jmp r1
  800018:	0800683a 	jmp	at
  80001c:	00000000 	call	0 <__alt_mem_sdram-0x800000>

Disassembly of section .exceptions:

00800020 <alt_exception>:

#else /* ALT_EXCEPTION_STACK disabled */
        /* 
         * Reserve space on normal stack for registers about to be pushed.
         */
        addi  sp, sp, -76
  800020:	deffed04 	addi	sp,sp,-76
         * documentation for details).
         *
         * Leave a gap in the stack frame at 4(sp) for the muldiv handler to
         * store zero into.
         */
        stw   ra,  0(sp)
  800024:	dfc00015 	stw	ra,0(sp)
        stw   r1,   8(sp)
  800028:	d8400215 	stw	at,8(sp)
        stw   r2,  12(sp)
  80002c:	d8800315 	stw	r2,12(sp)
        stw   r3,  16(sp)
  800030:	d8c00415 	stw	r3,16(sp)
        stw   r4,  20(sp)
  800034:	d9000515 	stw	r4,20(sp)
        stw   r5,  24(sp)
  800038:	d9400615 	stw	r5,24(sp)
        stw   r6,  28(sp)
  80003c:	d9800715 	stw	r6,28(sp)
        stw   r7,  32(sp)
  800040:	d9c00815 	stw	r7,32(sp)
        rdctl r5, estatus   /* Read early to avoid usage stall */
  800044:	000b307a 	rdctl	r5,estatus
        stw   r8,  36(sp)
  800048:	da000915 	stw	r8,36(sp)
        stw   r9,  40(sp)
  80004c:	da400a15 	stw	r9,40(sp)
        stw   r10, 44(sp)
  800050:	da800b15 	stw	r10,44(sp)
        stw   r11, 48(sp)
  800054:	dac00c15 	stw	r11,48(sp)
        stw   r12, 52(sp)
  800058:	db000d15 	stw	r12,52(sp)
        stw   r13, 56(sp)
  80005c:	db400e15 	stw	r13,56(sp)
        stw   r14, 60(sp)
  800060:	db800f15 	stw	r14,60(sp)
        stw   r15, 64(sp)
  800064:	dbc01015 	stw	r15,64(sp)
        /*
         * ea-4 contains the address of the instruction being executed
         * when the exception occured. For interrupt exceptions, we will
         * will be re-issue the isntruction. Store it in 72(sp)
         */
        stw   r5,  68(sp)  /* estatus */
  800068:	d9401115 	stw	r5,68(sp)
        addi  r15, ea, -4  /* instruction that caused exception */
  80006c:	ebffff04 	addi	r15,ea,-4
        stw   r15,  72(sp)
  800070:	dbc01215 	stw	r15,72(sp)
#else
        /*
         * Test to see if the exception was a software exception or caused 
         * by an external interrupt, and vector accordingly.
         */
        rdctl r4, ipending
  800074:	0009313a 	rdctl	r4,ipending
        andi  r2, r5, 1
  800078:	2880004c 	andi	r2,r5,1
        beq   r2, zero, .Lnot_irq
  80007c:	10000326 	beq	r2,zero,80008c <alt_exception+0x6c>
        beq   r4, zero, .Lnot_irq
  800080:	20000226 	beq	r4,zero,80008c <alt_exception+0x6c>
        /*
         * Now that all necessary registers have been preserved, call 
         * alt_irq_handler() to process the interrupts.
         */

        call alt_irq_handler
  800084:	08000fc0 	call	8000fc <alt_irq_handler>

        .section .exceptions.irqreturn, "xa"

        br    .Lexception_exit
  800088:	00000706 	br	8000a8 <alt_exception+0x88>
         * upon completion, so we write ea (address of instruction *after*
         * the one where the exception occured) into 72(sp). The actual
         * instruction that caused the exception is written in r2, which these
         * handlers will utilize.
         */
        stw ea, 72(sp) /* EA is PC+4 so will skip over instruction causing exception */
  80008c:	df401215 	stw	ea,72(sp)
.Lunknown_16bit:
        addi.n r4, r4, 2 /* Need PC+2 to skip over instruction causing exception */
        stw r4, 72(sp)

#else /* CDX is not Enabled and all instructions are 32bits */
        ldw r2, -4(ea) /* Instruction value that caused exception */
  800090:	e8bfff17 	ldw	r2,-4(ea)
         * debugger is present) or go into an infinite loop since the
         * handling behavior is undefined; in that case we will not return here.
         */

        /* Load exception-causing address as first argument (r4) */
        addi   r4, ea, -4
  800094:	e93fff04 	addi	r4,ea,-4

        /* Call the instruction-exception entry */
        call   alt_instruction_exception_entry
  800098:	08001d00 	call	8001d0 <alt_instruction_exception_entry>
         * instruction
         *
         * Return code was 0: Skip. The instruction after the exception is
         * already stored in 72(sp).
         */
        bne   r2, r0, .Lexception_exit
  80009c:	1000021e 	bne	r2,zero,8000a8 <alt_exception+0x88>

        /*
         * Otherwise, modify 72(sp) to re-issue the instruction that caused the
         * exception.
         */
        addi  r15, ea, -4  /* instruction that caused exception */
  8000a0:	ebffff04 	addi	r15,ea,-4
        stw   r15,  72(sp)
  8000a4:	dbc01215 	stw	r15,72(sp)
        /* 
         * Restore the saved registers, so that all general purpose registers 
         * have been restored to their state at the time the interrupt occured.
         */

        ldw   r5,  68(sp)
  8000a8:	d9401117 	ldw	r5,68(sp)
        ldw   ea,  72(sp)  /* This becomes the PC once eret is executed */
  8000ac:	df401217 	ldw	ea,72(sp)
        ldw   ra,   0(sp)
  8000b0:	dfc00017 	ldw	ra,0(sp)

        wrctl estatus, r5
  8000b4:	2801707a 	wrctl	estatus,r5

        ldw   r1,   8(sp)
  8000b8:	d8400217 	ldw	at,8(sp)
        ldw   r2,  12(sp)
  8000bc:	d8800317 	ldw	r2,12(sp)
        ldw   r3,  16(sp)
  8000c0:	d8c00417 	ldw	r3,16(sp)
        ldw   r4,  20(sp)
  8000c4:	d9000517 	ldw	r4,20(sp)
        ldw   r5,  24(sp)
  8000c8:	d9400617 	ldw	r5,24(sp)
        ldw   r6,  28(sp)
  8000cc:	d9800717 	ldw	r6,28(sp)
        ldw   r7,  32(sp)
  8000d0:	d9c00817 	ldw	r7,32(sp)

#if defined(ALT_EXCEPTION_STACK) && defined(ALT_STACK_CHECK)
        ldw   et, %gprel(alt_exception_old_stack_limit)(gp)
#endif

        ldw   r8,  36(sp)
  8000d4:	da000917 	ldw	r8,36(sp)
        ldw   r9,  40(sp)
  8000d8:	da400a17 	ldw	r9,40(sp)
        ldw   r10, 44(sp)
  8000dc:	da800b17 	ldw	r10,44(sp)
        ldw   r11, 48(sp)
  8000e0:	dac00c17 	ldw	r11,48(sp)
        ldw   r12, 52(sp)
  8000e4:	db000d17 	ldw	r12,52(sp)
        ldw   r13, 56(sp)
  8000e8:	db400e17 	ldw	r13,56(sp)
        ldw   r14, 60(sp)
  8000ec:	db800f17 	ldw	r14,60(sp)
        ldw   r15, 64(sp)
  8000f0:	dbc01017 	ldw	r15,64(sp)
        stw   et, %gprel(alt_stack_limit_value)(gp)
        stw   zero, %gprel(alt_exception_old_stack_limit)(gp)
#endif /* ALT_STACK_CHECK */
        ldw   sp,  76(sp)
#else /* ALT_EXCEPTION_STACK disabled */
        addi  sp, sp, 76
  8000f4:	dec01304 	addi	sp,sp,76

        /*
         * Return to the interrupted instruction.
         */

        eret
  8000f8:	ef80083a 	eret

008000fc <alt_irq_handler>:
 * instruction is present if the macro ALT_CI_INTERRUPT_VECTOR defined.
 */

void alt_irq_handler (void) __attribute__ ((section (".exceptions")));
void alt_irq_handler (void)
{
  8000fc:	defff904 	addi	sp,sp,-28
  800100:	dfc00615 	stw	ra,24(sp)
  800104:	df000515 	stw	fp,20(sp)
  800108:	df000504 	addi	fp,sp,20
  
  /*
   * Notify the operating system that we are at interrupt level.
   */ 
  
  ALT_OS_INT_ENTER();
  80010c:	0001883a 	nop
#ifndef NIOS2_EIC_PRESENT
static ALT_INLINE alt_u32 ALT_ALWAYS_INLINE alt_irq_pending (void)
{
  alt_u32 active;

  NIOS2_READ_IPENDING (active);
  800110:	0005313a 	rdctl	r2,ipending
  800114:	e0bffe15 	stw	r2,-8(fp)

  return active;
  800118:	e0bffe17 	ldw	r2,-8(fp)
   * Consider the case where the high priority interupt is asserted during
   * the interrupt entry sequence for a lower priority interrupt to see why
   * this is the case.
   */

  active = alt_irq_pending ();
  80011c:	e0bffb15 	stw	r2,-20(fp)

  do
  {
    i = 0;
  800120:	e03ffd15 	stw	zero,-12(fp)
    mask = 1;
  800124:	00800044 	movi	r2,1
  800128:	e0bffc15 	stw	r2,-16(fp)
     * called to clear the interrupt condition.
     */

    do
    {
      if (active & mask)
  80012c:	e0fffb17 	ldw	r3,-20(fp)
  800130:	e0bffc17 	ldw	r2,-16(fp)
  800134:	1884703a 	and	r2,r3,r2
  800138:	10001426 	beq	r2,zero,80018c <alt_irq_handler+0x90>
      { 
#ifdef ALT_ENHANCED_INTERRUPT_API_PRESENT
        alt_irq[i].handler(alt_irq[i].context); 
  80013c:	008020b4 	movhi	r2,130
  800140:	10a69c04 	addi	r2,r2,-26000
  800144:	e0fffd17 	ldw	r3,-12(fp)
  800148:	180690fa 	slli	r3,r3,3
  80014c:	10c5883a 	add	r2,r2,r3
  800150:	10c00017 	ldw	r3,0(r2)
  800154:	008020b4 	movhi	r2,130
  800158:	10a69c04 	addi	r2,r2,-26000
  80015c:	e13ffd17 	ldw	r4,-12(fp)
  800160:	200890fa 	slli	r4,r4,3
  800164:	1105883a 	add	r2,r2,r4
  800168:	10800104 	addi	r2,r2,4
  80016c:	10800017 	ldw	r2,0(r2)
  800170:	1009883a 	mov	r4,r2
  800174:	183ee83a 	callr	r3
#else
        alt_irq[i].handler(alt_irq[i].context, i); 
#endif
        break;
  800178:	0001883a 	nop
#ifndef NIOS2_EIC_PRESENT
static ALT_INLINE alt_u32 ALT_ALWAYS_INLINE alt_irq_pending (void)
{
  alt_u32 active;

  NIOS2_READ_IPENDING (active);
  80017c:	0005313a 	rdctl	r2,ipending
  800180:	e0bfff15 	stw	r2,-4(fp)

  return active;
  800184:	e0bfff17 	ldw	r2,-4(fp)
  800188:	00000706 	br	8001a8 <alt_irq_handler+0xac>
      }
      mask <<= 1;
  80018c:	e0bffc17 	ldw	r2,-16(fp)
  800190:	1085883a 	add	r2,r2,r2
  800194:	e0bffc15 	stw	r2,-16(fp)
      i++;
  800198:	e0bffd17 	ldw	r2,-12(fp)
  80019c:	10800044 	addi	r2,r2,1
  8001a0:	e0bffd15 	stw	r2,-12(fp)

    } while (1);
  8001a4:	003fe106 	br	80012c <__alt_mem_onchip_mem+0xff7f812c>

    active = alt_irq_pending ();
  8001a8:	e0bffb15 	stw	r2,-20(fp)
    
  } while (active);
  8001ac:	e0bffb17 	ldw	r2,-20(fp)
  8001b0:	103fdb1e 	bne	r2,zero,800120 <__alt_mem_onchip_mem+0xff7f8120>

  /*
   * Notify the operating system that interrupt processing is complete.
   */ 

  ALT_OS_INT_EXIT();
  8001b4:	0001883a 	nop
}
  8001b8:	0001883a 	nop
  8001bc:	e037883a 	mov	sp,fp
  8001c0:	dfc00117 	ldw	ra,4(sp)
  8001c4:	df000017 	ldw	fp,0(sp)
  8001c8:	dec00204 	addi	sp,sp,8
  8001cc:	f800283a 	ret

008001d0 <alt_instruction_exception_entry>:
 * that handler if it has been registered. Absent a handler, it will
 * break break or hang as discussed below.
 */
int 
alt_instruction_exception_entry (alt_u32 exception_pc)
{
  8001d0:	defffb04 	addi	sp,sp,-20
  8001d4:	dfc00415 	stw	ra,16(sp)
  8001d8:	df000315 	stw	fp,12(sp)
  8001dc:	df000304 	addi	fp,sp,12
  8001e0:	e13fff15 	stw	r4,-4(fp)
 * NIOS2_EXCEPTION_CAUSE_NOT_PRESENT. Your handling routine should
 * check the validity of the cause argument before proceeding.
 */
#ifdef NIOS2_HAS_EXTRA_EXCEPTION_INFO
  /* Get exception cause & "badaddr" */
  NIOS2_READ_EXCEPTION(cause);
  8001e4:	000531fa 	rdctl	r2,exception
  8001e8:	e0bffd15 	stw	r2,-12(fp)
  cause = ( (cause & NIOS2_EXCEPTION_REG_CAUSE_MASK) >>
  8001ec:	e0bffd17 	ldw	r2,-12(fp)
  8001f0:	10801f0c 	andi	r2,r2,124
  8001f4:	1004d0ba 	srli	r2,r2,2
  8001f8:	e0bffd15 	stw	r2,-12(fp)
              NIOS2_EXCEPTION_REG_CAUSE_OFST );

  NIOS2_READ_BADADDR(badaddr);
  8001fc:	0005333a 	rdctl	r2,badaddr
  800200:	e0bffe15 	stw	r2,-8(fp)
#else
  cause = NIOS2_EXCEPTION_CAUSE_NOT_PRESENT;
  badaddr = 0;
#endif /* NIOS2_HAS_EXTRA_EXCEPTION_INFO */

  if(alt_instruction_exception_handler) {
  800204:	d0a76217 	ldw	r2,-25208(gp)
  800208:	10000726 	beq	r2,zero,800228 <alt_instruction_exception_entry+0x58>
     * Call handler. Its return value indicates whether the exception-causing
     * instruction should be re-issued. The code that called us,
     * alt_eceptions_entry.S, will look at this value and adjust the ea
     * register as necessary
     */
    return alt_instruction_exception_handler(cause, exception_pc, badaddr);
  80020c:	d0a76217 	ldw	r2,-25208(gp)
  800210:	e0fffd17 	ldw	r3,-12(fp)
  800214:	e1bffe17 	ldw	r6,-8(fp)
  800218:	e17fff17 	ldw	r5,-4(fp)
  80021c:	1809883a 	mov	r4,r3
  800220:	103ee83a 	callr	r2
  800224:	00000206 	br	800230 <alt_instruction_exception_entry+0x60>
   *    (a peripheral which negates its interrupt output before its
   *    interrupt handler has been executed will cause spurious interrupts)
   */
  else {
#ifdef NIOS2_HAS_DEBUG_STUB
    NIOS2_BREAK();
  800228:	003da03a 	break	0
      ;
#endif /* NIOS2_HAS_DEBUG_STUB */
  }

  /* We should not get here. Remove compiler warning. */
  return NIOS2_EXCEPTION_RETURN_REISSUE_INST;
  80022c:	0005883a 	mov	r2,zero
}
  800230:	e037883a 	mov	sp,fp
  800234:	dfc00117 	ldw	ra,4(sp)
  800238:	df000017 	ldw	fp,0(sp)
  80023c:	dec00204 	addi	sp,sp,8
  800240:	f800283a 	ret

Disassembly of section .text:

00800244 <_start>:

    /* Assume the data cache size is always a power of two. */
#if NIOS2_DCACHE_SIZE > 0x8000
    movhi r2, %hi(NIOS2_DCACHE_SIZE)
#else
    movui r2, NIOS2_DCACHE_SIZE
  800244:	00820014 	movui	r2,2048
#endif

0:
    initd 0(r2)
  800248:	10000033 	initd	0(r2)
#ifdef NIOS2_ECC_PRESENT
    addi r2, r2, -4
#else
    addi r2, r2, -NIOS2_DCACHE_LINE_SIZE
  80024c:	10bff804 	addi	r2,r2,-32
#endif
    bgt r2, zero, 0b
  800250:	00bffd16 	blt	zero,r2,800248 <__alt_mem_onchip_mem+0xff7f8248>

    /*
     * Now that the caches are initialized, set up the stack pointer and global pointer.
     * The values provided by the linker are assumed to be correctly aligned.
     */
    movhi sp, %hi(__alt_stack_pointer)
  800254:	06c04034 	movhi	sp,256
    ori sp, sp, %lo(__alt_stack_pointer)
  800258:	dec00014 	ori	sp,sp,0
    movhi gp, %hi(_gp)
  80025c:	06802074 	movhi	gp,129
    ori gp, gp, %lo(_gp)
  800260:	d6bf2f14 	ori	gp,gp,64700
 */
#ifndef ALT_SIM_OPTIMIZE
    /* Log that the BSS is about to be cleared. */
    ALT_LOG_PUTS(alt_log_msg_bss)

    movhi r2, %hi(__bss_start)
  800264:	00802074 	movhi	r2,129
    ori r2, r2, %lo(__bss_start)
  800268:	10a67714 	ori	r2,r2,39388

    movhi r3, %hi(__bss_end)
  80026c:	00c02074 	movhi	r3,129
    ori r3, r3, %lo(__bss_end)
  800270:	18e6dc14 	ori	r3,r3,39792

    beq r2, r3, 1f
  800274:	10c00326 	beq	r2,r3,800284 <_start+0x40>

0:
    stw zero, (r2)
  800278:	10000015 	stw	zero,0(r2)
    addi r2, r2, 4
  80027c:	10800104 	addi	r2,r2,4
    bltu r2, r3, 0b
  800280:	10fffd36 	bltu	r2,r3,800278 <__alt_mem_onchip_mem+0xff7f8278>
     * section aren't defined until alt_load() has been called).
     */
    mov   et, zero
#endif

    call alt_load
  800284:	08120680 	call	812068 <alt_load>

    /* Log that alt_main is about to be called. */
    ALT_LOG_PUTS(alt_log_msg_alt_main)

    /* Call the C entry point. It should never return. */
    call alt_main
  800288:	08121fc0 	call	8121fc <alt_main>

0080028c <alt_after_alt_main>:

    /* Wait in infinite loop in case alt_main does return. */
alt_after_alt_main:
    br alt_after_alt_main
  80028c:	003fff06 	br	80028c <__alt_mem_onchip_mem+0xff7f828c>

00800290 <timerISR>:
volatile uint8_t AEI_state = 0;

volatile int LRI_timer, URI_timer, PVARP_timer, VRP_timer, AVI_timer, AEI_timer = 0;

// System time ISR
alt_u32 timerISR(void* context) {
  800290:	defffd04 	addi	sp,sp,-12
  800294:	df000215 	stw	fp,8(sp)
  800298:	df000204 	addi	fp,sp,8
  80029c:	e13fff15 	stw	r4,-4(fp)
    int* timecount = (int*)context;
  8002a0:	e0bfff17 	ldw	r2,-4(fp)
  8002a4:	e0bffe15 	stw	r2,-8(fp)
    (*timecount)++;
  8002a8:	e0bffe17 	ldw	r2,-8(fp)
  8002ac:	10800017 	ldw	r2,0(r2)
  8002b0:	10c00044 	addi	r3,r2,1
  8002b4:	e0bffe17 	ldw	r2,-8(fp)
  8002b8:	10c00015 	stw	r3,0(r2)

    LRI_timer++;
  8002bc:	d0a75117 	ldw	r2,-25276(gp)
  8002c0:	10800044 	addi	r2,r2,1
  8002c4:	d0a75115 	stw	r2,-25276(gp)
    URI_timer++;
  8002c8:	d0a75317 	ldw	r2,-25268(gp)
  8002cc:	10800044 	addi	r2,r2,1
  8002d0:	d0a75315 	stw	r2,-25268(gp)
    PVARP_timer++;
  8002d4:	d0a74d17 	ldw	r2,-25292(gp)
  8002d8:	10800044 	addi	r2,r2,1
  8002dc:	d0a74d15 	stw	r2,-25292(gp)
    VRP_timer++;
  8002e0:	d0a74e17 	ldw	r2,-25288(gp)
  8002e4:	10800044 	addi	r2,r2,1
  8002e8:	d0a74e15 	stw	r2,-25288(gp)
    AVI_timer++;
  8002ec:	d0a75017 	ldw	r2,-25280(gp)
  8002f0:	10800044 	addi	r2,r2,1
  8002f4:	d0a75015 	stw	r2,-25280(gp)
    AEI_timer++;
  8002f8:	d0a74b17 	ldw	r2,-25300(gp)
  8002fc:	10800044 	addi	r2,r2,1
  800300:	d0a74b15 	stw	r2,-25300(gp)

    return 1;
  800304:	00800044 	movi	r2,1
}
  800308:	e037883a 	mov	sp,fp
  80030c:	df000017 	ldw	fp,0(sp)
  800310:	dec00104 	addi	sp,sp,4
  800314:	f800283a 	ret

00800318 <uart_isr>:


// assigning temporary variables when receiving UART inputs
void uart_isr() {
  800318:	defffe04 	addi	sp,sp,-8
  80031c:	df000115 	stw	fp,4(sp)
  800320:	df000104 	addi	fp,sp,4
	 if (IORD_ALTERA_AVALON_UART_STATUS(UART_BASE) & ALTERA_AVALON_UART_STATUS_RRDY_MSK) {
  800324:	00804074 	movhi	r2,257
  800328:	10841204 	addi	r2,r2,4168
  80032c:	10800037 	ldwio	r2,0(r2)
  800330:	1080200c 	andi	r2,r2,128
  800334:	10000f26 	beq	r2,zero,800374 <uart_isr+0x5c>
		 char received = IORD_ALTERA_AVALON_UART_RXDATA(UART_BASE);
  800338:	00804074 	movhi	r2,257
  80033c:	10841004 	addi	r2,r2,4160
  800340:	10800037 	ldwio	r2,0(r2)
  800344:	e0bfff05 	stb	r2,-4(fp)
		 if (received == 'A') {
  800348:	e0bfff07 	ldb	r2,-4(fp)
  80034c:	10801058 	cmpnei	r2,r2,65
  800350:	1000031e 	bne	r2,zero,800360 <uart_isr+0x48>
			 AS_temp = 1;
  800354:	00800044 	movi	r2,1
  800358:	d0a75405 	stb	r2,-25264(gp)
		 } else if (received == 'V') {
			 VS_temp = 1;
		 }
	 }
}
  80035c:	00000506 	br	800374 <uart_isr+0x5c>
void uart_isr() {
	 if (IORD_ALTERA_AVALON_UART_STATUS(UART_BASE) & ALTERA_AVALON_UART_STATUS_RRDY_MSK) {
		 char received = IORD_ALTERA_AVALON_UART_RXDATA(UART_BASE);
		 if (received == 'A') {
			 AS_temp = 1;
		 } else if (received == 'V') {
  800360:	e0bfff07 	ldb	r2,-4(fp)
  800364:	10801598 	cmpnei	r2,r2,86
  800368:	1000021e 	bne	r2,zero,800374 <uart_isr+0x5c>
			 VS_temp = 1;
  80036c:	00800044 	movi	r2,1
  800370:	d0a74c05 	stb	r2,-25296(gp)
		 }
	 }
}
  800374:	0001883a 	nop
  800378:	e037883a 	mov	sp,fp
  80037c:	df000017 	ldw	fp,0(sp)
  800380:	dec00104 	addi	sp,sp,4
  800384:	f800283a 	ret

00800388 <uart_init>:

// register the UART
void uart_init() {
  800388:	defffd04 	addi	sp,sp,-12
  80038c:	dfc00215 	stw	ra,8(sp)
  800390:	df000115 	stw	fp,4(sp)
  800394:	df000104 	addi	fp,sp,4
    IOWR_ALTERA_AVALON_UART_CONTROL(UART_BASE,0);
  800398:	0007883a 	mov	r3,zero
  80039c:	00804074 	movhi	r2,257
  8003a0:	10841304 	addi	r2,r2,4172
  8003a4:	10c00035 	stwio	r3,0(r2)
    IOWR_ALTERA_AVALON_UART_CONTROL(UART_BASE, ALTERA_AVALON_UART_CONTROL_RRDY_MSK);
  8003a8:	00c02004 	movi	r3,128
  8003ac:	00804074 	movhi	r2,257
  8003b0:	10841304 	addi	r2,r2,4172
  8003b4:	10c00035 	stwio	r3,0(r2)
    alt_ic_isr_register(UART_IRQ_INTERRUPT_CONTROLLER_ID, UART_IRQ, uart_isr, NULL, NULL);
  8003b8:	d8000015 	stw	zero,0(sp)
  8003bc:	000f883a 	mov	r7,zero
  8003c0:	01802034 	movhi	r6,128
  8003c4:	3180c604 	addi	r6,r6,792
  8003c8:	000b883a 	mov	r5,zero
  8003cc:	0009883a 	mov	r4,zero
  8003d0:	0811c800 	call	811c80 <alt_ic_isr_register>
}
  8003d4:	0001883a 	nop
  8003d8:	e037883a 	mov	sp,fp
  8003dc:	dfc00117 	ldw	ra,4(sp)
  8003e0:	df000017 	ldw	fp,0(sp)
  8003e4:	dec00204 	addi	sp,sp,8
  8003e8:	f800283a 	ret

008003ec <send_uart>:

// function to send 1 character over UART
void send_uart(char c) {
  8003ec:	defffe04 	addi	sp,sp,-8
  8003f0:	df000115 	stw	fp,4(sp)
  8003f4:	df000104 	addi	fp,sp,4
  8003f8:	2005883a 	mov	r2,r4
  8003fc:	e0bfff05 	stb	r2,-4(fp)
	 while (!(IORD_ALTERA_AVALON_UART_STATUS(UART_BASE) & ALTERA_AVALON_UART_STATUS_TRDY_MSK));
  800400:	0001883a 	nop
  800404:	00804074 	movhi	r2,257
  800408:	10841204 	addi	r2,r2,4168
  80040c:	10800037 	ldwio	r2,0(r2)
  800410:	1080100c 	andi	r2,r2,64
  800414:	103ffb26 	beq	r2,zero,800404 <__alt_mem_onchip_mem+0xff7f8404>
	 IOWR_ALTERA_AVALON_UART_TXDATA(UART_BASE, c);
  800418:	e0ffff07 	ldb	r3,-4(fp)
  80041c:	00804074 	movhi	r2,257
  800420:	10841104 	addi	r2,r2,4164
  800424:	10c00035 	stwio	r3,0(r2)
}
  800428:	0001883a 	nop
  80042c:	e037883a 	mov	sp,fp
  800430:	df000017 	ldw	fp,0(sp)
  800434:	dec00104 	addi	sp,sp,4
  800438:	f800283a 	ret

0080043c <resetHeartEvents>:


// Reset all signals at end of each tick in SCCharts
void resetHeartEvents(TickData* d) {
  80043c:	defffe04 	addi	sp,sp,-8
  800440:	df000115 	stw	fp,4(sp)
  800444:	df000104 	addi	fp,sp,4
  800448:	e13fff15 	stw	r4,-4(fp)

    d->AS = 0;
  80044c:	e0bfff17 	ldw	r2,-4(fp)
  800450:	10001605 	stb	zero,88(r2)
    d->AP = 0;
  800454:	e0bfff17 	ldw	r2,-4(fp)
  800458:	10001685 	stb	zero,90(r2)
    d->VS = 0;
  80045c:	e0bfff17 	ldw	r2,-4(fp)
  800460:	10001645 	stb	zero,89(r2)
    d->VP = 0;
  800464:	e0bfff17 	ldw	r2,-4(fp)
  800468:	100016c5 	stb	zero,91(r2)
}
  80046c:	0001883a 	nop
  800470:	e037883a 	mov	sp,fp
  800474:	df000017 	ldw	fp,0(sp)
  800478:	dec00104 	addi	sp,sp,4
  80047c:	f800283a 	ret

00800480 <c_implementation>:


// C implementation logic
void c_implementation() {
  800480:	deffff04 	addi	sp,sp,-4
  800484:	df000015 	stw	fp,0(sp)
  800488:	d839883a 	mov	fp,sp

	// LRI
	// Ensures that a ventricular pacing (VP) event occurs if no ventricular sense (VS) is detected within a set interval.
	if (LRI_state == 0) {
  80048c:	d0a74803 	ldbu	r2,-25312(gp)
  800490:	10803fcc 	andi	r2,r2,255
  800494:	10000a1e 	bne	r2,zero,8004c0 <c_implementation+0x40>
		if (VS_input || VP_output) { // Reset LRI timer on VS or VP
  800498:	d0a74f43 	ldbu	r2,-25283(gp)
  80049c:	10803fcc 	andi	r2,r2,255
  8004a0:	1000031e 	bne	r2,zero,8004b0 <c_implementation+0x30>
  8004a4:	d0a75243 	ldbu	r2,-25271(gp)
  8004a8:	10803fcc 	andi	r2,r2,255
  8004ac:	10001526 	beq	r2,zero,800504 <c_implementation+0x84>
			LRI_state = 1;
  8004b0:	00800044 	movi	r2,1
  8004b4:	d0a74805 	stb	r2,-25312(gp)
			LRI_timer = 0;
  8004b8:	d0275115 	stw	zero,-25276(gp)
  8004bc:	00001106 	br	800504 <c_implementation+0x84>
		}
	} else {
		if ((LRI_timer < LRI_VALUE) && (VS_input || VP_output)) {
  8004c0:	d0a75117 	ldw	r2,-25276(gp)
  8004c4:	1080ed88 	cmpgei	r2,r2,950
  8004c8:	1000081e 	bne	r2,zero,8004ec <c_implementation+0x6c>
  8004cc:	d0a74f43 	ldbu	r2,-25283(gp)
  8004d0:	10803fcc 	andi	r2,r2,255
  8004d4:	1000031e 	bne	r2,zero,8004e4 <c_implementation+0x64>
  8004d8:	d0a75243 	ldbu	r2,-25271(gp)
  8004dc:	10803fcc 	andi	r2,r2,255
  8004e0:	10000226 	beq	r2,zero,8004ec <c_implementation+0x6c>
			LRI_timer = 0; // Reset LRI timer on VS or VP
  8004e4:	d0275115 	stw	zero,-25276(gp)
  8004e8:	00000606 	br	800504 <c_implementation+0x84>

		} else if (LRI_timer >= LRI_VALUE) { // Trigger ventricular pacing (VP) if LRI expires
  8004ec:	d0a75117 	ldw	r2,-25276(gp)
  8004f0:	1080ed90 	cmplti	r2,r2,950
  8004f4:	1000031e 	bne	r2,zero,800504 <c_implementation+0x84>
			VP_output = 1;
  8004f8:	00800044 	movi	r2,1
  8004fc:	d0a75245 	stb	r2,-25271(gp)
			LRI_timer = 0;
  800500:	d0275115 	stw	zero,-25276(gp)
		}
	}

	//URI
	// Prevents excessive ventricular pacing by ensuring a minimum delay between events
	if (URI_state == 0) {
  800504:	d0a74843 	ldbu	r2,-25311(gp)
  800508:	10803fcc 	andi	r2,r2,255
  80050c:	10000a1e 	bne	r2,zero,800538 <c_implementation+0xb8>
		if (VS_input || VP_output) { // Reset URI timer on VS or VP
  800510:	d0a74f43 	ldbu	r2,-25283(gp)
  800514:	10803fcc 	andi	r2,r2,255
  800518:	1000031e 	bne	r2,zero,800528 <c_implementation+0xa8>
  80051c:	d0a75243 	ldbu	r2,-25271(gp)
  800520:	10803fcc 	andi	r2,r2,255
  800524:	10000c26 	beq	r2,zero,800558 <c_implementation+0xd8>
			URI_timer = 0;
  800528:	d0275315 	stw	zero,-25268(gp)
			URI_state = 1;
  80052c:	00800044 	movi	r2,1
  800530:	d0a74845 	stb	r2,-25311(gp)
  800534:	00000806 	br	800558 <c_implementation+0xd8>
		}
	} else {
		if (URI_timer < URI_VALUE) {
  800538:	d0a75317 	ldw	r2,-25268(gp)
  80053c:	1080e108 	cmpgei	r2,r2,900
  800540:	1000031e 	bne	r2,zero,800550 <c_implementation+0xd0>
			URI_timeout = 1; // Enforce pacing limit
  800544:	00800044 	movi	r2,1
  800548:	d0a74885 	stb	r2,-25310(gp)
  80054c:	00000206 	br	800558 <c_implementation+0xd8>
		} else {
			URI_timeout = 0; // Allow pacing again
  800550:	d0274885 	stb	zero,-25310(gp)
			URI_state = 0;
  800554:	d0274845 	stb	zero,-25311(gp)
		}
	}

	// PVARP
	// Prevents inappropriate atrial sensing immediately after a ventricular event.
	if (PVARP_state == 0) {
  800558:	d0a748c3 	ldbu	r2,-25309(gp)
  80055c:	10803fcc 	andi	r2,r2,255
  800560:	10000a1e 	bne	r2,zero,80058c <c_implementation+0x10c>
		if (VS_input || VP_output) { // Start PVARP after a ventricular event
  800564:	d0a74f43 	ldbu	r2,-25283(gp)
  800568:	10803fcc 	andi	r2,r2,255
  80056c:	1000031e 	bne	r2,zero,80057c <c_implementation+0xfc>
  800570:	d0a75243 	ldbu	r2,-25271(gp)
  800574:	10803fcc 	andi	r2,r2,255
  800578:	10000c26 	beq	r2,zero,8005ac <c_implementation+0x12c>
			PVARP_timer = 0;
  80057c:	d0274d15 	stw	zero,-25292(gp)
			PVARP_state = 1;
  800580:	00800044 	movi	r2,1
  800584:	d0a748c5 	stb	r2,-25309(gp)
  800588:	00000806 	br	8005ac <c_implementation+0x12c>
		}
	} else {
		if (PVARP_timer < URI_VALUE) {
  80058c:	d0a74d17 	ldw	r2,-25292(gp)
  800590:	1080e108 	cmpgei	r2,r2,900
  800594:	1000031e 	bne	r2,zero,8005a4 <c_implementation+0x124>
			PVARP_timeout = 1;  // outputs a signal that inhibits atrial sensing
  800598:	00800044 	movi	r2,1
  80059c:	d0a74905 	stb	r2,-25308(gp)
  8005a0:	00000206 	br	8005ac <c_implementation+0x12c>
		} else {
			PVARP_timeout = 0; // Allow atrial sensing again
  8005a4:	d0274905 	stb	zero,-25308(gp)
			PVARP_state = 0;
  8005a8:	d02748c5 	stb	zero,-25309(gp)
		}
	}

	// VRP
	// Prevents double counting of ventricular events.
	if (VRP_state == 0) {
  8005ac:	d0a74943 	ldbu	r2,-25307(gp)
  8005b0:	10803fcc 	andi	r2,r2,255
  8005b4:	10000a1e 	bne	r2,zero,8005e0 <c_implementation+0x160>
		if (VS_input || VP_output) { // Start VRP after a ventricular event
  8005b8:	d0a74f43 	ldbu	r2,-25283(gp)
  8005bc:	10803fcc 	andi	r2,r2,255
  8005c0:	1000031e 	bne	r2,zero,8005d0 <c_implementation+0x150>
  8005c4:	d0a75243 	ldbu	r2,-25271(gp)
  8005c8:	10803fcc 	andi	r2,r2,255
  8005cc:	10000c26 	beq	r2,zero,800600 <c_implementation+0x180>
			VRP_timer = 0;
  8005d0:	d0274e15 	stw	zero,-25288(gp)
			VRP_state = 1;
  8005d4:	00800044 	movi	r2,1
  8005d8:	d0a74945 	stb	r2,-25307(gp)
  8005dc:	00000806 	br	800600 <c_implementation+0x180>
		}
	} else {
		if (VRP_timer < URI_VALUE) {
  8005e0:	d0a74e17 	ldw	r2,-25288(gp)
  8005e4:	1080e108 	cmpgei	r2,r2,900
  8005e8:	1000031e 	bne	r2,zero,8005f8 <c_implementation+0x178>
			VRP_timeout = 1; // outputs a signal that inhibits ventricular sensing
  8005ec:	00800044 	movi	r2,1
  8005f0:	d0a74985 	stb	r2,-25306(gp)
  8005f4:	00000206 	br	800600 <c_implementation+0x180>
		} else {
			VRP_timeout = 0; // Allow ventricular sensing again
  8005f8:	d0274985 	stb	zero,-25306(gp)
			VRP_state = 0;
  8005fc:	d0274945 	stb	zero,-25307(gp)
		}
	}

	// AVI
	 // Ensures a delay between an atrial event and a subsequent ventricular pacing event.
	if (AVI_state == 0) {
  800600:	d0a749c3 	ldbu	r2,-25305(gp)
  800604:	10803fcc 	andi	r2,r2,255
  800608:	10000d1e 	bne	r2,zero,800640 <c_implementation+0x1c0>
		if ((AS_input || AP_output) && (!PVARP_timeout)) { // Start AVI on atrial event when not in refractory period
  80060c:	d0a75203 	ldbu	r2,-25272(gp)
  800610:	10803fcc 	andi	r2,r2,255
  800614:	1000031e 	bne	r2,zero,800624 <c_implementation+0x1a4>
  800618:	d0a74f03 	ldbu	r2,-25284(gp)
  80061c:	10803fcc 	andi	r2,r2,255
  800620:	10001526 	beq	r2,zero,800678 <c_implementation+0x1f8>
  800624:	d0a74903 	ldbu	r2,-25308(gp)
  800628:	10803fcc 	andi	r2,r2,255
  80062c:	1000121e 	bne	r2,zero,800678 <c_implementation+0x1f8>
			AVI_timer = 0;
  800630:	d0275015 	stw	zero,-25280(gp)
			AVI_state = 1;
  800634:	00800044 	movi	r2,1
  800638:	d0a749c5 	stb	r2,-25305(gp)
  80063c:	00000e06 	br	800678 <c_implementation+0x1f8>
		}
	} else {
		if (VS_input) {
  800640:	d0a74f43 	ldbu	r2,-25283(gp)
  800644:	10803fcc 	andi	r2,r2,255
  800648:	10000226 	beq	r2,zero,800654 <c_implementation+0x1d4>
			AVI_state = 0; // Cancel AVI if a ventricular sense occurs
  80064c:	d02749c5 	stb	zero,-25305(gp)
  800650:	00000906 	br	800678 <c_implementation+0x1f8>
		} else if ((AVI_timer >= AVI_VALUE) && !URI_timeout) {
  800654:	d0a75017 	ldw	r2,-25280(gp)
  800658:	10804b10 	cmplti	r2,r2,300
  80065c:	1000061e 	bne	r2,zero,800678 <c_implementation+0x1f8>
  800660:	d0a74883 	ldbu	r2,-25310(gp)
  800664:	10803fcc 	andi	r2,r2,255
  800668:	1000031e 	bne	r2,zero,800678 <c_implementation+0x1f8>
			VP_output = 1; // Trigger ventricular pacing if AVI expires and URI is reached
  80066c:	00800044 	movi	r2,1
  800670:	d0a75245 	stb	r2,-25271(gp)
			AVI_state = 0;
  800674:	d02749c5 	stb	zero,-25305(gp)
		}
	}

	// AEI
    // Ensures a delay before triggering atrial pacing if no atrial activity is detected.
	if (AEI_state == 0) {
  800678:	d0a74a03 	ldbu	r2,-25304(gp)
  80067c:	10803fcc 	andi	r2,r2,255
  800680:	10000d1e 	bne	r2,zero,8006b8 <c_implementation+0x238>
		if ((VS_input || VP_output) && (!VRP_timeout)) {  // Start AEI on ventricular event when not in refractory period
  800684:	d0a74f43 	ldbu	r2,-25283(gp)
  800688:	10803fcc 	andi	r2,r2,255
  80068c:	1000031e 	bne	r2,zero,80069c <c_implementation+0x21c>
  800690:	d0a75243 	ldbu	r2,-25271(gp)
  800694:	10803fcc 	andi	r2,r2,255
  800698:	10001226 	beq	r2,zero,8006e4 <c_implementation+0x264>
  80069c:	d0a74983 	ldbu	r2,-25306(gp)
  8006a0:	10803fcc 	andi	r2,r2,255
  8006a4:	10000f1e 	bne	r2,zero,8006e4 <c_implementation+0x264>
			AEI_timer = 0;
  8006a8:	d0274b15 	stw	zero,-25300(gp)
			AEI_state = 1;
  8006ac:	00800044 	movi	r2,1
  8006b0:	d0a74a05 	stb	r2,-25304(gp)
		} else if (AEI_timer >= AEI_VALUE) {
			AP_output = 1; // Trigger atrial pacing if AEI expires
			AEI_state = 0;
		}
	}
}
  8006b4:	00000b06 	br	8006e4 <c_implementation+0x264>
		if ((VS_input || VP_output) && (!VRP_timeout)) {  // Start AEI on ventricular event when not in refractory period
			AEI_timer = 0;
			AEI_state = 1;
		}
	} else {
		if (AS_input) {
  8006b8:	d0a75203 	ldbu	r2,-25272(gp)
  8006bc:	10803fcc 	andi	r2,r2,255
  8006c0:	10000226 	beq	r2,zero,8006cc <c_implementation+0x24c>
			AEI_state = 0;  // Cancel AEI if an atrial sense occurs
  8006c4:	d0274a05 	stb	zero,-25304(gp)
		} else if (AEI_timer >= AEI_VALUE) {
			AP_output = 1; // Trigger atrial pacing if AEI expires
			AEI_state = 0;
		}
	}
}
  8006c8:	00000606 	br	8006e4 <c_implementation+0x264>
			AEI_state = 1;
		}
	} else {
		if (AS_input) {
			AEI_state = 0;  // Cancel AEI if an atrial sense occurs
		} else if (AEI_timer >= AEI_VALUE) {
  8006cc:	d0a74b17 	ldw	r2,-25300(gp)
  8006d0:	1080c810 	cmplti	r2,r2,800
  8006d4:	1000031e 	bne	r2,zero,8006e4 <c_implementation+0x264>
			AP_output = 1; // Trigger atrial pacing if AEI expires
  8006d8:	00800044 	movi	r2,1
  8006dc:	d0a74f05 	stb	r2,-25284(gp)
			AEI_state = 0;
  8006e0:	d0274a05 	stb	zero,-25304(gp)
		}
	}
}
  8006e4:	0001883a 	nop
  8006e8:	e037883a 	mov	sp,fp
  8006ec:	df000017 	ldw	fp,0(sp)
  8006f0:	dec00104 	addi	sp,sp,4
  8006f4:	f800283a 	ret

008006f8 <main>:

int main() {
  8006f8:	deff9f04 	addi	sp,sp,-388
  8006fc:	dfc06015 	stw	ra,384(sp)
  800700:	df005f15 	stw	fp,380(sp)
  800704:	df005f04 	addi	fp,sp,380

	// Variable declarations
    alt_alarm ticker;
    uint64_t systemTime = 0;
  800708:	e03fb015 	stw	zero,-320(fp)
  80070c:	e03fb115 	stw	zero,-316(fp)
    uint64_t prevTime = 0;
  800710:	e03fa215 	stw	zero,-376(fp)
  800714:	e03fa315 	stw	zero,-372(fp)
    uint32_t led_reset = 0x00;
  800718:	e03fa715 	stw	zero,-356(fp)
    uint8_t reset_button = 0;
  80071c:	e03fa405 	stb	zero,-368(fp)

//    unsigned int uiSwitchValue = 0;
    uint8_t rled_output = 0x00;
  800720:	e03fa445 	stb	zero,-367(fp)

    // Create the struct
    TickData data;

    // Initialise
    resetHeartEvents(&data);
  800724:	e0bfb204 	addi	r2,fp,-312
  800728:	1009883a 	mov	r4,r2
  80072c:	080043c0 	call	80043c <resetHeartEvents>
    reset(&data);
  800730:	e0bfb204 	addi	r2,fp,-312
  800734:	1009883a 	mov	r4,r2
  800738:	0804c080 	call	804c08 <reset>
    tick(&data);
  80073c:	e0bfb204 	addi	r2,fp,-312
  800740:	1009883a 	mov	r4,r2
  800744:	0804e280 	call	804e28 <tick>

    uart_init();
  800748:	08003880 	call	800388 <uart_init>

    // Initialize the system time
    void* timerContext = (void*)&systemTime;
  80074c:	e0bfb004 	addi	r2,fp,-320
  800750:	e0bfa815 	stw	r2,-352(fp)
    alt_alarm_start(&ticker, 1, timerISR, timerContext);
  800754:	e0bfaa04 	addi	r2,fp,-344
  800758:	e1ffa817 	ldw	r7,-352(fp)
  80075c:	01802034 	movhi	r6,128
  800760:	3180a404 	addi	r6,r6,656
  800764:	01400044 	movi	r5,1
  800768:	1009883a 	mov	r4,r2
  80076c:	08119300 	call	811930 <alt_alarm_start>

    // Reset leds when starting
    IOWR_ALTERA_AVALON_PIO_DATA(LEDS_GREEN_BASE, led_reset);
  800770:	e0ffa717 	ldw	r3,-356(fp)
  800774:	00804074 	movhi	r2,257
  800778:	10841c04 	addi	r2,r2,4208
  80077c:	10c00035 	stwio	r3,0(r2)

    while (1) {

    	// read switches
    	uint8_t mode = (IORD_ALTERA_AVALON_PIO_DATA(SWITCHES_BASE) & (1 << 0)) ? 1 : 0;
  800780:	00804074 	movhi	r2,257
  800784:	10842404 	addi	r2,r2,4240
  800788:	10800037 	ldwio	r2,0(r2)
  80078c:	1080004c 	andi	r2,r2,1
  800790:	1004c03a 	cmpne	r2,r2,zero
  800794:	e0bfa905 	stb	r2,-348(fp)
    	uint8_t implementation = (IORD_ALTERA_AVALON_PIO_DATA(SWITCHES_BASE) & (1 << 1)) ? 1 : 0;
  800798:	00804074 	movhi	r2,257
  80079c:	10842404 	addi	r2,r2,4240
  8007a0:	10800037 	ldwio	r2,0(r2)
  8007a4:	1080008c 	andi	r2,r2,2
  8007a8:	1004c03a 	cmpne	r2,r2,zero
  8007ac:	e0bfa945 	stb	r2,-347(fp)

    	if (mode == 0) {
  8007b0:	e0bfa903 	ldbu	r2,-348(fp)
  8007b4:	1000371e 	bne	r2,zero,800894 <main+0x19c>

    		// Set reset variable when reset button press is detected
    		if (~IORD_ALTERA_AVALON_PIO_DATA(KEYS_BASE) & (1 << 2)) {
  8007b8:	00804074 	movhi	r2,257
  8007bc:	10842804 	addi	r2,r2,4256
  8007c0:	10800037 	ldwio	r2,0(r2)
  8007c4:	1080010c 	andi	r2,r2,4
  8007c8:	1000021e 	bne	r2,zero,8007d4 <main+0xdc>
    			reset_button = 1;
  8007cc:	00800044 	movi	r2,1
  8007d0:	e0bfa405 	stb	r2,-368(fp)
    		}

    		// If reset is active reset leds and wait for heart sense input again
    		if (reset_button) {
  8007d4:	e0bfa403 	ldbu	r2,-368(fp)
  8007d8:	10001826 	beq	r2,zero,80083c <main+0x144>
    			IOWR_ALTERA_AVALON_PIO_DATA(LEDS_GREEN_BASE, led_reset);
  8007dc:	e0ffa717 	ldw	r3,-356(fp)
  8007e0:	00804074 	movhi	r2,257
  8007e4:	10841c04 	addi	r2,r2,4208
  8007e8:	10c00035 	stwio	r3,0(r2)
    			IOWR_ALTERA_AVALON_PIO_DATA(LEDS_RED_BASE, 0x08);
  8007ec:	00c00204 	movi	r3,8
  8007f0:	00804074 	movhi	r2,257
  8007f4:	10842004 	addi	r2,r2,4224
  8007f8:	10c00035 	stwio	r3,0(r2)
    			if ((~IORD_ALTERA_AVALON_PIO_DATA(KEYS_BASE) & (1 << 1)) ||
  8007fc:	00804074 	movhi	r2,257
  800800:	10842804 	addi	r2,r2,4256
  800804:	10800037 	ldwio	r2,0(r2)
  800808:	1080008c 	andi	r2,r2,2
  80080c:	10000526 	beq	r2,zero,800824 <main+0x12c>
    				(~IORD_ALTERA_AVALON_PIO_DATA(KEYS_BASE) & (1 << 0))) {
  800810:	00804074 	movhi	r2,257
  800814:	10842804 	addi	r2,r2,4256
  800818:	10800037 	ldwio	r2,0(r2)
  80081c:	1080004c 	andi	r2,r2,1

    		// If reset is active reset leds and wait for heart sense input again
    		if (reset_button) {
    			IOWR_ALTERA_AVALON_PIO_DATA(LEDS_GREEN_BASE, led_reset);
    			IOWR_ALTERA_AVALON_PIO_DATA(LEDS_RED_BASE, 0x08);
    			if ((~IORD_ALTERA_AVALON_PIO_DATA(KEYS_BASE) & (1 << 1)) ||
  800820:	1000d41e 	bne	r2,zero,800b74 <main+0x47c>
    				(~IORD_ALTERA_AVALON_PIO_DATA(KEYS_BASE) & (1 << 0))) {
    				reset_button = 0;
  800824:	e03fa405 	stb	zero,-368(fp)
    				IOWR_ALTERA_AVALON_PIO_DATA(LEDS_RED_BASE, led_reset);
  800828:	e0ffa717 	ldw	r3,-356(fp)
  80082c:	00804074 	movhi	r2,257
  800830:	10842004 	addi	r2,r2,4224
  800834:	10c00035 	stwio	r3,0(r2)
    			}
    			continue; // skip rest of the loop until input is detected
  800838:	0000ce06 	br	800b74 <main+0x47c>
    		}

    		rled_output = (rled_output & ~0x01) | 0x02;
  80083c:	e0ffa443 	ldbu	r3,-367(fp)
  800840:	00bfff04 	movi	r2,-4
  800844:	1884703a 	and	r2,r3,r2
  800848:	10800094 	ori	r2,r2,2
  80084c:	e0bfa445 	stb	r2,-367(fp)
    		IOWR_ALTERA_AVALON_PIO_DATA(LEDS_RED_BASE, rled_output);
  800850:	e0ffa443 	ldbu	r3,-367(fp)
  800854:	00804074 	movhi	r2,257
  800858:	10842004 	addi	r2,r2,4224
  80085c:	10c00035 	stwio	r3,0(r2)

    		// Fetch button inputs (active low, so invert the bits)
    		AS_input = (~IORD_ALTERA_AVALON_PIO_DATA(KEYS_BASE) & (1 << 1)) ? 1 : 0;
  800860:	00804074 	movhi	r2,257
  800864:	10842804 	addi	r2,r2,4256
  800868:	10800037 	ldwio	r2,0(r2)
  80086c:	1080008c 	andi	r2,r2,2
  800870:	1005003a 	cmpeq	r2,r2,zero
  800874:	d0a75205 	stb	r2,-25272(gp)
    		VS_input = (~IORD_ALTERA_AVALON_PIO_DATA(KEYS_BASE) & (1 << 0)) ? 1 : 0;
  800878:	00804074 	movhi	r2,257
  80087c:	10842804 	addi	r2,r2,4256
  800880:	10800037 	ldwio	r2,0(r2)
  800884:	1080004c 	andi	r2,r2,1
  800888:	1005003a 	cmpeq	r2,r2,zero
  80088c:	d0a74f45 	stb	r2,-25283(gp)
  800890:	00000d06 	br	8008c8 <main+0x1d0>

    	}

    	else {
    			// set switch led to output when on
				rled_output |= 0x01;
  800894:	e0bfa443 	ldbu	r2,-367(fp)
  800898:	10800054 	ori	r2,r2,1
  80089c:	e0bfa445 	stb	r2,-367(fp)
				IOWR_ALTERA_AVALON_PIO_DATA(LEDS_RED_BASE, rled_output);
  8008a0:	e0ffa443 	ldbu	r3,-367(fp)
  8008a4:	00804074 	movhi	r2,257
  8008a8:	10842004 	addi	r2,r2,4224
  8008ac:	10c00035 	stwio	r3,0(r2)

				// assign temp variables to input when in uart mode
				AS_input = AS_temp;
  8008b0:	d0a75403 	ldbu	r2,-25264(gp)
  8008b4:	d0a75205 	stb	r2,-25272(gp)
				VS_input = VS_temp;
  8008b8:	d0a74c03 	ldbu	r2,-25296(gp)
  8008bc:	d0a74f45 	stb	r2,-25283(gp)

				// reset temo variables
				AS_temp = 0;
  8008c0:	d0275405 	stb	zero,-25264(gp)
				VS_temp = 0;
  8008c4:	d0274c05 	stb	zero,-25296(gp)
    	    	}

    	if(implementation == 0) {
  8008c8:	e0bfa943 	ldbu	r2,-347(fp)
  8008cc:	1000671e 	bne	r2,zero,800a6c <main+0x374>

    		//reset leds
    		rled_output = (rled_output & ~0x02);
  8008d0:	e0ffa443 	ldbu	r3,-367(fp)
  8008d4:	00bfff44 	movi	r2,-3
  8008d8:	1884703a 	and	r2,r3,r2
  8008dc:	e0bfa445 	stb	r2,-367(fp)
			IOWR_ALTERA_AVALON_PIO_DATA(LEDS_RED_BASE, rled_output);
  8008e0:	e0ffa443 	ldbu	r3,-367(fp)
  8008e4:	00804074 	movhi	r2,257
  8008e8:	10842004 	addi	r2,r2,4224
  8008ec:	10c00035 	stwio	r3,0(r2)
    		IOWR_ALTERA_AVALON_PIO_DATA(LEDS_GREEN_BASE, led_reset);
  8008f0:	e0ffa717 	ldw	r3,-356(fp)
  8008f4:	00804074 	movhi	r2,257
  8008f8:	10841c04 	addi	r2,r2,4208
  8008fc:	10c00035 	stwio	r3,0(r2)


    		// set input to scchart variables
    		data.AS = AS_input;
  800900:	d0a75203 	ldbu	r2,-25272(gp)
  800904:	e0bfc805 	stb	r2,-224(fp)
    		data.VS = VS_input;
  800908:	d0a74f43 	ldbu	r2,-25283(gp)
  80090c:	e0bfc845 	stb	r2,-223(fp)

        	// Move ticker along
    		data.deltaT = systemTime - prevTime;
  800910:	e13fb017 	ldw	r4,-320(fp)
  800914:	e17fb117 	ldw	r5,-316(fp)
  800918:	e1bfa217 	ldw	r6,-376(fp)
  80091c:	e1ffa317 	ldw	r7,-372(fp)
  800920:	2185c83a 	sub	r2,r4,r6
  800924:	2091803a 	cmpltu	r8,r4,r2
  800928:	29c7c83a 	sub	r3,r5,r7
  80092c:	1a09c83a 	sub	r4,r3,r8
  800930:	2007883a 	mov	r3,r4
  800934:	100b883a 	mov	r5,r2
  800938:	180d883a 	mov	r6,r3
  80093c:	2809883a 	mov	r4,r5
  800940:	300b883a 	mov	r5,r6
  800944:	08050740 	call	805074 <__floatundidf>
  800948:	1009883a 	mov	r4,r2
  80094c:	180b883a 	mov	r5,r3
  800950:	e13fc415 	stw	r4,-240(fp)
  800954:	e17fc515 	stw	r5,-236(fp)
    		prevTime = systemTime;
  800958:	e0bfb017 	ldw	r2,-320(fp)
  80095c:	e0bfa215 	stw	r2,-376(fp)
  800960:	e0bfb117 	ldw	r2,-316(fp)
  800964:	e0bfa315 	stw	r2,-372(fp)
    		tick(&data);
  800968:	e0bfb204 	addi	r2,fp,-312
  80096c:	1009883a 	mov	r4,r2
  800970:	0804e280 	call	804e28 <tick>

    		// LED output based on AP and VP
    		uint32_t gled_output = 0x00;
  800974:	e03fa515 	stw	zero,-364(fp)
    		if (data.VP) {
  800978:	e0bfc8c3 	ldbu	r2,-221(fp)
  80097c:	10803fcc 	andi	r2,r2,255
  800980:	1080201c 	xori	r2,r2,128
  800984:	10bfe004 	addi	r2,r2,-128
  800988:	10000526 	beq	r2,zero,8009a0 <main+0x2a8>
    			gled_output |= 0x01;
  80098c:	e0bfa517 	ldw	r2,-364(fp)
  800990:	10800054 	ori	r2,r2,1
  800994:	e0bfa515 	stw	r2,-364(fp)
    			send_uart('V'); // VP -> LED 0
  800998:	01001584 	movi	r4,86
  80099c:	08003ec0 	call	8003ec <send_uart>
    		}
    		if (data.AP) {
  8009a0:	e0bfc883 	ldbu	r2,-222(fp)
  8009a4:	10803fcc 	andi	r2,r2,255
  8009a8:	1080201c 	xori	r2,r2,128
  8009ac:	10bfe004 	addi	r2,r2,-128
  8009b0:	10000526 	beq	r2,zero,8009c8 <main+0x2d0>
    			gled_output |= 0x04;
  8009b4:	e0bfa517 	ldw	r2,-364(fp)
  8009b8:	10800114 	ori	r2,r2,4
  8009bc:	e0bfa515 	stw	r2,-364(fp)
    			send_uart('A'); // AP -> LED 2
  8009c0:	01001044 	movi	r4,65
  8009c4:	08003ec0 	call	8003ec <send_uart>
    		}
    		IOWR_ALTERA_AVALON_PIO_DATA(LEDS_GREEN_BASE, gled_output);
  8009c8:	e0ffa517 	ldw	r3,-364(fp)
  8009cc:	00804074 	movhi	r2,257
  8009d0:	10841c04 	addi	r2,r2,4208
  8009d4:	10c00035 	stwio	r3,0(r2)

    		// Short delay to make LED flashes visible
    		for (volatile int i = 0; i < 100000; i++);
  8009d8:	e03ffe15 	stw	zero,-8(fp)
  8009dc:	00000306 	br	8009ec <main+0x2f4>
  8009e0:	e0bffe17 	ldw	r2,-8(fp)
  8009e4:	10800044 	addi	r2,r2,1
  8009e8:	e0bffe15 	stw	r2,-8(fp)
  8009ec:	e0fffe17 	ldw	r3,-8(fp)
  8009f0:	008000b4 	movhi	r2,2
  8009f4:	10a1a7c4 	addi	r2,r2,-31073
  8009f8:	10fff90e 	bge	r2,r3,8009e0 <__alt_mem_onchip_mem+0xff7f89e0>

    		// Reset leds
    		IOWR_ALTERA_AVALON_PIO_DATA(LEDS_GREEN_BASE, led_reset);
  8009fc:	e0ffa717 	ldw	r3,-356(fp)
  800a00:	00804074 	movhi	r2,257
  800a04:	10841c04 	addi	r2,r2,4208
  800a08:	10c00035 	stwio	r3,0(r2)

    		 // Print the state to console
    		 printf("SCCHART - AS: %d, VS: %d, AP: %d, VP: %d\n", data.AS, data.VS, data.AP, data.VP);
  800a0c:	e0bfc803 	ldbu	r2,-224(fp)
  800a10:	10c03fcc 	andi	r3,r2,255
  800a14:	18c0201c 	xori	r3,r3,128
  800a18:	18ffe004 	addi	r3,r3,-128
  800a1c:	e0bfc843 	ldbu	r2,-223(fp)
  800a20:	11003fcc 	andi	r4,r2,255
  800a24:	2100201c 	xori	r4,r4,128
  800a28:	213fe004 	addi	r4,r4,-128
  800a2c:	e0bfc883 	ldbu	r2,-222(fp)
  800a30:	11403fcc 	andi	r5,r2,255
  800a34:	2940201c 	xori	r5,r5,128
  800a38:	297fe004 	addi	r5,r5,-128
  800a3c:	e0bfc8c3 	ldbu	r2,-221(fp)
  800a40:	10803fcc 	andi	r2,r2,255
  800a44:	1080201c 	xori	r2,r2,128
  800a48:	10bfe004 	addi	r2,r2,-128
  800a4c:	d8800015 	stw	r2,0(sp)
  800a50:	280f883a 	mov	r7,r5
  800a54:	200d883a 	mov	r6,r4
  800a58:	180b883a 	mov	r5,r3
  800a5c:	01002074 	movhi	r4,129
  800a60:	21169404 	addi	r4,r4,23120
  800a64:	0806d8c0 	call	806d8c <printf>
  800a68:	00003f06 	br	800b68 <main+0x470>

    	}

    	else {
    		c_implementation();
  800a6c:	08004800 	call	800480 <c_implementation>

    		// set switch led to output when on
    		rled_output |= 0x02;
  800a70:	e0bfa443 	ldbu	r2,-367(fp)
  800a74:	10800094 	ori	r2,r2,2
  800a78:	e0bfa445 	stb	r2,-367(fp)

    		// reset leds
			IOWR_ALTERA_AVALON_PIO_DATA(LEDS_RED_BASE, rled_output);
  800a7c:	e0ffa443 	ldbu	r3,-367(fp)
  800a80:	00804074 	movhi	r2,257
  800a84:	10842004 	addi	r2,r2,4224
  800a88:	10c00035 	stwio	r3,0(r2)
    		IOWR_ALTERA_AVALON_PIO_DATA(LEDS_GREEN_BASE, led_reset);
  800a8c:	e0ffa717 	ldw	r3,-356(fp)
  800a90:	00804074 	movhi	r2,257
  800a94:	10841c04 	addi	r2,r2,4208
  800a98:	10c00035 	stwio	r3,0(r2)

    		// print to console
    		printf("C - AS: %d, VS: %d, AP: %d, VP: %d\n", AS_input, VS_input, AP_output, VP_output);
  800a9c:	d0a75203 	ldbu	r2,-25272(gp)
  800aa0:	10c03fcc 	andi	r3,r2,255
  800aa4:	d0a74f43 	ldbu	r2,-25283(gp)
  800aa8:	11003fcc 	andi	r4,r2,255
  800aac:	d0a74f03 	ldbu	r2,-25284(gp)
  800ab0:	11403fcc 	andi	r5,r2,255
  800ab4:	d0a75243 	ldbu	r2,-25271(gp)
  800ab8:	10803fcc 	andi	r2,r2,255
  800abc:	d8800015 	stw	r2,0(sp)
  800ac0:	280f883a 	mov	r7,r5
  800ac4:	200d883a 	mov	r6,r4
  800ac8:	180b883a 	mov	r5,r3
  800acc:	01002074 	movhi	r4,129
  800ad0:	21169f04 	addi	r4,r4,23164
  800ad4:	0806d8c0 	call	806d8c <printf>

    		// LED output based on AP and VP
    		uint32_t gled_output = 0x00;
  800ad8:	e03fa615 	stw	zero,-360(fp)
    		if (VP_output) {
  800adc:	d0a75243 	ldbu	r2,-25271(gp)
  800ae0:	10803fcc 	andi	r2,r2,255
  800ae4:	10000626 	beq	r2,zero,800b00 <main+0x408>
				gled_output |= 0x01;
  800ae8:	e0bfa617 	ldw	r2,-360(fp)
  800aec:	10800054 	ori	r2,r2,1
  800af0:	e0bfa615 	stw	r2,-360(fp)
				send_uart('V');
  800af4:	01001584 	movi	r4,86
  800af8:	08003ec0 	call	8003ec <send_uart>
				VP_output = 0;// VP -> LED 0
  800afc:	d0275245 	stb	zero,-25271(gp)
			}
			if (AP_output) {
  800b00:	d0a74f03 	ldbu	r2,-25284(gp)
  800b04:	10803fcc 	andi	r2,r2,255
  800b08:	10000626 	beq	r2,zero,800b24 <main+0x42c>
				gled_output |= 0x04;
  800b0c:	e0bfa617 	ldw	r2,-360(fp)
  800b10:	10800114 	ori	r2,r2,4
  800b14:	e0bfa615 	stw	r2,-360(fp)
				send_uart('A');
  800b18:	01001044 	movi	r4,65
  800b1c:	08003ec0 	call	8003ec <send_uart>
				AP_output = 0;// AP -> LED 2
  800b20:	d0274f05 	stb	zero,-25284(gp)
			}
			IOWR_ALTERA_AVALON_PIO_DATA(LEDS_GREEN_BASE, gled_output);
  800b24:	e0ffa617 	ldw	r3,-360(fp)
  800b28:	00804074 	movhi	r2,257
  800b2c:	10841c04 	addi	r2,r2,4208
  800b30:	10c00035 	stwio	r3,0(r2)

			// Short delay to make LED flashes visible
			for (volatile int i = 0; i < 100000; i++);
  800b34:	e03fff15 	stw	zero,-4(fp)
  800b38:	00000306 	br	800b48 <main+0x450>
  800b3c:	e0bfff17 	ldw	r2,-4(fp)
  800b40:	10800044 	addi	r2,r2,1
  800b44:	e0bfff15 	stw	r2,-4(fp)
  800b48:	e0ffff17 	ldw	r3,-4(fp)
  800b4c:	008000b4 	movhi	r2,2
  800b50:	10a1a7c4 	addi	r2,r2,-31073
  800b54:	10fff90e 	bge	r2,r3,800b3c <__alt_mem_onchip_mem+0xff7f8b3c>

			// Reset leds
			IOWR_ALTERA_AVALON_PIO_DATA(LEDS_GREEN_BASE, led_reset);
  800b58:	e0ffa717 	ldw	r3,-356(fp)
  800b5c:	00804074 	movhi	r2,257
  800b60:	10841c04 	addi	r2,r2,4208
  800b64:	10c00035 	stwio	r3,0(r2)
    	}

    	//reset inputs
    	AS_input = 0;
  800b68:	d0275205 	stb	zero,-25272(gp)
    	VS_input = 0;
  800b6c:	d0274f45 	stb	zero,-25283(gp)
  800b70:	003f0306 	br	800780 <__alt_mem_onchip_mem+0xff7f8780>
    			if ((~IORD_ALTERA_AVALON_PIO_DATA(KEYS_BASE) & (1 << 1)) ||
    				(~IORD_ALTERA_AVALON_PIO_DATA(KEYS_BASE) & (1 << 0))) {
    				reset_button = 0;
    				IOWR_ALTERA_AVALON_PIO_DATA(LEDS_RED_BASE, led_reset);
    			}
    			continue; // skip rest of the loop until input is detected
  800b74:	0001883a 	nop
    	}

    	//reset inputs
    	AS_input = 0;
    	VS_input = 0;
    }
  800b78:	003f0106 	br	800780 <__alt_mem_onchip_mem+0xff7f8780>

00800b7c <logic>:
#include "timing.h"
#include <stdio.h>

#include "sccharts.h"

void logic(TickData* d) {
  800b7c:	defffa04 	addi	sp,sp,-24
  800b80:	dfc00515 	stw	ra,20(sp)
  800b84:	df000415 	stw	fp,16(sp)
  800b88:	dc800315 	stw	r18,12(sp)
  800b8c:	dc400215 	stw	r17,8(sp)
  800b90:	dc000115 	stw	r16,4(sp)
  800b94:	df000404 	addi	fp,sp,16
  800b98:	e13ffc15 	stw	r4,-16(fp)
  d->AP = 0;
  800b9c:	e0bffc17 	ldw	r2,-16(fp)
  800ba0:	10001685 	stb	zero,90(r2)
  d->VP = 0;
  800ba4:	e0bffc17 	ldw	r2,-16(fp)
  800ba8:	100016c5 	stb	zero,91(r2)
  d->v_event = 0;
  800bac:	e0bffc17 	ldw	r2,-16(fp)
  800bb0:	10001705 	stb	zero,92(r2)
  d->a_event = 0;
  800bb4:	e0bffc17 	ldw	r2,-16(fp)
  800bb8:	10001745 	stb	zero,93(r2)
  d->URI_timeout = 0;
  800bbc:	e0bffc17 	ldw	r2,-16(fp)
  800bc0:	10001785 	stb	zero,94(r2)
  d->_g15 = d->_pg7;
  800bc4:	e0bffc17 	ldw	r2,-16(fp)
  800bc8:	10c043c3 	ldbu	r3,271(r2)
  800bcc:	e0bffc17 	ldw	r2,-16(fp)
  800bd0:	10c01d45 	stb	r3,117(r2)
  d->_g9 = d->_pg25;
  800bd4:	e0bffc17 	ldw	r2,-16(fp)
  800bd8:	10c04403 	ldbu	r3,272(r2)
  800bdc:	e0bffc17 	ldw	r2,-16(fp)
  800be0:	10c01c05 	stb	r3,112(r2)
  d->_g12_e1 = !(d->_g15 || d->_g9);
  800be4:	e0bffc17 	ldw	r2,-16(fp)
  800be8:	10801d43 	ldbu	r2,117(r2)
  800bec:	10803fcc 	andi	r2,r2,255
  800bf0:	1080201c 	xori	r2,r2,128
  800bf4:	10bfe004 	addi	r2,r2,-128
  800bf8:	1000081e 	bne	r2,zero,800c1c <logic+0xa0>
  800bfc:	e0bffc17 	ldw	r2,-16(fp)
  800c00:	10801c03 	ldbu	r2,112(r2)
  800c04:	10803fcc 	andi	r2,r2,255
  800c08:	1080201c 	xori	r2,r2,128
  800c0c:	10bfe004 	addi	r2,r2,-128
  800c10:	1000021e 	bne	r2,zero,800c1c <logic+0xa0>
  800c14:	00800044 	movi	r2,1
  800c18:	00000106 	br	800c20 <logic+0xa4>
  800c1c:	0005883a 	mov	r2,zero
  800c20:	1007883a 	mov	r3,r2
  800c24:	e0bffc17 	ldw	r2,-16(fp)
  800c28:	10c04045 	stb	r3,257(r2)
  d->_pre_v_event = d->_reg_v_event;
  800c2c:	e0bffc17 	ldw	r2,-16(fp)
  800c30:	10c01843 	ldbu	r3,97(r2)
  800c34:	e0bffc17 	ldw	r2,-16(fp)
  800c38:	10c01885 	stb	r3,98(r2)
  d->_g19 = d->_pg16;
  800c3c:	e0bffc17 	ldw	r2,-16(fp)
  800c40:	10c04443 	ldbu	r3,273(r2)
  800c44:	e0bffc17 	ldw	r2,-16(fp)
  800c48:	10c01dc5 	stb	r3,119(r2)
  d->_cg19 = d->_pre_v_event;
  800c4c:	e0bffc17 	ldw	r2,-16(fp)
  800c50:	10c01883 	ldbu	r3,98(r2)
  800c54:	e0bffc17 	ldw	r2,-16(fp)
  800c58:	10c03685 	stb	r3,218(r2)
  d->_g20 = d->_g19 && d->_cg19;
  800c5c:	e0bffc17 	ldw	r2,-16(fp)
  800c60:	10801dc3 	ldbu	r2,119(r2)
  800c64:	10803fcc 	andi	r2,r2,255
  800c68:	1080201c 	xori	r2,r2,128
  800c6c:	10bfe004 	addi	r2,r2,-128
  800c70:	10000826 	beq	r2,zero,800c94 <logic+0x118>
  800c74:	e0bffc17 	ldw	r2,-16(fp)
  800c78:	10803683 	ldbu	r2,218(r2)
  800c7c:	10803fcc 	andi	r2,r2,255
  800c80:	1080201c 	xori	r2,r2,128
  800c84:	10bfe004 	addi	r2,r2,-128
  800c88:	10000226 	beq	r2,zero,800c94 <logic+0x118>
  800c8c:	00800044 	movi	r2,1
  800c90:	00000106 	br	800c98 <logic+0x11c>
  800c94:	0005883a 	mov	r2,zero
  800c98:	1007883a 	mov	r3,r2
  800c9c:	e0bffc17 	ldw	r2,-16(fp)
  800ca0:	10c01e05 	stb	r3,120(r2)
  if (d->_g20) {
  800ca4:	e0bffc17 	ldw	r2,-16(fp)
  800ca8:	10801e03 	ldbu	r2,120(r2)
  800cac:	10803fcc 	andi	r2,r2,255
  800cb0:	1080201c 	xori	r2,r2,128
  800cb4:	10bfe004 	addi	r2,r2,-128
  800cb8:	10000326 	beq	r2,zero,800cc8 <logic+0x14c>
    d->_Pacemaker_local__Atrig = 1;
  800cbc:	e0bffc17 	ldw	r2,-16(fp)
  800cc0:	00c00044 	movi	r3,1
  800cc4:	10c018c5 	stb	r3,99(r2)
  }
  d->_g150 = d->_pg121;
  800cc8:	e0bffc17 	ldw	r2,-16(fp)
  800ccc:	10c04483 	ldbu	r3,274(r2)
  800cd0:	e0bffc17 	ldw	r2,-16(fp)
  800cd4:	10c03345 	stb	r3,205(r2)
  if (d->_g150) {
  800cd8:	e0bffc17 	ldw	r2,-16(fp)
  800cdc:	10803343 	ldbu	r2,205(r2)
  800ce0:	10803fcc 	andi	r2,r2,255
  800ce4:	1080201c 	xori	r2,r2,128
  800ce8:	10bfe004 	addi	r2,r2,-128
  800cec:	10001226 	beq	r2,zero,800d38 <logic+0x1bc>
    d->_region0_LRI_x += d->deltaT;
  800cf0:	e13ffc17 	ldw	r4,-16(fp)
  800cf4:	20800617 	ldw	r2,24(r4)
  800cf8:	20c00717 	ldw	r3,28(r4)
  800cfc:	e1bffc17 	ldw	r6,-16(fp)
  800d00:	31001217 	ldw	r4,72(r6)
  800d04:	31401317 	ldw	r5,76(r6)
  800d08:	200d883a 	mov	r6,r4
  800d0c:	280f883a 	mov	r7,r5
  800d10:	1009883a 	mov	r4,r2
  800d14:	180b883a 	mov	r5,r3
  800d18:	08050e40 	call	8050e4 <__adddf3>
  800d1c:	1009883a 	mov	r4,r2
  800d20:	180b883a 	mov	r5,r3
  800d24:	2005883a 	mov	r2,r4
  800d28:	2807883a 	mov	r3,r5
  800d2c:	e13ffc17 	ldw	r4,-16(fp)
  800d30:	20800615 	stw	r2,24(r4)
  800d34:	20c00715 	stw	r3,28(r4)
  }
  d->_g22 = d->_g19 && !d->_cg19;
  800d38:	e0bffc17 	ldw	r2,-16(fp)
  800d3c:	10801dc3 	ldbu	r2,119(r2)
  800d40:	10803fcc 	andi	r2,r2,255
  800d44:	1080201c 	xori	r2,r2,128
  800d48:	10bfe004 	addi	r2,r2,-128
  800d4c:	10000826 	beq	r2,zero,800d70 <logic+0x1f4>
  800d50:	e0bffc17 	ldw	r2,-16(fp)
  800d54:	10803683 	ldbu	r2,218(r2)
  800d58:	10803fcc 	andi	r2,r2,255
  800d5c:	1080201c 	xori	r2,r2,128
  800d60:	10bfe004 	addi	r2,r2,-128
  800d64:	1000021e 	bne	r2,zero,800d70 <logic+0x1f4>
  800d68:	00800044 	movi	r2,1
  800d6c:	00000106 	br	800d74 <logic+0x1f8>
  800d70:	0005883a 	mov	r2,zero
  800d74:	1007883a 	mov	r3,r2
  800d78:	e0bffc17 	ldw	r2,-16(fp)
  800d7c:	10c01e85 	stb	r3,122(r2)
  d->_cg22 = d->_region0_LRI_x >= d->LRI;
  800d80:	e0bffc17 	ldw	r2,-16(fp)
  800d84:	14000617 	ldw	r16,24(r2)
  800d88:	14400717 	ldw	r17,28(r2)
  800d8c:	e0bffc17 	ldw	r2,-16(fp)
  800d90:	10800417 	ldw	r2,16(r2)
  800d94:	1009883a 	mov	r4,r2
  800d98:	0806b740 	call	806b74 <__floatsidf>
  800d9c:	1009883a 	mov	r4,r2
  800da0:	180b883a 	mov	r5,r3
  800da4:	04800044 	movi	r18,1
  800da8:	200d883a 	mov	r6,r4
  800dac:	280f883a 	mov	r7,r5
  800db0:	8009883a 	mov	r4,r16
  800db4:	880b883a 	mov	r5,r17
  800db8:	08059900 	call	805990 <__gedf2>
  800dbc:	1000010e 	bge	r2,zero,800dc4 <logic+0x248>
  800dc0:	0025883a 	mov	r18,zero
  800dc4:	9007883a 	mov	r3,r18
  800dc8:	e0bffc17 	ldw	r2,-16(fp)
  800dcc:	10c03645 	stb	r3,217(r2)
  d->_g23 = d->_g22 && d->_cg22;
  800dd0:	e0bffc17 	ldw	r2,-16(fp)
  800dd4:	10801e83 	ldbu	r2,122(r2)
  800dd8:	10803fcc 	andi	r2,r2,255
  800ddc:	1080201c 	xori	r2,r2,128
  800de0:	10bfe004 	addi	r2,r2,-128
  800de4:	10000826 	beq	r2,zero,800e08 <logic+0x28c>
  800de8:	e0bffc17 	ldw	r2,-16(fp)
  800dec:	10803643 	ldbu	r2,217(r2)
  800df0:	10803fcc 	andi	r2,r2,255
  800df4:	1080201c 	xori	r2,r2,128
  800df8:	10bfe004 	addi	r2,r2,-128
  800dfc:	10000226 	beq	r2,zero,800e08 <logic+0x28c>
  800e00:	00800044 	movi	r2,1
  800e04:	00000106 	br	800e0c <logic+0x290>
  800e08:	0005883a 	mov	r2,zero
  800e0c:	1007883a 	mov	r3,r2
  800e10:	e0bffc17 	ldw	r2,-16(fp)
  800e14:	10c01ec5 	stb	r3,123(r2)
  if (d->_g23) {
  800e18:	e0bffc17 	ldw	r2,-16(fp)
  800e1c:	10801ec3 	ldbu	r2,123(r2)
  800e20:	10803fcc 	andi	r2,r2,255
  800e24:	1080201c 	xori	r2,r2,128
  800e28:	10bfe004 	addi	r2,r2,-128
  800e2c:	10000326 	beq	r2,zero,800e3c <logic+0x2c0>
    d->_Pacemaker_local__Atrig1 = 1;
  800e30:	e0bffc17 	ldw	r2,-16(fp)
  800e34:	00c00044 	movi	r3,1
  800e38:	10c01905 	stb	r3,100(r2)
  }
  d->sleepT = 1000.0;
  800e3c:	e0fffc17 	ldw	r3,-16(fp)
  800e40:	18001415 	stw	zero,80(r3)
  800e44:	009023f4 	movhi	r2,16527
  800e48:	10900004 	addi	r2,r2,16384
  800e4c:	18801515 	stw	r2,84(r3)
  d->_g15 = d->_g9 || d->_g15;
  800e50:	e0bffc17 	ldw	r2,-16(fp)
  800e54:	10801c03 	ldbu	r2,112(r2)
  800e58:	10803fcc 	andi	r2,r2,255
  800e5c:	1080201c 	xori	r2,r2,128
  800e60:	10bfe004 	addi	r2,r2,-128
  800e64:	1000061e 	bne	r2,zero,800e80 <logic+0x304>
  800e68:	e0bffc17 	ldw	r2,-16(fp)
  800e6c:	10801d43 	ldbu	r2,117(r2)
  800e70:	10803fcc 	andi	r2,r2,255
  800e74:	1080201c 	xori	r2,r2,128
  800e78:	10bfe004 	addi	r2,r2,-128
  800e7c:	10000226 	beq	r2,zero,800e88 <logic+0x30c>
  800e80:	00800044 	movi	r2,1
  800e84:	00000106 	br	800e8c <logic+0x310>
  800e88:	0005883a 	mov	r2,zero
  800e8c:	1007883a 	mov	r3,r2
  800e90:	e0bffc17 	ldw	r2,-16(fp)
  800e94:	10c01d45 	stb	r3,117(r2)
  d->_cg10 = d->_region0_LRI_x < d->LRI;
  800e98:	e0bffc17 	ldw	r2,-16(fp)
  800e9c:	14000617 	ldw	r16,24(r2)
  800ea0:	14400717 	ldw	r17,28(r2)
  800ea4:	e0bffc17 	ldw	r2,-16(fp)
  800ea8:	10800417 	ldw	r2,16(r2)
  800eac:	1009883a 	mov	r4,r2
  800eb0:	0806b740 	call	806b74 <__floatsidf>
  800eb4:	1009883a 	mov	r4,r2
  800eb8:	180b883a 	mov	r5,r3
  800ebc:	04800044 	movi	r18,1
  800ec0:	200d883a 	mov	r6,r4
  800ec4:	280f883a 	mov	r7,r5
  800ec8:	8009883a 	mov	r4,r16
  800ecc:	880b883a 	mov	r5,r17
  800ed0:	0805a6c0 	call	805a6c <__ledf2>
  800ed4:	10000116 	blt	r2,zero,800edc <logic+0x360>
  800ed8:	0025883a 	mov	r18,zero
  800edc:	9007883a 	mov	r3,r18
  800ee0:	e0bffc17 	ldw	r2,-16(fp)
  800ee4:	10c03585 	stb	r3,214(r2)
  d->_g9 = d->_g15 && d->_cg10;
  800ee8:	e0bffc17 	ldw	r2,-16(fp)
  800eec:	10801d43 	ldbu	r2,117(r2)
  800ef0:	10803fcc 	andi	r2,r2,255
  800ef4:	1080201c 	xori	r2,r2,128
  800ef8:	10bfe004 	addi	r2,r2,-128
  800efc:	10000826 	beq	r2,zero,800f20 <logic+0x3a4>
  800f00:	e0bffc17 	ldw	r2,-16(fp)
  800f04:	10803583 	ldbu	r2,214(r2)
  800f08:	10803fcc 	andi	r2,r2,255
  800f0c:	1080201c 	xori	r2,r2,128
  800f10:	10bfe004 	addi	r2,r2,-128
  800f14:	10000226 	beq	r2,zero,800f20 <logic+0x3a4>
  800f18:	00800044 	movi	r2,1
  800f1c:	00000106 	br	800f24 <logic+0x3a8>
  800f20:	0005883a 	mov	r2,zero
  800f24:	1007883a 	mov	r3,r2
  800f28:	e0bffc17 	ldw	r2,-16(fp)
  800f2c:	10c01c05 	stb	r3,112(r2)
  if (d->_g9) {
  800f30:	e0bffc17 	ldw	r2,-16(fp)
  800f34:	10801c03 	ldbu	r2,112(r2)
  800f38:	10803fcc 	andi	r2,r2,255
  800f3c:	1080201c 	xori	r2,r2,128
  800f40:	10bfe004 	addi	r2,r2,-128
  800f44:	10003426 	beq	r2,zero,801018 <logic+0x49c>
    d->sleepT = (d->sleepT < (d->LRI - d->_region0_LRI_x)) ? d->sleepT : (d->LRI - d->_region0_LRI_x);
  800f48:	e0bffc17 	ldw	r2,-16(fp)
  800f4c:	14001417 	ldw	r16,80(r2)
  800f50:	14401517 	ldw	r17,84(r2)
  800f54:	e0bffc17 	ldw	r2,-16(fp)
  800f58:	10800417 	ldw	r2,16(r2)
  800f5c:	1009883a 	mov	r4,r2
  800f60:	0806b740 	call	806b74 <__floatsidf>
  800f64:	1011883a 	mov	r8,r2
  800f68:	1813883a 	mov	r9,r3
  800f6c:	e13ffc17 	ldw	r4,-16(fp)
  800f70:	20800617 	ldw	r2,24(r4)
  800f74:	20c00717 	ldw	r3,28(r4)
  800f78:	100d883a 	mov	r6,r2
  800f7c:	180f883a 	mov	r7,r3
  800f80:	4009883a 	mov	r4,r8
  800f84:	480b883a 	mov	r5,r9
  800f88:	08062780 	call	806278 <__subdf3>
  800f8c:	1009883a 	mov	r4,r2
  800f90:	180b883a 	mov	r5,r3
  800f94:	2005883a 	mov	r2,r4
  800f98:	2807883a 	mov	r3,r5
  800f9c:	100d883a 	mov	r6,r2
  800fa0:	180f883a 	mov	r7,r3
  800fa4:	8009883a 	mov	r4,r16
  800fa8:	880b883a 	mov	r5,r17
  800fac:	0805a6c0 	call	805a6c <__ledf2>
  800fb0:	1000040e 	bge	r2,zero,800fc4 <logic+0x448>
  800fb4:	e13ffc17 	ldw	r4,-16(fp)
  800fb8:	20801417 	ldw	r2,80(r4)
  800fbc:	20c01517 	ldw	r3,84(r4)
  800fc0:	00001206 	br	80100c <logic+0x490>
  800fc4:	e0bffc17 	ldw	r2,-16(fp)
  800fc8:	10800417 	ldw	r2,16(r2)
  800fcc:	1009883a 	mov	r4,r2
  800fd0:	0806b740 	call	806b74 <__floatsidf>
  800fd4:	1011883a 	mov	r8,r2
  800fd8:	1813883a 	mov	r9,r3
  800fdc:	e13ffc17 	ldw	r4,-16(fp)
  800fe0:	20800617 	ldw	r2,24(r4)
  800fe4:	20c00717 	ldw	r3,28(r4)
  800fe8:	100d883a 	mov	r6,r2
  800fec:	180f883a 	mov	r7,r3
  800ff0:	4009883a 	mov	r4,r8
  800ff4:	480b883a 	mov	r5,r9
  800ff8:	08062780 	call	806278 <__subdf3>
  800ffc:	1009883a 	mov	r4,r2
  801000:	180b883a 	mov	r5,r3
  801004:	2005883a 	mov	r2,r4
  801008:	2807883a 	mov	r3,r5
  80100c:	e13ffc17 	ldw	r4,-16(fp)
  801010:	20801415 	stw	r2,80(r4)
  801014:	20c01515 	stw	r3,84(r4)
  }
  d->_cg11 = d->_Pacemaker_local__Atrig || d->_Pacemaker_local__Atrig1;
  801018:	e0bffc17 	ldw	r2,-16(fp)
  80101c:	108018c3 	ldbu	r2,99(r2)
  801020:	10803fcc 	andi	r2,r2,255
  801024:	1080201c 	xori	r2,r2,128
  801028:	10bfe004 	addi	r2,r2,-128
  80102c:	1000061e 	bne	r2,zero,801048 <logic+0x4cc>
  801030:	e0bffc17 	ldw	r2,-16(fp)
  801034:	10801903 	ldbu	r2,100(r2)
  801038:	10803fcc 	andi	r2,r2,255
  80103c:	1080201c 	xori	r2,r2,128
  801040:	10bfe004 	addi	r2,r2,-128
  801044:	10000226 	beq	r2,zero,801050 <logic+0x4d4>
  801048:	00800044 	movi	r2,1
  80104c:	00000106 	br	801054 <logic+0x4d8>
  801050:	0005883a 	mov	r2,zero
  801054:	1007883a 	mov	r3,r2
  801058:	e0bffc17 	ldw	r2,-16(fp)
  80105c:	10c03545 	stb	r3,213(r2)
  d->_g10 = d->_g15 && !d->_cg10;
  801060:	e0bffc17 	ldw	r2,-16(fp)
  801064:	10801d43 	ldbu	r2,117(r2)
  801068:	10803fcc 	andi	r2,r2,255
  80106c:	1080201c 	xori	r2,r2,128
  801070:	10bfe004 	addi	r2,r2,-128
  801074:	10000826 	beq	r2,zero,801098 <logic+0x51c>
  801078:	e0bffc17 	ldw	r2,-16(fp)
  80107c:	10803583 	ldbu	r2,214(r2)
  801080:	10803fcc 	andi	r2,r2,255
  801084:	1080201c 	xori	r2,r2,128
  801088:	10bfe004 	addi	r2,r2,-128
  80108c:	1000021e 	bne	r2,zero,801098 <logic+0x51c>
  801090:	00800044 	movi	r2,1
  801094:	00000106 	br	80109c <logic+0x520>
  801098:	0005883a 	mov	r2,zero
  80109c:	1007883a 	mov	r3,r2
  8010a0:	e0bffc17 	ldw	r2,-16(fp)
  8010a4:	10c01c45 	stb	r3,113(r2)
  d->_cg13 = d->_Pacemaker_local__Atrig || d->_Pacemaker_local__Atrig1;
  8010a8:	e0bffc17 	ldw	r2,-16(fp)
  8010ac:	108018c3 	ldbu	r2,99(r2)
  8010b0:	10803fcc 	andi	r2,r2,255
  8010b4:	1080201c 	xori	r2,r2,128
  8010b8:	10bfe004 	addi	r2,r2,-128
  8010bc:	1000061e 	bne	r2,zero,8010d8 <logic+0x55c>
  8010c0:	e0bffc17 	ldw	r2,-16(fp)
  8010c4:	10801903 	ldbu	r2,100(r2)
  8010c8:	10803fcc 	andi	r2,r2,255
  8010cc:	1080201c 	xori	r2,r2,128
  8010d0:	10bfe004 	addi	r2,r2,-128
  8010d4:	10000226 	beq	r2,zero,8010e0 <logic+0x564>
  8010d8:	00800044 	movi	r2,1
  8010dc:	00000106 	br	8010e4 <logic+0x568>
  8010e0:	0005883a 	mov	r2,zero
  8010e4:	1007883a 	mov	r3,r2
  8010e8:	e0bffc17 	ldw	r2,-16(fp)
  8010ec:	10c035c5 	stb	r3,215(r2)
  d->_g12 = (d->_g9 && d->_cg11) || (d->_g10 && d->_cg13);
  8010f0:	e0bffc17 	ldw	r2,-16(fp)
  8010f4:	10801c03 	ldbu	r2,112(r2)
  8010f8:	10803fcc 	andi	r2,r2,255
  8010fc:	1080201c 	xori	r2,r2,128
  801100:	10bfe004 	addi	r2,r2,-128
  801104:	10000626 	beq	r2,zero,801120 <logic+0x5a4>
  801108:	e0bffc17 	ldw	r2,-16(fp)
  80110c:	10803543 	ldbu	r2,213(r2)
  801110:	10803fcc 	andi	r2,r2,255
  801114:	1080201c 	xori	r2,r2,128
  801118:	10bfe004 	addi	r2,r2,-128
  80111c:	10000c1e 	bne	r2,zero,801150 <logic+0x5d4>
  801120:	e0bffc17 	ldw	r2,-16(fp)
  801124:	10801c43 	ldbu	r2,113(r2)
  801128:	10803fcc 	andi	r2,r2,255
  80112c:	1080201c 	xori	r2,r2,128
  801130:	10bfe004 	addi	r2,r2,-128
  801134:	10000826 	beq	r2,zero,801158 <logic+0x5dc>
  801138:	e0bffc17 	ldw	r2,-16(fp)
  80113c:	108035c3 	ldbu	r2,215(r2)
  801140:	10803fcc 	andi	r2,r2,255
  801144:	1080201c 	xori	r2,r2,128
  801148:	10bfe004 	addi	r2,r2,-128
  80114c:	10000226 	beq	r2,zero,801158 <logic+0x5dc>
  801150:	00800044 	movi	r2,1
  801154:	00000106 	br	80115c <logic+0x5e0>
  801158:	0005883a 	mov	r2,zero
  80115c:	1007883a 	mov	r3,r2
  801160:	e0bffc17 	ldw	r2,-16(fp)
  801164:	10c01cc5 	stb	r3,115(r2)
  d->_g19 = !d->_g19;
  801168:	e0bffc17 	ldw	r2,-16(fp)
  80116c:	10801dc3 	ldbu	r2,119(r2)
  801170:	10803fcc 	andi	r2,r2,255
  801174:	1080201c 	xori	r2,r2,128
  801178:	10bfe004 	addi	r2,r2,-128
  80117c:	1005003a 	cmpeq	r2,r2,zero
  801180:	1007883a 	mov	r3,r2
  801184:	e0bffc17 	ldw	r2,-16(fp)
  801188:	10c01dc5 	stb	r3,119(r2)
  d->_g23 = d->_g20 || d->_g23;
  80118c:	e0bffc17 	ldw	r2,-16(fp)
  801190:	10801e03 	ldbu	r2,120(r2)
  801194:	10803fcc 	andi	r2,r2,255
  801198:	1080201c 	xori	r2,r2,128
  80119c:	10bfe004 	addi	r2,r2,-128
  8011a0:	1000061e 	bne	r2,zero,8011bc <logic+0x640>
  8011a4:	e0bffc17 	ldw	r2,-16(fp)
  8011a8:	10801ec3 	ldbu	r2,123(r2)
  8011ac:	10803fcc 	andi	r2,r2,255
  8011b0:	1080201c 	xori	r2,r2,128
  8011b4:	10bfe004 	addi	r2,r2,-128
  8011b8:	10000226 	beq	r2,zero,8011c4 <logic+0x648>
  8011bc:	00800044 	movi	r2,1
  8011c0:	00000106 	br	8011c8 <logic+0x64c>
  8011c4:	0005883a 	mov	r2,zero
  8011c8:	1007883a 	mov	r3,r2
  8011cc:	e0bffc17 	ldw	r2,-16(fp)
  8011d0:	10c01ec5 	stb	r3,123(r2)
  d->_g20 = (d->_g12_e1 || d->_g12) && (d->_g19 || d->_g23) && (d->_g12 || d->_g23);
  8011d4:	e0bffc17 	ldw	r2,-16(fp)
  8011d8:	10804043 	ldbu	r2,257(r2)
  8011dc:	10803fcc 	andi	r2,r2,255
  8011e0:	1080201c 	xori	r2,r2,128
  8011e4:	10bfe004 	addi	r2,r2,-128
  8011e8:	1000061e 	bne	r2,zero,801204 <logic+0x688>
  8011ec:	e0bffc17 	ldw	r2,-16(fp)
  8011f0:	10801cc3 	ldbu	r2,115(r2)
  8011f4:	10803fcc 	andi	r2,r2,255
  8011f8:	1080201c 	xori	r2,r2,128
  8011fc:	10bfe004 	addi	r2,r2,-128
  801200:	10001a26 	beq	r2,zero,80126c <logic+0x6f0>
  801204:	e0bffc17 	ldw	r2,-16(fp)
  801208:	10801dc3 	ldbu	r2,119(r2)
  80120c:	10803fcc 	andi	r2,r2,255
  801210:	1080201c 	xori	r2,r2,128
  801214:	10bfe004 	addi	r2,r2,-128
  801218:	1000061e 	bne	r2,zero,801234 <logic+0x6b8>
  80121c:	e0bffc17 	ldw	r2,-16(fp)
  801220:	10801ec3 	ldbu	r2,123(r2)
  801224:	10803fcc 	andi	r2,r2,255
  801228:	1080201c 	xori	r2,r2,128
  80122c:	10bfe004 	addi	r2,r2,-128
  801230:	10000e26 	beq	r2,zero,80126c <logic+0x6f0>
  801234:	e0bffc17 	ldw	r2,-16(fp)
  801238:	10801cc3 	ldbu	r2,115(r2)
  80123c:	10803fcc 	andi	r2,r2,255
  801240:	1080201c 	xori	r2,r2,128
  801244:	10bfe004 	addi	r2,r2,-128
  801248:	1000061e 	bne	r2,zero,801264 <logic+0x6e8>
  80124c:	e0bffc17 	ldw	r2,-16(fp)
  801250:	10801ec3 	ldbu	r2,123(r2)
  801254:	10803fcc 	andi	r2,r2,255
  801258:	1080201c 	xori	r2,r2,128
  80125c:	10bfe004 	addi	r2,r2,-128
  801260:	10000226 	beq	r2,zero,80126c <logic+0x6f0>
  801264:	00800044 	movi	r2,1
  801268:	00000106 	br	801270 <logic+0x6f4>
  80126c:	0005883a 	mov	r2,zero
  801270:	1007883a 	mov	r3,r2
  801274:	e0bffc17 	ldw	r2,-16(fp)
  801278:	10c01e05 	stb	r3,120(r2)
  d->_cg24 = d->_Pacemaker_local__Atrig;
  80127c:	e0bffc17 	ldw	r2,-16(fp)
  801280:	10c018c3 	ldbu	r3,99(r2)
  801284:	e0bffc17 	ldw	r2,-16(fp)
  801288:	10c03485 	stb	r3,210(r2)
  d->_g21 = d->_g20 && !d->_cg24;
  80128c:	e0bffc17 	ldw	r2,-16(fp)
  801290:	10801e03 	ldbu	r2,120(r2)
  801294:	10803fcc 	andi	r2,r2,255
  801298:	1080201c 	xori	r2,r2,128
  80129c:	10bfe004 	addi	r2,r2,-128
  8012a0:	10000826 	beq	r2,zero,8012c4 <logic+0x748>
  8012a4:	e0bffc17 	ldw	r2,-16(fp)
  8012a8:	10803483 	ldbu	r2,210(r2)
  8012ac:	10803fcc 	andi	r2,r2,255
  8012b0:	1080201c 	xori	r2,r2,128
  8012b4:	10bfe004 	addi	r2,r2,-128
  8012b8:	1000021e 	bne	r2,zero,8012c4 <logic+0x748>
  8012bc:	00800044 	movi	r2,1
  8012c0:	00000106 	br	8012c8 <logic+0x74c>
  8012c4:	0005883a 	mov	r2,zero
  8012c8:	1007883a 	mov	r3,r2
  8012cc:	e0bffc17 	ldw	r2,-16(fp)
  8012d0:	10c01e45 	stb	r3,121(r2)
  if (d->_g21) {
  8012d4:	e0bffc17 	ldw	r2,-16(fp)
  8012d8:	10801e43 	ldbu	r2,121(r2)
  8012dc:	10803fcc 	andi	r2,r2,255
  8012e0:	1080201c 	xori	r2,r2,128
  8012e4:	10bfe004 	addi	r2,r2,-128
  8012e8:	10000626 	beq	r2,zero,801304 <logic+0x788>
    d->VP |= 1;
  8012ec:	e0bffc17 	ldw	r2,-16(fp)
  8012f0:	108016c3 	ldbu	r2,91(r2)
  8012f4:	10800054 	ori	r2,r2,1
  8012f8:	1007883a 	mov	r3,r2
  8012fc:	e0bffc17 	ldw	r2,-16(fp)
  801300:	10c016c5 	stb	r3,91(r2)
  }
  d->_g12 = d->_pg34;
  801304:	e0bffc17 	ldw	r2,-16(fp)
  801308:	10c044c3 	ldbu	r3,275(r2)
  80130c:	e0bffc17 	ldw	r2,-16(fp)
  801310:	10c01cc5 	stb	r3,115(r2)
  if (d->_g12) {
  801314:	e0bffc17 	ldw	r2,-16(fp)
  801318:	10801cc3 	ldbu	r2,115(r2)
  80131c:	10803fcc 	andi	r2,r2,255
  801320:	1080201c 	xori	r2,r2,128
  801324:	10bfe004 	addi	r2,r2,-128
  801328:	10000626 	beq	r2,zero,801344 <logic+0x7c8>
    d->URI_timeout |= 1;
  80132c:	e0bffc17 	ldw	r2,-16(fp)
  801330:	10801783 	ldbu	r2,94(r2)
  801334:	10800054 	ori	r2,r2,1
  801338:	1007883a 	mov	r3,r2
  80133c:	e0bffc17 	ldw	r2,-16(fp)
  801340:	10c01785 	stb	r3,94(r2)
  }
  d->_g21_e2 = d->_pg115;
  801344:	e0bffc17 	ldw	r2,-16(fp)
  801348:	10c04503 	ldbu	r3,276(r2)
  80134c:	e0bffc17 	ldw	r2,-16(fp)
  801350:	10c04085 	stb	r3,258(r2)
  d->_g12_e1 = d->_pg74;
  801354:	e0bffc17 	ldw	r2,-16(fp)
  801358:	10c04543 	ldbu	r3,277(r2)
  80135c:	e0bffc17 	ldw	r2,-16(fp)
  801360:	10c04045 	stb	r3,257(r2)
  d->_g101_e1 = !(d->_g21_e2 || d->_g12_e1);
  801364:	e0bffc17 	ldw	r2,-16(fp)
  801368:	10804083 	ldbu	r2,258(r2)
  80136c:	10803fcc 	andi	r2,r2,255
  801370:	1080201c 	xori	r2,r2,128
  801374:	10bfe004 	addi	r2,r2,-128
  801378:	1000081e 	bne	r2,zero,80139c <logic+0x820>
  80137c:	e0bffc17 	ldw	r2,-16(fp)
  801380:	10804043 	ldbu	r2,257(r2)
  801384:	10803fcc 	andi	r2,r2,255
  801388:	1080201c 	xori	r2,r2,128
  80138c:	10bfe004 	addi	r2,r2,-128
  801390:	1000021e 	bne	r2,zero,80139c <logic+0x820>
  801394:	00800044 	movi	r2,1
  801398:	00000106 	br	8013a0 <logic+0x824>
  80139c:	0005883a 	mov	r2,zero
  8013a0:	1007883a 	mov	r3,r2
  8013a4:	e0bffc17 	ldw	r2,-16(fp)
  8013a8:	10c04285 	stb	r3,266(r2)
  d->_g108 = d->_pg93;
  8013ac:	e0bffc17 	ldw	r2,-16(fp)
  8013b0:	10c04583 	ldbu	r3,278(r2)
  8013b4:	e0bffc17 	ldw	r2,-16(fp)
  8013b8:	10c02d05 	stb	r3,180(r2)
  d->_cg108 = d->_pre_v_event;
  8013bc:	e0bffc17 	ldw	r2,-16(fp)
  8013c0:	10c01883 	ldbu	r3,98(r2)
  8013c4:	e0bffc17 	ldw	r2,-16(fp)
  8013c8:	10c03d45 	stb	r3,245(r2)
  d->_g109 = d->_g108 && d->_cg108;
  8013cc:	e0bffc17 	ldw	r2,-16(fp)
  8013d0:	10802d03 	ldbu	r2,180(r2)
  8013d4:	10803fcc 	andi	r2,r2,255
  8013d8:	1080201c 	xori	r2,r2,128
  8013dc:	10bfe004 	addi	r2,r2,-128
  8013e0:	10000826 	beq	r2,zero,801404 <logic+0x888>
  8013e4:	e0bffc17 	ldw	r2,-16(fp)
  8013e8:	10803d43 	ldbu	r2,245(r2)
  8013ec:	10803fcc 	andi	r2,r2,255
  8013f0:	1080201c 	xori	r2,r2,128
  8013f4:	10bfe004 	addi	r2,r2,-128
  8013f8:	10000226 	beq	r2,zero,801404 <logic+0x888>
  8013fc:	00800044 	movi	r2,1
  801400:	00000106 	br	801408 <logic+0x88c>
  801404:	0005883a 	mov	r2,zero
  801408:	1007883a 	mov	r3,r2
  80140c:	e0bffc17 	ldw	r2,-16(fp)
  801410:	10c02d45 	stb	r3,181(r2)
  if (d->_g109) {
  801414:	e0bffc17 	ldw	r2,-16(fp)
  801418:	10802d43 	ldbu	r2,181(r2)
  80141c:	10803fcc 	andi	r2,r2,255
  801420:	1080201c 	xori	r2,r2,128
  801424:	10bfe004 	addi	r2,r2,-128
  801428:	10000326 	beq	r2,zero,801438 <logic+0x8bc>
    d->_Pacemaker_local__Atrig5 = 1;
  80142c:	e0bffc17 	ldw	r2,-16(fp)
  801430:	00c00044 	movi	r3,1
  801434:	10c01a05 	stb	r3,104(r2)
  }
  d->_g166 = d->_pg133;
  801438:	e0bffc17 	ldw	r2,-16(fp)
  80143c:	10c045c3 	ldbu	r3,279(r2)
  801440:	e0bffc17 	ldw	r2,-16(fp)
  801444:	10c03385 	stb	r3,206(r2)
  if (d->_g166) {
  801448:	e0bffc17 	ldw	r2,-16(fp)
  80144c:	10803383 	ldbu	r2,206(r2)
  801450:	10803fcc 	andi	r2,r2,255
  801454:	1080201c 	xori	r2,r2,128
  801458:	10bfe004 	addi	r2,r2,-128
  80145c:	10001226 	beq	r2,zero,8014a8 <logic+0x92c>
    d->_region4_AVI_x += d->deltaT;
  801460:	e13ffc17 	ldw	r4,-16(fp)
  801464:	20800e17 	ldw	r2,56(r4)
  801468:	20c00f17 	ldw	r3,60(r4)
  80146c:	e1bffc17 	ldw	r6,-16(fp)
  801470:	31001217 	ldw	r4,72(r6)
  801474:	31401317 	ldw	r5,76(r6)
  801478:	200d883a 	mov	r6,r4
  80147c:	280f883a 	mov	r7,r5
  801480:	1009883a 	mov	r4,r2
  801484:	180b883a 	mov	r5,r3
  801488:	08050e40 	call	8050e4 <__adddf3>
  80148c:	1009883a 	mov	r4,r2
  801490:	180b883a 	mov	r5,r3
  801494:	2005883a 	mov	r2,r4
  801498:	2807883a 	mov	r3,r5
  80149c:	e13ffc17 	ldw	r4,-16(fp)
  8014a0:	20800e15 	stw	r2,56(r4)
  8014a4:	20c00f15 	stw	r3,60(r4)
  }
  d->_g111 = d->_g108 && !d->_cg108;
  8014a8:	e0bffc17 	ldw	r2,-16(fp)
  8014ac:	10802d03 	ldbu	r2,180(r2)
  8014b0:	10803fcc 	andi	r2,r2,255
  8014b4:	1080201c 	xori	r2,r2,128
  8014b8:	10bfe004 	addi	r2,r2,-128
  8014bc:	10000826 	beq	r2,zero,8014e0 <logic+0x964>
  8014c0:	e0bffc17 	ldw	r2,-16(fp)
  8014c4:	10803d43 	ldbu	r2,245(r2)
  8014c8:	10803fcc 	andi	r2,r2,255
  8014cc:	1080201c 	xori	r2,r2,128
  8014d0:	10bfe004 	addi	r2,r2,-128
  8014d4:	1000021e 	bne	r2,zero,8014e0 <logic+0x964>
  8014d8:	00800044 	movi	r2,1
  8014dc:	00000106 	br	8014e4 <logic+0x968>
  8014e0:	0005883a 	mov	r2,zero
  8014e4:	1007883a 	mov	r3,r2
  8014e8:	e0bffc17 	ldw	r2,-16(fp)
  8014ec:	10c02dc5 	stb	r3,183(r2)
  d->_cg111 = d->_region4_AVI_x >= d->AVI;
  8014f0:	e0bffc17 	ldw	r2,-16(fp)
  8014f4:	14000e17 	ldw	r16,56(r2)
  8014f8:	14400f17 	ldw	r17,60(r2)
  8014fc:	e0bffc17 	ldw	r2,-16(fp)
  801500:	10800017 	ldw	r2,0(r2)
  801504:	1009883a 	mov	r4,r2
  801508:	0806b740 	call	806b74 <__floatsidf>
  80150c:	1009883a 	mov	r4,r2
  801510:	180b883a 	mov	r5,r3
  801514:	04800044 	movi	r18,1
  801518:	200d883a 	mov	r6,r4
  80151c:	280f883a 	mov	r7,r5
  801520:	8009883a 	mov	r4,r16
  801524:	880b883a 	mov	r5,r17
  801528:	08059900 	call	805990 <__gedf2>
  80152c:	1000010e 	bge	r2,zero,801534 <logic+0x9b8>
  801530:	0025883a 	mov	r18,zero
  801534:	9007883a 	mov	r3,r18
  801538:	e0bffc17 	ldw	r2,-16(fp)
  80153c:	10c03d05 	stb	r3,244(r2)
  d->_g112 = d->_g111 && d->_cg111;
  801540:	e0bffc17 	ldw	r2,-16(fp)
  801544:	10802dc3 	ldbu	r2,183(r2)
  801548:	10803fcc 	andi	r2,r2,255
  80154c:	1080201c 	xori	r2,r2,128
  801550:	10bfe004 	addi	r2,r2,-128
  801554:	10000826 	beq	r2,zero,801578 <logic+0x9fc>
  801558:	e0bffc17 	ldw	r2,-16(fp)
  80155c:	10803d03 	ldbu	r2,244(r2)
  801560:	10803fcc 	andi	r2,r2,255
  801564:	1080201c 	xori	r2,r2,128
  801568:	10bfe004 	addi	r2,r2,-128
  80156c:	10000226 	beq	r2,zero,801578 <logic+0x9fc>
  801570:	00800044 	movi	r2,1
  801574:	00000106 	br	80157c <logic+0xa00>
  801578:	0005883a 	mov	r2,zero
  80157c:	1007883a 	mov	r3,r2
  801580:	e0bffc17 	ldw	r2,-16(fp)
  801584:	10c02e05 	stb	r3,184(r2)
  if (d->_g112) {
  801588:	e0bffc17 	ldw	r2,-16(fp)
  80158c:	10802e03 	ldbu	r2,184(r2)
  801590:	10803fcc 	andi	r2,r2,255
  801594:	1080201c 	xori	r2,r2,128
  801598:	10bfe004 	addi	r2,r2,-128
  80159c:	10000326 	beq	r2,zero,8015ac <logic+0xa30>
    d->_Pacemaker_local__Atrig6 = 1;
  8015a0:	e0bffc17 	ldw	r2,-16(fp)
  8015a4:	00c00044 	movi	r3,1
  8015a8:	10c01a45 	stb	r3,105(r2)
  }
  d->_g98 = d->_g12_e1 || d->_g21_e2;
  8015ac:	e0bffc17 	ldw	r2,-16(fp)
  8015b0:	10804043 	ldbu	r2,257(r2)
  8015b4:	10803fcc 	andi	r2,r2,255
  8015b8:	1080201c 	xori	r2,r2,128
  8015bc:	10bfe004 	addi	r2,r2,-128
  8015c0:	1000061e 	bne	r2,zero,8015dc <logic+0xa60>
  8015c4:	e0bffc17 	ldw	r2,-16(fp)
  8015c8:	10804083 	ldbu	r2,258(r2)
  8015cc:	10803fcc 	andi	r2,r2,255
  8015d0:	1080201c 	xori	r2,r2,128
  8015d4:	10bfe004 	addi	r2,r2,-128
  8015d8:	10000226 	beq	r2,zero,8015e4 <logic+0xa68>
  8015dc:	00800044 	movi	r2,1
  8015e0:	00000106 	br	8015e8 <logic+0xa6c>
  8015e4:	0005883a 	mov	r2,zero
  8015e8:	1007883a 	mov	r3,r2
  8015ec:	e0bffc17 	ldw	r2,-16(fp)
  8015f0:	10c02b45 	stb	r3,173(r2)
  d->_cg99 = d->_region4_AVI_x < d->AVI;
  8015f4:	e0bffc17 	ldw	r2,-16(fp)
  8015f8:	14000e17 	ldw	r16,56(r2)
  8015fc:	14400f17 	ldw	r17,60(r2)
  801600:	e0bffc17 	ldw	r2,-16(fp)
  801604:	10800017 	ldw	r2,0(r2)
  801608:	1009883a 	mov	r4,r2
  80160c:	0806b740 	call	806b74 <__floatsidf>
  801610:	1009883a 	mov	r4,r2
  801614:	180b883a 	mov	r5,r3
  801618:	04800044 	movi	r18,1
  80161c:	200d883a 	mov	r6,r4
  801620:	280f883a 	mov	r7,r5
  801624:	8009883a 	mov	r4,r16
  801628:	880b883a 	mov	r5,r17
  80162c:	0805a6c0 	call	805a6c <__ledf2>
  801630:	10000116 	blt	r2,zero,801638 <logic+0xabc>
  801634:	0025883a 	mov	r18,zero
  801638:	9007883a 	mov	r3,r18
  80163c:	e0bffc17 	ldw	r2,-16(fp)
  801640:	10c03c45 	stb	r3,241(r2)
  d->_g104 = d->_g98 && d->_cg99;
  801644:	e0bffc17 	ldw	r2,-16(fp)
  801648:	10802b43 	ldbu	r2,173(r2)
  80164c:	10803fcc 	andi	r2,r2,255
  801650:	1080201c 	xori	r2,r2,128
  801654:	10bfe004 	addi	r2,r2,-128
  801658:	10000826 	beq	r2,zero,80167c <logic+0xb00>
  80165c:	e0bffc17 	ldw	r2,-16(fp)
  801660:	10803c43 	ldbu	r2,241(r2)
  801664:	10803fcc 	andi	r2,r2,255
  801668:	1080201c 	xori	r2,r2,128
  80166c:	10bfe004 	addi	r2,r2,-128
  801670:	10000226 	beq	r2,zero,80167c <logic+0xb00>
  801674:	00800044 	movi	r2,1
  801678:	00000106 	br	801680 <logic+0xb04>
  80167c:	0005883a 	mov	r2,zero
  801680:	1007883a 	mov	r3,r2
  801684:	e0bffc17 	ldw	r2,-16(fp)
  801688:	10c02c85 	stb	r3,178(r2)
  if (d->_g104) {
  80168c:	e0bffc17 	ldw	r2,-16(fp)
  801690:	10802c83 	ldbu	r2,178(r2)
  801694:	10803fcc 	andi	r2,r2,255
  801698:	1080201c 	xori	r2,r2,128
  80169c:	10bfe004 	addi	r2,r2,-128
  8016a0:	10003426 	beq	r2,zero,801774 <logic+0xbf8>
    d->sleepT = (d->sleepT < (d->AVI - d->_region4_AVI_x)) ? d->sleepT : (d->AVI - d->_region4_AVI_x);
  8016a4:	e0bffc17 	ldw	r2,-16(fp)
  8016a8:	14001417 	ldw	r16,80(r2)
  8016ac:	14401517 	ldw	r17,84(r2)
  8016b0:	e0bffc17 	ldw	r2,-16(fp)
  8016b4:	10800017 	ldw	r2,0(r2)
  8016b8:	1009883a 	mov	r4,r2
  8016bc:	0806b740 	call	806b74 <__floatsidf>
  8016c0:	1011883a 	mov	r8,r2
  8016c4:	1813883a 	mov	r9,r3
  8016c8:	e13ffc17 	ldw	r4,-16(fp)
  8016cc:	20800e17 	ldw	r2,56(r4)
  8016d0:	20c00f17 	ldw	r3,60(r4)
  8016d4:	100d883a 	mov	r6,r2
  8016d8:	180f883a 	mov	r7,r3
  8016dc:	4009883a 	mov	r4,r8
  8016e0:	480b883a 	mov	r5,r9
  8016e4:	08062780 	call	806278 <__subdf3>
  8016e8:	1009883a 	mov	r4,r2
  8016ec:	180b883a 	mov	r5,r3
  8016f0:	2005883a 	mov	r2,r4
  8016f4:	2807883a 	mov	r3,r5
  8016f8:	100d883a 	mov	r6,r2
  8016fc:	180f883a 	mov	r7,r3
  801700:	8009883a 	mov	r4,r16
  801704:	880b883a 	mov	r5,r17
  801708:	0805a6c0 	call	805a6c <__ledf2>
  80170c:	1000040e 	bge	r2,zero,801720 <logic+0xba4>
  801710:	e13ffc17 	ldw	r4,-16(fp)
  801714:	20801417 	ldw	r2,80(r4)
  801718:	20c01517 	ldw	r3,84(r4)
  80171c:	00001206 	br	801768 <logic+0xbec>
  801720:	e0bffc17 	ldw	r2,-16(fp)
  801724:	10800017 	ldw	r2,0(r2)
  801728:	1009883a 	mov	r4,r2
  80172c:	0806b740 	call	806b74 <__floatsidf>
  801730:	1011883a 	mov	r8,r2
  801734:	1813883a 	mov	r9,r3
  801738:	e13ffc17 	ldw	r4,-16(fp)
  80173c:	20800e17 	ldw	r2,56(r4)
  801740:	20c00f17 	ldw	r3,60(r4)
  801744:	100d883a 	mov	r6,r2
  801748:	180f883a 	mov	r7,r3
  80174c:	4009883a 	mov	r4,r8
  801750:	480b883a 	mov	r5,r9
  801754:	08062780 	call	806278 <__subdf3>
  801758:	1009883a 	mov	r4,r2
  80175c:	180b883a 	mov	r5,r3
  801760:	2005883a 	mov	r2,r4
  801764:	2807883a 	mov	r3,r5
  801768:	e13ffc17 	ldw	r4,-16(fp)
  80176c:	20801415 	stw	r2,80(r4)
  801770:	20c01515 	stw	r3,84(r4)
  }
  d->_cg100 = d->_Pacemaker_local__Atrig5 || d->_Pacemaker_local__Atrig6;
  801774:	e0bffc17 	ldw	r2,-16(fp)
  801778:	10801a03 	ldbu	r2,104(r2)
  80177c:	10803fcc 	andi	r2,r2,255
  801780:	1080201c 	xori	r2,r2,128
  801784:	10bfe004 	addi	r2,r2,-128
  801788:	1000061e 	bne	r2,zero,8017a4 <logic+0xc28>
  80178c:	e0bffc17 	ldw	r2,-16(fp)
  801790:	10801a43 	ldbu	r2,105(r2)
  801794:	10803fcc 	andi	r2,r2,255
  801798:	1080201c 	xori	r2,r2,128
  80179c:	10bfe004 	addi	r2,r2,-128
  8017a0:	10000226 	beq	r2,zero,8017ac <logic+0xc30>
  8017a4:	00800044 	movi	r2,1
  8017a8:	00000106 	br	8017b0 <logic+0xc34>
  8017ac:	0005883a 	mov	r2,zero
  8017b0:	1007883a 	mov	r3,r2
  8017b4:	e0bffc17 	ldw	r2,-16(fp)
  8017b8:	10c03c05 	stb	r3,240(r2)
  d->_g99 = d->_g98 && !d->_cg99;
  8017bc:	e0bffc17 	ldw	r2,-16(fp)
  8017c0:	10802b43 	ldbu	r2,173(r2)
  8017c4:	10803fcc 	andi	r2,r2,255
  8017c8:	1080201c 	xori	r2,r2,128
  8017cc:	10bfe004 	addi	r2,r2,-128
  8017d0:	10000826 	beq	r2,zero,8017f4 <logic+0xc78>
  8017d4:	e0bffc17 	ldw	r2,-16(fp)
  8017d8:	10803c43 	ldbu	r2,241(r2)
  8017dc:	10803fcc 	andi	r2,r2,255
  8017e0:	1080201c 	xori	r2,r2,128
  8017e4:	10bfe004 	addi	r2,r2,-128
  8017e8:	1000021e 	bne	r2,zero,8017f4 <logic+0xc78>
  8017ec:	00800044 	movi	r2,1
  8017f0:	00000106 	br	8017f8 <logic+0xc7c>
  8017f4:	0005883a 	mov	r2,zero
  8017f8:	1007883a 	mov	r3,r2
  8017fc:	e0bffc17 	ldw	r2,-16(fp)
  801800:	10c02b85 	stb	r3,174(r2)
  d->_cg102 = d->_Pacemaker_local__Atrig5 || d->_Pacemaker_local__Atrig6;
  801804:	e0bffc17 	ldw	r2,-16(fp)
  801808:	10801a03 	ldbu	r2,104(r2)
  80180c:	10803fcc 	andi	r2,r2,255
  801810:	1080201c 	xori	r2,r2,128
  801814:	10bfe004 	addi	r2,r2,-128
  801818:	1000061e 	bne	r2,zero,801834 <logic+0xcb8>
  80181c:	e0bffc17 	ldw	r2,-16(fp)
  801820:	10801a43 	ldbu	r2,105(r2)
  801824:	10803fcc 	andi	r2,r2,255
  801828:	1080201c 	xori	r2,r2,128
  80182c:	10bfe004 	addi	r2,r2,-128
  801830:	10000226 	beq	r2,zero,80183c <logic+0xcc0>
  801834:	00800044 	movi	r2,1
  801838:	00000106 	br	801840 <logic+0xcc4>
  80183c:	0005883a 	mov	r2,zero
  801840:	1007883a 	mov	r3,r2
  801844:	e0bffc17 	ldw	r2,-16(fp)
  801848:	10c03c85 	stb	r3,242(r2)
  d->_g101 = (d->_g104 && d->_cg100) || (d->_g99 && d->_cg102);
  80184c:	e0bffc17 	ldw	r2,-16(fp)
  801850:	10802c83 	ldbu	r2,178(r2)
  801854:	10803fcc 	andi	r2,r2,255
  801858:	1080201c 	xori	r2,r2,128
  80185c:	10bfe004 	addi	r2,r2,-128
  801860:	10000626 	beq	r2,zero,80187c <logic+0xd00>
  801864:	e0bffc17 	ldw	r2,-16(fp)
  801868:	10803c03 	ldbu	r2,240(r2)
  80186c:	10803fcc 	andi	r2,r2,255
  801870:	1080201c 	xori	r2,r2,128
  801874:	10bfe004 	addi	r2,r2,-128
  801878:	10000c1e 	bne	r2,zero,8018ac <logic+0xd30>
  80187c:	e0bffc17 	ldw	r2,-16(fp)
  801880:	10802b83 	ldbu	r2,174(r2)
  801884:	10803fcc 	andi	r2,r2,255
  801888:	1080201c 	xori	r2,r2,128
  80188c:	10bfe004 	addi	r2,r2,-128
  801890:	10000826 	beq	r2,zero,8018b4 <logic+0xd38>
  801894:	e0bffc17 	ldw	r2,-16(fp)
  801898:	10803c83 	ldbu	r2,242(r2)
  80189c:	10803fcc 	andi	r2,r2,255
  8018a0:	1080201c 	xori	r2,r2,128
  8018a4:	10bfe004 	addi	r2,r2,-128
  8018a8:	10000226 	beq	r2,zero,8018b4 <logic+0xd38>
  8018ac:	00800044 	movi	r2,1
  8018b0:	00000106 	br	8018b8 <logic+0xd3c>
  8018b4:	0005883a 	mov	r2,zero
  8018b8:	1007883a 	mov	r3,r2
  8018bc:	e0bffc17 	ldw	r2,-16(fp)
  8018c0:	10c02c05 	stb	r3,176(r2)
  d->_g108 = !d->_g108;
  8018c4:	e0bffc17 	ldw	r2,-16(fp)
  8018c8:	10802d03 	ldbu	r2,180(r2)
  8018cc:	10803fcc 	andi	r2,r2,255
  8018d0:	1080201c 	xori	r2,r2,128
  8018d4:	10bfe004 	addi	r2,r2,-128
  8018d8:	1005003a 	cmpeq	r2,r2,zero
  8018dc:	1007883a 	mov	r3,r2
  8018e0:	e0bffc17 	ldw	r2,-16(fp)
  8018e4:	10c02d05 	stb	r3,180(r2)
  d->_g112 = d->_g109 || d->_g112;
  8018e8:	e0bffc17 	ldw	r2,-16(fp)
  8018ec:	10802d43 	ldbu	r2,181(r2)
  8018f0:	10803fcc 	andi	r2,r2,255
  8018f4:	1080201c 	xori	r2,r2,128
  8018f8:	10bfe004 	addi	r2,r2,-128
  8018fc:	1000061e 	bne	r2,zero,801918 <logic+0xd9c>
  801900:	e0bffc17 	ldw	r2,-16(fp)
  801904:	10802e03 	ldbu	r2,184(r2)
  801908:	10803fcc 	andi	r2,r2,255
  80190c:	1080201c 	xori	r2,r2,128
  801910:	10bfe004 	addi	r2,r2,-128
  801914:	10000226 	beq	r2,zero,801920 <logic+0xda4>
  801918:	00800044 	movi	r2,1
  80191c:	00000106 	br	801924 <logic+0xda8>
  801920:	0005883a 	mov	r2,zero
  801924:	1007883a 	mov	r3,r2
  801928:	e0bffc17 	ldw	r2,-16(fp)
  80192c:	10c02e05 	stb	r3,184(r2)
  d->_g109 = (d->_g101_e1 || d->_g101) && (d->_g108 || d->_g112) && (d->_g101 || d->_g112);
  801930:	e0bffc17 	ldw	r2,-16(fp)
  801934:	10804283 	ldbu	r2,266(r2)
  801938:	10803fcc 	andi	r2,r2,255
  80193c:	1080201c 	xori	r2,r2,128
  801940:	10bfe004 	addi	r2,r2,-128
  801944:	1000061e 	bne	r2,zero,801960 <logic+0xde4>
  801948:	e0bffc17 	ldw	r2,-16(fp)
  80194c:	10802c03 	ldbu	r2,176(r2)
  801950:	10803fcc 	andi	r2,r2,255
  801954:	1080201c 	xori	r2,r2,128
  801958:	10bfe004 	addi	r2,r2,-128
  80195c:	10001a26 	beq	r2,zero,8019c8 <logic+0xe4c>
  801960:	e0bffc17 	ldw	r2,-16(fp)
  801964:	10802d03 	ldbu	r2,180(r2)
  801968:	10803fcc 	andi	r2,r2,255
  80196c:	1080201c 	xori	r2,r2,128
  801970:	10bfe004 	addi	r2,r2,-128
  801974:	1000061e 	bne	r2,zero,801990 <logic+0xe14>
  801978:	e0bffc17 	ldw	r2,-16(fp)
  80197c:	10802e03 	ldbu	r2,184(r2)
  801980:	10803fcc 	andi	r2,r2,255
  801984:	1080201c 	xori	r2,r2,128
  801988:	10bfe004 	addi	r2,r2,-128
  80198c:	10000e26 	beq	r2,zero,8019c8 <logic+0xe4c>
  801990:	e0bffc17 	ldw	r2,-16(fp)
  801994:	10802c03 	ldbu	r2,176(r2)
  801998:	10803fcc 	andi	r2,r2,255
  80199c:	1080201c 	xori	r2,r2,128
  8019a0:	10bfe004 	addi	r2,r2,-128
  8019a4:	1000061e 	bne	r2,zero,8019c0 <logic+0xe44>
  8019a8:	e0bffc17 	ldw	r2,-16(fp)
  8019ac:	10802e03 	ldbu	r2,184(r2)
  8019b0:	10803fcc 	andi	r2,r2,255
  8019b4:	1080201c 	xori	r2,r2,128
  8019b8:	10bfe004 	addi	r2,r2,-128
  8019bc:	10000226 	beq	r2,zero,8019c8 <logic+0xe4c>
  8019c0:	00800044 	movi	r2,1
  8019c4:	00000106 	br	8019cc <logic+0xe50>
  8019c8:	0005883a 	mov	r2,zero
  8019cc:	1007883a 	mov	r3,r2
  8019d0:	e0bffc17 	ldw	r2,-16(fp)
  8019d4:	10c02d45 	stb	r3,181(r2)
  d->_cg113 = d->_Pacemaker_local__Atrig5;
  8019d8:	e0bffc17 	ldw	r2,-16(fp)
  8019dc:	10c01a03 	ldbu	r3,104(r2)
  8019e0:	e0bffc17 	ldw	r2,-16(fp)
  8019e4:	10c03b05 	stb	r3,236(r2)
  d->_g101 = d->_pg96;
  8019e8:	e0bffc17 	ldw	r2,-16(fp)
  8019ec:	10c04603 	ldbu	r3,280(r2)
  8019f0:	e0bffc17 	ldw	r2,-16(fp)
  8019f4:	10c02c05 	stb	r3,176(r2)
  d->_g110 = (d->_g109 && !d->_cg113) || d->_g101;
  8019f8:	e0bffc17 	ldw	r2,-16(fp)
  8019fc:	10802d43 	ldbu	r2,181(r2)
  801a00:	10803fcc 	andi	r2,r2,255
  801a04:	1080201c 	xori	r2,r2,128
  801a08:	10bfe004 	addi	r2,r2,-128
  801a0c:	10000626 	beq	r2,zero,801a28 <logic+0xeac>
  801a10:	e0bffc17 	ldw	r2,-16(fp)
  801a14:	10803b03 	ldbu	r2,236(r2)
  801a18:	10803fcc 	andi	r2,r2,255
  801a1c:	1080201c 	xori	r2,r2,128
  801a20:	10bfe004 	addi	r2,r2,-128
  801a24:	10000626 	beq	r2,zero,801a40 <logic+0xec4>
  801a28:	e0bffc17 	ldw	r2,-16(fp)
  801a2c:	10802c03 	ldbu	r2,176(r2)
  801a30:	10803fcc 	andi	r2,r2,255
  801a34:	1080201c 	xori	r2,r2,128
  801a38:	10bfe004 	addi	r2,r2,-128
  801a3c:	10000226 	beq	r2,zero,801a48 <logic+0xecc>
  801a40:	00800044 	movi	r2,1
  801a44:	00000106 	br	801a4c <logic+0xed0>
  801a48:	0005883a 	mov	r2,zero
  801a4c:	1007883a 	mov	r3,r2
  801a50:	e0bffc17 	ldw	r2,-16(fp)
  801a54:	10c02d85 	stb	r3,182(r2)
  d->_cg114 = !d->URI_timeout;
  801a58:	e0bffc17 	ldw	r2,-16(fp)
  801a5c:	10801783 	ldbu	r2,94(r2)
  801a60:	10803fcc 	andi	r2,r2,255
  801a64:	1080201c 	xori	r2,r2,128
  801a68:	10bfe004 	addi	r2,r2,-128
  801a6c:	1005003a 	cmpeq	r2,r2,zero
  801a70:	1007883a 	mov	r3,r2
  801a74:	e0bffc17 	ldw	r2,-16(fp)
  801a78:	10c03d85 	stb	r3,246(r2)
  d->_g101_e1 = d->_g110 && d->_cg114;
  801a7c:	e0bffc17 	ldw	r2,-16(fp)
  801a80:	10802d83 	ldbu	r2,182(r2)
  801a84:	10803fcc 	andi	r2,r2,255
  801a88:	1080201c 	xori	r2,r2,128
  801a8c:	10bfe004 	addi	r2,r2,-128
  801a90:	10000826 	beq	r2,zero,801ab4 <logic+0xf38>
  801a94:	e0bffc17 	ldw	r2,-16(fp)
  801a98:	10803d83 	ldbu	r2,246(r2)
  801a9c:	10803fcc 	andi	r2,r2,255
  801aa0:	1080201c 	xori	r2,r2,128
  801aa4:	10bfe004 	addi	r2,r2,-128
  801aa8:	10000226 	beq	r2,zero,801ab4 <logic+0xf38>
  801aac:	00800044 	movi	r2,1
  801ab0:	00000106 	br	801ab8 <logic+0xf3c>
  801ab4:	0005883a 	mov	r2,zero
  801ab8:	1007883a 	mov	r3,r2
  801abc:	e0bffc17 	ldw	r2,-16(fp)
  801ac0:	10c04285 	stb	r3,266(r2)
  if (d->_g101_e1) {
  801ac4:	e0bffc17 	ldw	r2,-16(fp)
  801ac8:	10804283 	ldbu	r2,266(r2)
  801acc:	10803fcc 	andi	r2,r2,255
  801ad0:	1080201c 	xori	r2,r2,128
  801ad4:	10bfe004 	addi	r2,r2,-128
  801ad8:	10000626 	beq	r2,zero,801af4 <logic+0xf78>
    d->VP |= 1;
  801adc:	e0bffc17 	ldw	r2,-16(fp)
  801ae0:	108016c3 	ldbu	r2,91(r2)
  801ae4:	10800054 	ori	r2,r2,1
  801ae8:	1007883a 	mov	r3,r2
  801aec:	e0bffc17 	ldw	r2,-16(fp)
  801af0:	10c016c5 	stb	r3,91(r2)
  }
  d->_g110_e2 = d->_pg79_e1;
  801af4:	e0bffc17 	ldw	r2,-16(fp)
  801af8:	10c04643 	ldbu	r3,281(r2)
  801afc:	e0bffc17 	ldw	r2,-16(fp)
  801b00:	10c042c5 	stb	r3,267(r2)
  d->_cg74 = d->VS || d->VP;
  801b04:	e0bffc17 	ldw	r2,-16(fp)
  801b08:	10801643 	ldbu	r2,89(r2)
  801b0c:	10803fcc 	andi	r2,r2,255
  801b10:	1080201c 	xori	r2,r2,128
  801b14:	10bfe004 	addi	r2,r2,-128
  801b18:	1000061e 	bne	r2,zero,801b34 <logic+0xfb8>
  801b1c:	e0bffc17 	ldw	r2,-16(fp)
  801b20:	108016c3 	ldbu	r2,91(r2)
  801b24:	10803fcc 	andi	r2,r2,255
  801b28:	1080201c 	xori	r2,r2,128
  801b2c:	10bfe004 	addi	r2,r2,-128
  801b30:	10000226 	beq	r2,zero,801b3c <logic+0xfc0>
  801b34:	00800044 	movi	r2,1
  801b38:	00000106 	br	801b40 <logic+0xfc4>
  801b3c:	0005883a 	mov	r2,zero
  801b40:	1007883a 	mov	r3,r2
  801b44:	e0bffc17 	ldw	r2,-16(fp)
  801b48:	10c039c5 	stb	r3,231(r2)
  d->_g117 = d->_g110_e2 && d->_cg74;
  801b4c:	e0bffc17 	ldw	r2,-16(fp)
  801b50:	108042c3 	ldbu	r2,267(r2)
  801b54:	10803fcc 	andi	r2,r2,255
  801b58:	1080201c 	xori	r2,r2,128
  801b5c:	10bfe004 	addi	r2,r2,-128
  801b60:	10000826 	beq	r2,zero,801b84 <logic+0x1008>
  801b64:	e0bffc17 	ldw	r2,-16(fp)
  801b68:	108039c3 	ldbu	r2,231(r2)
  801b6c:	10803fcc 	andi	r2,r2,255
  801b70:	1080201c 	xori	r2,r2,128
  801b74:	10bfe004 	addi	r2,r2,-128
  801b78:	10000226 	beq	r2,zero,801b84 <logic+0x1008>
  801b7c:	00800044 	movi	r2,1
  801b80:	00000106 	br	801b88 <logic+0x100c>
  801b84:	0005883a 	mov	r2,zero
  801b88:	1007883a 	mov	r3,r2
  801b8c:	e0bffc17 	ldw	r2,-16(fp)
  801b90:	10c02f05 	stb	r3,188(r2)
  if (d->_g117) {
  801b94:	e0bffc17 	ldw	r2,-16(fp)
  801b98:	10802f03 	ldbu	r2,188(r2)
  801b9c:	10803fcc 	andi	r2,r2,255
  801ba0:	1080201c 	xori	r2,r2,128
  801ba4:	10bfe004 	addi	r2,r2,-128
  801ba8:	10000626 	beq	r2,zero,801bc4 <logic+0x1048>
    d->v_event |= 1;
  801bac:	e0bffc17 	ldw	r2,-16(fp)
  801bb0:	10801703 	ldbu	r2,92(r2)
  801bb4:	10800054 	ori	r2,r2,1
  801bb8:	1007883a 	mov	r3,r2
  801bbc:	e0bffc17 	ldw	r2,-16(fp)
  801bc0:	10c01705 	stb	r3,92(r2)
  }
  d->_g4 = d->_pg3;
  801bc4:	e0bffc17 	ldw	r2,-16(fp)
  801bc8:	10c04683 	ldbu	r3,282(r2)
  801bcc:	e0bffc17 	ldw	r2,-16(fp)
  801bd0:	10c01b45 	stb	r3,109(r2)
  d->_cg4 = d->v_event;
  801bd4:	e0bffc17 	ldw	r2,-16(fp)
  801bd8:	10c01703 	ldbu	r3,92(r2)
  801bdc:	e0bffc17 	ldw	r2,-16(fp)
  801be0:	10c03445 	stb	r3,209(r2)
  d->_g3 = d->_GO || (d->_g4 && !d->_cg4);
  801be4:	e0bffc17 	ldw	r2,-16(fp)
  801be8:	10803403 	ldbu	r2,208(r2)
  801bec:	10803fcc 	andi	r2,r2,255
  801bf0:	1080201c 	xori	r2,r2,128
  801bf4:	10bfe004 	addi	r2,r2,-128
  801bf8:	10000c1e 	bne	r2,zero,801c2c <logic+0x10b0>
  801bfc:	e0bffc17 	ldw	r2,-16(fp)
  801c00:	10801b43 	ldbu	r2,109(r2)
  801c04:	10803fcc 	andi	r2,r2,255
  801c08:	1080201c 	xori	r2,r2,128
  801c0c:	10bfe004 	addi	r2,r2,-128
  801c10:	10000826 	beq	r2,zero,801c34 <logic+0x10b8>
  801c14:	e0bffc17 	ldw	r2,-16(fp)
  801c18:	10803443 	ldbu	r2,209(r2)
  801c1c:	10803fcc 	andi	r2,r2,255
  801c20:	1080201c 	xori	r2,r2,128
  801c24:	10bfe004 	addi	r2,r2,-128
  801c28:	1000021e 	bne	r2,zero,801c34 <logic+0x10b8>
  801c2c:	00800044 	movi	r2,1
  801c30:	00000106 	br	801c38 <logic+0x10bc>
  801c34:	0005883a 	mov	r2,zero
  801c38:	1007883a 	mov	r3,r2
  801c3c:	e0bffc17 	ldw	r2,-16(fp)
  801c40:	10c01b05 	stb	r3,108(r2)
  d->_g4 = (d->_g4 && d->_cg4) || (d->_g20 && d->_cg24) || d->_g21;
  801c44:	e0bffc17 	ldw	r2,-16(fp)
  801c48:	10801b43 	ldbu	r2,109(r2)
  801c4c:	10803fcc 	andi	r2,r2,255
  801c50:	1080201c 	xori	r2,r2,128
  801c54:	10bfe004 	addi	r2,r2,-128
  801c58:	10000626 	beq	r2,zero,801c74 <logic+0x10f8>
  801c5c:	e0bffc17 	ldw	r2,-16(fp)
  801c60:	10803443 	ldbu	r2,209(r2)
  801c64:	10803fcc 	andi	r2,r2,255
  801c68:	1080201c 	xori	r2,r2,128
  801c6c:	10bfe004 	addi	r2,r2,-128
  801c70:	1000121e 	bne	r2,zero,801cbc <logic+0x1140>
  801c74:	e0bffc17 	ldw	r2,-16(fp)
  801c78:	10801e03 	ldbu	r2,120(r2)
  801c7c:	10803fcc 	andi	r2,r2,255
  801c80:	1080201c 	xori	r2,r2,128
  801c84:	10bfe004 	addi	r2,r2,-128
  801c88:	10000626 	beq	r2,zero,801ca4 <logic+0x1128>
  801c8c:	e0bffc17 	ldw	r2,-16(fp)
  801c90:	10803483 	ldbu	r2,210(r2)
  801c94:	10803fcc 	andi	r2,r2,255
  801c98:	1080201c 	xori	r2,r2,128
  801c9c:	10bfe004 	addi	r2,r2,-128
  801ca0:	1000061e 	bne	r2,zero,801cbc <logic+0x1140>
  801ca4:	e0bffc17 	ldw	r2,-16(fp)
  801ca8:	10801e43 	ldbu	r2,121(r2)
  801cac:	10803fcc 	andi	r2,r2,255
  801cb0:	1080201c 	xori	r2,r2,128
  801cb4:	10bfe004 	addi	r2,r2,-128
  801cb8:	10000226 	beq	r2,zero,801cc4 <logic+0x1148>
  801cbc:	00800044 	movi	r2,1
  801cc0:	00000106 	br	801cc8 <logic+0x114c>
  801cc4:	0005883a 	mov	r2,zero
  801cc8:	1007883a 	mov	r3,r2
  801ccc:	e0bffc17 	ldw	r2,-16(fp)
  801cd0:	10c01b45 	stb	r3,109(r2)
  if (d->_g4) {
  801cd4:	e0bffc17 	ldw	r2,-16(fp)
  801cd8:	10801b43 	ldbu	r2,109(r2)
  801cdc:	10803fcc 	andi	r2,r2,255
  801ce0:	1080201c 	xori	r2,r2,128
  801ce4:	10bfe004 	addi	r2,r2,-128
  801ce8:	10000726 	beq	r2,zero,801d08 <logic+0x118c>
    d->_region0_LRI_x = 0;
  801cec:	e0bffc17 	ldw	r2,-16(fp)
  801cf0:	10000615 	stw	zero,24(r2)
  801cf4:	10000715 	stw	zero,28(r2)
    d->_Pacemaker_local__Atrig = 0;
  801cf8:	e0bffc17 	ldw	r2,-16(fp)
  801cfc:	100018c5 	stb	zero,99(r2)
    d->_Pacemaker_local__Atrig1 = 0;
  801d00:	e0bffc17 	ldw	r2,-16(fp)
  801d04:	10001905 	stb	zero,100(r2)
  }
  d->_cg6 = d->_region0_LRI_x < d->LRI;
  801d08:	e0bffc17 	ldw	r2,-16(fp)
  801d0c:	14000617 	ldw	r16,24(r2)
  801d10:	14400717 	ldw	r17,28(r2)
  801d14:	e0bffc17 	ldw	r2,-16(fp)
  801d18:	10800417 	ldw	r2,16(r2)
  801d1c:	1009883a 	mov	r4,r2
  801d20:	0806b740 	call	806b74 <__floatsidf>
  801d24:	1009883a 	mov	r4,r2
  801d28:	180b883a 	mov	r5,r3
  801d2c:	04800044 	movi	r18,1
  801d30:	200d883a 	mov	r6,r4
  801d34:	280f883a 	mov	r7,r5
  801d38:	8009883a 	mov	r4,r16
  801d3c:	880b883a 	mov	r5,r17
  801d40:	0805a6c0 	call	805a6c <__ledf2>
  801d44:	10000116 	blt	r2,zero,801d4c <logic+0x11d0>
  801d48:	0025883a 	mov	r18,zero
  801d4c:	9007883a 	mov	r3,r18
  801d50:	e0bffc17 	ldw	r2,-16(fp)
  801d54:	10c034c5 	stb	r3,211(r2)
  d->_g24 = d->_g4 && d->_cg6;
  801d58:	e0bffc17 	ldw	r2,-16(fp)
  801d5c:	10801b43 	ldbu	r2,109(r2)
  801d60:	10803fcc 	andi	r2,r2,255
  801d64:	1080201c 	xori	r2,r2,128
  801d68:	10bfe004 	addi	r2,r2,-128
  801d6c:	10000826 	beq	r2,zero,801d90 <logic+0x1214>
  801d70:	e0bffc17 	ldw	r2,-16(fp)
  801d74:	108034c3 	ldbu	r2,211(r2)
  801d78:	10803fcc 	andi	r2,r2,255
  801d7c:	1080201c 	xori	r2,r2,128
  801d80:	10bfe004 	addi	r2,r2,-128
  801d84:	10000226 	beq	r2,zero,801d90 <logic+0x1214>
  801d88:	00800044 	movi	r2,1
  801d8c:	00000106 	br	801d94 <logic+0x1218>
  801d90:	0005883a 	mov	r2,zero
  801d94:	1007883a 	mov	r3,r2
  801d98:	e0bffc17 	ldw	r2,-16(fp)
  801d9c:	10c01f05 	stb	r3,124(r2)
  if (d->_g24) {
  801da0:	e0bffc17 	ldw	r2,-16(fp)
  801da4:	10801f03 	ldbu	r2,124(r2)
  801da8:	10803fcc 	andi	r2,r2,255
  801dac:	1080201c 	xori	r2,r2,128
  801db0:	10bfe004 	addi	r2,r2,-128
  801db4:	10003426 	beq	r2,zero,801e88 <logic+0x130c>
    d->sleepT = (d->sleepT < (d->LRI - d->_region0_LRI_x)) ? d->sleepT : (d->LRI - d->_region0_LRI_x);
  801db8:	e0bffc17 	ldw	r2,-16(fp)
  801dbc:	14001417 	ldw	r16,80(r2)
  801dc0:	14401517 	ldw	r17,84(r2)
  801dc4:	e0bffc17 	ldw	r2,-16(fp)
  801dc8:	10800417 	ldw	r2,16(r2)
  801dcc:	1009883a 	mov	r4,r2
  801dd0:	0806b740 	call	806b74 <__floatsidf>
  801dd4:	1011883a 	mov	r8,r2
  801dd8:	1813883a 	mov	r9,r3
  801ddc:	e13ffc17 	ldw	r4,-16(fp)
  801de0:	20800617 	ldw	r2,24(r4)
  801de4:	20c00717 	ldw	r3,28(r4)
  801de8:	100d883a 	mov	r6,r2
  801dec:	180f883a 	mov	r7,r3
  801df0:	4009883a 	mov	r4,r8
  801df4:	480b883a 	mov	r5,r9
  801df8:	08062780 	call	806278 <__subdf3>
  801dfc:	1009883a 	mov	r4,r2
  801e00:	180b883a 	mov	r5,r3
  801e04:	2005883a 	mov	r2,r4
  801e08:	2807883a 	mov	r3,r5
  801e0c:	100d883a 	mov	r6,r2
  801e10:	180f883a 	mov	r7,r3
  801e14:	8009883a 	mov	r4,r16
  801e18:	880b883a 	mov	r5,r17
  801e1c:	0805a6c0 	call	805a6c <__ledf2>
  801e20:	1000040e 	bge	r2,zero,801e34 <logic+0x12b8>
  801e24:	e13ffc17 	ldw	r4,-16(fp)
  801e28:	20801417 	ldw	r2,80(r4)
  801e2c:	20c01517 	ldw	r3,84(r4)
  801e30:	00001206 	br	801e7c <logic+0x1300>
  801e34:	e0bffc17 	ldw	r2,-16(fp)
  801e38:	10800417 	ldw	r2,16(r2)
  801e3c:	1009883a 	mov	r4,r2
  801e40:	0806b740 	call	806b74 <__floatsidf>
  801e44:	1011883a 	mov	r8,r2
  801e48:	1813883a 	mov	r9,r3
  801e4c:	e13ffc17 	ldw	r4,-16(fp)
  801e50:	20800617 	ldw	r2,24(r4)
  801e54:	20c00717 	ldw	r3,28(r4)
  801e58:	100d883a 	mov	r6,r2
  801e5c:	180f883a 	mov	r7,r3
  801e60:	4009883a 	mov	r4,r8
  801e64:	480b883a 	mov	r5,r9
  801e68:	08062780 	call	806278 <__subdf3>
  801e6c:	1009883a 	mov	r4,r2
  801e70:	180b883a 	mov	r5,r3
  801e74:	2005883a 	mov	r2,r4
  801e78:	2807883a 	mov	r3,r5
  801e7c:	e13ffc17 	ldw	r4,-16(fp)
  801e80:	20801415 	stw	r2,80(r4)
  801e84:	20c01515 	stw	r3,84(r4)
  }
  d->_cg7 = d->_Pacemaker_local__Atrig || d->_Pacemaker_local__Atrig1;
  801e88:	e0bffc17 	ldw	r2,-16(fp)
  801e8c:	108018c3 	ldbu	r2,99(r2)
  801e90:	10803fcc 	andi	r2,r2,255
  801e94:	1080201c 	xori	r2,r2,128
  801e98:	10bfe004 	addi	r2,r2,-128
  801e9c:	1000061e 	bne	r2,zero,801eb8 <logic+0x133c>
  801ea0:	e0bffc17 	ldw	r2,-16(fp)
  801ea4:	10801903 	ldbu	r2,100(r2)
  801ea8:	10803fcc 	andi	r2,r2,255
  801eac:	1080201c 	xori	r2,r2,128
  801eb0:	10bfe004 	addi	r2,r2,-128
  801eb4:	10000226 	beq	r2,zero,801ec0 <logic+0x1344>
  801eb8:	00800044 	movi	r2,1
  801ebc:	00000106 	br	801ec4 <logic+0x1348>
  801ec0:	0005883a 	mov	r2,zero
  801ec4:	1007883a 	mov	r3,r2
  801ec8:	e0bffc17 	ldw	r2,-16(fp)
  801ecc:	10c03505 	stb	r3,212(r2)
  d->_g25 = (d->_g24 && !d->_cg7) || (d->_g9 && !d->_cg11);
  801ed0:	e0bffc17 	ldw	r2,-16(fp)
  801ed4:	10801f03 	ldbu	r2,124(r2)
  801ed8:	10803fcc 	andi	r2,r2,255
  801edc:	1080201c 	xori	r2,r2,128
  801ee0:	10bfe004 	addi	r2,r2,-128
  801ee4:	10000626 	beq	r2,zero,801f00 <logic+0x1384>
  801ee8:	e0bffc17 	ldw	r2,-16(fp)
  801eec:	10803503 	ldbu	r2,212(r2)
  801ef0:	10803fcc 	andi	r2,r2,255
  801ef4:	1080201c 	xori	r2,r2,128
  801ef8:	10bfe004 	addi	r2,r2,-128
  801efc:	10000c26 	beq	r2,zero,801f30 <logic+0x13b4>
  801f00:	e0bffc17 	ldw	r2,-16(fp)
  801f04:	10801c03 	ldbu	r2,112(r2)
  801f08:	10803fcc 	andi	r2,r2,255
  801f0c:	1080201c 	xori	r2,r2,128
  801f10:	10bfe004 	addi	r2,r2,-128
  801f14:	10000826 	beq	r2,zero,801f38 <logic+0x13bc>
  801f18:	e0bffc17 	ldw	r2,-16(fp)
  801f1c:	10803543 	ldbu	r2,213(r2)
  801f20:	10803fcc 	andi	r2,r2,255
  801f24:	1080201c 	xori	r2,r2,128
  801f28:	10bfe004 	addi	r2,r2,-128
  801f2c:	1000021e 	bne	r2,zero,801f38 <logic+0x13bc>
  801f30:	00800044 	movi	r2,1
  801f34:	00000106 	br	801f3c <logic+0x13c0>
  801f38:	0005883a 	mov	r2,zero
  801f3c:	1007883a 	mov	r3,r2
  801f40:	e0bffc17 	ldw	r2,-16(fp)
  801f44:	10c01f45 	stb	r3,125(r2)
  d->_g11 = d->_g4 && !d->_cg6;
  801f48:	e0bffc17 	ldw	r2,-16(fp)
  801f4c:	10801b43 	ldbu	r2,109(r2)
  801f50:	10803fcc 	andi	r2,r2,255
  801f54:	1080201c 	xori	r2,r2,128
  801f58:	10bfe004 	addi	r2,r2,-128
  801f5c:	10000826 	beq	r2,zero,801f80 <logic+0x1404>
  801f60:	e0bffc17 	ldw	r2,-16(fp)
  801f64:	108034c3 	ldbu	r2,211(r2)
  801f68:	10803fcc 	andi	r2,r2,255
  801f6c:	1080201c 	xori	r2,r2,128
  801f70:	10bfe004 	addi	r2,r2,-128
  801f74:	1000021e 	bne	r2,zero,801f80 <logic+0x1404>
  801f78:	00800044 	movi	r2,1
  801f7c:	00000106 	br	801f84 <logic+0x1408>
  801f80:	0005883a 	mov	r2,zero
  801f84:	1007883a 	mov	r3,r2
  801f88:	e0bffc17 	ldw	r2,-16(fp)
  801f8c:	10c01c85 	stb	r3,114(r2)
  d->_cg16 = d->_Pacemaker_local__Atrig || d->_Pacemaker_local__Atrig1;
  801f90:	e0bffc17 	ldw	r2,-16(fp)
  801f94:	108018c3 	ldbu	r2,99(r2)
  801f98:	10803fcc 	andi	r2,r2,255
  801f9c:	1080201c 	xori	r2,r2,128
  801fa0:	10bfe004 	addi	r2,r2,-128
  801fa4:	1000061e 	bne	r2,zero,801fc0 <logic+0x1444>
  801fa8:	e0bffc17 	ldw	r2,-16(fp)
  801fac:	10801903 	ldbu	r2,100(r2)
  801fb0:	10803fcc 	andi	r2,r2,255
  801fb4:	1080201c 	xori	r2,r2,128
  801fb8:	10bfe004 	addi	r2,r2,-128
  801fbc:	10000226 	beq	r2,zero,801fc8 <logic+0x144c>
  801fc0:	00800044 	movi	r2,1
  801fc4:	00000106 	br	801fcc <logic+0x1450>
  801fc8:	0005883a 	mov	r2,zero
  801fcc:	1007883a 	mov	r3,r2
  801fd0:	e0bffc17 	ldw	r2,-16(fp)
  801fd4:	10c03605 	stb	r3,216(r2)
  d->_g7 = (d->_g10 && !d->_cg13) || (d->_g11 && !d->_cg16);
  801fd8:	e0bffc17 	ldw	r2,-16(fp)
  801fdc:	10801c43 	ldbu	r2,113(r2)
  801fe0:	10803fcc 	andi	r2,r2,255
  801fe4:	1080201c 	xori	r2,r2,128
  801fe8:	10bfe004 	addi	r2,r2,-128
  801fec:	10000626 	beq	r2,zero,802008 <logic+0x148c>
  801ff0:	e0bffc17 	ldw	r2,-16(fp)
  801ff4:	108035c3 	ldbu	r2,215(r2)
  801ff8:	10803fcc 	andi	r2,r2,255
  801ffc:	1080201c 	xori	r2,r2,128
  802000:	10bfe004 	addi	r2,r2,-128
  802004:	10000c26 	beq	r2,zero,802038 <logic+0x14bc>
  802008:	e0bffc17 	ldw	r2,-16(fp)
  80200c:	10801c83 	ldbu	r2,114(r2)
  802010:	10803fcc 	andi	r2,r2,255
  802014:	1080201c 	xori	r2,r2,128
  802018:	10bfe004 	addi	r2,r2,-128
  80201c:	10000826 	beq	r2,zero,802040 <logic+0x14c4>
  802020:	e0bffc17 	ldw	r2,-16(fp)
  802024:	10803603 	ldbu	r2,216(r2)
  802028:	10803fcc 	andi	r2,r2,255
  80202c:	1080201c 	xori	r2,r2,128
  802030:	10bfe004 	addi	r2,r2,-128
  802034:	1000021e 	bne	r2,zero,802040 <logic+0x14c4>
  802038:	00800044 	movi	r2,1
  80203c:	00000106 	br	802044 <logic+0x14c8>
  802040:	0005883a 	mov	r2,zero
  802044:	1007883a 	mov	r3,r2
  802048:	e0bffc17 	ldw	r2,-16(fp)
  80204c:	10c01bc5 	stb	r3,111(r2)
  d->_g16 = d->_g4 || (d->_g22 && !d->_cg22);
  802050:	e0bffc17 	ldw	r2,-16(fp)
  802054:	10801b43 	ldbu	r2,109(r2)
  802058:	10803fcc 	andi	r2,r2,255
  80205c:	1080201c 	xori	r2,r2,128
  802060:	10bfe004 	addi	r2,r2,-128
  802064:	10000c1e 	bne	r2,zero,802098 <logic+0x151c>
  802068:	e0bffc17 	ldw	r2,-16(fp)
  80206c:	10801e83 	ldbu	r2,122(r2)
  802070:	10803fcc 	andi	r2,r2,255
  802074:	1080201c 	xori	r2,r2,128
  802078:	10bfe004 	addi	r2,r2,-128
  80207c:	10000826 	beq	r2,zero,8020a0 <logic+0x1524>
  802080:	e0bffc17 	ldw	r2,-16(fp)
  802084:	10803643 	ldbu	r2,217(r2)
  802088:	10803fcc 	andi	r2,r2,255
  80208c:	1080201c 	xori	r2,r2,128
  802090:	10bfe004 	addi	r2,r2,-128
  802094:	1000021e 	bne	r2,zero,8020a0 <logic+0x1524>
  802098:	00800044 	movi	r2,1
  80209c:	00000106 	br	8020a4 <logic+0x1528>
  8020a0:	0005883a 	mov	r2,zero
  8020a4:	1007883a 	mov	r3,r2
  8020a8:	e0bffc17 	ldw	r2,-16(fp)
  8020ac:	10c01d85 	stb	r3,118(r2)
  d->_g13 = d->_pg124;
  8020b0:	e0bffc17 	ldw	r2,-16(fp)
  8020b4:	10c046c3 	ldbu	r3,283(r2)
  8020b8:	e0bffc17 	ldw	r2,-16(fp)
  8020bc:	10c01d05 	stb	r3,116(r2)
  if (d->_g13) {
  8020c0:	e0bffc17 	ldw	r2,-16(fp)
  8020c4:	10801d03 	ldbu	r2,116(r2)
  8020c8:	10803fcc 	andi	r2,r2,255
  8020cc:	1080201c 	xori	r2,r2,128
  8020d0:	10bfe004 	addi	r2,r2,-128
  8020d4:	10001226 	beq	r2,zero,802120 <logic+0x15a4>
    d->_region1_URI_x += d->deltaT;
  8020d8:	e13ffc17 	ldw	r4,-16(fp)
  8020dc:	20800817 	ldw	r2,32(r4)
  8020e0:	20c00917 	ldw	r3,36(r4)
  8020e4:	e1bffc17 	ldw	r6,-16(fp)
  8020e8:	31001217 	ldw	r4,72(r6)
  8020ec:	31401317 	ldw	r5,76(r6)
  8020f0:	200d883a 	mov	r6,r4
  8020f4:	280f883a 	mov	r7,r5
  8020f8:	1009883a 	mov	r4,r2
  8020fc:	180b883a 	mov	r5,r3
  802100:	08050e40 	call	8050e4 <__adddf3>
  802104:	1009883a 	mov	r4,r2
  802108:	180b883a 	mov	r5,r3
  80210c:	2005883a 	mov	r2,r4
  802110:	2807883a 	mov	r3,r5
  802114:	e13ffc17 	ldw	r4,-16(fp)
  802118:	20800815 	stw	r2,32(r4)
  80211c:	20c00915 	stw	r3,36(r4)
  }
  d->_g22 = d->_pg42;
  802120:	e0bffc17 	ldw	r2,-16(fp)
  802124:	10c04703 	ldbu	r3,284(r2)
  802128:	e0bffc17 	ldw	r2,-16(fp)
  80212c:	10c01e85 	stb	r3,122(r2)
  d->_cg47 = d->_region1_URI_x >= d->URI;
  802130:	e0bffc17 	ldw	r2,-16(fp)
  802134:	14000817 	ldw	r16,32(r2)
  802138:	14400917 	ldw	r17,36(r2)
  80213c:	e0bffc17 	ldw	r2,-16(fp)
  802140:	10800517 	ldw	r2,20(r2)
  802144:	1009883a 	mov	r4,r2
  802148:	0806b740 	call	806b74 <__floatsidf>
  80214c:	1009883a 	mov	r4,r2
  802150:	180b883a 	mov	r5,r3
  802154:	04800044 	movi	r18,1
  802158:	200d883a 	mov	r6,r4
  80215c:	280f883a 	mov	r7,r5
  802160:	8009883a 	mov	r4,r16
  802164:	880b883a 	mov	r5,r17
  802168:	08059900 	call	805990 <__gedf2>
  80216c:	1000010e 	bge	r2,zero,802174 <logic+0x15f8>
  802170:	0025883a 	mov	r18,zero
  802174:	9007883a 	mov	r3,r18
  802178:	e0bffc17 	ldw	r2,-16(fp)
  80217c:	10c03805 	stb	r3,224(r2)
  d->_g5 = d->_g22 && d->_cg47;
  802180:	e0bffc17 	ldw	r2,-16(fp)
  802184:	10801e83 	ldbu	r2,122(r2)
  802188:	10803fcc 	andi	r2,r2,255
  80218c:	1080201c 	xori	r2,r2,128
  802190:	10bfe004 	addi	r2,r2,-128
  802194:	10000826 	beq	r2,zero,8021b8 <logic+0x163c>
  802198:	e0bffc17 	ldw	r2,-16(fp)
  80219c:	10803803 	ldbu	r2,224(r2)
  8021a0:	10803fcc 	andi	r2,r2,255
  8021a4:	1080201c 	xori	r2,r2,128
  8021a8:	10bfe004 	addi	r2,r2,-128
  8021ac:	10000226 	beq	r2,zero,8021b8 <logic+0x163c>
  8021b0:	00800044 	movi	r2,1
  8021b4:	00000106 	br	8021bc <logic+0x1640>
  8021b8:	0005883a 	mov	r2,zero
  8021bc:	1007883a 	mov	r3,r2
  8021c0:	e0bffc17 	ldw	r2,-16(fp)
  8021c4:	10c01b85 	stb	r3,110(r2)
  if (d->_g5) {
  8021c8:	e0bffc17 	ldw	r2,-16(fp)
  8021cc:	10801b83 	ldbu	r2,110(r2)
  8021d0:	10803fcc 	andi	r2,r2,255
  8021d4:	1080201c 	xori	r2,r2,128
  8021d8:	10bfe004 	addi	r2,r2,-128
  8021dc:	10000326 	beq	r2,zero,8021ec <logic+0x1670>
    d->_Pacemaker_local__Atrig2 = 1;
  8021e0:	e0bffc17 	ldw	r2,-16(fp)
  8021e4:	00c00044 	movi	r3,1
  8021e8:	10c01945 	stb	r3,101(r2)
  }
  d->_g29 = d->_pg48;
  8021ec:	e0bffc17 	ldw	r2,-16(fp)
  8021f0:	10c04743 	ldbu	r3,285(r2)
  8021f4:	e0bffc17 	ldw	r2,-16(fp)
  8021f8:	10c01f85 	stb	r3,126(r2)
  d->_cg29 = d->v_event;
  8021fc:	e0bffc17 	ldw	r2,-16(fp)
  802200:	10c01703 	ldbu	r3,92(r2)
  802204:	e0bffc17 	ldw	r2,-16(fp)
  802208:	10c036c5 	stb	r3,219(r2)
  d->_g30 = d->_g29 && d->_cg29;
  80220c:	e0bffc17 	ldw	r2,-16(fp)
  802210:	10801f83 	ldbu	r2,126(r2)
  802214:	10803fcc 	andi	r2,r2,255
  802218:	1080201c 	xori	r2,r2,128
  80221c:	10bfe004 	addi	r2,r2,-128
  802220:	10000826 	beq	r2,zero,802244 <logic+0x16c8>
  802224:	e0bffc17 	ldw	r2,-16(fp)
  802228:	108036c3 	ldbu	r2,219(r2)
  80222c:	10803fcc 	andi	r2,r2,255
  802230:	1080201c 	xori	r2,r2,128
  802234:	10bfe004 	addi	r2,r2,-128
  802238:	10000226 	beq	r2,zero,802244 <logic+0x16c8>
  80223c:	00800044 	movi	r2,1
  802240:	00000106 	br	802248 <logic+0x16cc>
  802244:	0005883a 	mov	r2,zero
  802248:	1007883a 	mov	r3,r2
  80224c:	e0bffc17 	ldw	r2,-16(fp)
  802250:	10c01fc5 	stb	r3,127(r2)
  if (d->_g30) {
  802254:	e0bffc17 	ldw	r2,-16(fp)
  802258:	10801fc3 	ldbu	r2,127(r2)
  80225c:	10803fcc 	andi	r2,r2,255
  802260:	1080201c 	xori	r2,r2,128
  802264:	10bfe004 	addi	r2,r2,-128
  802268:	10000526 	beq	r2,zero,802280 <logic+0x1704>
    d->_region1_URI_x = 0;
  80226c:	e0bffc17 	ldw	r2,-16(fp)
  802270:	10000815 	stw	zero,32(r2)
  802274:	10000915 	stw	zero,36(r2)
    d->_Pacemaker_local__Atrig2 = 0;
  802278:	e0bffc17 	ldw	r2,-16(fp)
  80227c:	10001945 	stb	zero,101(r2)
  }
  d->_g35 = d->_g30 || d->_g12;
  802280:	e0bffc17 	ldw	r2,-16(fp)
  802284:	10801fc3 	ldbu	r2,127(r2)
  802288:	10803fcc 	andi	r2,r2,255
  80228c:	1080201c 	xori	r2,r2,128
  802290:	10bfe004 	addi	r2,r2,-128
  802294:	1000061e 	bne	r2,zero,8022b0 <logic+0x1734>
  802298:	e0bffc17 	ldw	r2,-16(fp)
  80229c:	10801cc3 	ldbu	r2,115(r2)
  8022a0:	10803fcc 	andi	r2,r2,255
  8022a4:	1080201c 	xori	r2,r2,128
  8022a8:	10bfe004 	addi	r2,r2,-128
  8022ac:	10000226 	beq	r2,zero,8022b8 <logic+0x173c>
  8022b0:	00800044 	movi	r2,1
  8022b4:	00000106 	br	8022bc <logic+0x1740>
  8022b8:	0005883a 	mov	r2,zero
  8022bc:	1007883a 	mov	r3,r2
  8022c0:	e0bffc17 	ldw	r2,-16(fp)
  8022c4:	10c020c5 	stb	r3,131(r2)
  d->_cg32 = d->_Pacemaker_local__Atrig2;
  8022c8:	e0bffc17 	ldw	r2,-16(fp)
  8022cc:	10c01943 	ldbu	r3,101(r2)
  8022d0:	e0bffc17 	ldw	r2,-16(fp)
  8022d4:	10c03705 	stb	r3,220(r2)
  d->_g34 = d->_g35 && !d->_cg32;
  8022d8:	e0bffc17 	ldw	r2,-16(fp)
  8022dc:	108020c3 	ldbu	r2,131(r2)
  8022e0:	10803fcc 	andi	r2,r2,255
  8022e4:	1080201c 	xori	r2,r2,128
  8022e8:	10bfe004 	addi	r2,r2,-128
  8022ec:	10000826 	beq	r2,zero,802310 <logic+0x1794>
  8022f0:	e0bffc17 	ldw	r2,-16(fp)
  8022f4:	10803703 	ldbu	r2,220(r2)
  8022f8:	10803fcc 	andi	r2,r2,255
  8022fc:	1080201c 	xori	r2,r2,128
  802300:	10bfe004 	addi	r2,r2,-128
  802304:	1000021e 	bne	r2,zero,802310 <logic+0x1794>
  802308:	00800044 	movi	r2,1
  80230c:	00000106 	br	802314 <logic+0x1798>
  802310:	0005883a 	mov	r2,zero
  802314:	1007883a 	mov	r3,r2
  802318:	e0bffc17 	ldw	r2,-16(fp)
  80231c:	10c02085 	stb	r3,130(r2)
  d->_g33_e1 = !d->_g34;
  802320:	e0bffc17 	ldw	r2,-16(fp)
  802324:	10802083 	ldbu	r2,130(r2)
  802328:	10803fcc 	andi	r2,r2,255
  80232c:	1080201c 	xori	r2,r2,128
  802330:	10bfe004 	addi	r2,r2,-128
  802334:	1005003a 	cmpeq	r2,r2,zero
  802338:	1007883a 	mov	r3,r2
  80233c:	e0bffc17 	ldw	r2,-16(fp)
  802340:	10c040c5 	stb	r3,259(r2)
  d->_g32 = d->_g35 && d->_cg32;
  802344:	e0bffc17 	ldw	r2,-16(fp)
  802348:	108020c3 	ldbu	r2,131(r2)
  80234c:	10803fcc 	andi	r2,r2,255
  802350:	1080201c 	xori	r2,r2,128
  802354:	10bfe004 	addi	r2,r2,-128
  802358:	10000826 	beq	r2,zero,80237c <logic+0x1800>
  80235c:	e0bffc17 	ldw	r2,-16(fp)
  802360:	10803703 	ldbu	r2,220(r2)
  802364:	10803fcc 	andi	r2,r2,255
  802368:	1080201c 	xori	r2,r2,128
  80236c:	10bfe004 	addi	r2,r2,-128
  802370:	10000226 	beq	r2,zero,80237c <logic+0x1800>
  802374:	00800044 	movi	r2,1
  802378:	00000106 	br	802380 <logic+0x1804>
  80237c:	0005883a 	mov	r2,zero
  802380:	1007883a 	mov	r3,r2
  802384:	e0bffc17 	ldw	r2,-16(fp)
  802388:	10c02005 	stb	r3,128(r2)
  d->_g41 = d->_pg40;
  80238c:	e0bffc17 	ldw	r2,-16(fp)
  802390:	10c04783 	ldbu	r3,286(r2)
  802394:	e0bffc17 	ldw	r2,-16(fp)
  802398:	10c02205 	stb	r3,136(r2)
  d->_g44 = d->_pg43;
  80239c:	e0bffc17 	ldw	r2,-16(fp)
  8023a0:	10c047c3 	ldbu	r3,287(r2)
  8023a4:	e0bffc17 	ldw	r2,-16(fp)
  8023a8:	10c022c5 	stb	r3,139(r2)
  d->_g44 = d->_g30 || d->_g41 || d->_g44;
  8023ac:	e0bffc17 	ldw	r2,-16(fp)
  8023b0:	10801fc3 	ldbu	r2,127(r2)
  8023b4:	10803fcc 	andi	r2,r2,255
  8023b8:	1080201c 	xori	r2,r2,128
  8023bc:	10bfe004 	addi	r2,r2,-128
  8023c0:	10000c1e 	bne	r2,zero,8023f4 <logic+0x1878>
  8023c4:	e0bffc17 	ldw	r2,-16(fp)
  8023c8:	10802203 	ldbu	r2,136(r2)
  8023cc:	10803fcc 	andi	r2,r2,255
  8023d0:	1080201c 	xori	r2,r2,128
  8023d4:	10bfe004 	addi	r2,r2,-128
  8023d8:	1000061e 	bne	r2,zero,8023f4 <logic+0x1878>
  8023dc:	e0bffc17 	ldw	r2,-16(fp)
  8023e0:	108022c3 	ldbu	r2,139(r2)
  8023e4:	10803fcc 	andi	r2,r2,255
  8023e8:	1080201c 	xori	r2,r2,128
  8023ec:	10bfe004 	addi	r2,r2,-128
  8023f0:	10000226 	beq	r2,zero,8023fc <logic+0x1880>
  8023f4:	00800044 	movi	r2,1
  8023f8:	00000106 	br	802400 <logic+0x1884>
  8023fc:	0005883a 	mov	r2,zero
  802400:	1007883a 	mov	r3,r2
  802404:	e0bffc17 	ldw	r2,-16(fp)
  802408:	10c022c5 	stb	r3,139(r2)
  d->_cg37 = d->_region1_URI_x < d->URI;
  80240c:	e0bffc17 	ldw	r2,-16(fp)
  802410:	14000817 	ldw	r16,32(r2)
  802414:	14400917 	ldw	r17,36(r2)
  802418:	e0bffc17 	ldw	r2,-16(fp)
  80241c:	10800517 	ldw	r2,20(r2)
  802420:	1009883a 	mov	r4,r2
  802424:	0806b740 	call	806b74 <__floatsidf>
  802428:	1009883a 	mov	r4,r2
  80242c:	180b883a 	mov	r5,r3
  802430:	04800044 	movi	r18,1
  802434:	200d883a 	mov	r6,r4
  802438:	280f883a 	mov	r7,r5
  80243c:	8009883a 	mov	r4,r16
  802440:	880b883a 	mov	r5,r17
  802444:	0805a6c0 	call	805a6c <__ledf2>
  802448:	10000116 	blt	r2,zero,802450 <logic+0x18d4>
  80244c:	0025883a 	mov	r18,zero
  802450:	9007883a 	mov	r3,r18
  802454:	e0bffc17 	ldw	r2,-16(fp)
  802458:	10c03745 	stb	r3,221(r2)
  d->_g41 = d->_g44 && !d->_cg37;
  80245c:	e0bffc17 	ldw	r2,-16(fp)
  802460:	108022c3 	ldbu	r2,139(r2)
  802464:	10803fcc 	andi	r2,r2,255
  802468:	1080201c 	xori	r2,r2,128
  80246c:	10bfe004 	addi	r2,r2,-128
  802470:	10000826 	beq	r2,zero,802494 <logic+0x1918>
  802474:	e0bffc17 	ldw	r2,-16(fp)
  802478:	10803743 	ldbu	r2,221(r2)
  80247c:	10803fcc 	andi	r2,r2,255
  802480:	1080201c 	xori	r2,r2,128
  802484:	10bfe004 	addi	r2,r2,-128
  802488:	1000021e 	bne	r2,zero,802494 <logic+0x1918>
  80248c:	00800044 	movi	r2,1
  802490:	00000106 	br	802498 <logic+0x191c>
  802494:	0005883a 	mov	r2,zero
  802498:	1007883a 	mov	r3,r2
  80249c:	e0bffc17 	ldw	r2,-16(fp)
  8024a0:	10c02205 	stb	r3,136(r2)
  d->_cg42 = d->_Pacemaker_local__Atrig2;
  8024a4:	e0bffc17 	ldw	r2,-16(fp)
  8024a8:	10c01943 	ldbu	r3,101(r2)
  8024ac:	e0bffc17 	ldw	r2,-16(fp)
  8024b0:	10c037c5 	stb	r3,223(r2)
  d->_g43 = d->_g41 && !d->_cg42;
  8024b4:	e0bffc17 	ldw	r2,-16(fp)
  8024b8:	10802203 	ldbu	r2,136(r2)
  8024bc:	10803fcc 	andi	r2,r2,255
  8024c0:	1080201c 	xori	r2,r2,128
  8024c4:	10bfe004 	addi	r2,r2,-128
  8024c8:	10000826 	beq	r2,zero,8024ec <logic+0x1970>
  8024cc:	e0bffc17 	ldw	r2,-16(fp)
  8024d0:	108037c3 	ldbu	r2,223(r2)
  8024d4:	10803fcc 	andi	r2,r2,255
  8024d8:	1080201c 	xori	r2,r2,128
  8024dc:	10bfe004 	addi	r2,r2,-128
  8024e0:	1000021e 	bne	r2,zero,8024ec <logic+0x1970>
  8024e4:	00800044 	movi	r2,1
  8024e8:	00000106 	br	8024f0 <logic+0x1974>
  8024ec:	0005883a 	mov	r2,zero
  8024f0:	1007883a 	mov	r3,r2
  8024f4:	e0bffc17 	ldw	r2,-16(fp)
  8024f8:	10c02285 	stb	r3,138(r2)
  d->_g37 = d->_g44 && d->_cg37;
  8024fc:	e0bffc17 	ldw	r2,-16(fp)
  802500:	108022c3 	ldbu	r2,139(r2)
  802504:	10803fcc 	andi	r2,r2,255
  802508:	1080201c 	xori	r2,r2,128
  80250c:	10bfe004 	addi	r2,r2,-128
  802510:	10000826 	beq	r2,zero,802534 <logic+0x19b8>
  802514:	e0bffc17 	ldw	r2,-16(fp)
  802518:	10803743 	ldbu	r2,221(r2)
  80251c:	10803fcc 	andi	r2,r2,255
  802520:	1080201c 	xori	r2,r2,128
  802524:	10bfe004 	addi	r2,r2,-128
  802528:	10000226 	beq	r2,zero,802534 <logic+0x19b8>
  80252c:	00800044 	movi	r2,1
  802530:	00000106 	br	802538 <logic+0x19bc>
  802534:	0005883a 	mov	r2,zero
  802538:	1007883a 	mov	r3,r2
  80253c:	e0bffc17 	ldw	r2,-16(fp)
  802540:	10c02105 	stb	r3,132(r2)
  if (d->_g37) {
  802544:	e0bffc17 	ldw	r2,-16(fp)
  802548:	10802103 	ldbu	r2,132(r2)
  80254c:	10803fcc 	andi	r2,r2,255
  802550:	1080201c 	xori	r2,r2,128
  802554:	10bfe004 	addi	r2,r2,-128
  802558:	10003426 	beq	r2,zero,80262c <logic+0x1ab0>
    d->sleepT = (d->sleepT < (d->URI - d->_region1_URI_x)) ? d->sleepT : (d->URI - d->_region1_URI_x);
  80255c:	e0bffc17 	ldw	r2,-16(fp)
  802560:	14001417 	ldw	r16,80(r2)
  802564:	14401517 	ldw	r17,84(r2)
  802568:	e0bffc17 	ldw	r2,-16(fp)
  80256c:	10800517 	ldw	r2,20(r2)
  802570:	1009883a 	mov	r4,r2
  802574:	0806b740 	call	806b74 <__floatsidf>
  802578:	1011883a 	mov	r8,r2
  80257c:	1813883a 	mov	r9,r3
  802580:	e13ffc17 	ldw	r4,-16(fp)
  802584:	20800817 	ldw	r2,32(r4)
  802588:	20c00917 	ldw	r3,36(r4)
  80258c:	100d883a 	mov	r6,r2
  802590:	180f883a 	mov	r7,r3
  802594:	4009883a 	mov	r4,r8
  802598:	480b883a 	mov	r5,r9
  80259c:	08062780 	call	806278 <__subdf3>
  8025a0:	1009883a 	mov	r4,r2
  8025a4:	180b883a 	mov	r5,r3
  8025a8:	2005883a 	mov	r2,r4
  8025ac:	2807883a 	mov	r3,r5
  8025b0:	100d883a 	mov	r6,r2
  8025b4:	180f883a 	mov	r7,r3
  8025b8:	8009883a 	mov	r4,r16
  8025bc:	880b883a 	mov	r5,r17
  8025c0:	0805a6c0 	call	805a6c <__ledf2>
  8025c4:	1000040e 	bge	r2,zero,8025d8 <logic+0x1a5c>
  8025c8:	e13ffc17 	ldw	r4,-16(fp)
  8025cc:	20801417 	ldw	r2,80(r4)
  8025d0:	20c01517 	ldw	r3,84(r4)
  8025d4:	00001206 	br	802620 <logic+0x1aa4>
  8025d8:	e0bffc17 	ldw	r2,-16(fp)
  8025dc:	10800517 	ldw	r2,20(r2)
  8025e0:	1009883a 	mov	r4,r2
  8025e4:	0806b740 	call	806b74 <__floatsidf>
  8025e8:	1011883a 	mov	r8,r2
  8025ec:	1813883a 	mov	r9,r3
  8025f0:	e13ffc17 	ldw	r4,-16(fp)
  8025f4:	20800817 	ldw	r2,32(r4)
  8025f8:	20c00917 	ldw	r3,36(r4)
  8025fc:	100d883a 	mov	r6,r2
  802600:	180f883a 	mov	r7,r3
  802604:	4009883a 	mov	r4,r8
  802608:	480b883a 	mov	r5,r9
  80260c:	08062780 	call	806278 <__subdf3>
  802610:	1009883a 	mov	r4,r2
  802614:	180b883a 	mov	r5,r3
  802618:	2005883a 	mov	r2,r4
  80261c:	2807883a 	mov	r3,r5
  802620:	e13ffc17 	ldw	r4,-16(fp)
  802624:	20801415 	stw	r2,80(r4)
  802628:	20c01515 	stw	r3,84(r4)
  }
  d->_cg38 = d->_Pacemaker_local__Atrig2;
  80262c:	e0bffc17 	ldw	r2,-16(fp)
  802630:	10c01943 	ldbu	r3,101(r2)
  802634:	e0bffc17 	ldw	r2,-16(fp)
  802638:	10c03785 	stb	r3,222(r2)
  d->_g40 = d->_g37 && !d->_cg38;
  80263c:	e0bffc17 	ldw	r2,-16(fp)
  802640:	10802103 	ldbu	r2,132(r2)
  802644:	10803fcc 	andi	r2,r2,255
  802648:	1080201c 	xori	r2,r2,128
  80264c:	10bfe004 	addi	r2,r2,-128
  802650:	10000826 	beq	r2,zero,802674 <logic+0x1af8>
  802654:	e0bffc17 	ldw	r2,-16(fp)
  802658:	10803783 	ldbu	r2,222(r2)
  80265c:	10803fcc 	andi	r2,r2,255
  802660:	1080201c 	xori	r2,r2,128
  802664:	10bfe004 	addi	r2,r2,-128
  802668:	1000021e 	bne	r2,zero,802674 <logic+0x1af8>
  80266c:	00800044 	movi	r2,1
  802670:	00000106 	br	802678 <logic+0x1afc>
  802674:	0005883a 	mov	r2,zero
  802678:	1007883a 	mov	r3,r2
  80267c:	e0bffc17 	ldw	r2,-16(fp)
  802680:	10c021c5 	stb	r3,135(r2)
  d->_g39_e2 = !(d->_g43 || d->_g40);
  802684:	e0bffc17 	ldw	r2,-16(fp)
  802688:	10802283 	ldbu	r2,138(r2)
  80268c:	10803fcc 	andi	r2,r2,255
  802690:	1080201c 	xori	r2,r2,128
  802694:	10bfe004 	addi	r2,r2,-128
  802698:	1000081e 	bne	r2,zero,8026bc <logic+0x1b40>
  80269c:	e0bffc17 	ldw	r2,-16(fp)
  8026a0:	108021c3 	ldbu	r2,135(r2)
  8026a4:	10803fcc 	andi	r2,r2,255
  8026a8:	1080201c 	xori	r2,r2,128
  8026ac:	10bfe004 	addi	r2,r2,-128
  8026b0:	1000021e 	bne	r2,zero,8026bc <logic+0x1b40>
  8026b4:	00800044 	movi	r2,1
  8026b8:	00000106 	br	8026c0 <logic+0x1b44>
  8026bc:	0005883a 	mov	r2,zero
  8026c0:	1007883a 	mov	r3,r2
  8026c4:	e0bffc17 	ldw	r2,-16(fp)
  8026c8:	10c04105 	stb	r3,260(r2)
  d->_g38 = (d->_g37 && d->_cg38) || (d->_g41 && d->_cg42);
  8026cc:	e0bffc17 	ldw	r2,-16(fp)
  8026d0:	10802103 	ldbu	r2,132(r2)
  8026d4:	10803fcc 	andi	r2,r2,255
  8026d8:	1080201c 	xori	r2,r2,128
  8026dc:	10bfe004 	addi	r2,r2,-128
  8026e0:	10000626 	beq	r2,zero,8026fc <logic+0x1b80>
  8026e4:	e0bffc17 	ldw	r2,-16(fp)
  8026e8:	10803783 	ldbu	r2,222(r2)
  8026ec:	10803fcc 	andi	r2,r2,255
  8026f0:	1080201c 	xori	r2,r2,128
  8026f4:	10bfe004 	addi	r2,r2,-128
  8026f8:	10000c1e 	bne	r2,zero,80272c <logic+0x1bb0>
  8026fc:	e0bffc17 	ldw	r2,-16(fp)
  802700:	10802203 	ldbu	r2,136(r2)
  802704:	10803fcc 	andi	r2,r2,255
  802708:	1080201c 	xori	r2,r2,128
  80270c:	10bfe004 	addi	r2,r2,-128
  802710:	10000826 	beq	r2,zero,802734 <logic+0x1bb8>
  802714:	e0bffc17 	ldw	r2,-16(fp)
  802718:	108037c3 	ldbu	r2,223(r2)
  80271c:	10803fcc 	andi	r2,r2,255
  802720:	1080201c 	xori	r2,r2,128
  802724:	10bfe004 	addi	r2,r2,-128
  802728:	10000226 	beq	r2,zero,802734 <logic+0x1bb8>
  80272c:	00800044 	movi	r2,1
  802730:	00000106 	br	802738 <logic+0x1bbc>
  802734:	0005883a 	mov	r2,zero
  802738:	1007883a 	mov	r3,r2
  80273c:	e0bffc17 	ldw	r2,-16(fp)
  802740:	10c02145 	stb	r3,133(r2)
  d->_g42 = d->_g30 || (d->_g22 && !d->_cg47);
  802744:	e0bffc17 	ldw	r2,-16(fp)
  802748:	10801fc3 	ldbu	r2,127(r2)
  80274c:	10803fcc 	andi	r2,r2,255
  802750:	1080201c 	xori	r2,r2,128
  802754:	10bfe004 	addi	r2,r2,-128
  802758:	10000c1e 	bne	r2,zero,80278c <logic+0x1c10>
  80275c:	e0bffc17 	ldw	r2,-16(fp)
  802760:	10801e83 	ldbu	r2,122(r2)
  802764:	10803fcc 	andi	r2,r2,255
  802768:	1080201c 	xori	r2,r2,128
  80276c:	10bfe004 	addi	r2,r2,-128
  802770:	10000826 	beq	r2,zero,802794 <logic+0x1c18>
  802774:	e0bffc17 	ldw	r2,-16(fp)
  802778:	10803803 	ldbu	r2,224(r2)
  80277c:	10803fcc 	andi	r2,r2,255
  802780:	1080201c 	xori	r2,r2,128
  802784:	10bfe004 	addi	r2,r2,-128
  802788:	1000021e 	bne	r2,zero,802794 <logic+0x1c18>
  80278c:	00800044 	movi	r2,1
  802790:	00000106 	br	802798 <logic+0x1c1c>
  802794:	0005883a 	mov	r2,zero
  802798:	1007883a 	mov	r3,r2
  80279c:	e0bffc17 	ldw	r2,-16(fp)
  8027a0:	10c02245 	stb	r3,137(r2)
  d->_g30 = !d->_g42;
  8027a4:	e0bffc17 	ldw	r2,-16(fp)
  8027a8:	10802243 	ldbu	r2,137(r2)
  8027ac:	10803fcc 	andi	r2,r2,255
  8027b0:	1080201c 	xori	r2,r2,128
  8027b4:	10bfe004 	addi	r2,r2,-128
  8027b8:	1005003a 	cmpeq	r2,r2,zero
  8027bc:	1007883a 	mov	r3,r2
  8027c0:	e0bffc17 	ldw	r2,-16(fp)
  8027c4:	10c01fc5 	stb	r3,127(r2)
  d->_g47 = (d->_g33_e1 || d->_g32) && (d->_g39_e2 || d->_g38) && (d->_g30 || d->_g5) && (d->_g32 || d->_g38 || d->_g5);
  8027c8:	e0bffc17 	ldw	r2,-16(fp)
  8027cc:	108040c3 	ldbu	r2,259(r2)
  8027d0:	10803fcc 	andi	r2,r2,255
  8027d4:	1080201c 	xori	r2,r2,128
  8027d8:	10bfe004 	addi	r2,r2,-128
  8027dc:	1000061e 	bne	r2,zero,8027f8 <logic+0x1c7c>
  8027e0:	e0bffc17 	ldw	r2,-16(fp)
  8027e4:	10802003 	ldbu	r2,128(r2)
  8027e8:	10803fcc 	andi	r2,r2,255
  8027ec:	1080201c 	xori	r2,r2,128
  8027f0:	10bfe004 	addi	r2,r2,-128
  8027f4:	10002c26 	beq	r2,zero,8028a8 <logic+0x1d2c>
  8027f8:	e0bffc17 	ldw	r2,-16(fp)
  8027fc:	10804103 	ldbu	r2,260(r2)
  802800:	10803fcc 	andi	r2,r2,255
  802804:	1080201c 	xori	r2,r2,128
  802808:	10bfe004 	addi	r2,r2,-128
  80280c:	1000061e 	bne	r2,zero,802828 <logic+0x1cac>
  802810:	e0bffc17 	ldw	r2,-16(fp)
  802814:	10802143 	ldbu	r2,133(r2)
  802818:	10803fcc 	andi	r2,r2,255
  80281c:	1080201c 	xori	r2,r2,128
  802820:	10bfe004 	addi	r2,r2,-128
  802824:	10002026 	beq	r2,zero,8028a8 <logic+0x1d2c>
  802828:	e0bffc17 	ldw	r2,-16(fp)
  80282c:	10801fc3 	ldbu	r2,127(r2)
  802830:	10803fcc 	andi	r2,r2,255
  802834:	1080201c 	xori	r2,r2,128
  802838:	10bfe004 	addi	r2,r2,-128
  80283c:	1000061e 	bne	r2,zero,802858 <logic+0x1cdc>
  802840:	e0bffc17 	ldw	r2,-16(fp)
  802844:	10801b83 	ldbu	r2,110(r2)
  802848:	10803fcc 	andi	r2,r2,255
  80284c:	1080201c 	xori	r2,r2,128
  802850:	10bfe004 	addi	r2,r2,-128
  802854:	10001426 	beq	r2,zero,8028a8 <logic+0x1d2c>
  802858:	e0bffc17 	ldw	r2,-16(fp)
  80285c:	10802003 	ldbu	r2,128(r2)
  802860:	10803fcc 	andi	r2,r2,255
  802864:	1080201c 	xori	r2,r2,128
  802868:	10bfe004 	addi	r2,r2,-128
  80286c:	10000c1e 	bne	r2,zero,8028a0 <logic+0x1d24>
  802870:	e0bffc17 	ldw	r2,-16(fp)
  802874:	10802143 	ldbu	r2,133(r2)
  802878:	10803fcc 	andi	r2,r2,255
  80287c:	1080201c 	xori	r2,r2,128
  802880:	10bfe004 	addi	r2,r2,-128
  802884:	1000061e 	bne	r2,zero,8028a0 <logic+0x1d24>
  802888:	e0bffc17 	ldw	r2,-16(fp)
  80288c:	10801b83 	ldbu	r2,110(r2)
  802890:	10803fcc 	andi	r2,r2,255
  802894:	1080201c 	xori	r2,r2,128
  802898:	10bfe004 	addi	r2,r2,-128
  80289c:	10000226 	beq	r2,zero,8028a8 <logic+0x1d2c>
  8028a0:	00800044 	movi	r2,1
  8028a4:	00000106 	br	8028ac <logic+0x1d30>
  8028a8:	0005883a 	mov	r2,zero
  8028ac:	1007883a 	mov	r3,r2
  8028b0:	e0bffc17 	ldw	r2,-16(fp)
  8028b4:	10c02305 	stb	r3,140(r2)
  d->_g48 = d->_GO || d->_g47 || (d->_g29 && !d->_cg29);
  8028b8:	e0bffc17 	ldw	r2,-16(fp)
  8028bc:	10803403 	ldbu	r2,208(r2)
  8028c0:	10803fcc 	andi	r2,r2,255
  8028c4:	1080201c 	xori	r2,r2,128
  8028c8:	10bfe004 	addi	r2,r2,-128
  8028cc:	1000121e 	bne	r2,zero,802918 <logic+0x1d9c>
  8028d0:	e0bffc17 	ldw	r2,-16(fp)
  8028d4:	10802303 	ldbu	r2,140(r2)
  8028d8:	10803fcc 	andi	r2,r2,255
  8028dc:	1080201c 	xori	r2,r2,128
  8028e0:	10bfe004 	addi	r2,r2,-128
  8028e4:	10000c1e 	bne	r2,zero,802918 <logic+0x1d9c>
  8028e8:	e0bffc17 	ldw	r2,-16(fp)
  8028ec:	10801f83 	ldbu	r2,126(r2)
  8028f0:	10803fcc 	andi	r2,r2,255
  8028f4:	1080201c 	xori	r2,r2,128
  8028f8:	10bfe004 	addi	r2,r2,-128
  8028fc:	10000826 	beq	r2,zero,802920 <logic+0x1da4>
  802900:	e0bffc17 	ldw	r2,-16(fp)
  802904:	108036c3 	ldbu	r2,219(r2)
  802908:	10803fcc 	andi	r2,r2,255
  80290c:	1080201c 	xori	r2,r2,128
  802910:	10bfe004 	addi	r2,r2,-128
  802914:	1000021e 	bne	r2,zero,802920 <logic+0x1da4>
  802918:	00800044 	movi	r2,1
  80291c:	00000106 	br	802924 <logic+0x1da8>
  802920:	0005883a 	mov	r2,zero
  802924:	1007883a 	mov	r3,r2
  802928:	e0bffc17 	ldw	r2,-16(fp)
  80292c:	10c02345 	stb	r3,141(r2)
  d->_g33_e1 = d->_pg141;
  802930:	e0bffc17 	ldw	r2,-16(fp)
  802934:	10c04803 	ldbu	r3,288(r2)
  802938:	e0bffc17 	ldw	r2,-16(fp)
  80293c:	10c040c5 	stb	r3,259(r2)
  d->_g39 = d->_pg111;
  802940:	e0bffc17 	ldw	r2,-16(fp)
  802944:	10c04843 	ldbu	r3,289(r2)
  802948:	e0bffc17 	ldw	r2,-16(fp)
  80294c:	10c02185 	stb	r3,134(r2)
  d->_g48_e3 = !(d->_g33_e1 || d->_g39);
  802950:	e0bffc17 	ldw	r2,-16(fp)
  802954:	108040c3 	ldbu	r2,259(r2)
  802958:	10803fcc 	andi	r2,r2,255
  80295c:	1080201c 	xori	r2,r2,128
  802960:	10bfe004 	addi	r2,r2,-128
  802964:	1000081e 	bne	r2,zero,802988 <logic+0x1e0c>
  802968:	e0bffc17 	ldw	r2,-16(fp)
  80296c:	10802183 	ldbu	r2,134(r2)
  802970:	10803fcc 	andi	r2,r2,255
  802974:	1080201c 	xori	r2,r2,128
  802978:	10bfe004 	addi	r2,r2,-128
  80297c:	1000021e 	bne	r2,zero,802988 <logic+0x1e0c>
  802980:	00800044 	movi	r2,1
  802984:	00000106 	br	80298c <logic+0x1e10>
  802988:	0005883a 	mov	r2,zero
  80298c:	1007883a 	mov	r3,r2
  802990:	e0bffc17 	ldw	r2,-16(fp)
  802994:	10c04145 	stb	r3,261(r2)
  d->_g39_e2 = d->_pg33;
  802998:	e0bffc17 	ldw	r2,-16(fp)
  80299c:	10c04883 	ldbu	r3,290(r2)
  8029a0:	e0bffc17 	ldw	r2,-16(fp)
  8029a4:	10c04105 	stb	r3,260(r2)
  d->_g33 = d->_GO || d->_g39_e2;
  8029a8:	e0bffc17 	ldw	r2,-16(fp)
  8029ac:	10803403 	ldbu	r2,208(r2)
  8029b0:	10803fcc 	andi	r2,r2,255
  8029b4:	1080201c 	xori	r2,r2,128
  8029b8:	10bfe004 	addi	r2,r2,-128
  8029bc:	1000061e 	bne	r2,zero,8029d8 <logic+0x1e5c>
  8029c0:	e0bffc17 	ldw	r2,-16(fp)
  8029c4:	10804103 	ldbu	r2,260(r2)
  8029c8:	10803fcc 	andi	r2,r2,255
  8029cc:	1080201c 	xori	r2,r2,128
  8029d0:	10bfe004 	addi	r2,r2,-128
  8029d4:	10000226 	beq	r2,zero,8029e0 <logic+0x1e64>
  8029d8:	00800044 	movi	r2,1
  8029dc:	00000106 	br	8029e4 <logic+0x1e68>
  8029e0:	0005883a 	mov	r2,zero
  8029e4:	1007883a 	mov	r3,r2
  8029e8:	e0bffc17 	ldw	r2,-16(fp)
  8029ec:	10c02045 	stb	r3,129(r2)
  if (d->_g33) {
  8029f0:	e0bffc17 	ldw	r2,-16(fp)
  8029f4:	10802043 	ldbu	r2,129(r2)
  8029f8:	10803fcc 	andi	r2,r2,255
  8029fc:	1080201c 	xori	r2,r2,128
  802a00:	10bfe004 	addi	r2,r2,-128
  802a04:	10000426 	beq	r2,zero,802a18 <logic+0x1e9c>
    d->_pre_a_event = d->_reg_a_event;
  802a08:	e0bffc17 	ldw	r2,-16(fp)
  802a0c:	10c017c3 	ldbu	r3,95(r2)
  802a10:	e0bffc17 	ldw	r2,-16(fp)
  802a14:	10c01805 	stb	r3,96(r2)
  }
  d->_g49 = d->_pg142;
  802a18:	e0bffc17 	ldw	r2,-16(fp)
  802a1c:	10c048c3 	ldbu	r3,291(r2)
  802a20:	e0bffc17 	ldw	r2,-16(fp)
  802a24:	10c02385 	stb	r3,142(r2)
  d->_cg136 = d->_pre_a_event;
  802a28:	e0bffc17 	ldw	r2,-16(fp)
  802a2c:	10c01803 	ldbu	r3,96(r2)
  802a30:	e0bffc17 	ldw	r2,-16(fp)
  802a34:	10c04005 	stb	r3,256(r2)
  d->_g29 = d->_g49 && d->_cg136;
  802a38:	e0bffc17 	ldw	r2,-16(fp)
  802a3c:	10802383 	ldbu	r2,142(r2)
  802a40:	10803fcc 	andi	r2,r2,255
  802a44:	1080201c 	xori	r2,r2,128
  802a48:	10bfe004 	addi	r2,r2,-128
  802a4c:	10000826 	beq	r2,zero,802a70 <logic+0x1ef4>
  802a50:	e0bffc17 	ldw	r2,-16(fp)
  802a54:	10804003 	ldbu	r2,256(r2)
  802a58:	10803fcc 	andi	r2,r2,255
  802a5c:	1080201c 	xori	r2,r2,128
  802a60:	10bfe004 	addi	r2,r2,-128
  802a64:	10000226 	beq	r2,zero,802a70 <logic+0x1ef4>
  802a68:	00800044 	movi	r2,1
  802a6c:	00000106 	br	802a74 <logic+0x1ef8>
  802a70:	0005883a 	mov	r2,zero
  802a74:	1007883a 	mov	r3,r2
  802a78:	e0bffc17 	ldw	r2,-16(fp)
  802a7c:	10c01f85 	stb	r3,126(r2)
  if (d->_g29) {
  802a80:	e0bffc17 	ldw	r2,-16(fp)
  802a84:	10801f83 	ldbu	r2,126(r2)
  802a88:	10803fcc 	andi	r2,r2,255
  802a8c:	1080201c 	xori	r2,r2,128
  802a90:	10bfe004 	addi	r2,r2,-128
  802a94:	10000326 	beq	r2,zero,802aa4 <logic+0x1f28>
    d->_Pacemaker_local__Atrig7 = 1;
  802a98:	e0bffc17 	ldw	r2,-16(fp)
  802a9c:	00c00044 	movi	r3,1
  802aa0:	10c01a85 	stb	r3,106(r2)
  }
  d->_g179 = d->_pg139;
  802aa4:	e0bffc17 	ldw	r2,-16(fp)
  802aa8:	10c04903 	ldbu	r3,292(r2)
  802aac:	e0bffc17 	ldw	r2,-16(fp)
  802ab0:	10c033c5 	stb	r3,207(r2)
  if (d->_g179) {
  802ab4:	e0bffc17 	ldw	r2,-16(fp)
  802ab8:	108033c3 	ldbu	r2,207(r2)
  802abc:	10803fcc 	andi	r2,r2,255
  802ac0:	1080201c 	xori	r2,r2,128
  802ac4:	10bfe004 	addi	r2,r2,-128
  802ac8:	10001226 	beq	r2,zero,802b14 <logic+0x1f98>
    d->_region5_AEI_x += d->deltaT;
  802acc:	e13ffc17 	ldw	r4,-16(fp)
  802ad0:	20801017 	ldw	r2,64(r4)
  802ad4:	20c01117 	ldw	r3,68(r4)
  802ad8:	e1bffc17 	ldw	r6,-16(fp)
  802adc:	31001217 	ldw	r4,72(r6)
  802ae0:	31401317 	ldw	r5,76(r6)
  802ae4:	200d883a 	mov	r6,r4
  802ae8:	280f883a 	mov	r7,r5
  802aec:	1009883a 	mov	r4,r2
  802af0:	180b883a 	mov	r5,r3
  802af4:	08050e40 	call	8050e4 <__adddf3>
  802af8:	1009883a 	mov	r4,r2
  802afc:	180b883a 	mov	r5,r3
  802b00:	2005883a 	mov	r2,r4
  802b04:	2807883a 	mov	r3,r5
  802b08:	e13ffc17 	ldw	r4,-16(fp)
  802b0c:	20801015 	stw	r2,64(r4)
  802b10:	20c01115 	stw	r3,68(r4)
  }
  d->_g139 = d->_g49 && !d->_cg136;
  802b14:	e0bffc17 	ldw	r2,-16(fp)
  802b18:	10802383 	ldbu	r2,142(r2)
  802b1c:	10803fcc 	andi	r2,r2,255
  802b20:	1080201c 	xori	r2,r2,128
  802b24:	10bfe004 	addi	r2,r2,-128
  802b28:	10000826 	beq	r2,zero,802b4c <logic+0x1fd0>
  802b2c:	e0bffc17 	ldw	r2,-16(fp)
  802b30:	10804003 	ldbu	r2,256(r2)
  802b34:	10803fcc 	andi	r2,r2,255
  802b38:	1080201c 	xori	r2,r2,128
  802b3c:	10bfe004 	addi	r2,r2,-128
  802b40:	1000021e 	bne	r2,zero,802b4c <logic+0x1fd0>
  802b44:	00800044 	movi	r2,1
  802b48:	00000106 	br	802b50 <logic+0x1fd4>
  802b4c:	0005883a 	mov	r2,zero
  802b50:	1007883a 	mov	r3,r2
  802b54:	e0bffc17 	ldw	r2,-16(fp)
  802b58:	10c03245 	stb	r3,201(r2)
  d->_cg139 = d->_region5_AEI_x >= d->AEI;
  802b5c:	e0bffc17 	ldw	r2,-16(fp)
  802b60:	14001017 	ldw	r16,64(r2)
  802b64:	14401117 	ldw	r17,68(r2)
  802b68:	e0bffc17 	ldw	r2,-16(fp)
  802b6c:	10800117 	ldw	r2,4(r2)
  802b70:	1009883a 	mov	r4,r2
  802b74:	0806b740 	call	806b74 <__floatsidf>
  802b78:	1009883a 	mov	r4,r2
  802b7c:	180b883a 	mov	r5,r3
  802b80:	04800044 	movi	r18,1
  802b84:	200d883a 	mov	r6,r4
  802b88:	280f883a 	mov	r7,r5
  802b8c:	8009883a 	mov	r4,r16
  802b90:	880b883a 	mov	r5,r17
  802b94:	08059900 	call	805990 <__gedf2>
  802b98:	1000010e 	bge	r2,zero,802ba0 <logic+0x2024>
  802b9c:	0025883a 	mov	r18,zero
  802ba0:	9007883a 	mov	r3,r18
  802ba4:	e0bffc17 	ldw	r2,-16(fp)
  802ba8:	10c03fc5 	stb	r3,255(r2)
  d->_g140 = d->_g139 && d->_cg139;
  802bac:	e0bffc17 	ldw	r2,-16(fp)
  802bb0:	10803243 	ldbu	r2,201(r2)
  802bb4:	10803fcc 	andi	r2,r2,255
  802bb8:	1080201c 	xori	r2,r2,128
  802bbc:	10bfe004 	addi	r2,r2,-128
  802bc0:	10000826 	beq	r2,zero,802be4 <logic+0x2068>
  802bc4:	e0bffc17 	ldw	r2,-16(fp)
  802bc8:	10803fc3 	ldbu	r2,255(r2)
  802bcc:	10803fcc 	andi	r2,r2,255
  802bd0:	1080201c 	xori	r2,r2,128
  802bd4:	10bfe004 	addi	r2,r2,-128
  802bd8:	10000226 	beq	r2,zero,802be4 <logic+0x2068>
  802bdc:	00800044 	movi	r2,1
  802be0:	00000106 	br	802be8 <logic+0x206c>
  802be4:	0005883a 	mov	r2,zero
  802be8:	1007883a 	mov	r3,r2
  802bec:	e0bffc17 	ldw	r2,-16(fp)
  802bf0:	10c03285 	stb	r3,202(r2)
  if (d->_g140) {
  802bf4:	e0bffc17 	ldw	r2,-16(fp)
  802bf8:	10803283 	ldbu	r2,202(r2)
  802bfc:	10803fcc 	andi	r2,r2,255
  802c00:	1080201c 	xori	r2,r2,128
  802c04:	10bfe004 	addi	r2,r2,-128
  802c08:	10000326 	beq	r2,zero,802c18 <logic+0x209c>
    d->_Pacemaker_local__Atrig8 = 1;
  802c0c:	e0bffc17 	ldw	r2,-16(fp)
  802c10:	00c00044 	movi	r3,1
  802c14:	10c01ac5 	stb	r3,107(r2)
  }
  d->_g132 = d->_g39 || d->_g33_e1;
  802c18:	e0bffc17 	ldw	r2,-16(fp)
  802c1c:	10802183 	ldbu	r2,134(r2)
  802c20:	10803fcc 	andi	r2,r2,255
  802c24:	1080201c 	xori	r2,r2,128
  802c28:	10bfe004 	addi	r2,r2,-128
  802c2c:	1000061e 	bne	r2,zero,802c48 <logic+0x20cc>
  802c30:	e0bffc17 	ldw	r2,-16(fp)
  802c34:	108040c3 	ldbu	r2,259(r2)
  802c38:	10803fcc 	andi	r2,r2,255
  802c3c:	1080201c 	xori	r2,r2,128
  802c40:	10bfe004 	addi	r2,r2,-128
  802c44:	10000226 	beq	r2,zero,802c50 <logic+0x20d4>
  802c48:	00800044 	movi	r2,1
  802c4c:	00000106 	br	802c54 <logic+0x20d8>
  802c50:	0005883a 	mov	r2,zero
  802c54:	1007883a 	mov	r3,r2
  802c58:	e0bffc17 	ldw	r2,-16(fp)
  802c5c:	10c03105 	stb	r3,196(r2)
  d->_cg127 = d->_region5_AEI_x < d->AEI;
  802c60:	e0bffc17 	ldw	r2,-16(fp)
  802c64:	14001017 	ldw	r16,64(r2)
  802c68:	14401117 	ldw	r17,68(r2)
  802c6c:	e0bffc17 	ldw	r2,-16(fp)
  802c70:	10800117 	ldw	r2,4(r2)
  802c74:	1009883a 	mov	r4,r2
  802c78:	0806b740 	call	806b74 <__floatsidf>
  802c7c:	1009883a 	mov	r4,r2
  802c80:	180b883a 	mov	r5,r3
  802c84:	04800044 	movi	r18,1
  802c88:	200d883a 	mov	r6,r4
  802c8c:	280f883a 	mov	r7,r5
  802c90:	8009883a 	mov	r4,r16
  802c94:	880b883a 	mov	r5,r17
  802c98:	0805a6c0 	call	805a6c <__ledf2>
  802c9c:	10000116 	blt	r2,zero,802ca4 <logic+0x2128>
  802ca0:	0025883a 	mov	r18,zero
  802ca4:	9007883a 	mov	r3,r18
  802ca8:	e0bffc17 	ldw	r2,-16(fp)
  802cac:	10c03f05 	stb	r3,252(r2)
  d->_g126 = d->_g132 && d->_cg127;
  802cb0:	e0bffc17 	ldw	r2,-16(fp)
  802cb4:	10803103 	ldbu	r2,196(r2)
  802cb8:	10803fcc 	andi	r2,r2,255
  802cbc:	1080201c 	xori	r2,r2,128
  802cc0:	10bfe004 	addi	r2,r2,-128
  802cc4:	10000826 	beq	r2,zero,802ce8 <logic+0x216c>
  802cc8:	e0bffc17 	ldw	r2,-16(fp)
  802ccc:	10803f03 	ldbu	r2,252(r2)
  802cd0:	10803fcc 	andi	r2,r2,255
  802cd4:	1080201c 	xori	r2,r2,128
  802cd8:	10bfe004 	addi	r2,r2,-128
  802cdc:	10000226 	beq	r2,zero,802ce8 <logic+0x216c>
  802ce0:	00800044 	movi	r2,1
  802ce4:	00000106 	br	802cec <logic+0x2170>
  802ce8:	0005883a 	mov	r2,zero
  802cec:	1007883a 	mov	r3,r2
  802cf0:	e0bffc17 	ldw	r2,-16(fp)
  802cf4:	10c02fc5 	stb	r3,191(r2)
  if (d->_g126) {
  802cf8:	e0bffc17 	ldw	r2,-16(fp)
  802cfc:	10802fc3 	ldbu	r2,191(r2)
  802d00:	10803fcc 	andi	r2,r2,255
  802d04:	1080201c 	xori	r2,r2,128
  802d08:	10bfe004 	addi	r2,r2,-128
  802d0c:	10003426 	beq	r2,zero,802de0 <logic+0x2264>
    d->sleepT = (d->sleepT < (d->AEI - d->_region5_AEI_x)) ? d->sleepT : (d->AEI - d->_region5_AEI_x);
  802d10:	e0bffc17 	ldw	r2,-16(fp)
  802d14:	14001417 	ldw	r16,80(r2)
  802d18:	14401517 	ldw	r17,84(r2)
  802d1c:	e0bffc17 	ldw	r2,-16(fp)
  802d20:	10800117 	ldw	r2,4(r2)
  802d24:	1009883a 	mov	r4,r2
  802d28:	0806b740 	call	806b74 <__floatsidf>
  802d2c:	1011883a 	mov	r8,r2
  802d30:	1813883a 	mov	r9,r3
  802d34:	e13ffc17 	ldw	r4,-16(fp)
  802d38:	20801017 	ldw	r2,64(r4)
  802d3c:	20c01117 	ldw	r3,68(r4)
  802d40:	100d883a 	mov	r6,r2
  802d44:	180f883a 	mov	r7,r3
  802d48:	4009883a 	mov	r4,r8
  802d4c:	480b883a 	mov	r5,r9
  802d50:	08062780 	call	806278 <__subdf3>
  802d54:	1009883a 	mov	r4,r2
  802d58:	180b883a 	mov	r5,r3
  802d5c:	2005883a 	mov	r2,r4
  802d60:	2807883a 	mov	r3,r5
  802d64:	100d883a 	mov	r6,r2
  802d68:	180f883a 	mov	r7,r3
  802d6c:	8009883a 	mov	r4,r16
  802d70:	880b883a 	mov	r5,r17
  802d74:	0805a6c0 	call	805a6c <__ledf2>
  802d78:	1000040e 	bge	r2,zero,802d8c <logic+0x2210>
  802d7c:	e13ffc17 	ldw	r4,-16(fp)
  802d80:	20801417 	ldw	r2,80(r4)
  802d84:	20c01517 	ldw	r3,84(r4)
  802d88:	00001206 	br	802dd4 <logic+0x2258>
  802d8c:	e0bffc17 	ldw	r2,-16(fp)
  802d90:	10800117 	ldw	r2,4(r2)
  802d94:	1009883a 	mov	r4,r2
  802d98:	0806b740 	call	806b74 <__floatsidf>
  802d9c:	1011883a 	mov	r8,r2
  802da0:	1813883a 	mov	r9,r3
  802da4:	e13ffc17 	ldw	r4,-16(fp)
  802da8:	20801017 	ldw	r2,64(r4)
  802dac:	20c01117 	ldw	r3,68(r4)
  802db0:	100d883a 	mov	r6,r2
  802db4:	180f883a 	mov	r7,r3
  802db8:	4009883a 	mov	r4,r8
  802dbc:	480b883a 	mov	r5,r9
  802dc0:	08062780 	call	806278 <__subdf3>
  802dc4:	1009883a 	mov	r4,r2
  802dc8:	180b883a 	mov	r5,r3
  802dcc:	2005883a 	mov	r2,r4
  802dd0:	2807883a 	mov	r3,r5
  802dd4:	e13ffc17 	ldw	r4,-16(fp)
  802dd8:	20801415 	stw	r2,80(r4)
  802ddc:	20c01515 	stw	r3,84(r4)
  }
  d->_cg128 = d->_Pacemaker_local__Atrig7 || d->_Pacemaker_local__Atrig8;
  802de0:	e0bffc17 	ldw	r2,-16(fp)
  802de4:	10801a83 	ldbu	r2,106(r2)
  802de8:	10803fcc 	andi	r2,r2,255
  802dec:	1080201c 	xori	r2,r2,128
  802df0:	10bfe004 	addi	r2,r2,-128
  802df4:	1000061e 	bne	r2,zero,802e10 <logic+0x2294>
  802df8:	e0bffc17 	ldw	r2,-16(fp)
  802dfc:	10801ac3 	ldbu	r2,107(r2)
  802e00:	10803fcc 	andi	r2,r2,255
  802e04:	1080201c 	xori	r2,r2,128
  802e08:	10bfe004 	addi	r2,r2,-128
  802e0c:	10000226 	beq	r2,zero,802e18 <logic+0x229c>
  802e10:	00800044 	movi	r2,1
  802e14:	00000106 	br	802e1c <logic+0x22a0>
  802e18:	0005883a 	mov	r2,zero
  802e1c:	1007883a 	mov	r3,r2
  802e20:	e0bffc17 	ldw	r2,-16(fp)
  802e24:	10c03ec5 	stb	r3,251(r2)
  d->_g127 = d->_g132 && !d->_cg127;
  802e28:	e0bffc17 	ldw	r2,-16(fp)
  802e2c:	10803103 	ldbu	r2,196(r2)
  802e30:	10803fcc 	andi	r2,r2,255
  802e34:	1080201c 	xori	r2,r2,128
  802e38:	10bfe004 	addi	r2,r2,-128
  802e3c:	10000826 	beq	r2,zero,802e60 <logic+0x22e4>
  802e40:	e0bffc17 	ldw	r2,-16(fp)
  802e44:	10803f03 	ldbu	r2,252(r2)
  802e48:	10803fcc 	andi	r2,r2,255
  802e4c:	1080201c 	xori	r2,r2,128
  802e50:	10bfe004 	addi	r2,r2,-128
  802e54:	1000021e 	bne	r2,zero,802e60 <logic+0x22e4>
  802e58:	00800044 	movi	r2,1
  802e5c:	00000106 	br	802e64 <logic+0x22e8>
  802e60:	0005883a 	mov	r2,zero
  802e64:	1007883a 	mov	r3,r2
  802e68:	e0bffc17 	ldw	r2,-16(fp)
  802e6c:	10c03005 	stb	r3,192(r2)
  d->_cg130 = d->_Pacemaker_local__Atrig7 || d->_Pacemaker_local__Atrig8;
  802e70:	e0bffc17 	ldw	r2,-16(fp)
  802e74:	10801a83 	ldbu	r2,106(r2)
  802e78:	10803fcc 	andi	r2,r2,255
  802e7c:	1080201c 	xori	r2,r2,128
  802e80:	10bfe004 	addi	r2,r2,-128
  802e84:	1000061e 	bne	r2,zero,802ea0 <logic+0x2324>
  802e88:	e0bffc17 	ldw	r2,-16(fp)
  802e8c:	10801ac3 	ldbu	r2,107(r2)
  802e90:	10803fcc 	andi	r2,r2,255
  802e94:	1080201c 	xori	r2,r2,128
  802e98:	10bfe004 	addi	r2,r2,-128
  802e9c:	10000226 	beq	r2,zero,802ea8 <logic+0x232c>
  802ea0:	00800044 	movi	r2,1
  802ea4:	00000106 	br	802eac <logic+0x2330>
  802ea8:	0005883a 	mov	r2,zero
  802eac:	1007883a 	mov	r3,r2
  802eb0:	e0bffc17 	ldw	r2,-16(fp)
  802eb4:	10c03f45 	stb	r3,253(r2)
  d->_g129 = (d->_g126 && d->_cg128) || (d->_g127 && d->_cg130);
  802eb8:	e0bffc17 	ldw	r2,-16(fp)
  802ebc:	10802fc3 	ldbu	r2,191(r2)
  802ec0:	10803fcc 	andi	r2,r2,255
  802ec4:	1080201c 	xori	r2,r2,128
  802ec8:	10bfe004 	addi	r2,r2,-128
  802ecc:	10000626 	beq	r2,zero,802ee8 <logic+0x236c>
  802ed0:	e0bffc17 	ldw	r2,-16(fp)
  802ed4:	10803ec3 	ldbu	r2,251(r2)
  802ed8:	10803fcc 	andi	r2,r2,255
  802edc:	1080201c 	xori	r2,r2,128
  802ee0:	10bfe004 	addi	r2,r2,-128
  802ee4:	10000c1e 	bne	r2,zero,802f18 <logic+0x239c>
  802ee8:	e0bffc17 	ldw	r2,-16(fp)
  802eec:	10803003 	ldbu	r2,192(r2)
  802ef0:	10803fcc 	andi	r2,r2,255
  802ef4:	1080201c 	xori	r2,r2,128
  802ef8:	10bfe004 	addi	r2,r2,-128
  802efc:	10000826 	beq	r2,zero,802f20 <logic+0x23a4>
  802f00:	e0bffc17 	ldw	r2,-16(fp)
  802f04:	10803f43 	ldbu	r2,253(r2)
  802f08:	10803fcc 	andi	r2,r2,255
  802f0c:	1080201c 	xori	r2,r2,128
  802f10:	10bfe004 	addi	r2,r2,-128
  802f14:	10000226 	beq	r2,zero,802f20 <logic+0x23a4>
  802f18:	00800044 	movi	r2,1
  802f1c:	00000106 	br	802f24 <logic+0x23a8>
  802f20:	0005883a 	mov	r2,zero
  802f24:	1007883a 	mov	r3,r2
  802f28:	e0bffc17 	ldw	r2,-16(fp)
  802f2c:	10c03085 	stb	r3,194(r2)
  d->_g136 = !d->_g49;
  802f30:	e0bffc17 	ldw	r2,-16(fp)
  802f34:	10802383 	ldbu	r2,142(r2)
  802f38:	10803fcc 	andi	r2,r2,255
  802f3c:	1080201c 	xori	r2,r2,128
  802f40:	10bfe004 	addi	r2,r2,-128
  802f44:	1005003a 	cmpeq	r2,r2,zero
  802f48:	1007883a 	mov	r3,r2
  802f4c:	e0bffc17 	ldw	r2,-16(fp)
  802f50:	10c03185 	stb	r3,198(r2)
  d->_g137 = d->_g29 || d->_g140;
  802f54:	e0bffc17 	ldw	r2,-16(fp)
  802f58:	10801f83 	ldbu	r2,126(r2)
  802f5c:	10803fcc 	andi	r2,r2,255
  802f60:	1080201c 	xori	r2,r2,128
  802f64:	10bfe004 	addi	r2,r2,-128
  802f68:	1000061e 	bne	r2,zero,802f84 <logic+0x2408>
  802f6c:	e0bffc17 	ldw	r2,-16(fp)
  802f70:	10803283 	ldbu	r2,202(r2)
  802f74:	10803fcc 	andi	r2,r2,255
  802f78:	1080201c 	xori	r2,r2,128
  802f7c:	10bfe004 	addi	r2,r2,-128
  802f80:	10000226 	beq	r2,zero,802f8c <logic+0x2410>
  802f84:	00800044 	movi	r2,1
  802f88:	00000106 	br	802f90 <logic+0x2414>
  802f8c:	0005883a 	mov	r2,zero
  802f90:	1007883a 	mov	r3,r2
  802f94:	e0bffc17 	ldw	r2,-16(fp)
  802f98:	10c031c5 	stb	r3,199(r2)
  d->_g140 = (d->_g48_e3 || d->_g129) && (d->_g136 || d->_g137) && (d->_g129 || d->_g137);
  802f9c:	e0bffc17 	ldw	r2,-16(fp)
  802fa0:	10804143 	ldbu	r2,261(r2)
  802fa4:	10803fcc 	andi	r2,r2,255
  802fa8:	1080201c 	xori	r2,r2,128
  802fac:	10bfe004 	addi	r2,r2,-128
  802fb0:	1000061e 	bne	r2,zero,802fcc <logic+0x2450>
  802fb4:	e0bffc17 	ldw	r2,-16(fp)
  802fb8:	10803083 	ldbu	r2,194(r2)
  802fbc:	10803fcc 	andi	r2,r2,255
  802fc0:	1080201c 	xori	r2,r2,128
  802fc4:	10bfe004 	addi	r2,r2,-128
  802fc8:	10001a26 	beq	r2,zero,803034 <logic+0x24b8>
  802fcc:	e0bffc17 	ldw	r2,-16(fp)
  802fd0:	10803183 	ldbu	r2,198(r2)
  802fd4:	10803fcc 	andi	r2,r2,255
  802fd8:	1080201c 	xori	r2,r2,128
  802fdc:	10bfe004 	addi	r2,r2,-128
  802fe0:	1000061e 	bne	r2,zero,802ffc <logic+0x2480>
  802fe4:	e0bffc17 	ldw	r2,-16(fp)
  802fe8:	108031c3 	ldbu	r2,199(r2)
  802fec:	10803fcc 	andi	r2,r2,255
  802ff0:	1080201c 	xori	r2,r2,128
  802ff4:	10bfe004 	addi	r2,r2,-128
  802ff8:	10000e26 	beq	r2,zero,803034 <logic+0x24b8>
  802ffc:	e0bffc17 	ldw	r2,-16(fp)
  803000:	10803083 	ldbu	r2,194(r2)
  803004:	10803fcc 	andi	r2,r2,255
  803008:	1080201c 	xori	r2,r2,128
  80300c:	10bfe004 	addi	r2,r2,-128
  803010:	1000061e 	bne	r2,zero,80302c <logic+0x24b0>
  803014:	e0bffc17 	ldw	r2,-16(fp)
  803018:	108031c3 	ldbu	r2,199(r2)
  80301c:	10803fcc 	andi	r2,r2,255
  803020:	1080201c 	xori	r2,r2,128
  803024:	10bfe004 	addi	r2,r2,-128
  803028:	10000226 	beq	r2,zero,803034 <logic+0x24b8>
  80302c:	00800044 	movi	r2,1
  803030:	00000106 	br	803038 <logic+0x24bc>
  803034:	0005883a 	mov	r2,zero
  803038:	1007883a 	mov	r3,r2
  80303c:	e0bffc17 	ldw	r2,-16(fp)
  803040:	10c03285 	stb	r3,202(r2)
  d->_cg141 = d->_Pacemaker_local__Atrig7;
  803044:	e0bffc17 	ldw	r2,-16(fp)
  803048:	10c01a83 	ldbu	r3,106(r2)
  80304c:	e0bffc17 	ldw	r2,-16(fp)
  803050:	10c03dc5 	stb	r3,247(r2)
  d->_g129_e1 = d->_g140 && !d->_cg141;
  803054:	e0bffc17 	ldw	r2,-16(fp)
  803058:	10803283 	ldbu	r2,202(r2)
  80305c:	10803fcc 	andi	r2,r2,255
  803060:	1080201c 	xori	r2,r2,128
  803064:	10bfe004 	addi	r2,r2,-128
  803068:	10000826 	beq	r2,zero,80308c <logic+0x2510>
  80306c:	e0bffc17 	ldw	r2,-16(fp)
  803070:	10803dc3 	ldbu	r2,247(r2)
  803074:	10803fcc 	andi	r2,r2,255
  803078:	1080201c 	xori	r2,r2,128
  80307c:	10bfe004 	addi	r2,r2,-128
  803080:	1000021e 	bne	r2,zero,80308c <logic+0x2510>
  803084:	00800044 	movi	r2,1
  803088:	00000106 	br	803090 <logic+0x2514>
  80308c:	0005883a 	mov	r2,zero
  803090:	1007883a 	mov	r3,r2
  803094:	e0bffc17 	ldw	r2,-16(fp)
  803098:	10c04305 	stb	r3,268(r2)
  if (d->_g129_e1) {
  80309c:	e0bffc17 	ldw	r2,-16(fp)
  8030a0:	10804303 	ldbu	r2,268(r2)
  8030a4:	10803fcc 	andi	r2,r2,255
  8030a8:	1080201c 	xori	r2,r2,128
  8030ac:	10bfe004 	addi	r2,r2,-128
  8030b0:	10000626 	beq	r2,zero,8030cc <logic+0x2550>
    d->AP |= 1;
  8030b4:	e0bffc17 	ldw	r2,-16(fp)
  8030b8:	10801683 	ldbu	r2,90(r2)
  8030bc:	10800054 	ori	r2,r2,1
  8030c0:	1007883a 	mov	r3,r2
  8030c4:	e0bffc17 	ldw	r2,-16(fp)
  8030c8:	10c01685 	stb	r3,90(r2)
  }
  d->_g129 = d->_pg60_e1;
  8030cc:	e0bffc17 	ldw	r2,-16(fp)
  8030d0:	10c04943 	ldbu	r3,293(r2)
  8030d4:	e0bffc17 	ldw	r2,-16(fp)
  8030d8:	10c03085 	stb	r3,194(r2)
  d->_cg53 = d->AS || d->AP;
  8030dc:	e0bffc17 	ldw	r2,-16(fp)
  8030e0:	10801603 	ldbu	r2,88(r2)
  8030e4:	10803fcc 	andi	r2,r2,255
  8030e8:	1080201c 	xori	r2,r2,128
  8030ec:	10bfe004 	addi	r2,r2,-128
  8030f0:	1000061e 	bne	r2,zero,80310c <logic+0x2590>
  8030f4:	e0bffc17 	ldw	r2,-16(fp)
  8030f8:	10801683 	ldbu	r2,90(r2)
  8030fc:	10803fcc 	andi	r2,r2,255
  803100:	1080201c 	xori	r2,r2,128
  803104:	10bfe004 	addi	r2,r2,-128
  803108:	10000226 	beq	r2,zero,803114 <logic+0x2598>
  80310c:	00800044 	movi	r2,1
  803110:	00000106 	br	803118 <logic+0x259c>
  803114:	0005883a 	mov	r2,zero
  803118:	1007883a 	mov	r3,r2
  80311c:	e0bffc17 	ldw	r2,-16(fp)
  803120:	10c03885 	stb	r3,226(r2)
  d->_g138 = d->_g129 && d->_cg53;
  803124:	e0bffc17 	ldw	r2,-16(fp)
  803128:	10803083 	ldbu	r2,194(r2)
  80312c:	10803fcc 	andi	r2,r2,255
  803130:	1080201c 	xori	r2,r2,128
  803134:	10bfe004 	addi	r2,r2,-128
  803138:	10000826 	beq	r2,zero,80315c <logic+0x25e0>
  80313c:	e0bffc17 	ldw	r2,-16(fp)
  803140:	10803883 	ldbu	r2,226(r2)
  803144:	10803fcc 	andi	r2,r2,255
  803148:	1080201c 	xori	r2,r2,128
  80314c:	10bfe004 	addi	r2,r2,-128
  803150:	10000226 	beq	r2,zero,80315c <logic+0x25e0>
  803154:	00800044 	movi	r2,1
  803158:	00000106 	br	803160 <logic+0x25e4>
  80315c:	0005883a 	mov	r2,zero
  803160:	1007883a 	mov	r3,r2
  803164:	e0bffc17 	ldw	r2,-16(fp)
  803168:	10c03205 	stb	r3,200(r2)
  if (d->_g138) {
  80316c:	e0bffc17 	ldw	r2,-16(fp)
  803170:	10803203 	ldbu	r2,200(r2)
  803174:	10803fcc 	andi	r2,r2,255
  803178:	1080201c 	xori	r2,r2,128
  80317c:	10bfe004 	addi	r2,r2,-128
  803180:	10000626 	beq	r2,zero,80319c <logic+0x2620>
    d->a_event |= 1;
  803184:	e0bffc17 	ldw	r2,-16(fp)
  803188:	10801743 	ldbu	r2,93(r2)
  80318c:	10800054 	ori	r2,r2,1
  803190:	1007883a 	mov	r3,r2
  803194:	e0bffc17 	ldw	r2,-16(fp)
  803198:	10c01745 	stb	r3,93(r2)
  }
  d->_g138_e2 = d->_pg128;
  80319c:	e0bffc17 	ldw	r2,-16(fp)
  8031a0:	10c04983 	ldbu	r3,294(r2)
  8031a4:	e0bffc17 	ldw	r2,-16(fp)
  8031a8:	10c04345 	stb	r3,269(r2)
  if (d->_g138_e2) {
  8031ac:	e0bffc17 	ldw	r2,-16(fp)
  8031b0:	10804343 	ldbu	r2,269(r2)
  8031b4:	10803fcc 	andi	r2,r2,255
  8031b8:	1080201c 	xori	r2,r2,128
  8031bc:	10bfe004 	addi	r2,r2,-128
  8031c0:	10001226 	beq	r2,zero,80320c <logic+0x2690>
    d->_region2_PVARP_x += d->deltaT;
  8031c4:	e13ffc17 	ldw	r4,-16(fp)
  8031c8:	20800a17 	ldw	r2,40(r4)
  8031cc:	20c00b17 	ldw	r3,44(r4)
  8031d0:	e1bffc17 	ldw	r6,-16(fp)
  8031d4:	31001217 	ldw	r4,72(r6)
  8031d8:	31401317 	ldw	r5,76(r6)
  8031dc:	200d883a 	mov	r6,r4
  8031e0:	280f883a 	mov	r7,r5
  8031e4:	1009883a 	mov	r4,r2
  8031e8:	180b883a 	mov	r5,r3
  8031ec:	08050e40 	call	8050e4 <__adddf3>
  8031f0:	1009883a 	mov	r4,r2
  8031f4:	180b883a 	mov	r5,r3
  8031f8:	2005883a 	mov	r2,r4
  8031fc:	2807883a 	mov	r3,r5
  803200:	e13ffc17 	ldw	r4,-16(fp)
  803204:	20800a15 	stw	r2,40(r4)
  803208:	20c00b15 	stw	r3,44(r4)
  }
  d->_g68 = d->_pg63;
  80320c:	e0bffc17 	ldw	r2,-16(fp)
  803210:	10c049c3 	ldbu	r3,295(r2)
  803214:	e0bffc17 	ldw	r2,-16(fp)
  803218:	10c026c5 	stb	r3,155(r2)
  d->_cg68 = d->_region2_PVARP_x >= d->PVARP;
  80321c:	e0bffc17 	ldw	r2,-16(fp)
  803220:	14000a17 	ldw	r16,40(r2)
  803224:	14400b17 	ldw	r17,44(r2)
  803228:	e0bffc17 	ldw	r2,-16(fp)
  80322c:	10800217 	ldw	r2,8(r2)
  803230:	1009883a 	mov	r4,r2
  803234:	0806b740 	call	806b74 <__floatsidf>
  803238:	1009883a 	mov	r4,r2
  80323c:	180b883a 	mov	r5,r3
  803240:	04800044 	movi	r18,1
  803244:	200d883a 	mov	r6,r4
  803248:	280f883a 	mov	r7,r5
  80324c:	8009883a 	mov	r4,r16
  803250:	880b883a 	mov	r5,r17
  803254:	08059900 	call	805990 <__gedf2>
  803258:	1000010e 	bge	r2,zero,803260 <logic+0x26e4>
  80325c:	0025883a 	mov	r18,zero
  803260:	9007883a 	mov	r3,r18
  803264:	e0bffc17 	ldw	r2,-16(fp)
  803268:	10c03985 	stb	r3,230(r2)
  d->_g69 = d->_g68 && d->_cg68;
  80326c:	e0bffc17 	ldw	r2,-16(fp)
  803270:	108026c3 	ldbu	r2,155(r2)
  803274:	10803fcc 	andi	r2,r2,255
  803278:	1080201c 	xori	r2,r2,128
  80327c:	10bfe004 	addi	r2,r2,-128
  803280:	10000826 	beq	r2,zero,8032a4 <logic+0x2728>
  803284:	e0bffc17 	ldw	r2,-16(fp)
  803288:	10803983 	ldbu	r2,230(r2)
  80328c:	10803fcc 	andi	r2,r2,255
  803290:	1080201c 	xori	r2,r2,128
  803294:	10bfe004 	addi	r2,r2,-128
  803298:	10000226 	beq	r2,zero,8032a4 <logic+0x2728>
  80329c:	00800044 	movi	r2,1
  8032a0:	00000106 	br	8032a8 <logic+0x272c>
  8032a4:	0005883a 	mov	r2,zero
  8032a8:	1007883a 	mov	r3,r2
  8032ac:	e0bffc17 	ldw	r2,-16(fp)
  8032b0:	10c02705 	stb	r3,156(r2)
  if (d->_g69) {
  8032b4:	e0bffc17 	ldw	r2,-16(fp)
  8032b8:	10802703 	ldbu	r2,156(r2)
  8032bc:	10803fcc 	andi	r2,r2,255
  8032c0:	1080201c 	xori	r2,r2,128
  8032c4:	10bfe004 	addi	r2,r2,-128
  8032c8:	10000326 	beq	r2,zero,8032d8 <logic+0x275c>
    d->_Pacemaker_local__Atrig3 = 1;
  8032cc:	e0bffc17 	ldw	r2,-16(fp)
  8032d0:	00c00044 	movi	r3,1
  8032d4:	10c01985 	stb	r3,102(r2)
  }
  d->_g53 = d->_g129 && !d->_cg53;
  8032d8:	e0bffc17 	ldw	r2,-16(fp)
  8032dc:	10803083 	ldbu	r2,194(r2)
  8032e0:	10803fcc 	andi	r2,r2,255
  8032e4:	1080201c 	xori	r2,r2,128
  8032e8:	10bfe004 	addi	r2,r2,-128
  8032ec:	10000826 	beq	r2,zero,803310 <logic+0x2794>
  8032f0:	e0bffc17 	ldw	r2,-16(fp)
  8032f4:	10803883 	ldbu	r2,226(r2)
  8032f8:	10803fcc 	andi	r2,r2,255
  8032fc:	1080201c 	xori	r2,r2,128
  803300:	10bfe004 	addi	r2,r2,-128
  803304:	1000021e 	bne	r2,zero,803310 <logic+0x2794>
  803308:	00800044 	movi	r2,1
  80330c:	00000106 	br	803314 <logic+0x2798>
  803310:	0005883a 	mov	r2,zero
  803314:	1007883a 	mov	r3,r2
  803318:	e0bffc17 	ldw	r2,-16(fp)
  80331c:	10c023c5 	stb	r3,143(r2)
  d->_cg55 = d->v_event;
  803320:	e0bffc17 	ldw	r2,-16(fp)
  803324:	10c01703 	ldbu	r3,92(r2)
  803328:	e0bffc17 	ldw	r2,-16(fp)
  80332c:	10c03845 	stb	r3,225(r2)
  d->_g56 = d->_g53 && d->_cg55;
  803330:	e0bffc17 	ldw	r2,-16(fp)
  803334:	108023c3 	ldbu	r2,143(r2)
  803338:	10803fcc 	andi	r2,r2,255
  80333c:	1080201c 	xori	r2,r2,128
  803340:	10bfe004 	addi	r2,r2,-128
  803344:	10000826 	beq	r2,zero,803368 <logic+0x27ec>
  803348:	e0bffc17 	ldw	r2,-16(fp)
  80334c:	10803843 	ldbu	r2,225(r2)
  803350:	10803fcc 	andi	r2,r2,255
  803354:	1080201c 	xori	r2,r2,128
  803358:	10bfe004 	addi	r2,r2,-128
  80335c:	10000226 	beq	r2,zero,803368 <logic+0x27ec>
  803360:	00800044 	movi	r2,1
  803364:	00000106 	br	80336c <logic+0x27f0>
  803368:	0005883a 	mov	r2,zero
  80336c:	1007883a 	mov	r3,r2
  803370:	e0bffc17 	ldw	r2,-16(fp)
  803374:	10c02485 	stb	r3,146(r2)
  if (d->_g56) {
  803378:	e0bffc17 	ldw	r2,-16(fp)
  80337c:	10802483 	ldbu	r2,146(r2)
  803380:	10803fcc 	andi	r2,r2,255
  803384:	1080201c 	xori	r2,r2,128
  803388:	10bfe004 	addi	r2,r2,-128
  80338c:	10000526 	beq	r2,zero,8033a4 <logic+0x2828>
    d->_region2_PVARP_x = 0;
  803390:	e0bffc17 	ldw	r2,-16(fp)
  803394:	10000a15 	stw	zero,40(r2)
  803398:	10000b15 	stw	zero,44(r2)
    d->_Pacemaker_local__Atrig3 = 0;
  80339c:	e0bffc17 	ldw	r2,-16(fp)
  8033a0:	10001985 	stb	zero,102(r2)
  }
  d->_g62 = d->_pg61;
  8033a4:	e0bffc17 	ldw	r2,-16(fp)
  8033a8:	10c04a03 	ldbu	r3,296(r2)
  8033ac:	e0bffc17 	ldw	r2,-16(fp)
  8033b0:	10c025c5 	stb	r3,151(r2)
  d->_g65 = d->_pg64;
  8033b4:	e0bffc17 	ldw	r2,-16(fp)
  8033b8:	10c04a43 	ldbu	r3,297(r2)
  8033bc:	e0bffc17 	ldw	r2,-16(fp)
  8033c0:	10c02685 	stb	r3,154(r2)
  d->_g62 = d->_g56 || d->_g62 || d->_g65;
  8033c4:	e0bffc17 	ldw	r2,-16(fp)
  8033c8:	10802483 	ldbu	r2,146(r2)
  8033cc:	10803fcc 	andi	r2,r2,255
  8033d0:	1080201c 	xori	r2,r2,128
  8033d4:	10bfe004 	addi	r2,r2,-128
  8033d8:	10000c1e 	bne	r2,zero,80340c <logic+0x2890>
  8033dc:	e0bffc17 	ldw	r2,-16(fp)
  8033e0:	108025c3 	ldbu	r2,151(r2)
  8033e4:	10803fcc 	andi	r2,r2,255
  8033e8:	1080201c 	xori	r2,r2,128
  8033ec:	10bfe004 	addi	r2,r2,-128
  8033f0:	1000061e 	bne	r2,zero,80340c <logic+0x2890>
  8033f4:	e0bffc17 	ldw	r2,-16(fp)
  8033f8:	10802683 	ldbu	r2,154(r2)
  8033fc:	10803fcc 	andi	r2,r2,255
  803400:	1080201c 	xori	r2,r2,128
  803404:	10bfe004 	addi	r2,r2,-128
  803408:	10000226 	beq	r2,zero,803414 <logic+0x2898>
  80340c:	00800044 	movi	r2,1
  803410:	00000106 	br	803418 <logic+0x289c>
  803414:	0005883a 	mov	r2,zero
  803418:	1007883a 	mov	r3,r2
  80341c:	e0bffc17 	ldw	r2,-16(fp)
  803420:	10c025c5 	stb	r3,151(r2)
  d->_cg58 = d->_region2_PVARP_x < d->PVARP;
  803424:	e0bffc17 	ldw	r2,-16(fp)
  803428:	14000a17 	ldw	r16,40(r2)
  80342c:	14400b17 	ldw	r17,44(r2)
  803430:	e0bffc17 	ldw	r2,-16(fp)
  803434:	10800217 	ldw	r2,8(r2)
  803438:	1009883a 	mov	r4,r2
  80343c:	0806b740 	call	806b74 <__floatsidf>
  803440:	1009883a 	mov	r4,r2
  803444:	180b883a 	mov	r5,r3
  803448:	04800044 	movi	r18,1
  80344c:	200d883a 	mov	r6,r4
  803450:	280f883a 	mov	r7,r5
  803454:	8009883a 	mov	r4,r16
  803458:	880b883a 	mov	r5,r17
  80345c:	0805a6c0 	call	805a6c <__ledf2>
  803460:	10000116 	blt	r2,zero,803468 <logic+0x28ec>
  803464:	0025883a 	mov	r18,zero
  803468:	9007883a 	mov	r3,r18
  80346c:	e0bffc17 	ldw	r2,-16(fp)
  803470:	10c038c5 	stb	r3,227(r2)
  d->_g65 = d->_g62 && !d->_cg58;
  803474:	e0bffc17 	ldw	r2,-16(fp)
  803478:	108025c3 	ldbu	r2,151(r2)
  80347c:	10803fcc 	andi	r2,r2,255
  803480:	1080201c 	xori	r2,r2,128
  803484:	10bfe004 	addi	r2,r2,-128
  803488:	10000826 	beq	r2,zero,8034ac <logic+0x2930>
  80348c:	e0bffc17 	ldw	r2,-16(fp)
  803490:	108038c3 	ldbu	r2,227(r2)
  803494:	10803fcc 	andi	r2,r2,255
  803498:	1080201c 	xori	r2,r2,128
  80349c:	10bfe004 	addi	r2,r2,-128
  8034a0:	1000021e 	bne	r2,zero,8034ac <logic+0x2930>
  8034a4:	00800044 	movi	r2,1
  8034a8:	00000106 	br	8034b0 <logic+0x2934>
  8034ac:	0005883a 	mov	r2,zero
  8034b0:	1007883a 	mov	r3,r2
  8034b4:	e0bffc17 	ldw	r2,-16(fp)
  8034b8:	10c02685 	stb	r3,154(r2)
  d->_cg63 = d->_Pacemaker_local__Atrig3;
  8034bc:	e0bffc17 	ldw	r2,-16(fp)
  8034c0:	10c01983 	ldbu	r3,102(r2)
  8034c4:	e0bffc17 	ldw	r2,-16(fp)
  8034c8:	10c03945 	stb	r3,229(r2)
  d->_g64 = d->_g65 && !d->_cg63;
  8034cc:	e0bffc17 	ldw	r2,-16(fp)
  8034d0:	10802683 	ldbu	r2,154(r2)
  8034d4:	10803fcc 	andi	r2,r2,255
  8034d8:	1080201c 	xori	r2,r2,128
  8034dc:	10bfe004 	addi	r2,r2,-128
  8034e0:	10000826 	beq	r2,zero,803504 <logic+0x2988>
  8034e4:	e0bffc17 	ldw	r2,-16(fp)
  8034e8:	10803943 	ldbu	r2,229(r2)
  8034ec:	10803fcc 	andi	r2,r2,255
  8034f0:	1080201c 	xori	r2,r2,128
  8034f4:	10bfe004 	addi	r2,r2,-128
  8034f8:	1000021e 	bne	r2,zero,803504 <logic+0x2988>
  8034fc:	00800044 	movi	r2,1
  803500:	00000106 	br	803508 <logic+0x298c>
  803504:	0005883a 	mov	r2,zero
  803508:	1007883a 	mov	r3,r2
  80350c:	e0bffc17 	ldw	r2,-16(fp)
  803510:	10c02645 	stb	r3,153(r2)
  d->_g58 = d->_g62 && d->_cg58;
  803514:	e0bffc17 	ldw	r2,-16(fp)
  803518:	108025c3 	ldbu	r2,151(r2)
  80351c:	10803fcc 	andi	r2,r2,255
  803520:	1080201c 	xori	r2,r2,128
  803524:	10bfe004 	addi	r2,r2,-128
  803528:	10000826 	beq	r2,zero,80354c <logic+0x29d0>
  80352c:	e0bffc17 	ldw	r2,-16(fp)
  803530:	108038c3 	ldbu	r2,227(r2)
  803534:	10803fcc 	andi	r2,r2,255
  803538:	1080201c 	xori	r2,r2,128
  80353c:	10bfe004 	addi	r2,r2,-128
  803540:	10000226 	beq	r2,zero,80354c <logic+0x29d0>
  803544:	00800044 	movi	r2,1
  803548:	00000106 	br	803550 <logic+0x29d4>
  80354c:	0005883a 	mov	r2,zero
  803550:	1007883a 	mov	r3,r2
  803554:	e0bffc17 	ldw	r2,-16(fp)
  803558:	10c024c5 	stb	r3,147(r2)
  if (d->_g58) {
  80355c:	e0bffc17 	ldw	r2,-16(fp)
  803560:	108024c3 	ldbu	r2,147(r2)
  803564:	10803fcc 	andi	r2,r2,255
  803568:	1080201c 	xori	r2,r2,128
  80356c:	10bfe004 	addi	r2,r2,-128
  803570:	10003426 	beq	r2,zero,803644 <logic+0x2ac8>
    d->sleepT = (d->sleepT < (d->PVARP - d->_region2_PVARP_x)) ? d->sleepT : (d->PVARP - d->_region2_PVARP_x);
  803574:	e0bffc17 	ldw	r2,-16(fp)
  803578:	14001417 	ldw	r16,80(r2)
  80357c:	14401517 	ldw	r17,84(r2)
  803580:	e0bffc17 	ldw	r2,-16(fp)
  803584:	10800217 	ldw	r2,8(r2)
  803588:	1009883a 	mov	r4,r2
  80358c:	0806b740 	call	806b74 <__floatsidf>
  803590:	1011883a 	mov	r8,r2
  803594:	1813883a 	mov	r9,r3
  803598:	e13ffc17 	ldw	r4,-16(fp)
  80359c:	20800a17 	ldw	r2,40(r4)
  8035a0:	20c00b17 	ldw	r3,44(r4)
  8035a4:	100d883a 	mov	r6,r2
  8035a8:	180f883a 	mov	r7,r3
  8035ac:	4009883a 	mov	r4,r8
  8035b0:	480b883a 	mov	r5,r9
  8035b4:	08062780 	call	806278 <__subdf3>
  8035b8:	1009883a 	mov	r4,r2
  8035bc:	180b883a 	mov	r5,r3
  8035c0:	2005883a 	mov	r2,r4
  8035c4:	2807883a 	mov	r3,r5
  8035c8:	100d883a 	mov	r6,r2
  8035cc:	180f883a 	mov	r7,r3
  8035d0:	8009883a 	mov	r4,r16
  8035d4:	880b883a 	mov	r5,r17
  8035d8:	0805a6c0 	call	805a6c <__ledf2>
  8035dc:	1000040e 	bge	r2,zero,8035f0 <logic+0x2a74>
  8035e0:	e13ffc17 	ldw	r4,-16(fp)
  8035e4:	20801417 	ldw	r2,80(r4)
  8035e8:	20c01517 	ldw	r3,84(r4)
  8035ec:	00001206 	br	803638 <logic+0x2abc>
  8035f0:	e0bffc17 	ldw	r2,-16(fp)
  8035f4:	10800217 	ldw	r2,8(r2)
  8035f8:	1009883a 	mov	r4,r2
  8035fc:	0806b740 	call	806b74 <__floatsidf>
  803600:	1011883a 	mov	r8,r2
  803604:	1813883a 	mov	r9,r3
  803608:	e13ffc17 	ldw	r4,-16(fp)
  80360c:	20800a17 	ldw	r2,40(r4)
  803610:	20c00b17 	ldw	r3,44(r4)
  803614:	100d883a 	mov	r6,r2
  803618:	180f883a 	mov	r7,r3
  80361c:	4009883a 	mov	r4,r8
  803620:	480b883a 	mov	r5,r9
  803624:	08062780 	call	806278 <__subdf3>
  803628:	1009883a 	mov	r4,r2
  80362c:	180b883a 	mov	r5,r3
  803630:	2005883a 	mov	r2,r4
  803634:	2807883a 	mov	r3,r5
  803638:	e13ffc17 	ldw	r4,-16(fp)
  80363c:	20801415 	stw	r2,80(r4)
  803640:	20c01515 	stw	r3,84(r4)
  }
  d->_cg59 = d->_Pacemaker_local__Atrig3;
  803644:	e0bffc17 	ldw	r2,-16(fp)
  803648:	10c01983 	ldbu	r3,102(r2)
  80364c:	e0bffc17 	ldw	r2,-16(fp)
  803650:	10c03905 	stb	r3,228(r2)
  d->_g61 = d->_g58 && !d->_cg59;
  803654:	e0bffc17 	ldw	r2,-16(fp)
  803658:	108024c3 	ldbu	r2,147(r2)
  80365c:	10803fcc 	andi	r2,r2,255
  803660:	1080201c 	xori	r2,r2,128
  803664:	10bfe004 	addi	r2,r2,-128
  803668:	10000826 	beq	r2,zero,80368c <logic+0x2b10>
  80366c:	e0bffc17 	ldw	r2,-16(fp)
  803670:	10803903 	ldbu	r2,228(r2)
  803674:	10803fcc 	andi	r2,r2,255
  803678:	1080201c 	xori	r2,r2,128
  80367c:	10bfe004 	addi	r2,r2,-128
  803680:	1000021e 	bne	r2,zero,80368c <logic+0x2b10>
  803684:	00800044 	movi	r2,1
  803688:	00000106 	br	803690 <logic+0x2b14>
  80368c:	0005883a 	mov	r2,zero
  803690:	1007883a 	mov	r3,r2
  803694:	e0bffc17 	ldw	r2,-16(fp)
  803698:	10c02585 	stb	r3,150(r2)
  d->_g60_e1 = !(d->_g64 || d->_g61);
  80369c:	e0bffc17 	ldw	r2,-16(fp)
  8036a0:	10802643 	ldbu	r2,153(r2)
  8036a4:	10803fcc 	andi	r2,r2,255
  8036a8:	1080201c 	xori	r2,r2,128
  8036ac:	10bfe004 	addi	r2,r2,-128
  8036b0:	1000081e 	bne	r2,zero,8036d4 <logic+0x2b58>
  8036b4:	e0bffc17 	ldw	r2,-16(fp)
  8036b8:	10802583 	ldbu	r2,150(r2)
  8036bc:	10803fcc 	andi	r2,r2,255
  8036c0:	1080201c 	xori	r2,r2,128
  8036c4:	10bfe004 	addi	r2,r2,-128
  8036c8:	1000021e 	bne	r2,zero,8036d4 <logic+0x2b58>
  8036cc:	00800044 	movi	r2,1
  8036d0:	00000106 	br	8036d8 <logic+0x2b5c>
  8036d4:	0005883a 	mov	r2,zero
  8036d8:	1007883a 	mov	r3,r2
  8036dc:	e0bffc17 	ldw	r2,-16(fp)
  8036e0:	10c04185 	stb	r3,262(r2)
  d->_g59 = (d->_g58 && d->_cg59) || (d->_g65 && d->_cg63);
  8036e4:	e0bffc17 	ldw	r2,-16(fp)
  8036e8:	108024c3 	ldbu	r2,147(r2)
  8036ec:	10803fcc 	andi	r2,r2,255
  8036f0:	1080201c 	xori	r2,r2,128
  8036f4:	10bfe004 	addi	r2,r2,-128
  8036f8:	10000626 	beq	r2,zero,803714 <logic+0x2b98>
  8036fc:	e0bffc17 	ldw	r2,-16(fp)
  803700:	10803903 	ldbu	r2,228(r2)
  803704:	10803fcc 	andi	r2,r2,255
  803708:	1080201c 	xori	r2,r2,128
  80370c:	10bfe004 	addi	r2,r2,-128
  803710:	10000c1e 	bne	r2,zero,803744 <logic+0x2bc8>
  803714:	e0bffc17 	ldw	r2,-16(fp)
  803718:	10802683 	ldbu	r2,154(r2)
  80371c:	10803fcc 	andi	r2,r2,255
  803720:	1080201c 	xori	r2,r2,128
  803724:	10bfe004 	addi	r2,r2,-128
  803728:	10000826 	beq	r2,zero,80374c <logic+0x2bd0>
  80372c:	e0bffc17 	ldw	r2,-16(fp)
  803730:	10803943 	ldbu	r2,229(r2)
  803734:	10803fcc 	andi	r2,r2,255
  803738:	1080201c 	xori	r2,r2,128
  80373c:	10bfe004 	addi	r2,r2,-128
  803740:	10000226 	beq	r2,zero,80374c <logic+0x2bd0>
  803744:	00800044 	movi	r2,1
  803748:	00000106 	br	803750 <logic+0x2bd4>
  80374c:	0005883a 	mov	r2,zero
  803750:	1007883a 	mov	r3,r2
  803754:	e0bffc17 	ldw	r2,-16(fp)
  803758:	10c02505 	stb	r3,148(r2)
  d->_g63 = d->_g56 || (d->_g68 && !d->_cg68);
  80375c:	e0bffc17 	ldw	r2,-16(fp)
  803760:	10802483 	ldbu	r2,146(r2)
  803764:	10803fcc 	andi	r2,r2,255
  803768:	1080201c 	xori	r2,r2,128
  80376c:	10bfe004 	addi	r2,r2,-128
  803770:	10000c1e 	bne	r2,zero,8037a4 <logic+0x2c28>
  803774:	e0bffc17 	ldw	r2,-16(fp)
  803778:	108026c3 	ldbu	r2,155(r2)
  80377c:	10803fcc 	andi	r2,r2,255
  803780:	1080201c 	xori	r2,r2,128
  803784:	10bfe004 	addi	r2,r2,-128
  803788:	10000826 	beq	r2,zero,8037ac <logic+0x2c30>
  80378c:	e0bffc17 	ldw	r2,-16(fp)
  803790:	10803983 	ldbu	r2,230(r2)
  803794:	10803fcc 	andi	r2,r2,255
  803798:	1080201c 	xori	r2,r2,128
  80379c:	10bfe004 	addi	r2,r2,-128
  8037a0:	1000021e 	bne	r2,zero,8037ac <logic+0x2c30>
  8037a4:	00800044 	movi	r2,1
  8037a8:	00000106 	br	8037b0 <logic+0x2c34>
  8037ac:	0005883a 	mov	r2,zero
  8037b0:	1007883a 	mov	r3,r2
  8037b4:	e0bffc17 	ldw	r2,-16(fp)
  8037b8:	10c02605 	stb	r3,152(r2)
  d->_g56 = !d->_g63;
  8037bc:	e0bffc17 	ldw	r2,-16(fp)
  8037c0:	10802603 	ldbu	r2,152(r2)
  8037c4:	10803fcc 	andi	r2,r2,255
  8037c8:	1080201c 	xori	r2,r2,128
  8037cc:	10bfe004 	addi	r2,r2,-128
  8037d0:	1005003a 	cmpeq	r2,r2,zero
  8037d4:	1007883a 	mov	r3,r2
  8037d8:	e0bffc17 	ldw	r2,-16(fp)
  8037dc:	10c02485 	stb	r3,146(r2)
  d->_g68 = (d->_g60_e1 || d->_g59) && (d->_g56 || d->_g69) && (d->_g59 || d->_g69);
  8037e0:	e0bffc17 	ldw	r2,-16(fp)
  8037e4:	10804183 	ldbu	r2,262(r2)
  8037e8:	10803fcc 	andi	r2,r2,255
  8037ec:	1080201c 	xori	r2,r2,128
  8037f0:	10bfe004 	addi	r2,r2,-128
  8037f4:	1000061e 	bne	r2,zero,803810 <logic+0x2c94>
  8037f8:	e0bffc17 	ldw	r2,-16(fp)
  8037fc:	10802503 	ldbu	r2,148(r2)
  803800:	10803fcc 	andi	r2,r2,255
  803804:	1080201c 	xori	r2,r2,128
  803808:	10bfe004 	addi	r2,r2,-128
  80380c:	10001a26 	beq	r2,zero,803878 <logic+0x2cfc>
  803810:	e0bffc17 	ldw	r2,-16(fp)
  803814:	10802483 	ldbu	r2,146(r2)
  803818:	10803fcc 	andi	r2,r2,255
  80381c:	1080201c 	xori	r2,r2,128
  803820:	10bfe004 	addi	r2,r2,-128
  803824:	1000061e 	bne	r2,zero,803840 <logic+0x2cc4>
  803828:	e0bffc17 	ldw	r2,-16(fp)
  80382c:	10802703 	ldbu	r2,156(r2)
  803830:	10803fcc 	andi	r2,r2,255
  803834:	1080201c 	xori	r2,r2,128
  803838:	10bfe004 	addi	r2,r2,-128
  80383c:	10000e26 	beq	r2,zero,803878 <logic+0x2cfc>
  803840:	e0bffc17 	ldw	r2,-16(fp)
  803844:	10802503 	ldbu	r2,148(r2)
  803848:	10803fcc 	andi	r2,r2,255
  80384c:	1080201c 	xori	r2,r2,128
  803850:	10bfe004 	addi	r2,r2,-128
  803854:	1000061e 	bne	r2,zero,803870 <logic+0x2cf4>
  803858:	e0bffc17 	ldw	r2,-16(fp)
  80385c:	10802703 	ldbu	r2,156(r2)
  803860:	10803fcc 	andi	r2,r2,255
  803864:	1080201c 	xori	r2,r2,128
  803868:	10bfe004 	addi	r2,r2,-128
  80386c:	10000226 	beq	r2,zero,803878 <logic+0x2cfc>
  803870:	00800044 	movi	r2,1
  803874:	00000106 	br	80387c <logic+0x2d00>
  803878:	0005883a 	mov	r2,zero
  80387c:	1007883a 	mov	r3,r2
  803880:	e0bffc17 	ldw	r2,-16(fp)
  803884:	10c026c5 	stb	r3,155(r2)
  d->_g60_e1 = d->_GO || d->_g138 || d->_g68 || (d->_g53 && !d->_cg55);
  803888:	e0bffc17 	ldw	r2,-16(fp)
  80388c:	10803403 	ldbu	r2,208(r2)
  803890:	10803fcc 	andi	r2,r2,255
  803894:	1080201c 	xori	r2,r2,128
  803898:	10bfe004 	addi	r2,r2,-128
  80389c:	1000181e 	bne	r2,zero,803900 <logic+0x2d84>
  8038a0:	e0bffc17 	ldw	r2,-16(fp)
  8038a4:	10803203 	ldbu	r2,200(r2)
  8038a8:	10803fcc 	andi	r2,r2,255
  8038ac:	1080201c 	xori	r2,r2,128
  8038b0:	10bfe004 	addi	r2,r2,-128
  8038b4:	1000121e 	bne	r2,zero,803900 <logic+0x2d84>
  8038b8:	e0bffc17 	ldw	r2,-16(fp)
  8038bc:	108026c3 	ldbu	r2,155(r2)
  8038c0:	10803fcc 	andi	r2,r2,255
  8038c4:	1080201c 	xori	r2,r2,128
  8038c8:	10bfe004 	addi	r2,r2,-128
  8038cc:	10000c1e 	bne	r2,zero,803900 <logic+0x2d84>
  8038d0:	e0bffc17 	ldw	r2,-16(fp)
  8038d4:	108023c3 	ldbu	r2,143(r2)
  8038d8:	10803fcc 	andi	r2,r2,255
  8038dc:	1080201c 	xori	r2,r2,128
  8038e0:	10bfe004 	addi	r2,r2,-128
  8038e4:	10000826 	beq	r2,zero,803908 <logic+0x2d8c>
  8038e8:	e0bffc17 	ldw	r2,-16(fp)
  8038ec:	10803843 	ldbu	r2,225(r2)
  8038f0:	10803fcc 	andi	r2,r2,255
  8038f4:	1080201c 	xori	r2,r2,128
  8038f8:	10bfe004 	addi	r2,r2,-128
  8038fc:	1000021e 	bne	r2,zero,803908 <logic+0x2d8c>
  803900:	00800044 	movi	r2,1
  803904:	00000106 	br	80390c <logic+0x2d90>
  803908:	0005883a 	mov	r2,zero
  80390c:	1007883a 	mov	r3,r2
  803910:	e0bffc17 	ldw	r2,-16(fp)
  803914:	10c04185 	stb	r3,262(r2)
  d->_g60 = d->_pg130;
  803918:	e0bffc17 	ldw	r2,-16(fp)
  80391c:	10c04a83 	ldbu	r3,298(r2)
  803920:	e0bffc17 	ldw	r2,-16(fp)
  803924:	10c02545 	stb	r3,149(r2)
  if (d->_g60) {
  803928:	e0bffc17 	ldw	r2,-16(fp)
  80392c:	10802543 	ldbu	r2,149(r2)
  803930:	10803fcc 	andi	r2,r2,255
  803934:	1080201c 	xori	r2,r2,128
  803938:	10bfe004 	addi	r2,r2,-128
  80393c:	10001226 	beq	r2,zero,803988 <logic+0x2e0c>
    d->_region3_VRP_x += d->deltaT;
  803940:	e13ffc17 	ldw	r4,-16(fp)
  803944:	20800c17 	ldw	r2,48(r4)
  803948:	20c00d17 	ldw	r3,52(r4)
  80394c:	e1bffc17 	ldw	r6,-16(fp)
  803950:	31001217 	ldw	r4,72(r6)
  803954:	31401317 	ldw	r5,76(r6)
  803958:	200d883a 	mov	r6,r4
  80395c:	280f883a 	mov	r7,r5
  803960:	1009883a 	mov	r4,r2
  803964:	180b883a 	mov	r5,r3
  803968:	08050e40 	call	8050e4 <__adddf3>
  80396c:	1009883a 	mov	r4,r2
  803970:	180b883a 	mov	r5,r3
  803974:	2005883a 	mov	r2,r4
  803978:	2807883a 	mov	r3,r5
  80397c:	e13ffc17 	ldw	r4,-16(fp)
  803980:	20800c15 	stw	r2,48(r4)
  803984:	20c00d15 	stw	r3,52(r4)
  }
  d->_g69_e2 = d->_pg82;
  803988:	e0bffc17 	ldw	r2,-16(fp)
  80398c:	10c04ac3 	ldbu	r3,299(r2)
  803990:	e0bffc17 	ldw	r2,-16(fp)
  803994:	10c041c5 	stb	r3,263(r2)
  d->_cg87 = d->_region3_VRP_x >= d->VRP;
  803998:	e0bffc17 	ldw	r2,-16(fp)
  80399c:	14000c17 	ldw	r16,48(r2)
  8039a0:	14400d17 	ldw	r17,52(r2)
  8039a4:	e0bffc17 	ldw	r2,-16(fp)
  8039a8:	10800317 	ldw	r2,12(r2)
  8039ac:	1009883a 	mov	r4,r2
  8039b0:	0806b740 	call	806b74 <__floatsidf>
  8039b4:	1009883a 	mov	r4,r2
  8039b8:	180b883a 	mov	r5,r3
  8039bc:	04800044 	movi	r18,1
  8039c0:	200d883a 	mov	r6,r4
  8039c4:	280f883a 	mov	r7,r5
  8039c8:	8009883a 	mov	r4,r16
  8039cc:	880b883a 	mov	r5,r17
  8039d0:	08059900 	call	805990 <__gedf2>
  8039d4:	1000010e 	bge	r2,zero,8039dc <logic+0x2e60>
  8039d8:	0025883a 	mov	r18,zero
  8039dc:	9007883a 	mov	r3,r18
  8039e0:	e0bffc17 	ldw	r2,-16(fp)
  8039e4:	10c03ac5 	stb	r3,235(r2)
  d->_g69 = d->_g69_e2 && d->_cg87;
  8039e8:	e0bffc17 	ldw	r2,-16(fp)
  8039ec:	108041c3 	ldbu	r2,263(r2)
  8039f0:	10803fcc 	andi	r2,r2,255
  8039f4:	1080201c 	xori	r2,r2,128
  8039f8:	10bfe004 	addi	r2,r2,-128
  8039fc:	10000826 	beq	r2,zero,803a20 <logic+0x2ea4>
  803a00:	e0bffc17 	ldw	r2,-16(fp)
  803a04:	10803ac3 	ldbu	r2,235(r2)
  803a08:	10803fcc 	andi	r2,r2,255
  803a0c:	1080201c 	xori	r2,r2,128
  803a10:	10bfe004 	addi	r2,r2,-128
  803a14:	10000226 	beq	r2,zero,803a20 <logic+0x2ea4>
  803a18:	00800044 	movi	r2,1
  803a1c:	00000106 	br	803a24 <logic+0x2ea8>
  803a20:	0005883a 	mov	r2,zero
  803a24:	1007883a 	mov	r3,r2
  803a28:	e0bffc17 	ldw	r2,-16(fp)
  803a2c:	10c02705 	stb	r3,156(r2)
  if (d->_g69) {
  803a30:	e0bffc17 	ldw	r2,-16(fp)
  803a34:	10802703 	ldbu	r2,156(r2)
  803a38:	10803fcc 	andi	r2,r2,255
  803a3c:	1080201c 	xori	r2,r2,128
  803a40:	10bfe004 	addi	r2,r2,-128
  803a44:	10000326 	beq	r2,zero,803a54 <logic+0x2ed8>
    d->_Pacemaker_local__Atrig4 = 1;
  803a48:	e0bffc17 	ldw	r2,-16(fp)
  803a4c:	00c00044 	movi	r3,1
  803a50:	10c019c5 	stb	r3,103(r2)
  }
  if (d->_g117) {
  803a54:	e0bffc17 	ldw	r2,-16(fp)
  803a58:	10802f03 	ldbu	r2,188(r2)
  803a5c:	10803fcc 	andi	r2,r2,255
  803a60:	1080201c 	xori	r2,r2,128
  803a64:	10bfe004 	addi	r2,r2,-128
  803a68:	10000526 	beq	r2,zero,803a80 <logic+0x2f04>
    d->_region3_VRP_x = 0;
  803a6c:	e0bffc17 	ldw	r2,-16(fp)
  803a70:	10000c15 	stw	zero,48(r2)
  803a74:	10000d15 	stw	zero,52(r2)
    d->_Pacemaker_local__Atrig4 = 0;
  803a78:	e0bffc17 	ldw	r2,-16(fp)
  803a7c:	100019c5 	stb	zero,103(r2)
  }
  d->_g55 = d->_pg80;
  803a80:	e0bffc17 	ldw	r2,-16(fp)
  803a84:	10c04b03 	ldbu	r3,300(r2)
  803a88:	e0bffc17 	ldw	r2,-16(fp)
  803a8c:	10c02445 	stb	r3,145(r2)
  d->_g70 = d->_pg81;
  803a90:	e0bffc17 	ldw	r2,-16(fp)
  803a94:	10c04b43 	ldbu	r3,301(r2)
  803a98:	e0bffc17 	ldw	r2,-16(fp)
  803a9c:	10c02745 	stb	r3,157(r2)
  d->_g54 = d->_g117 || d->_g55 || d->_g70;
  803aa0:	e0bffc17 	ldw	r2,-16(fp)
  803aa4:	10802f03 	ldbu	r2,188(r2)
  803aa8:	10803fcc 	andi	r2,r2,255
  803aac:	1080201c 	xori	r2,r2,128
  803ab0:	10bfe004 	addi	r2,r2,-128
  803ab4:	10000c1e 	bne	r2,zero,803ae8 <logic+0x2f6c>
  803ab8:	e0bffc17 	ldw	r2,-16(fp)
  803abc:	10802443 	ldbu	r2,145(r2)
  803ac0:	10803fcc 	andi	r2,r2,255
  803ac4:	1080201c 	xori	r2,r2,128
  803ac8:	10bfe004 	addi	r2,r2,-128
  803acc:	1000061e 	bne	r2,zero,803ae8 <logic+0x2f6c>
  803ad0:	e0bffc17 	ldw	r2,-16(fp)
  803ad4:	10802743 	ldbu	r2,157(r2)
  803ad8:	10803fcc 	andi	r2,r2,255
  803adc:	1080201c 	xori	r2,r2,128
  803ae0:	10bfe004 	addi	r2,r2,-128
  803ae4:	10000226 	beq	r2,zero,803af0 <logic+0x2f74>
  803ae8:	00800044 	movi	r2,1
  803aec:	00000106 	br	803af4 <logic+0x2f78>
  803af0:	0005883a 	mov	r2,zero
  803af4:	1007883a 	mov	r3,r2
  803af8:	e0bffc17 	ldw	r2,-16(fp)
  803afc:	10c02405 	stb	r3,144(r2)
  d->_cg77 = d->_region3_VRP_x < d->VRP;
  803b00:	e0bffc17 	ldw	r2,-16(fp)
  803b04:	14000c17 	ldw	r16,48(r2)
  803b08:	14400d17 	ldw	r17,52(r2)
  803b0c:	e0bffc17 	ldw	r2,-16(fp)
  803b10:	10800317 	ldw	r2,12(r2)
  803b14:	1009883a 	mov	r4,r2
  803b18:	0806b740 	call	806b74 <__floatsidf>
  803b1c:	1009883a 	mov	r4,r2
  803b20:	180b883a 	mov	r5,r3
  803b24:	04800044 	movi	r18,1
  803b28:	200d883a 	mov	r6,r4
  803b2c:	280f883a 	mov	r7,r5
  803b30:	8009883a 	mov	r4,r16
  803b34:	880b883a 	mov	r5,r17
  803b38:	0805a6c0 	call	805a6c <__ledf2>
  803b3c:	10000116 	blt	r2,zero,803b44 <logic+0x2fc8>
  803b40:	0025883a 	mov	r18,zero
  803b44:	9007883a 	mov	r3,r18
  803b48:	e0bffc17 	ldw	r2,-16(fp)
  803b4c:	10c03a05 	stb	r3,232(r2)
  d->_g84 = d->_g54 && !d->_cg77;
  803b50:	e0bffc17 	ldw	r2,-16(fp)
  803b54:	10802403 	ldbu	r2,144(r2)
  803b58:	10803fcc 	andi	r2,r2,255
  803b5c:	1080201c 	xori	r2,r2,128
  803b60:	10bfe004 	addi	r2,r2,-128
  803b64:	10000826 	beq	r2,zero,803b88 <logic+0x300c>
  803b68:	e0bffc17 	ldw	r2,-16(fp)
  803b6c:	10803a03 	ldbu	r2,232(r2)
  803b70:	10803fcc 	andi	r2,r2,255
  803b74:	1080201c 	xori	r2,r2,128
  803b78:	10bfe004 	addi	r2,r2,-128
  803b7c:	1000021e 	bne	r2,zero,803b88 <logic+0x300c>
  803b80:	00800044 	movi	r2,1
  803b84:	00000106 	br	803b8c <logic+0x3010>
  803b88:	0005883a 	mov	r2,zero
  803b8c:	1007883a 	mov	r3,r2
  803b90:	e0bffc17 	ldw	r2,-16(fp)
  803b94:	10c02985 	stb	r3,166(r2)
  d->_cg82 = d->_Pacemaker_local__Atrig4;
  803b98:	e0bffc17 	ldw	r2,-16(fp)
  803b9c:	10c019c3 	ldbu	r3,103(r2)
  803ba0:	e0bffc17 	ldw	r2,-16(fp)
  803ba4:	10c03a85 	stb	r3,234(r2)
  d->_g81 = d->_g84 && !d->_cg82;
  803ba8:	e0bffc17 	ldw	r2,-16(fp)
  803bac:	10802983 	ldbu	r2,166(r2)
  803bb0:	10803fcc 	andi	r2,r2,255
  803bb4:	1080201c 	xori	r2,r2,128
  803bb8:	10bfe004 	addi	r2,r2,-128
  803bbc:	10000826 	beq	r2,zero,803be0 <logic+0x3064>
  803bc0:	e0bffc17 	ldw	r2,-16(fp)
  803bc4:	10803a83 	ldbu	r2,234(r2)
  803bc8:	10803fcc 	andi	r2,r2,255
  803bcc:	1080201c 	xori	r2,r2,128
  803bd0:	10bfe004 	addi	r2,r2,-128
  803bd4:	1000021e 	bne	r2,zero,803be0 <logic+0x3064>
  803bd8:	00800044 	movi	r2,1
  803bdc:	00000106 	br	803be4 <logic+0x3068>
  803be0:	0005883a 	mov	r2,zero
  803be4:	1007883a 	mov	r3,r2
  803be8:	e0bffc17 	ldw	r2,-16(fp)
  803bec:	10c02905 	stb	r3,164(r2)
  d->_g77 = d->_g54 && d->_cg77;
  803bf0:	e0bffc17 	ldw	r2,-16(fp)
  803bf4:	10802403 	ldbu	r2,144(r2)
  803bf8:	10803fcc 	andi	r2,r2,255
  803bfc:	1080201c 	xori	r2,r2,128
  803c00:	10bfe004 	addi	r2,r2,-128
  803c04:	10000826 	beq	r2,zero,803c28 <logic+0x30ac>
  803c08:	e0bffc17 	ldw	r2,-16(fp)
  803c0c:	10803a03 	ldbu	r2,232(r2)
  803c10:	10803fcc 	andi	r2,r2,255
  803c14:	1080201c 	xori	r2,r2,128
  803c18:	10bfe004 	addi	r2,r2,-128
  803c1c:	10000226 	beq	r2,zero,803c28 <logic+0x30ac>
  803c20:	00800044 	movi	r2,1
  803c24:	00000106 	br	803c2c <logic+0x30b0>
  803c28:	0005883a 	mov	r2,zero
  803c2c:	1007883a 	mov	r3,r2
  803c30:	e0bffc17 	ldw	r2,-16(fp)
  803c34:	10c02805 	stb	r3,160(r2)
  if (d->_g77) {
  803c38:	e0bffc17 	ldw	r2,-16(fp)
  803c3c:	10802803 	ldbu	r2,160(r2)
  803c40:	10803fcc 	andi	r2,r2,255
  803c44:	1080201c 	xori	r2,r2,128
  803c48:	10bfe004 	addi	r2,r2,-128
  803c4c:	10003426 	beq	r2,zero,803d20 <logic+0x31a4>
    d->sleepT = (d->sleepT < (d->VRP - d->_region3_VRP_x)) ? d->sleepT : (d->VRP - d->_region3_VRP_x);
  803c50:	e0bffc17 	ldw	r2,-16(fp)
  803c54:	14001417 	ldw	r16,80(r2)
  803c58:	14401517 	ldw	r17,84(r2)
  803c5c:	e0bffc17 	ldw	r2,-16(fp)
  803c60:	10800317 	ldw	r2,12(r2)
  803c64:	1009883a 	mov	r4,r2
  803c68:	0806b740 	call	806b74 <__floatsidf>
  803c6c:	1011883a 	mov	r8,r2
  803c70:	1813883a 	mov	r9,r3
  803c74:	e13ffc17 	ldw	r4,-16(fp)
  803c78:	20800c17 	ldw	r2,48(r4)
  803c7c:	20c00d17 	ldw	r3,52(r4)
  803c80:	100d883a 	mov	r6,r2
  803c84:	180f883a 	mov	r7,r3
  803c88:	4009883a 	mov	r4,r8
  803c8c:	480b883a 	mov	r5,r9
  803c90:	08062780 	call	806278 <__subdf3>
  803c94:	1009883a 	mov	r4,r2
  803c98:	180b883a 	mov	r5,r3
  803c9c:	2005883a 	mov	r2,r4
  803ca0:	2807883a 	mov	r3,r5
  803ca4:	100d883a 	mov	r6,r2
  803ca8:	180f883a 	mov	r7,r3
  803cac:	8009883a 	mov	r4,r16
  803cb0:	880b883a 	mov	r5,r17
  803cb4:	0805a6c0 	call	805a6c <__ledf2>
  803cb8:	1000040e 	bge	r2,zero,803ccc <logic+0x3150>
  803cbc:	e13ffc17 	ldw	r4,-16(fp)
  803cc0:	20801417 	ldw	r2,80(r4)
  803cc4:	20c01517 	ldw	r3,84(r4)
  803cc8:	00001206 	br	803d14 <logic+0x3198>
  803ccc:	e0bffc17 	ldw	r2,-16(fp)
  803cd0:	10800317 	ldw	r2,12(r2)
  803cd4:	1009883a 	mov	r4,r2
  803cd8:	0806b740 	call	806b74 <__floatsidf>
  803cdc:	1011883a 	mov	r8,r2
  803ce0:	1813883a 	mov	r9,r3
  803ce4:	e13ffc17 	ldw	r4,-16(fp)
  803ce8:	20800c17 	ldw	r2,48(r4)
  803cec:	20c00d17 	ldw	r3,52(r4)
  803cf0:	100d883a 	mov	r6,r2
  803cf4:	180f883a 	mov	r7,r3
  803cf8:	4009883a 	mov	r4,r8
  803cfc:	480b883a 	mov	r5,r9
  803d00:	08062780 	call	806278 <__subdf3>
  803d04:	1009883a 	mov	r4,r2
  803d08:	180b883a 	mov	r5,r3
  803d0c:	2005883a 	mov	r2,r4
  803d10:	2807883a 	mov	r3,r5
  803d14:	e13ffc17 	ldw	r4,-16(fp)
  803d18:	20801415 	stw	r2,80(r4)
  803d1c:	20c01515 	stw	r3,84(r4)
  }
  d->_cg78 = d->_Pacemaker_local__Atrig4;
  803d20:	e0bffc17 	ldw	r2,-16(fp)
  803d24:	10c019c3 	ldbu	r3,103(r2)
  803d28:	e0bffc17 	ldw	r2,-16(fp)
  803d2c:	10c03a45 	stb	r3,233(r2)
  d->_g80 = d->_g77 && !d->_cg78;
  803d30:	e0bffc17 	ldw	r2,-16(fp)
  803d34:	10802803 	ldbu	r2,160(r2)
  803d38:	10803fcc 	andi	r2,r2,255
  803d3c:	1080201c 	xori	r2,r2,128
  803d40:	10bfe004 	addi	r2,r2,-128
  803d44:	10000826 	beq	r2,zero,803d68 <logic+0x31ec>
  803d48:	e0bffc17 	ldw	r2,-16(fp)
  803d4c:	10803a43 	ldbu	r2,233(r2)
  803d50:	10803fcc 	andi	r2,r2,255
  803d54:	1080201c 	xori	r2,r2,128
  803d58:	10bfe004 	addi	r2,r2,-128
  803d5c:	1000021e 	bne	r2,zero,803d68 <logic+0x31ec>
  803d60:	00800044 	movi	r2,1
  803d64:	00000106 	br	803d6c <logic+0x31f0>
  803d68:	0005883a 	mov	r2,zero
  803d6c:	1007883a 	mov	r3,r2
  803d70:	e0bffc17 	ldw	r2,-16(fp)
  803d74:	10c028c5 	stb	r3,163(r2)
  d->_g79_e1 = !(d->_g81 || d->_g80);
  803d78:	e0bffc17 	ldw	r2,-16(fp)
  803d7c:	10802903 	ldbu	r2,164(r2)
  803d80:	10803fcc 	andi	r2,r2,255
  803d84:	1080201c 	xori	r2,r2,128
  803d88:	10bfe004 	addi	r2,r2,-128
  803d8c:	1000081e 	bne	r2,zero,803db0 <logic+0x3234>
  803d90:	e0bffc17 	ldw	r2,-16(fp)
  803d94:	108028c3 	ldbu	r2,163(r2)
  803d98:	10803fcc 	andi	r2,r2,255
  803d9c:	1080201c 	xori	r2,r2,128
  803da0:	10bfe004 	addi	r2,r2,-128
  803da4:	1000021e 	bne	r2,zero,803db0 <logic+0x3234>
  803da8:	00800044 	movi	r2,1
  803dac:	00000106 	br	803db4 <logic+0x3238>
  803db0:	0005883a 	mov	r2,zero
  803db4:	1007883a 	mov	r3,r2
  803db8:	e0bffc17 	ldw	r2,-16(fp)
  803dbc:	10c04205 	stb	r3,264(r2)
  d->_g78 = (d->_g77 && d->_cg78) || (d->_g84 && d->_cg82);
  803dc0:	e0bffc17 	ldw	r2,-16(fp)
  803dc4:	10802803 	ldbu	r2,160(r2)
  803dc8:	10803fcc 	andi	r2,r2,255
  803dcc:	1080201c 	xori	r2,r2,128
  803dd0:	10bfe004 	addi	r2,r2,-128
  803dd4:	10000626 	beq	r2,zero,803df0 <logic+0x3274>
  803dd8:	e0bffc17 	ldw	r2,-16(fp)
  803ddc:	10803a43 	ldbu	r2,233(r2)
  803de0:	10803fcc 	andi	r2,r2,255
  803de4:	1080201c 	xori	r2,r2,128
  803de8:	10bfe004 	addi	r2,r2,-128
  803dec:	10000c1e 	bne	r2,zero,803e20 <logic+0x32a4>
  803df0:	e0bffc17 	ldw	r2,-16(fp)
  803df4:	10802983 	ldbu	r2,166(r2)
  803df8:	10803fcc 	andi	r2,r2,255
  803dfc:	1080201c 	xori	r2,r2,128
  803e00:	10bfe004 	addi	r2,r2,-128
  803e04:	10000826 	beq	r2,zero,803e28 <logic+0x32ac>
  803e08:	e0bffc17 	ldw	r2,-16(fp)
  803e0c:	10803a83 	ldbu	r2,234(r2)
  803e10:	10803fcc 	andi	r2,r2,255
  803e14:	1080201c 	xori	r2,r2,128
  803e18:	10bfe004 	addi	r2,r2,-128
  803e1c:	10000226 	beq	r2,zero,803e28 <logic+0x32ac>
  803e20:	00800044 	movi	r2,1
  803e24:	00000106 	br	803e2c <logic+0x32b0>
  803e28:	0005883a 	mov	r2,zero
  803e2c:	1007883a 	mov	r3,r2
  803e30:	e0bffc17 	ldw	r2,-16(fp)
  803e34:	10c02845 	stb	r3,161(r2)
  d->_g82 = d->_g117 || (d->_g69_e2 && !d->_cg87);
  803e38:	e0bffc17 	ldw	r2,-16(fp)
  803e3c:	10802f03 	ldbu	r2,188(r2)
  803e40:	10803fcc 	andi	r2,r2,255
  803e44:	1080201c 	xori	r2,r2,128
  803e48:	10bfe004 	addi	r2,r2,-128
  803e4c:	10000c1e 	bne	r2,zero,803e80 <logic+0x3304>
  803e50:	e0bffc17 	ldw	r2,-16(fp)
  803e54:	108041c3 	ldbu	r2,263(r2)
  803e58:	10803fcc 	andi	r2,r2,255
  803e5c:	1080201c 	xori	r2,r2,128
  803e60:	10bfe004 	addi	r2,r2,-128
  803e64:	10000826 	beq	r2,zero,803e88 <logic+0x330c>
  803e68:	e0bffc17 	ldw	r2,-16(fp)
  803e6c:	10803ac3 	ldbu	r2,235(r2)
  803e70:	10803fcc 	andi	r2,r2,255
  803e74:	1080201c 	xori	r2,r2,128
  803e78:	10bfe004 	addi	r2,r2,-128
  803e7c:	1000021e 	bne	r2,zero,803e88 <logic+0x330c>
  803e80:	00800044 	movi	r2,1
  803e84:	00000106 	br	803e8c <logic+0x3310>
  803e88:	0005883a 	mov	r2,zero
  803e8c:	1007883a 	mov	r3,r2
  803e90:	e0bffc17 	ldw	r2,-16(fp)
  803e94:	10c02945 	stb	r3,165(r2)
  d->_g75 = !d->_g82;
  803e98:	e0bffc17 	ldw	r2,-16(fp)
  803e9c:	10802943 	ldbu	r2,165(r2)
  803ea0:	10803fcc 	andi	r2,r2,255
  803ea4:	1080201c 	xori	r2,r2,128
  803ea8:	10bfe004 	addi	r2,r2,-128
  803eac:	1005003a 	cmpeq	r2,r2,zero
  803eb0:	1007883a 	mov	r3,r2
  803eb4:	e0bffc17 	ldw	r2,-16(fp)
  803eb8:	10c027c5 	stb	r3,159(r2)
  d->_g87 = (d->_g79_e1 || d->_g78) && (d->_g75 || d->_g69) && (d->_g78 || d->_g69);
  803ebc:	e0bffc17 	ldw	r2,-16(fp)
  803ec0:	10804203 	ldbu	r2,264(r2)
  803ec4:	10803fcc 	andi	r2,r2,255
  803ec8:	1080201c 	xori	r2,r2,128
  803ecc:	10bfe004 	addi	r2,r2,-128
  803ed0:	1000061e 	bne	r2,zero,803eec <logic+0x3370>
  803ed4:	e0bffc17 	ldw	r2,-16(fp)
  803ed8:	10802843 	ldbu	r2,161(r2)
  803edc:	10803fcc 	andi	r2,r2,255
  803ee0:	1080201c 	xori	r2,r2,128
  803ee4:	10bfe004 	addi	r2,r2,-128
  803ee8:	10001a26 	beq	r2,zero,803f54 <logic+0x33d8>
  803eec:	e0bffc17 	ldw	r2,-16(fp)
  803ef0:	108027c3 	ldbu	r2,159(r2)
  803ef4:	10803fcc 	andi	r2,r2,255
  803ef8:	1080201c 	xori	r2,r2,128
  803efc:	10bfe004 	addi	r2,r2,-128
  803f00:	1000061e 	bne	r2,zero,803f1c <logic+0x33a0>
  803f04:	e0bffc17 	ldw	r2,-16(fp)
  803f08:	10802703 	ldbu	r2,156(r2)
  803f0c:	10803fcc 	andi	r2,r2,255
  803f10:	1080201c 	xori	r2,r2,128
  803f14:	10bfe004 	addi	r2,r2,-128
  803f18:	10000e26 	beq	r2,zero,803f54 <logic+0x33d8>
  803f1c:	e0bffc17 	ldw	r2,-16(fp)
  803f20:	10802843 	ldbu	r2,161(r2)
  803f24:	10803fcc 	andi	r2,r2,255
  803f28:	1080201c 	xori	r2,r2,128
  803f2c:	10bfe004 	addi	r2,r2,-128
  803f30:	1000061e 	bne	r2,zero,803f4c <logic+0x33d0>
  803f34:	e0bffc17 	ldw	r2,-16(fp)
  803f38:	10802703 	ldbu	r2,156(r2)
  803f3c:	10803fcc 	andi	r2,r2,255
  803f40:	1080201c 	xori	r2,r2,128
  803f44:	10bfe004 	addi	r2,r2,-128
  803f48:	10000226 	beq	r2,zero,803f54 <logic+0x33d8>
  803f4c:	00800044 	movi	r2,1
  803f50:	00000106 	br	803f58 <logic+0x33dc>
  803f54:	0005883a 	mov	r2,zero
  803f58:	1007883a 	mov	r3,r2
  803f5c:	e0bffc17 	ldw	r2,-16(fp)
  803f60:	10c029c5 	stb	r3,167(r2)
  d->_g79_e1 = d->_GO || d->_g87 || (d->_g110_e2 && !d->_cg74);
  803f64:	e0bffc17 	ldw	r2,-16(fp)
  803f68:	10803403 	ldbu	r2,208(r2)
  803f6c:	10803fcc 	andi	r2,r2,255
  803f70:	1080201c 	xori	r2,r2,128
  803f74:	10bfe004 	addi	r2,r2,-128
  803f78:	1000121e 	bne	r2,zero,803fc4 <logic+0x3448>
  803f7c:	e0bffc17 	ldw	r2,-16(fp)
  803f80:	108029c3 	ldbu	r2,167(r2)
  803f84:	10803fcc 	andi	r2,r2,255
  803f88:	1080201c 	xori	r2,r2,128
  803f8c:	10bfe004 	addi	r2,r2,-128
  803f90:	10000c1e 	bne	r2,zero,803fc4 <logic+0x3448>
  803f94:	e0bffc17 	ldw	r2,-16(fp)
  803f98:	108042c3 	ldbu	r2,267(r2)
  803f9c:	10803fcc 	andi	r2,r2,255
  803fa0:	1080201c 	xori	r2,r2,128
  803fa4:	10bfe004 	addi	r2,r2,-128
  803fa8:	10000826 	beq	r2,zero,803fcc <logic+0x3450>
  803fac:	e0bffc17 	ldw	r2,-16(fp)
  803fb0:	108039c3 	ldbu	r2,231(r2)
  803fb4:	10803fcc 	andi	r2,r2,255
  803fb8:	1080201c 	xori	r2,r2,128
  803fbc:	10bfe004 	addi	r2,r2,-128
  803fc0:	1000021e 	bne	r2,zero,803fcc <logic+0x3450>
  803fc4:	00800044 	movi	r2,1
  803fc8:	00000106 	br	803fd0 <logic+0x3454>
  803fcc:	0005883a 	mov	r2,zero
  803fd0:	1007883a 	mov	r3,r2
  803fd4:	e0bffc17 	ldw	r2,-16(fp)
  803fd8:	10c04205 	stb	r3,264(r2)
  d->_g88 = d->_pg79;
  803fdc:	e0bffc17 	ldw	r2,-16(fp)
  803fe0:	10c04b83 	ldbu	r3,302(r2)
  803fe4:	e0bffc17 	ldw	r2,-16(fp)
  803fe8:	10c02a05 	stb	r3,168(r2)
  d->_cg93 = d->a_event;
  803fec:	e0bffc17 	ldw	r2,-16(fp)
  803ff0:	10c01743 	ldbu	r3,93(r2)
  803ff4:	e0bffc17 	ldw	r2,-16(fp)
  803ff8:	10c03b45 	stb	r3,237(r2)
  d->_g79 = d->_GO || (d->_g109 && d->_cg113) || d->_g101_e1 || (d->_g88 && !d->_cg93);
  803ffc:	e0bffc17 	ldw	r2,-16(fp)
  804000:	10803403 	ldbu	r2,208(r2)
  804004:	10803fcc 	andi	r2,r2,255
  804008:	1080201c 	xori	r2,r2,128
  80400c:	10bfe004 	addi	r2,r2,-128
  804010:	10001e1e 	bne	r2,zero,80408c <logic+0x3510>
  804014:	e0bffc17 	ldw	r2,-16(fp)
  804018:	10802d43 	ldbu	r2,181(r2)
  80401c:	10803fcc 	andi	r2,r2,255
  804020:	1080201c 	xori	r2,r2,128
  804024:	10bfe004 	addi	r2,r2,-128
  804028:	10000626 	beq	r2,zero,804044 <logic+0x34c8>
  80402c:	e0bffc17 	ldw	r2,-16(fp)
  804030:	10803b03 	ldbu	r2,236(r2)
  804034:	10803fcc 	andi	r2,r2,255
  804038:	1080201c 	xori	r2,r2,128
  80403c:	10bfe004 	addi	r2,r2,-128
  804040:	1000121e 	bne	r2,zero,80408c <logic+0x3510>
  804044:	e0bffc17 	ldw	r2,-16(fp)
  804048:	10804283 	ldbu	r2,266(r2)
  80404c:	10803fcc 	andi	r2,r2,255
  804050:	1080201c 	xori	r2,r2,128
  804054:	10bfe004 	addi	r2,r2,-128
  804058:	10000c1e 	bne	r2,zero,80408c <logic+0x3510>
  80405c:	e0bffc17 	ldw	r2,-16(fp)
  804060:	10802a03 	ldbu	r2,168(r2)
  804064:	10803fcc 	andi	r2,r2,255
  804068:	1080201c 	xori	r2,r2,128
  80406c:	10bfe004 	addi	r2,r2,-128
  804070:	10000826 	beq	r2,zero,804094 <logic+0x3518>
  804074:	e0bffc17 	ldw	r2,-16(fp)
  804078:	10803b43 	ldbu	r2,237(r2)
  80407c:	10803fcc 	andi	r2,r2,255
  804080:	1080201c 	xori	r2,r2,128
  804084:	10bfe004 	addi	r2,r2,-128
  804088:	1000021e 	bne	r2,zero,804094 <logic+0x3518>
  80408c:	00800044 	movi	r2,1
  804090:	00000106 	br	804098 <logic+0x351c>
  804094:	0005883a 	mov	r2,zero
  804098:	1007883a 	mov	r3,r2
  80409c:	e0bffc17 	ldw	r2,-16(fp)
  8040a0:	10c02885 	stb	r3,162(r2)
  d->_g88_e2 = d->_g88 && d->_cg93;
  8040a4:	e0bffc17 	ldw	r2,-16(fp)
  8040a8:	10802a03 	ldbu	r2,168(r2)
  8040ac:	10803fcc 	andi	r2,r2,255
  8040b0:	1080201c 	xori	r2,r2,128
  8040b4:	10bfe004 	addi	r2,r2,-128
  8040b8:	10000826 	beq	r2,zero,8040dc <logic+0x3560>
  8040bc:	e0bffc17 	ldw	r2,-16(fp)
  8040c0:	10803b43 	ldbu	r2,237(r2)
  8040c4:	10803fcc 	andi	r2,r2,255
  8040c8:	1080201c 	xori	r2,r2,128
  8040cc:	10bfe004 	addi	r2,r2,-128
  8040d0:	10000226 	beq	r2,zero,8040dc <logic+0x3560>
  8040d4:	00800044 	movi	r2,1
  8040d8:	00000106 	br	8040e0 <logic+0x3564>
  8040dc:	0005883a 	mov	r2,zero
  8040e0:	1007883a 	mov	r3,r2
  8040e4:	e0bffc17 	ldw	r2,-16(fp)
  8040e8:	10c04245 	stb	r3,265(r2)
  if (d->_g88_e2) {
  8040ec:	e0bffc17 	ldw	r2,-16(fp)
  8040f0:	10804243 	ldbu	r2,265(r2)
  8040f4:	10803fcc 	andi	r2,r2,255
  8040f8:	1080201c 	xori	r2,r2,128
  8040fc:	10bfe004 	addi	r2,r2,-128
  804100:	10000726 	beq	r2,zero,804120 <logic+0x35a4>
    d->_region4_AVI_x = 0;
  804104:	e0bffc17 	ldw	r2,-16(fp)
  804108:	10000e15 	stw	zero,56(r2)
  80410c:	10000f15 	stw	zero,60(r2)
    d->_Pacemaker_local__Atrig5 = 0;
  804110:	e0bffc17 	ldw	r2,-16(fp)
  804114:	10001a05 	stb	zero,104(r2)
    d->_Pacemaker_local__Atrig6 = 0;
  804118:	e0bffc17 	ldw	r2,-16(fp)
  80411c:	10001a45 	stb	zero,105(r2)
  }
  d->_cg95 = d->_region4_AVI_x < d->AVI;
  804120:	e0bffc17 	ldw	r2,-16(fp)
  804124:	14000e17 	ldw	r16,56(r2)
  804128:	14400f17 	ldw	r17,60(r2)
  80412c:	e0bffc17 	ldw	r2,-16(fp)
  804130:	10800017 	ldw	r2,0(r2)
  804134:	1009883a 	mov	r4,r2
  804138:	0806b740 	call	806b74 <__floatsidf>
  80413c:	1009883a 	mov	r4,r2
  804140:	180b883a 	mov	r5,r3
  804144:	04800044 	movi	r18,1
  804148:	200d883a 	mov	r6,r4
  80414c:	280f883a 	mov	r7,r5
  804150:	8009883a 	mov	r4,r16
  804154:	880b883a 	mov	r5,r17
  804158:	0805a6c0 	call	805a6c <__ledf2>
  80415c:	10000116 	blt	r2,zero,804164 <logic+0x35e8>
  804160:	0025883a 	mov	r18,zero
  804164:	9007883a 	mov	r3,r18
  804168:	e0bffc17 	ldw	r2,-16(fp)
  80416c:	10c03b85 	stb	r3,238(r2)
  d->_g89 = d->_g88_e2 && d->_cg95;
  804170:	e0bffc17 	ldw	r2,-16(fp)
  804174:	10804243 	ldbu	r2,265(r2)
  804178:	10803fcc 	andi	r2,r2,255
  80417c:	1080201c 	xori	r2,r2,128
  804180:	10bfe004 	addi	r2,r2,-128
  804184:	10000826 	beq	r2,zero,8041a8 <logic+0x362c>
  804188:	e0bffc17 	ldw	r2,-16(fp)
  80418c:	10803b83 	ldbu	r2,238(r2)
  804190:	10803fcc 	andi	r2,r2,255
  804194:	1080201c 	xori	r2,r2,128
  804198:	10bfe004 	addi	r2,r2,-128
  80419c:	10000226 	beq	r2,zero,8041a8 <logic+0x362c>
  8041a0:	00800044 	movi	r2,1
  8041a4:	00000106 	br	8041ac <logic+0x3630>
  8041a8:	0005883a 	mov	r2,zero
  8041ac:	1007883a 	mov	r3,r2
  8041b0:	e0bffc17 	ldw	r2,-16(fp)
  8041b4:	10c02a45 	stb	r3,169(r2)
  if (d->_g89) {
  8041b8:	e0bffc17 	ldw	r2,-16(fp)
  8041bc:	10802a43 	ldbu	r2,169(r2)
  8041c0:	10803fcc 	andi	r2,r2,255
  8041c4:	1080201c 	xori	r2,r2,128
  8041c8:	10bfe004 	addi	r2,r2,-128
  8041cc:	10003426 	beq	r2,zero,8042a0 <logic+0x3724>
    d->sleepT = (d->sleepT < (d->AVI - d->_region4_AVI_x)) ? d->sleepT : (d->AVI - d->_region4_AVI_x);
  8041d0:	e0bffc17 	ldw	r2,-16(fp)
  8041d4:	14001417 	ldw	r16,80(r2)
  8041d8:	14401517 	ldw	r17,84(r2)
  8041dc:	e0bffc17 	ldw	r2,-16(fp)
  8041e0:	10800017 	ldw	r2,0(r2)
  8041e4:	1009883a 	mov	r4,r2
  8041e8:	0806b740 	call	806b74 <__floatsidf>
  8041ec:	1011883a 	mov	r8,r2
  8041f0:	1813883a 	mov	r9,r3
  8041f4:	e13ffc17 	ldw	r4,-16(fp)
  8041f8:	20800e17 	ldw	r2,56(r4)
  8041fc:	20c00f17 	ldw	r3,60(r4)
  804200:	100d883a 	mov	r6,r2
  804204:	180f883a 	mov	r7,r3
  804208:	4009883a 	mov	r4,r8
  80420c:	480b883a 	mov	r5,r9
  804210:	08062780 	call	806278 <__subdf3>
  804214:	1009883a 	mov	r4,r2
  804218:	180b883a 	mov	r5,r3
  80421c:	2005883a 	mov	r2,r4
  804220:	2807883a 	mov	r3,r5
  804224:	100d883a 	mov	r6,r2
  804228:	180f883a 	mov	r7,r3
  80422c:	8009883a 	mov	r4,r16
  804230:	880b883a 	mov	r5,r17
  804234:	0805a6c0 	call	805a6c <__ledf2>
  804238:	1000040e 	bge	r2,zero,80424c <logic+0x36d0>
  80423c:	e13ffc17 	ldw	r4,-16(fp)
  804240:	20801417 	ldw	r2,80(r4)
  804244:	20c01517 	ldw	r3,84(r4)
  804248:	00001206 	br	804294 <logic+0x3718>
  80424c:	e0bffc17 	ldw	r2,-16(fp)
  804250:	10800017 	ldw	r2,0(r2)
  804254:	1009883a 	mov	r4,r2
  804258:	0806b740 	call	806b74 <__floatsidf>
  80425c:	1011883a 	mov	r8,r2
  804260:	1813883a 	mov	r9,r3
  804264:	e13ffc17 	ldw	r4,-16(fp)
  804268:	20800e17 	ldw	r2,56(r4)
  80426c:	20c00f17 	ldw	r3,60(r4)
  804270:	100d883a 	mov	r6,r2
  804274:	180f883a 	mov	r7,r3
  804278:	4009883a 	mov	r4,r8
  80427c:	480b883a 	mov	r5,r9
  804280:	08062780 	call	806278 <__subdf3>
  804284:	1009883a 	mov	r4,r2
  804288:	180b883a 	mov	r5,r3
  80428c:	2005883a 	mov	r2,r4
  804290:	2807883a 	mov	r3,r5
  804294:	e13ffc17 	ldw	r4,-16(fp)
  804298:	20801415 	stw	r2,80(r4)
  80429c:	20c01515 	stw	r3,84(r4)
  }
  d->_cg96 = d->_Pacemaker_local__Atrig5 || d->_Pacemaker_local__Atrig6;
  8042a0:	e0bffc17 	ldw	r2,-16(fp)
  8042a4:	10801a03 	ldbu	r2,104(r2)
  8042a8:	10803fcc 	andi	r2,r2,255
  8042ac:	1080201c 	xori	r2,r2,128
  8042b0:	10bfe004 	addi	r2,r2,-128
  8042b4:	1000061e 	bne	r2,zero,8042d0 <logic+0x3754>
  8042b8:	e0bffc17 	ldw	r2,-16(fp)
  8042bc:	10801a43 	ldbu	r2,105(r2)
  8042c0:	10803fcc 	andi	r2,r2,255
  8042c4:	1080201c 	xori	r2,r2,128
  8042c8:	10bfe004 	addi	r2,r2,-128
  8042cc:	10000226 	beq	r2,zero,8042d8 <logic+0x375c>
  8042d0:	00800044 	movi	r2,1
  8042d4:	00000106 	br	8042dc <logic+0x3760>
  8042d8:	0005883a 	mov	r2,zero
  8042dc:	1007883a 	mov	r3,r2
  8042e0:	e0bffc17 	ldw	r2,-16(fp)
  8042e4:	10c03bc5 	stb	r3,239(r2)
  d->_g74 = (d->_g89 && !d->_cg96) || (d->_g104 && !d->_cg100);
  8042e8:	e0bffc17 	ldw	r2,-16(fp)
  8042ec:	10802a43 	ldbu	r2,169(r2)
  8042f0:	10803fcc 	andi	r2,r2,255
  8042f4:	1080201c 	xori	r2,r2,128
  8042f8:	10bfe004 	addi	r2,r2,-128
  8042fc:	10000626 	beq	r2,zero,804318 <logic+0x379c>
  804300:	e0bffc17 	ldw	r2,-16(fp)
  804304:	10803bc3 	ldbu	r2,239(r2)
  804308:	10803fcc 	andi	r2,r2,255
  80430c:	1080201c 	xori	r2,r2,128
  804310:	10bfe004 	addi	r2,r2,-128
  804314:	10000c26 	beq	r2,zero,804348 <logic+0x37cc>
  804318:	e0bffc17 	ldw	r2,-16(fp)
  80431c:	10802c83 	ldbu	r2,178(r2)
  804320:	10803fcc 	andi	r2,r2,255
  804324:	1080201c 	xori	r2,r2,128
  804328:	10bfe004 	addi	r2,r2,-128
  80432c:	10000826 	beq	r2,zero,804350 <logic+0x37d4>
  804330:	e0bffc17 	ldw	r2,-16(fp)
  804334:	10803c03 	ldbu	r2,240(r2)
  804338:	10803fcc 	andi	r2,r2,255
  80433c:	1080201c 	xori	r2,r2,128
  804340:	10bfe004 	addi	r2,r2,-128
  804344:	1000021e 	bne	r2,zero,804350 <logic+0x37d4>
  804348:	00800044 	movi	r2,1
  80434c:	00000106 	br	804354 <logic+0x37d8>
  804350:	0005883a 	mov	r2,zero
  804354:	1007883a 	mov	r3,r2
  804358:	e0bffc17 	ldw	r2,-16(fp)
  80435c:	10c02785 	stb	r3,158(r2)
  d->_g113 = d->_g88_e2 && !d->_cg95;
  804360:	e0bffc17 	ldw	r2,-16(fp)
  804364:	10804243 	ldbu	r2,265(r2)
  804368:	10803fcc 	andi	r2,r2,255
  80436c:	1080201c 	xori	r2,r2,128
  804370:	10bfe004 	addi	r2,r2,-128
  804374:	10000826 	beq	r2,zero,804398 <logic+0x381c>
  804378:	e0bffc17 	ldw	r2,-16(fp)
  80437c:	10803b83 	ldbu	r2,238(r2)
  804380:	10803fcc 	andi	r2,r2,255
  804384:	1080201c 	xori	r2,r2,128
  804388:	10bfe004 	addi	r2,r2,-128
  80438c:	1000021e 	bne	r2,zero,804398 <logic+0x381c>
  804390:	00800044 	movi	r2,1
  804394:	00000106 	br	80439c <logic+0x3820>
  804398:	0005883a 	mov	r2,zero
  80439c:	1007883a 	mov	r3,r2
  8043a0:	e0bffc17 	ldw	r2,-16(fp)
  8043a4:	10c02e45 	stb	r3,185(r2)
  d->_cg105 = d->_Pacemaker_local__Atrig5 || d->_Pacemaker_local__Atrig6;
  8043a8:	e0bffc17 	ldw	r2,-16(fp)
  8043ac:	10801a03 	ldbu	r2,104(r2)
  8043b0:	10803fcc 	andi	r2,r2,255
  8043b4:	1080201c 	xori	r2,r2,128
  8043b8:	10bfe004 	addi	r2,r2,-128
  8043bc:	1000061e 	bne	r2,zero,8043d8 <logic+0x385c>
  8043c0:	e0bffc17 	ldw	r2,-16(fp)
  8043c4:	10801a43 	ldbu	r2,105(r2)
  8043c8:	10803fcc 	andi	r2,r2,255
  8043cc:	1080201c 	xori	r2,r2,128
  8043d0:	10bfe004 	addi	r2,r2,-128
  8043d4:	10000226 	beq	r2,zero,8043e0 <logic+0x3864>
  8043d8:	00800044 	movi	r2,1
  8043dc:	00000106 	br	8043e4 <logic+0x3868>
  8043e0:	0005883a 	mov	r2,zero
  8043e4:	1007883a 	mov	r3,r2
  8043e8:	e0bffc17 	ldw	r2,-16(fp)
  8043ec:	10c03cc5 	stb	r3,243(r2)
  d->_g115 = (d->_g99 && !d->_cg102) || (d->_g113 && !d->_cg105);
  8043f0:	e0bffc17 	ldw	r2,-16(fp)
  8043f4:	10802b83 	ldbu	r2,174(r2)
  8043f8:	10803fcc 	andi	r2,r2,255
  8043fc:	1080201c 	xori	r2,r2,128
  804400:	10bfe004 	addi	r2,r2,-128
  804404:	10000626 	beq	r2,zero,804420 <logic+0x38a4>
  804408:	e0bffc17 	ldw	r2,-16(fp)
  80440c:	10803c83 	ldbu	r2,242(r2)
  804410:	10803fcc 	andi	r2,r2,255
  804414:	1080201c 	xori	r2,r2,128
  804418:	10bfe004 	addi	r2,r2,-128
  80441c:	10000c26 	beq	r2,zero,804450 <logic+0x38d4>
  804420:	e0bffc17 	ldw	r2,-16(fp)
  804424:	10802e43 	ldbu	r2,185(r2)
  804428:	10803fcc 	andi	r2,r2,255
  80442c:	1080201c 	xori	r2,r2,128
  804430:	10bfe004 	addi	r2,r2,-128
  804434:	10000826 	beq	r2,zero,804458 <logic+0x38dc>
  804438:	e0bffc17 	ldw	r2,-16(fp)
  80443c:	10803cc3 	ldbu	r2,243(r2)
  804440:	10803fcc 	andi	r2,r2,255
  804444:	1080201c 	xori	r2,r2,128
  804448:	10bfe004 	addi	r2,r2,-128
  80444c:	1000021e 	bne	r2,zero,804458 <logic+0x38dc>
  804450:	00800044 	movi	r2,1
  804454:	00000106 	br	80445c <logic+0x38e0>
  804458:	0005883a 	mov	r2,zero
  80445c:	1007883a 	mov	r3,r2
  804460:	e0bffc17 	ldw	r2,-16(fp)
  804464:	10c02ec5 	stb	r3,187(r2)
  d->_g93 = d->_g88_e2 || (d->_g111 && !d->_cg111);
  804468:	e0bffc17 	ldw	r2,-16(fp)
  80446c:	10804243 	ldbu	r2,265(r2)
  804470:	10803fcc 	andi	r2,r2,255
  804474:	1080201c 	xori	r2,r2,128
  804478:	10bfe004 	addi	r2,r2,-128
  80447c:	10000c1e 	bne	r2,zero,8044b0 <logic+0x3934>
  804480:	e0bffc17 	ldw	r2,-16(fp)
  804484:	10802dc3 	ldbu	r2,183(r2)
  804488:	10803fcc 	andi	r2,r2,255
  80448c:	1080201c 	xori	r2,r2,128
  804490:	10bfe004 	addi	r2,r2,-128
  804494:	10000826 	beq	r2,zero,8044b8 <logic+0x393c>
  804498:	e0bffc17 	ldw	r2,-16(fp)
  80449c:	10803d03 	ldbu	r2,244(r2)
  8044a0:	10803fcc 	andi	r2,r2,255
  8044a4:	1080201c 	xori	r2,r2,128
  8044a8:	10bfe004 	addi	r2,r2,-128
  8044ac:	1000021e 	bne	r2,zero,8044b8 <logic+0x393c>
  8044b0:	00800044 	movi	r2,1
  8044b4:	00000106 	br	8044bc <logic+0x3940>
  8044b8:	0005883a 	mov	r2,zero
  8044bc:	1007883a 	mov	r3,r2
  8044c0:	e0bffc17 	ldw	r2,-16(fp)
  8044c4:	10c02a85 	stb	r3,170(r2)
  d->_g96 = d->_g110 && !d->_cg114;
  8044c8:	e0bffc17 	ldw	r2,-16(fp)
  8044cc:	10802d83 	ldbu	r2,182(r2)
  8044d0:	10803fcc 	andi	r2,r2,255
  8044d4:	1080201c 	xori	r2,r2,128
  8044d8:	10bfe004 	addi	r2,r2,-128
  8044dc:	10000826 	beq	r2,zero,804500 <logic+0x3984>
  8044e0:	e0bffc17 	ldw	r2,-16(fp)
  8044e4:	10803d83 	ldbu	r2,246(r2)
  8044e8:	10803fcc 	andi	r2,r2,255
  8044ec:	1080201c 	xori	r2,r2,128
  8044f0:	10bfe004 	addi	r2,r2,-128
  8044f4:	1000021e 	bne	r2,zero,804500 <logic+0x3984>
  8044f8:	00800044 	movi	r2,1
  8044fc:	00000106 	br	804504 <logic+0x3988>
  804500:	0005883a 	mov	r2,zero
  804504:	1007883a 	mov	r3,r2
  804508:	e0bffc17 	ldw	r2,-16(fp)
  80450c:	10c02b05 	stb	r3,172(r2)
  d->_g100 = d->_pg105;
  804510:	e0bffc17 	ldw	r2,-16(fp)
  804514:	10c04bc3 	ldbu	r3,303(r2)
  804518:	e0bffc17 	ldw	r2,-16(fp)
  80451c:	10c02bc5 	stb	r3,175(r2)
  d->_cg121 = d->v_event;
  804520:	e0bffc17 	ldw	r2,-16(fp)
  804524:	10c01703 	ldbu	r3,92(r2)
  804528:	e0bffc17 	ldw	r2,-16(fp)
  80452c:	10c03e05 	stb	r3,248(r2)
  d->_g105 = d->_GO || (d->_g140 && d->_cg141) || d->_g129_e1 || (d->_g100 && !d->_cg121);
  804530:	e0bffc17 	ldw	r2,-16(fp)
  804534:	10803403 	ldbu	r2,208(r2)
  804538:	10803fcc 	andi	r2,r2,255
  80453c:	1080201c 	xori	r2,r2,128
  804540:	10bfe004 	addi	r2,r2,-128
  804544:	10001e1e 	bne	r2,zero,8045c0 <logic+0x3a44>
  804548:	e0bffc17 	ldw	r2,-16(fp)
  80454c:	10803283 	ldbu	r2,202(r2)
  804550:	10803fcc 	andi	r2,r2,255
  804554:	1080201c 	xori	r2,r2,128
  804558:	10bfe004 	addi	r2,r2,-128
  80455c:	10000626 	beq	r2,zero,804578 <logic+0x39fc>
  804560:	e0bffc17 	ldw	r2,-16(fp)
  804564:	10803dc3 	ldbu	r2,247(r2)
  804568:	10803fcc 	andi	r2,r2,255
  80456c:	1080201c 	xori	r2,r2,128
  804570:	10bfe004 	addi	r2,r2,-128
  804574:	1000121e 	bne	r2,zero,8045c0 <logic+0x3a44>
  804578:	e0bffc17 	ldw	r2,-16(fp)
  80457c:	10804303 	ldbu	r2,268(r2)
  804580:	10803fcc 	andi	r2,r2,255
  804584:	1080201c 	xori	r2,r2,128
  804588:	10bfe004 	addi	r2,r2,-128
  80458c:	10000c1e 	bne	r2,zero,8045c0 <logic+0x3a44>
  804590:	e0bffc17 	ldw	r2,-16(fp)
  804594:	10802bc3 	ldbu	r2,175(r2)
  804598:	10803fcc 	andi	r2,r2,255
  80459c:	1080201c 	xori	r2,r2,128
  8045a0:	10bfe004 	addi	r2,r2,-128
  8045a4:	10000826 	beq	r2,zero,8045c8 <logic+0x3a4c>
  8045a8:	e0bffc17 	ldw	r2,-16(fp)
  8045ac:	10803e03 	ldbu	r2,248(r2)
  8045b0:	10803fcc 	andi	r2,r2,255
  8045b4:	1080201c 	xori	r2,r2,128
  8045b8:	10bfe004 	addi	r2,r2,-128
  8045bc:	1000021e 	bne	r2,zero,8045c8 <logic+0x3a4c>
  8045c0:	00800044 	movi	r2,1
  8045c4:	00000106 	br	8045cc <logic+0x3a50>
  8045c8:	0005883a 	mov	r2,zero
  8045cc:	1007883a 	mov	r3,r2
  8045d0:	e0bffc17 	ldw	r2,-16(fp)
  8045d4:	10c02cc5 	stb	r3,179(r2)
  d->_g102 = d->_g100 && d->_cg121;
  8045d8:	e0bffc17 	ldw	r2,-16(fp)
  8045dc:	10802bc3 	ldbu	r2,175(r2)
  8045e0:	10803fcc 	andi	r2,r2,255
  8045e4:	1080201c 	xori	r2,r2,128
  8045e8:	10bfe004 	addi	r2,r2,-128
  8045ec:	10000826 	beq	r2,zero,804610 <logic+0x3a94>
  8045f0:	e0bffc17 	ldw	r2,-16(fp)
  8045f4:	10803e03 	ldbu	r2,248(r2)
  8045f8:	10803fcc 	andi	r2,r2,255
  8045fc:	1080201c 	xori	r2,r2,128
  804600:	10bfe004 	addi	r2,r2,-128
  804604:	10000226 	beq	r2,zero,804610 <logic+0x3a94>
  804608:	00800044 	movi	r2,1
  80460c:	00000106 	br	804614 <logic+0x3a98>
  804610:	0005883a 	mov	r2,zero
  804614:	1007883a 	mov	r3,r2
  804618:	e0bffc17 	ldw	r2,-16(fp)
  80461c:	10c02c45 	stb	r3,177(r2)
  if (d->_g102) {
  804620:	e0bffc17 	ldw	r2,-16(fp)
  804624:	10802c43 	ldbu	r2,177(r2)
  804628:	10803fcc 	andi	r2,r2,255
  80462c:	1080201c 	xori	r2,r2,128
  804630:	10bfe004 	addi	r2,r2,-128
  804634:	10000726 	beq	r2,zero,804654 <logic+0x3ad8>
    d->_region5_AEI_x = 0;
  804638:	e0bffc17 	ldw	r2,-16(fp)
  80463c:	10001015 	stw	zero,64(r2)
  804640:	10001115 	stw	zero,68(r2)
    d->_Pacemaker_local__Atrig7 = 0;
  804644:	e0bffc17 	ldw	r2,-16(fp)
  804648:	10001a85 	stb	zero,106(r2)
    d->_Pacemaker_local__Atrig8 = 0;
  80464c:	e0bffc17 	ldw	r2,-16(fp)
  804650:	10001ac5 	stb	zero,107(r2)
  }
  d->_cg123 = d->_region5_AEI_x < d->AEI;
  804654:	e0bffc17 	ldw	r2,-16(fp)
  804658:	14001017 	ldw	r16,64(r2)
  80465c:	14401117 	ldw	r17,68(r2)
  804660:	e0bffc17 	ldw	r2,-16(fp)
  804664:	10800117 	ldw	r2,4(r2)
  804668:	1009883a 	mov	r4,r2
  80466c:	0806b740 	call	806b74 <__floatsidf>
  804670:	1009883a 	mov	r4,r2
  804674:	180b883a 	mov	r5,r3
  804678:	04800044 	movi	r18,1
  80467c:	200d883a 	mov	r6,r4
  804680:	280f883a 	mov	r7,r5
  804684:	8009883a 	mov	r4,r16
  804688:	880b883a 	mov	r5,r17
  80468c:	0805a6c0 	call	805a6c <__ledf2>
  804690:	10000116 	blt	r2,zero,804698 <logic+0x3b1c>
  804694:	0025883a 	mov	r18,zero
  804698:	9007883a 	mov	r3,r18
  80469c:	e0bffc17 	ldw	r2,-16(fp)
  8046a0:	10c03e45 	stb	r3,249(r2)
  d->_g94 = d->_g102 && d->_cg123;
  8046a4:	e0bffc17 	ldw	r2,-16(fp)
  8046a8:	10802c43 	ldbu	r2,177(r2)
  8046ac:	10803fcc 	andi	r2,r2,255
  8046b0:	1080201c 	xori	r2,r2,128
  8046b4:	10bfe004 	addi	r2,r2,-128
  8046b8:	10000826 	beq	r2,zero,8046dc <logic+0x3b60>
  8046bc:	e0bffc17 	ldw	r2,-16(fp)
  8046c0:	10803e43 	ldbu	r2,249(r2)
  8046c4:	10803fcc 	andi	r2,r2,255
  8046c8:	1080201c 	xori	r2,r2,128
  8046cc:	10bfe004 	addi	r2,r2,-128
  8046d0:	10000226 	beq	r2,zero,8046dc <logic+0x3b60>
  8046d4:	00800044 	movi	r2,1
  8046d8:	00000106 	br	8046e0 <logic+0x3b64>
  8046dc:	0005883a 	mov	r2,zero
  8046e0:	1007883a 	mov	r3,r2
  8046e4:	e0bffc17 	ldw	r2,-16(fp)
  8046e8:	10c02ac5 	stb	r3,171(r2)
  if (d->_g94) {
  8046ec:	e0bffc17 	ldw	r2,-16(fp)
  8046f0:	10802ac3 	ldbu	r2,171(r2)
  8046f4:	10803fcc 	andi	r2,r2,255
  8046f8:	1080201c 	xori	r2,r2,128
  8046fc:	10bfe004 	addi	r2,r2,-128
  804700:	10003426 	beq	r2,zero,8047d4 <logic+0x3c58>
    d->sleepT = (d->sleepT < (d->AEI - d->_region5_AEI_x)) ? d->sleepT : (d->AEI - d->_region5_AEI_x);
  804704:	e0bffc17 	ldw	r2,-16(fp)
  804708:	14001417 	ldw	r16,80(r2)
  80470c:	14401517 	ldw	r17,84(r2)
  804710:	e0bffc17 	ldw	r2,-16(fp)
  804714:	10800117 	ldw	r2,4(r2)
  804718:	1009883a 	mov	r4,r2
  80471c:	0806b740 	call	806b74 <__floatsidf>
  804720:	1011883a 	mov	r8,r2
  804724:	1813883a 	mov	r9,r3
  804728:	e13ffc17 	ldw	r4,-16(fp)
  80472c:	20801017 	ldw	r2,64(r4)
  804730:	20c01117 	ldw	r3,68(r4)
  804734:	100d883a 	mov	r6,r2
  804738:	180f883a 	mov	r7,r3
  80473c:	4009883a 	mov	r4,r8
  804740:	480b883a 	mov	r5,r9
  804744:	08062780 	call	806278 <__subdf3>
  804748:	1009883a 	mov	r4,r2
  80474c:	180b883a 	mov	r5,r3
  804750:	2005883a 	mov	r2,r4
  804754:	2807883a 	mov	r3,r5
  804758:	100d883a 	mov	r6,r2
  80475c:	180f883a 	mov	r7,r3
  804760:	8009883a 	mov	r4,r16
  804764:	880b883a 	mov	r5,r17
  804768:	0805a6c0 	call	805a6c <__ledf2>
  80476c:	1000040e 	bge	r2,zero,804780 <logic+0x3c04>
  804770:	e13ffc17 	ldw	r4,-16(fp)
  804774:	20801417 	ldw	r2,80(r4)
  804778:	20c01517 	ldw	r3,84(r4)
  80477c:	00001206 	br	8047c8 <logic+0x3c4c>
  804780:	e0bffc17 	ldw	r2,-16(fp)
  804784:	10800117 	ldw	r2,4(r2)
  804788:	1009883a 	mov	r4,r2
  80478c:	0806b740 	call	806b74 <__floatsidf>
  804790:	1011883a 	mov	r8,r2
  804794:	1813883a 	mov	r9,r3
  804798:	e13ffc17 	ldw	r4,-16(fp)
  80479c:	20801017 	ldw	r2,64(r4)
  8047a0:	20c01117 	ldw	r3,68(r4)
  8047a4:	100d883a 	mov	r6,r2
  8047a8:	180f883a 	mov	r7,r3
  8047ac:	4009883a 	mov	r4,r8
  8047b0:	480b883a 	mov	r5,r9
  8047b4:	08062780 	call	806278 <__subdf3>
  8047b8:	1009883a 	mov	r4,r2
  8047bc:	180b883a 	mov	r5,r3
  8047c0:	2005883a 	mov	r2,r4
  8047c4:	2807883a 	mov	r3,r5
  8047c8:	e13ffc17 	ldw	r4,-16(fp)
  8047cc:	20801415 	stw	r2,80(r4)
  8047d0:	20c01515 	stw	r3,84(r4)
  }
  d->_cg124 = d->_Pacemaker_local__Atrig7 || d->_Pacemaker_local__Atrig8;
  8047d4:	e0bffc17 	ldw	r2,-16(fp)
  8047d8:	10801a83 	ldbu	r2,106(r2)
  8047dc:	10803fcc 	andi	r2,r2,255
  8047e0:	1080201c 	xori	r2,r2,128
  8047e4:	10bfe004 	addi	r2,r2,-128
  8047e8:	1000061e 	bne	r2,zero,804804 <logic+0x3c88>
  8047ec:	e0bffc17 	ldw	r2,-16(fp)
  8047f0:	10801ac3 	ldbu	r2,107(r2)
  8047f4:	10803fcc 	andi	r2,r2,255
  8047f8:	1080201c 	xori	r2,r2,128
  8047fc:	10bfe004 	addi	r2,r2,-128
  804800:	10000226 	beq	r2,zero,80480c <logic+0x3c90>
  804804:	00800044 	movi	r2,1
  804808:	00000106 	br	804810 <logic+0x3c94>
  80480c:	0005883a 	mov	r2,zero
  804810:	1007883a 	mov	r3,r2
  804814:	e0bffc17 	ldw	r2,-16(fp)
  804818:	10c03e85 	stb	r3,250(r2)
  d->_g111 = (d->_g94 && !d->_cg124) || (d->_g126 && !d->_cg128);
  80481c:	e0bffc17 	ldw	r2,-16(fp)
  804820:	10802ac3 	ldbu	r2,171(r2)
  804824:	10803fcc 	andi	r2,r2,255
  804828:	1080201c 	xori	r2,r2,128
  80482c:	10bfe004 	addi	r2,r2,-128
  804830:	10000626 	beq	r2,zero,80484c <logic+0x3cd0>
  804834:	e0bffc17 	ldw	r2,-16(fp)
  804838:	10803e83 	ldbu	r2,250(r2)
  80483c:	10803fcc 	andi	r2,r2,255
  804840:	1080201c 	xori	r2,r2,128
  804844:	10bfe004 	addi	r2,r2,-128
  804848:	10000c26 	beq	r2,zero,80487c <logic+0x3d00>
  80484c:	e0bffc17 	ldw	r2,-16(fp)
  804850:	10802fc3 	ldbu	r2,191(r2)
  804854:	10803fcc 	andi	r2,r2,255
  804858:	1080201c 	xori	r2,r2,128
  80485c:	10bfe004 	addi	r2,r2,-128
  804860:	10000826 	beq	r2,zero,804884 <logic+0x3d08>
  804864:	e0bffc17 	ldw	r2,-16(fp)
  804868:	10803ec3 	ldbu	r2,251(r2)
  80486c:	10803fcc 	andi	r2,r2,255
  804870:	1080201c 	xori	r2,r2,128
  804874:	10bfe004 	addi	r2,r2,-128
  804878:	1000021e 	bne	r2,zero,804884 <logic+0x3d08>
  80487c:	00800044 	movi	r2,1
  804880:	00000106 	br	804888 <logic+0x3d0c>
  804884:	0005883a 	mov	r2,zero
  804888:	1007883a 	mov	r3,r2
  80488c:	e0bffc17 	ldw	r2,-16(fp)
  804890:	10c02dc5 	stb	r3,183(r2)
  d->_g114 = d->_g102 && !d->_cg123;
  804894:	e0bffc17 	ldw	r2,-16(fp)
  804898:	10802c43 	ldbu	r2,177(r2)
  80489c:	10803fcc 	andi	r2,r2,255
  8048a0:	1080201c 	xori	r2,r2,128
  8048a4:	10bfe004 	addi	r2,r2,-128
  8048a8:	10000826 	beq	r2,zero,8048cc <logic+0x3d50>
  8048ac:	e0bffc17 	ldw	r2,-16(fp)
  8048b0:	10803e43 	ldbu	r2,249(r2)
  8048b4:	10803fcc 	andi	r2,r2,255
  8048b8:	1080201c 	xori	r2,r2,128
  8048bc:	10bfe004 	addi	r2,r2,-128
  8048c0:	1000021e 	bne	r2,zero,8048cc <logic+0x3d50>
  8048c4:	00800044 	movi	r2,1
  8048c8:	00000106 	br	8048d0 <logic+0x3d54>
  8048cc:	0005883a 	mov	r2,zero
  8048d0:	1007883a 	mov	r3,r2
  8048d4:	e0bffc17 	ldw	r2,-16(fp)
  8048d8:	10c02e85 	stb	r3,186(r2)
  d->_cg133 = d->_Pacemaker_local__Atrig7 || d->_Pacemaker_local__Atrig8;
  8048dc:	e0bffc17 	ldw	r2,-16(fp)
  8048e0:	10801a83 	ldbu	r2,106(r2)
  8048e4:	10803fcc 	andi	r2,r2,255
  8048e8:	1080201c 	xori	r2,r2,128
  8048ec:	10bfe004 	addi	r2,r2,-128
  8048f0:	1000061e 	bne	r2,zero,80490c <logic+0x3d90>
  8048f4:	e0bffc17 	ldw	r2,-16(fp)
  8048f8:	10801ac3 	ldbu	r2,107(r2)
  8048fc:	10803fcc 	andi	r2,r2,255
  804900:	1080201c 	xori	r2,r2,128
  804904:	10bfe004 	addi	r2,r2,-128
  804908:	10000226 	beq	r2,zero,804914 <logic+0x3d98>
  80490c:	00800044 	movi	r2,1
  804910:	00000106 	br	804918 <logic+0x3d9c>
  804914:	0005883a 	mov	r2,zero
  804918:	1007883a 	mov	r3,r2
  80491c:	e0bffc17 	ldw	r2,-16(fp)
  804920:	10c03f85 	stb	r3,254(r2)
  d->_g141 = (d->_g127 && !d->_cg130) || (d->_g114 && !d->_cg133);
  804924:	e0bffc17 	ldw	r2,-16(fp)
  804928:	10803003 	ldbu	r2,192(r2)
  80492c:	10803fcc 	andi	r2,r2,255
  804930:	1080201c 	xori	r2,r2,128
  804934:	10bfe004 	addi	r2,r2,-128
  804938:	10000626 	beq	r2,zero,804954 <logic+0x3dd8>
  80493c:	e0bffc17 	ldw	r2,-16(fp)
  804940:	10803f43 	ldbu	r2,253(r2)
  804944:	10803fcc 	andi	r2,r2,255
  804948:	1080201c 	xori	r2,r2,128
  80494c:	10bfe004 	addi	r2,r2,-128
  804950:	10000c26 	beq	r2,zero,804984 <logic+0x3e08>
  804954:	e0bffc17 	ldw	r2,-16(fp)
  804958:	10802e83 	ldbu	r2,186(r2)
  80495c:	10803fcc 	andi	r2,r2,255
  804960:	1080201c 	xori	r2,r2,128
  804964:	10bfe004 	addi	r2,r2,-128
  804968:	10000826 	beq	r2,zero,80498c <logic+0x3e10>
  80496c:	e0bffc17 	ldw	r2,-16(fp)
  804970:	10803f83 	ldbu	r2,254(r2)
  804974:	10803fcc 	andi	r2,r2,255
  804978:	1080201c 	xori	r2,r2,128
  80497c:	10bfe004 	addi	r2,r2,-128
  804980:	1000021e 	bne	r2,zero,80498c <logic+0x3e10>
  804984:	00800044 	movi	r2,1
  804988:	00000106 	br	804990 <logic+0x3e14>
  80498c:	0005883a 	mov	r2,zero
  804990:	1007883a 	mov	r3,r2
  804994:	e0bffc17 	ldw	r2,-16(fp)
  804998:	10c032c5 	stb	r3,203(r2)
  d->_g142 = d->_g102 || (d->_g139 && !d->_cg139);
  80499c:	e0bffc17 	ldw	r2,-16(fp)
  8049a0:	10802c43 	ldbu	r2,177(r2)
  8049a4:	10803fcc 	andi	r2,r2,255
  8049a8:	1080201c 	xori	r2,r2,128
  8049ac:	10bfe004 	addi	r2,r2,-128
  8049b0:	10000c1e 	bne	r2,zero,8049e4 <logic+0x3e68>
  8049b4:	e0bffc17 	ldw	r2,-16(fp)
  8049b8:	10803243 	ldbu	r2,201(r2)
  8049bc:	10803fcc 	andi	r2,r2,255
  8049c0:	1080201c 	xori	r2,r2,128
  8049c4:	10bfe004 	addi	r2,r2,-128
  8049c8:	10000826 	beq	r2,zero,8049ec <logic+0x3e70>
  8049cc:	e0bffc17 	ldw	r2,-16(fp)
  8049d0:	10803fc3 	ldbu	r2,255(r2)
  8049d4:	10803fcc 	andi	r2,r2,255
  8049d8:	1080201c 	xori	r2,r2,128
  8049dc:	10bfe004 	addi	r2,r2,-128
  8049e0:	1000021e 	bne	r2,zero,8049ec <logic+0x3e70>
  8049e4:	00800044 	movi	r2,1
  8049e8:	00000106 	br	8049f0 <logic+0x3e74>
  8049ec:	0005883a 	mov	r2,zero
  8049f0:	1007883a 	mov	r3,r2
  8049f4:	e0bffc17 	ldw	r2,-16(fp)
  8049f8:	10c03305 	stb	r3,204(r2)
  d->_g121 = d->_GO || d->_g150;
  8049fc:	e0bffc17 	ldw	r2,-16(fp)
  804a00:	10803403 	ldbu	r2,208(r2)
  804a04:	10803fcc 	andi	r2,r2,255
  804a08:	1080201c 	xori	r2,r2,128
  804a0c:	10bfe004 	addi	r2,r2,-128
  804a10:	1000061e 	bne	r2,zero,804a2c <logic+0x3eb0>
  804a14:	e0bffc17 	ldw	r2,-16(fp)
  804a18:	10803343 	ldbu	r2,205(r2)
  804a1c:	10803fcc 	andi	r2,r2,255
  804a20:	1080201c 	xori	r2,r2,128
  804a24:	10bfe004 	addi	r2,r2,-128
  804a28:	10000226 	beq	r2,zero,804a34 <logic+0x3eb8>
  804a2c:	00800044 	movi	r2,1
  804a30:	00000106 	br	804a38 <logic+0x3ebc>
  804a34:	0005883a 	mov	r2,zero
  804a38:	1007883a 	mov	r3,r2
  804a3c:	e0bffc17 	ldw	r2,-16(fp)
  804a40:	10c02f45 	stb	r3,189(r2)
  d->_g124 = d->_GO || d->_g13;
  804a44:	e0bffc17 	ldw	r2,-16(fp)
  804a48:	10803403 	ldbu	r2,208(r2)
  804a4c:	10803fcc 	andi	r2,r2,255
  804a50:	1080201c 	xori	r2,r2,128
  804a54:	10bfe004 	addi	r2,r2,-128
  804a58:	1000061e 	bne	r2,zero,804a74 <logic+0x3ef8>
  804a5c:	e0bffc17 	ldw	r2,-16(fp)
  804a60:	10801d03 	ldbu	r2,116(r2)
  804a64:	10803fcc 	andi	r2,r2,255
  804a68:	1080201c 	xori	r2,r2,128
  804a6c:	10bfe004 	addi	r2,r2,-128
  804a70:	10000226 	beq	r2,zero,804a7c <logic+0x3f00>
  804a74:	00800044 	movi	r2,1
  804a78:	00000106 	br	804a80 <logic+0x3f04>
  804a7c:	0005883a 	mov	r2,zero
  804a80:	1007883a 	mov	r3,r2
  804a84:	e0bffc17 	ldw	r2,-16(fp)
  804a88:	10c02f85 	stb	r3,190(r2)
  d->_g128 = d->_GO || d->_g138_e2;
  804a8c:	e0bffc17 	ldw	r2,-16(fp)
  804a90:	10803403 	ldbu	r2,208(r2)
  804a94:	10803fcc 	andi	r2,r2,255
  804a98:	1080201c 	xori	r2,r2,128
  804a9c:	10bfe004 	addi	r2,r2,-128
  804aa0:	1000061e 	bne	r2,zero,804abc <logic+0x3f40>
  804aa4:	e0bffc17 	ldw	r2,-16(fp)
  804aa8:	10804343 	ldbu	r2,269(r2)
  804aac:	10803fcc 	andi	r2,r2,255
  804ab0:	1080201c 	xori	r2,r2,128
  804ab4:	10bfe004 	addi	r2,r2,-128
  804ab8:	10000226 	beq	r2,zero,804ac4 <logic+0x3f48>
  804abc:	00800044 	movi	r2,1
  804ac0:	00000106 	br	804ac8 <logic+0x3f4c>
  804ac4:	0005883a 	mov	r2,zero
  804ac8:	1007883a 	mov	r3,r2
  804acc:	e0bffc17 	ldw	r2,-16(fp)
  804ad0:	10c03045 	stb	r3,193(r2)
  d->_g130 = d->_GO || d->_g60;
  804ad4:	e0bffc17 	ldw	r2,-16(fp)
  804ad8:	10803403 	ldbu	r2,208(r2)
  804adc:	10803fcc 	andi	r2,r2,255
  804ae0:	1080201c 	xori	r2,r2,128
  804ae4:	10bfe004 	addi	r2,r2,-128
  804ae8:	1000061e 	bne	r2,zero,804b04 <logic+0x3f88>
  804aec:	e0bffc17 	ldw	r2,-16(fp)
  804af0:	10802543 	ldbu	r2,149(r2)
  804af4:	10803fcc 	andi	r2,r2,255
  804af8:	1080201c 	xori	r2,r2,128
  804afc:	10bfe004 	addi	r2,r2,-128
  804b00:	10000226 	beq	r2,zero,804b0c <logic+0x3f90>
  804b04:	00800044 	movi	r2,1
  804b08:	00000106 	br	804b10 <logic+0x3f94>
  804b0c:	0005883a 	mov	r2,zero
  804b10:	1007883a 	mov	r3,r2
  804b14:	e0bffc17 	ldw	r2,-16(fp)
  804b18:	10c030c5 	stb	r3,195(r2)
  d->_g133 = d->_GO || d->_g166;
  804b1c:	e0bffc17 	ldw	r2,-16(fp)
  804b20:	10803403 	ldbu	r2,208(r2)
  804b24:	10803fcc 	andi	r2,r2,255
  804b28:	1080201c 	xori	r2,r2,128
  804b2c:	10bfe004 	addi	r2,r2,-128
  804b30:	1000061e 	bne	r2,zero,804b4c <logic+0x3fd0>
  804b34:	e0bffc17 	ldw	r2,-16(fp)
  804b38:	10803383 	ldbu	r2,206(r2)
  804b3c:	10803fcc 	andi	r2,r2,255
  804b40:	1080201c 	xori	r2,r2,128
  804b44:	10bfe004 	addi	r2,r2,-128
  804b48:	10000226 	beq	r2,zero,804b54 <logic+0x3fd8>
  804b4c:	00800044 	movi	r2,1
  804b50:	00000106 	br	804b58 <logic+0x3fdc>
  804b54:	0005883a 	mov	r2,zero
  804b58:	1007883a 	mov	r3,r2
  804b5c:	e0bffc17 	ldw	r2,-16(fp)
  804b60:	10c03145 	stb	r3,197(r2)
  d->_g139 = d->_GO || d->_g179;
  804b64:	e0bffc17 	ldw	r2,-16(fp)
  804b68:	10803403 	ldbu	r2,208(r2)
  804b6c:	10803fcc 	andi	r2,r2,255
  804b70:	1080201c 	xori	r2,r2,128
  804b74:	10bfe004 	addi	r2,r2,-128
  804b78:	1000061e 	bne	r2,zero,804b94 <logic+0x4018>
  804b7c:	e0bffc17 	ldw	r2,-16(fp)
  804b80:	108033c3 	ldbu	r2,207(r2)
  804b84:	10803fcc 	andi	r2,r2,255
  804b88:	1080201c 	xori	r2,r2,128
  804b8c:	10bfe004 	addi	r2,r2,-128
  804b90:	10000226 	beq	r2,zero,804b9c <logic+0x4020>
  804b94:	00800044 	movi	r2,1
  804b98:	00000106 	br	804ba0 <logic+0x4024>
  804b9c:	0005883a 	mov	r2,zero
  804ba0:	1007883a 	mov	r3,r2
  804ba4:	e0bffc17 	ldw	r2,-16(fp)
  804ba8:	10c03245 	stb	r3,201(r2)
  if (d->_g33) {
  804bac:	e0bffc17 	ldw	r2,-16(fp)
  804bb0:	10802043 	ldbu	r2,129(r2)
  804bb4:	10803fcc 	andi	r2,r2,255
  804bb8:	1080201c 	xori	r2,r2,128
  804bbc:	10bfe004 	addi	r2,r2,-128
  804bc0:	10000426 	beq	r2,zero,804bd4 <logic+0x4058>
    d->_reg_a_event = d->a_event;
  804bc4:	e0bffc17 	ldw	r2,-16(fp)
  804bc8:	10c01743 	ldbu	r3,93(r2)
  804bcc:	e0bffc17 	ldw	r2,-16(fp)
  804bd0:	10c017c5 	stb	r3,95(r2)
  }
  d->_reg_v_event = d->v_event;
  804bd4:	e0bffc17 	ldw	r2,-16(fp)
  804bd8:	10c01703 	ldbu	r3,92(r2)
  804bdc:	e0bffc17 	ldw	r2,-16(fp)
  804be0:	10c01845 	stb	r3,97(r2)
}
  804be4:	0001883a 	nop
  804be8:	e6fffd04 	addi	sp,fp,-12
  804bec:	dfc00417 	ldw	ra,16(sp)
  804bf0:	df000317 	ldw	fp,12(sp)
  804bf4:	dc800217 	ldw	r18,8(sp)
  804bf8:	dc400117 	ldw	r17,4(sp)
  804bfc:	dc000017 	ldw	r16,0(sp)
  804c00:	dec00504 	addi	sp,sp,20
  804c04:	f800283a 	ret

00804c08 <reset>:

void reset(TickData* d) {
  804c08:	defffe04 	addi	sp,sp,-8
  804c0c:	df000115 	stw	fp,4(sp)
  804c10:	df000104 	addi	fp,sp,4
  804c14:	e13fff15 	stw	r4,-4(fp)
  d->_GO = 1;
  804c18:	e0bfff17 	ldw	r2,-4(fp)
  804c1c:	00c00044 	movi	r3,1
  804c20:	10c03405 	stb	r3,208(r2)
  d->_TERM = 0;
  804c24:	e0bfff17 	ldw	r2,-4(fp)
  804c28:	10004385 	stb	zero,270(r2)
  d->AVI = AVI_VALUE;
  804c2c:	e0bfff17 	ldw	r2,-4(fp)
  804c30:	00c04b04 	movi	r3,300
  804c34:	10c00015 	stw	r3,0(r2)
  d->AEI = AEI_VALUE;
  804c38:	e0bfff17 	ldw	r2,-4(fp)
  804c3c:	00c0c804 	movi	r3,800
  804c40:	10c00115 	stw	r3,4(r2)
  d->PVARP = PVARP_VALUE;
  804c44:	e0bfff17 	ldw	r2,-4(fp)
  804c48:	00c00c84 	movi	r3,50
  804c4c:	10c00215 	stw	r3,8(r2)
  d->VRP = VRP_VALUE;
  804c50:	e0bfff17 	ldw	r2,-4(fp)
  804c54:	00c02584 	movi	r3,150
  804c58:	10c00315 	stw	r3,12(r2)
  d->LRI = LRI_VALUE;
  804c5c:	e0bfff17 	ldw	r2,-4(fp)
  804c60:	00c0ed84 	movi	r3,950
  804c64:	10c00415 	stw	r3,16(r2)
  d->URI = URI_VALUE;
  804c68:	e0bfff17 	ldw	r2,-4(fp)
  804c6c:	00c0e104 	movi	r3,900
  804c70:	10c00515 	stw	r3,20(r2)
  d->_region0_LRI_x = 0;
  804c74:	e0bfff17 	ldw	r2,-4(fp)
  804c78:	10000615 	stw	zero,24(r2)
  804c7c:	10000715 	stw	zero,28(r2)
  d->_region1_URI_x = 0;
  804c80:	e0bfff17 	ldw	r2,-4(fp)
  804c84:	10000815 	stw	zero,32(r2)
  804c88:	10000915 	stw	zero,36(r2)
  d->_region2_PVARP_x = 0;
  804c8c:	e0bfff17 	ldw	r2,-4(fp)
  804c90:	10000a15 	stw	zero,40(r2)
  804c94:	10000b15 	stw	zero,44(r2)
  d->_region3_VRP_x = 0;
  804c98:	e0bfff17 	ldw	r2,-4(fp)
  804c9c:	10000c15 	stw	zero,48(r2)
  804ca0:	10000d15 	stw	zero,52(r2)
  d->_region4_AVI_x = 0;
  804ca4:	e0bfff17 	ldw	r2,-4(fp)
  804ca8:	10000e15 	stw	zero,56(r2)
  804cac:	10000f15 	stw	zero,60(r2)
  d->_region5_AEI_x = 0;
  804cb0:	e0bfff17 	ldw	r2,-4(fp)
  804cb4:	10001015 	stw	zero,64(r2)
  804cb8:	10001115 	stw	zero,68(r2)
  d->deltaT = 0.0;
  804cbc:	e0bfff17 	ldw	r2,-4(fp)
  804cc0:	10001215 	stw	zero,72(r2)
  804cc4:	10001315 	stw	zero,76(r2)
  d->sleepT = 0.0;
  804cc8:	e0bfff17 	ldw	r2,-4(fp)
  804ccc:	10001415 	stw	zero,80(r2)
  804cd0:	10001515 	stw	zero,84(r2)
  d->AP = 0;
  804cd4:	e0bfff17 	ldw	r2,-4(fp)
  804cd8:	10001685 	stb	zero,90(r2)
  d->VP = 0;
  804cdc:	e0bfff17 	ldw	r2,-4(fp)
  804ce0:	100016c5 	stb	zero,91(r2)
  d->v_event = 0;
  804ce4:	e0bfff17 	ldw	r2,-4(fp)
  804ce8:	10001705 	stb	zero,92(r2)
  d->a_event = 0;
  804cec:	e0bfff17 	ldw	r2,-4(fp)
  804cf0:	10001745 	stb	zero,93(r2)
  d->URI_timeout = 0;
  804cf4:	e0bfff17 	ldw	r2,-4(fp)
  804cf8:	10001785 	stb	zero,94(r2)
  d->_reg_a_event = 0;
  804cfc:	e0bfff17 	ldw	r2,-4(fp)
  804d00:	100017c5 	stb	zero,95(r2)
  d->_reg_v_event = 0;
  804d04:	e0bfff17 	ldw	r2,-4(fp)
  804d08:	10001845 	stb	zero,97(r2)
  d->_pg7 = 0;
  804d0c:	e0bfff17 	ldw	r2,-4(fp)
  804d10:	100043c5 	stb	zero,271(r2)
  d->_pg25 = 0;
  804d14:	e0bfff17 	ldw	r2,-4(fp)
  804d18:	10004405 	stb	zero,272(r2)
  d->_pg16 = 0;
  804d1c:	e0bfff17 	ldw	r2,-4(fp)
  804d20:	10004445 	stb	zero,273(r2)
  d->_pg121 = 0;
  804d24:	e0bfff17 	ldw	r2,-4(fp)
  804d28:	10004485 	stb	zero,274(r2)
  d->_pg34 = 0;
  804d2c:	e0bfff17 	ldw	r2,-4(fp)
  804d30:	100044c5 	stb	zero,275(r2)
  d->_pg115 = 0;
  804d34:	e0bfff17 	ldw	r2,-4(fp)
  804d38:	10004505 	stb	zero,276(r2)
  d->_pg74 = 0;
  804d3c:	e0bfff17 	ldw	r2,-4(fp)
  804d40:	10004545 	stb	zero,277(r2)
  d->_pg93 = 0;
  804d44:	e0bfff17 	ldw	r2,-4(fp)
  804d48:	10004585 	stb	zero,278(r2)
  d->_pg133 = 0;
  804d4c:	e0bfff17 	ldw	r2,-4(fp)
  804d50:	100045c5 	stb	zero,279(r2)
  d->_pg96 = 0;
  804d54:	e0bfff17 	ldw	r2,-4(fp)
  804d58:	10004605 	stb	zero,280(r2)
  d->_pg79_e1 = 0;
  804d5c:	e0bfff17 	ldw	r2,-4(fp)
  804d60:	10004645 	stb	zero,281(r2)
  d->_pg3 = 0;
  804d64:	e0bfff17 	ldw	r2,-4(fp)
  804d68:	10004685 	stb	zero,282(r2)
  d->_pg124 = 0;
  804d6c:	e0bfff17 	ldw	r2,-4(fp)
  804d70:	100046c5 	stb	zero,283(r2)
  d->_pg42 = 0;
  804d74:	e0bfff17 	ldw	r2,-4(fp)
  804d78:	10004705 	stb	zero,284(r2)
  d->_pg48 = 0;
  804d7c:	e0bfff17 	ldw	r2,-4(fp)
  804d80:	10004745 	stb	zero,285(r2)
  d->_pg40 = 0;
  804d84:	e0bfff17 	ldw	r2,-4(fp)
  804d88:	10004785 	stb	zero,286(r2)
  d->_pg43 = 0;
  804d8c:	e0bfff17 	ldw	r2,-4(fp)
  804d90:	100047c5 	stb	zero,287(r2)
  d->_pg141 = 0;
  804d94:	e0bfff17 	ldw	r2,-4(fp)
  804d98:	10004805 	stb	zero,288(r2)
  d->_pg111 = 0;
  804d9c:	e0bfff17 	ldw	r2,-4(fp)
  804da0:	10004845 	stb	zero,289(r2)
  d->_pg33 = 0;
  804da4:	e0bfff17 	ldw	r2,-4(fp)
  804da8:	10004885 	stb	zero,290(r2)
  d->_pg142 = 0;
  804dac:	e0bfff17 	ldw	r2,-4(fp)
  804db0:	100048c5 	stb	zero,291(r2)
  d->_pg139 = 0;
  804db4:	e0bfff17 	ldw	r2,-4(fp)
  804db8:	10004905 	stb	zero,292(r2)
  d->_pg60_e1 = 0;
  804dbc:	e0bfff17 	ldw	r2,-4(fp)
  804dc0:	10004945 	stb	zero,293(r2)
  d->_pg128 = 0;
  804dc4:	e0bfff17 	ldw	r2,-4(fp)
  804dc8:	10004985 	stb	zero,294(r2)
  d->_pg63 = 0;
  804dcc:	e0bfff17 	ldw	r2,-4(fp)
  804dd0:	100049c5 	stb	zero,295(r2)
  d->_pg61 = 0;
  804dd4:	e0bfff17 	ldw	r2,-4(fp)
  804dd8:	10004a05 	stb	zero,296(r2)
  d->_pg64 = 0;
  804ddc:	e0bfff17 	ldw	r2,-4(fp)
  804de0:	10004a45 	stb	zero,297(r2)
  d->_pg130 = 0;
  804de4:	e0bfff17 	ldw	r2,-4(fp)
  804de8:	10004a85 	stb	zero,298(r2)
  d->_pg82 = 0;
  804dec:	e0bfff17 	ldw	r2,-4(fp)
  804df0:	10004ac5 	stb	zero,299(r2)
  d->_pg80 = 0;
  804df4:	e0bfff17 	ldw	r2,-4(fp)
  804df8:	10004b05 	stb	zero,300(r2)
  d->_pg81 = 0;
  804dfc:	e0bfff17 	ldw	r2,-4(fp)
  804e00:	10004b45 	stb	zero,301(r2)
  d->_pg79 = 0;
  804e04:	e0bfff17 	ldw	r2,-4(fp)
  804e08:	10004b85 	stb	zero,302(r2)
  d->_pg105 = 0;
  804e0c:	e0bfff17 	ldw	r2,-4(fp)
  804e10:	10004bc5 	stb	zero,303(r2)
}
  804e14:	0001883a 	nop
  804e18:	e037883a 	mov	sp,fp
  804e1c:	df000017 	ldw	fp,0(sp)
  804e20:	dec00104 	addi	sp,sp,4
  804e24:	f800283a 	ret

00804e28 <tick>:

void tick(TickData* d) {
  804e28:	defffd04 	addi	sp,sp,-12
  804e2c:	dfc00215 	stw	ra,8(sp)
  804e30:	df000115 	stw	fp,4(sp)
  804e34:	df000104 	addi	fp,sp,4
  804e38:	e13fff15 	stw	r4,-4(fp)
  logic(d);
  804e3c:	e13fff17 	ldw	r4,-4(fp)
  804e40:	0800b7c0 	call	800b7c <logic>

  d->_pg7 = d->_g7;
  804e44:	e0bfff17 	ldw	r2,-4(fp)
  804e48:	10c01bc3 	ldbu	r3,111(r2)
  804e4c:	e0bfff17 	ldw	r2,-4(fp)
  804e50:	10c043c5 	stb	r3,271(r2)
  d->_pg25 = d->_g25;
  804e54:	e0bfff17 	ldw	r2,-4(fp)
  804e58:	10c01f43 	ldbu	r3,125(r2)
  804e5c:	e0bfff17 	ldw	r2,-4(fp)
  804e60:	10c04405 	stb	r3,272(r2)
  d->_pg16 = d->_g16;
  804e64:	e0bfff17 	ldw	r2,-4(fp)
  804e68:	10c01d83 	ldbu	r3,118(r2)
  804e6c:	e0bfff17 	ldw	r2,-4(fp)
  804e70:	10c04445 	stb	r3,273(r2)
  d->_pg121 = d->_g121;
  804e74:	e0bfff17 	ldw	r2,-4(fp)
  804e78:	10c02f43 	ldbu	r3,189(r2)
  804e7c:	e0bfff17 	ldw	r2,-4(fp)
  804e80:	10c04485 	stb	r3,274(r2)
  d->_pg34 = d->_g34;
  804e84:	e0bfff17 	ldw	r2,-4(fp)
  804e88:	10c02083 	ldbu	r3,130(r2)
  804e8c:	e0bfff17 	ldw	r2,-4(fp)
  804e90:	10c044c5 	stb	r3,275(r2)
  d->_pg115 = d->_g115;
  804e94:	e0bfff17 	ldw	r2,-4(fp)
  804e98:	10c02ec3 	ldbu	r3,187(r2)
  804e9c:	e0bfff17 	ldw	r2,-4(fp)
  804ea0:	10c04505 	stb	r3,276(r2)
  d->_pg74 = d->_g74;
  804ea4:	e0bfff17 	ldw	r2,-4(fp)
  804ea8:	10c02783 	ldbu	r3,158(r2)
  804eac:	e0bfff17 	ldw	r2,-4(fp)
  804eb0:	10c04545 	stb	r3,277(r2)
  d->_pg93 = d->_g93;
  804eb4:	e0bfff17 	ldw	r2,-4(fp)
  804eb8:	10c02a83 	ldbu	r3,170(r2)
  804ebc:	e0bfff17 	ldw	r2,-4(fp)
  804ec0:	10c04585 	stb	r3,278(r2)
  d->_pg133 = d->_g133;
  804ec4:	e0bfff17 	ldw	r2,-4(fp)
  804ec8:	10c03143 	ldbu	r3,197(r2)
  804ecc:	e0bfff17 	ldw	r2,-4(fp)
  804ed0:	10c045c5 	stb	r3,279(r2)
  d->_pg96 = d->_g96;
  804ed4:	e0bfff17 	ldw	r2,-4(fp)
  804ed8:	10c02b03 	ldbu	r3,172(r2)
  804edc:	e0bfff17 	ldw	r2,-4(fp)
  804ee0:	10c04605 	stb	r3,280(r2)
  d->_pg79_e1 = d->_g79_e1;
  804ee4:	e0bfff17 	ldw	r2,-4(fp)
  804ee8:	10c04203 	ldbu	r3,264(r2)
  804eec:	e0bfff17 	ldw	r2,-4(fp)
  804ef0:	10c04645 	stb	r3,281(r2)
  d->_pg3 = d->_g3;
  804ef4:	e0bfff17 	ldw	r2,-4(fp)
  804ef8:	10c01b03 	ldbu	r3,108(r2)
  804efc:	e0bfff17 	ldw	r2,-4(fp)
  804f00:	10c04685 	stb	r3,282(r2)
  d->_pg124 = d->_g124;
  804f04:	e0bfff17 	ldw	r2,-4(fp)
  804f08:	10c02f83 	ldbu	r3,190(r2)
  804f0c:	e0bfff17 	ldw	r2,-4(fp)
  804f10:	10c046c5 	stb	r3,283(r2)
  d->_pg42 = d->_g42;
  804f14:	e0bfff17 	ldw	r2,-4(fp)
  804f18:	10c02243 	ldbu	r3,137(r2)
  804f1c:	e0bfff17 	ldw	r2,-4(fp)
  804f20:	10c04705 	stb	r3,284(r2)
  d->_pg48 = d->_g48;
  804f24:	e0bfff17 	ldw	r2,-4(fp)
  804f28:	10c02343 	ldbu	r3,141(r2)
  804f2c:	e0bfff17 	ldw	r2,-4(fp)
  804f30:	10c04745 	stb	r3,285(r2)
  d->_pg40 = d->_g40;
  804f34:	e0bfff17 	ldw	r2,-4(fp)
  804f38:	10c021c3 	ldbu	r3,135(r2)
  804f3c:	e0bfff17 	ldw	r2,-4(fp)
  804f40:	10c04785 	stb	r3,286(r2)
  d->_pg43 = d->_g43;
  804f44:	e0bfff17 	ldw	r2,-4(fp)
  804f48:	10c02283 	ldbu	r3,138(r2)
  804f4c:	e0bfff17 	ldw	r2,-4(fp)
  804f50:	10c047c5 	stb	r3,287(r2)
  d->_pg141 = d->_g141;
  804f54:	e0bfff17 	ldw	r2,-4(fp)
  804f58:	10c032c3 	ldbu	r3,203(r2)
  804f5c:	e0bfff17 	ldw	r2,-4(fp)
  804f60:	10c04805 	stb	r3,288(r2)
  d->_pg111 = d->_g111;
  804f64:	e0bfff17 	ldw	r2,-4(fp)
  804f68:	10c02dc3 	ldbu	r3,183(r2)
  804f6c:	e0bfff17 	ldw	r2,-4(fp)
  804f70:	10c04845 	stb	r3,289(r2)
  d->_pg33 = d->_g33;
  804f74:	e0bfff17 	ldw	r2,-4(fp)
  804f78:	10c02043 	ldbu	r3,129(r2)
  804f7c:	e0bfff17 	ldw	r2,-4(fp)
  804f80:	10c04885 	stb	r3,290(r2)
  d->_pg142 = d->_g142;
  804f84:	e0bfff17 	ldw	r2,-4(fp)
  804f88:	10c03303 	ldbu	r3,204(r2)
  804f8c:	e0bfff17 	ldw	r2,-4(fp)
  804f90:	10c048c5 	stb	r3,291(r2)
  d->_pg139 = d->_g139;
  804f94:	e0bfff17 	ldw	r2,-4(fp)
  804f98:	10c03243 	ldbu	r3,201(r2)
  804f9c:	e0bfff17 	ldw	r2,-4(fp)
  804fa0:	10c04905 	stb	r3,292(r2)
  d->_pg60_e1 = d->_g60_e1;
  804fa4:	e0bfff17 	ldw	r2,-4(fp)
  804fa8:	10c04183 	ldbu	r3,262(r2)
  804fac:	e0bfff17 	ldw	r2,-4(fp)
  804fb0:	10c04945 	stb	r3,293(r2)
  d->_pg128 = d->_g128;
  804fb4:	e0bfff17 	ldw	r2,-4(fp)
  804fb8:	10c03043 	ldbu	r3,193(r2)
  804fbc:	e0bfff17 	ldw	r2,-4(fp)
  804fc0:	10c04985 	stb	r3,294(r2)
  d->_pg63 = d->_g63;
  804fc4:	e0bfff17 	ldw	r2,-4(fp)
  804fc8:	10c02603 	ldbu	r3,152(r2)
  804fcc:	e0bfff17 	ldw	r2,-4(fp)
  804fd0:	10c049c5 	stb	r3,295(r2)
  d->_pg61 = d->_g61;
  804fd4:	e0bfff17 	ldw	r2,-4(fp)
  804fd8:	10c02583 	ldbu	r3,150(r2)
  804fdc:	e0bfff17 	ldw	r2,-4(fp)
  804fe0:	10c04a05 	stb	r3,296(r2)
  d->_pg64 = d->_g64;
  804fe4:	e0bfff17 	ldw	r2,-4(fp)
  804fe8:	10c02643 	ldbu	r3,153(r2)
  804fec:	e0bfff17 	ldw	r2,-4(fp)
  804ff0:	10c04a45 	stb	r3,297(r2)
  d->_pg130 = d->_g130;
  804ff4:	e0bfff17 	ldw	r2,-4(fp)
  804ff8:	10c030c3 	ldbu	r3,195(r2)
  804ffc:	e0bfff17 	ldw	r2,-4(fp)
  805000:	10c04a85 	stb	r3,298(r2)
  d->_pg82 = d->_g82;
  805004:	e0bfff17 	ldw	r2,-4(fp)
  805008:	10c02943 	ldbu	r3,165(r2)
  80500c:	e0bfff17 	ldw	r2,-4(fp)
  805010:	10c04ac5 	stb	r3,299(r2)
  d->_pg80 = d->_g80;
  805014:	e0bfff17 	ldw	r2,-4(fp)
  805018:	10c028c3 	ldbu	r3,163(r2)
  80501c:	e0bfff17 	ldw	r2,-4(fp)
  805020:	10c04b05 	stb	r3,300(r2)
  d->_pg81 = d->_g81;
  805024:	e0bfff17 	ldw	r2,-4(fp)
  805028:	10c02903 	ldbu	r3,164(r2)
  80502c:	e0bfff17 	ldw	r2,-4(fp)
  805030:	10c04b45 	stb	r3,301(r2)
  d->_pg79 = d->_g79;
  805034:	e0bfff17 	ldw	r2,-4(fp)
  805038:	10c02883 	ldbu	r3,162(r2)
  80503c:	e0bfff17 	ldw	r2,-4(fp)
  805040:	10c04b85 	stb	r3,302(r2)
  d->_pg105 = d->_g105;
  805044:	e0bfff17 	ldw	r2,-4(fp)
  805048:	10c02cc3 	ldbu	r3,179(r2)
  80504c:	e0bfff17 	ldw	r2,-4(fp)
  805050:	10c04bc5 	stb	r3,303(r2)
  d->_GO = 0;
  805054:	e0bfff17 	ldw	r2,-4(fp)
  805058:	10003405 	stb	zero,208(r2)
}
  80505c:	0001883a 	nop
  805060:	e037883a 	mov	sp,fp
  805064:	dfc00117 	ldw	ra,4(sp)
  805068:	df000017 	ldw	fp,0(sp)
  80506c:	dec00204 	addi	sp,sp,8
  805070:	f800283a 	ret

00805074 <__floatundidf>:
  805074:	defffc04 	addi	sp,sp,-16
  805078:	dc800215 	stw	r18,8(sp)
  80507c:	2025883a 	mov	r18,r4
  805080:	2809883a 	mov	r4,r5
  805084:	dfc00315 	stw	ra,12(sp)
  805088:	dc400115 	stw	r17,4(sp)
  80508c:	dc000015 	stw	r16,0(sp)
  805090:	0806c500 	call	806c50 <__floatunsidf>
  805094:	000d883a 	mov	r6,zero
  805098:	01d07c34 	movhi	r7,16880
  80509c:	180b883a 	mov	r5,r3
  8050a0:	1009883a 	mov	r4,r2
  8050a4:	0805b600 	call	805b60 <__muldf3>
  8050a8:	9009883a 	mov	r4,r18
  8050ac:	1023883a 	mov	r17,r2
  8050b0:	1821883a 	mov	r16,r3
  8050b4:	0806c500 	call	806c50 <__floatunsidf>
  8050b8:	880d883a 	mov	r6,r17
  8050bc:	800f883a 	mov	r7,r16
  8050c0:	1009883a 	mov	r4,r2
  8050c4:	180b883a 	mov	r5,r3
  8050c8:	08050e40 	call	8050e4 <__adddf3>
  8050cc:	dfc00317 	ldw	ra,12(sp)
  8050d0:	dc800217 	ldw	r18,8(sp)
  8050d4:	dc400117 	ldw	r17,4(sp)
  8050d8:	dc000017 	ldw	r16,0(sp)
  8050dc:	dec00404 	addi	sp,sp,16
  8050e0:	f800283a 	ret

008050e4 <__adddf3>:
  8050e4:	02c00434 	movhi	r11,16
  8050e8:	5affffc4 	addi	r11,r11,-1
  8050ec:	2806d7fa 	srli	r3,r5,31
  8050f0:	2ad4703a 	and	r10,r5,r11
  8050f4:	3ad2703a 	and	r9,r7,r11
  8050f8:	3804d53a 	srli	r2,r7,20
  8050fc:	3018d77a 	srli	r12,r6,29
  805100:	280ad53a 	srli	r5,r5,20
  805104:	501490fa 	slli	r10,r10,3
  805108:	2010d77a 	srli	r8,r4,29
  80510c:	481290fa 	slli	r9,r9,3
  805110:	380ed7fa 	srli	r7,r7,31
  805114:	defffb04 	addi	sp,sp,-20
  805118:	dc800215 	stw	r18,8(sp)
  80511c:	dc400115 	stw	r17,4(sp)
  805120:	dc000015 	stw	r16,0(sp)
  805124:	dfc00415 	stw	ra,16(sp)
  805128:	dcc00315 	stw	r19,12(sp)
  80512c:	1c803fcc 	andi	r18,r3,255
  805130:	2c01ffcc 	andi	r16,r5,2047
  805134:	5210b03a 	or	r8,r10,r8
  805138:	202290fa 	slli	r17,r4,3
  80513c:	1081ffcc 	andi	r2,r2,2047
  805140:	4b12b03a 	or	r9,r9,r12
  805144:	300c90fa 	slli	r6,r6,3
  805148:	91c07526 	beq	r18,r7,805320 <__adddf3+0x23c>
  80514c:	8087c83a 	sub	r3,r16,r2
  805150:	00c0ab0e 	bge	zero,r3,805400 <__adddf3+0x31c>
  805154:	10002a1e 	bne	r2,zero,805200 <__adddf3+0x11c>
  805158:	4984b03a 	or	r2,r9,r6
  80515c:	1000961e 	bne	r2,zero,8053b8 <__adddf3+0x2d4>
  805160:	888001cc 	andi	r2,r17,7
  805164:	10000726 	beq	r2,zero,805184 <__adddf3+0xa0>
  805168:	888003cc 	andi	r2,r17,15
  80516c:	00c00104 	movi	r3,4
  805170:	10c00426 	beq	r2,r3,805184 <__adddf3+0xa0>
  805174:	88c7883a 	add	r3,r17,r3
  805178:	1c63803a 	cmpltu	r17,r3,r17
  80517c:	4451883a 	add	r8,r8,r17
  805180:	1823883a 	mov	r17,r3
  805184:	4080202c 	andhi	r2,r8,128
  805188:	10005926 	beq	r2,zero,8052f0 <__adddf3+0x20c>
  80518c:	84000044 	addi	r16,r16,1
  805190:	0081ffc4 	movi	r2,2047
  805194:	8080ba26 	beq	r16,r2,805480 <__adddf3+0x39c>
  805198:	00bfe034 	movhi	r2,65408
  80519c:	10bfffc4 	addi	r2,r2,-1
  8051a0:	4090703a 	and	r8,r8,r2
  8051a4:	4004977a 	slli	r2,r8,29
  8051a8:	4010927a 	slli	r8,r8,9
  8051ac:	8822d0fa 	srli	r17,r17,3
  8051b0:	8401ffcc 	andi	r16,r16,2047
  8051b4:	4010d33a 	srli	r8,r8,12
  8051b8:	9007883a 	mov	r3,r18
  8051bc:	1444b03a 	or	r2,r2,r17
  8051c0:	8401ffcc 	andi	r16,r16,2047
  8051c4:	8020953a 	slli	r16,r16,20
  8051c8:	18c03fcc 	andi	r3,r3,255
  8051cc:	01000434 	movhi	r4,16
  8051d0:	213fffc4 	addi	r4,r4,-1
  8051d4:	180697fa 	slli	r3,r3,31
  8051d8:	4110703a 	and	r8,r8,r4
  8051dc:	4410b03a 	or	r8,r8,r16
  8051e0:	40c6b03a 	or	r3,r8,r3
  8051e4:	dfc00417 	ldw	ra,16(sp)
  8051e8:	dcc00317 	ldw	r19,12(sp)
  8051ec:	dc800217 	ldw	r18,8(sp)
  8051f0:	dc400117 	ldw	r17,4(sp)
  8051f4:	dc000017 	ldw	r16,0(sp)
  8051f8:	dec00504 	addi	sp,sp,20
  8051fc:	f800283a 	ret
  805200:	0081ffc4 	movi	r2,2047
  805204:	80bfd626 	beq	r16,r2,805160 <__alt_mem_onchip_mem+0xff7fd160>
  805208:	4a402034 	orhi	r9,r9,128
  80520c:	00800e04 	movi	r2,56
  805210:	10c09f16 	blt	r2,r3,805490 <__adddf3+0x3ac>
  805214:	008007c4 	movi	r2,31
  805218:	10c0c216 	blt	r2,r3,805524 <__adddf3+0x440>
  80521c:	00800804 	movi	r2,32
  805220:	10c5c83a 	sub	r2,r2,r3
  805224:	488a983a 	sll	r5,r9,r2
  805228:	30c8d83a 	srl	r4,r6,r3
  80522c:	3084983a 	sll	r2,r6,r2
  805230:	48c6d83a 	srl	r3,r9,r3
  805234:	290cb03a 	or	r6,r5,r4
  805238:	1004c03a 	cmpne	r2,r2,zero
  80523c:	308cb03a 	or	r6,r6,r2
  805240:	898dc83a 	sub	r6,r17,r6
  805244:	89a3803a 	cmpltu	r17,r17,r6
  805248:	40d1c83a 	sub	r8,r8,r3
  80524c:	4451c83a 	sub	r8,r8,r17
  805250:	3023883a 	mov	r17,r6
  805254:	4080202c 	andhi	r2,r8,128
  805258:	10002326 	beq	r2,zero,8052e8 <__adddf3+0x204>
  80525c:	04c02034 	movhi	r19,128
  805260:	9cffffc4 	addi	r19,r19,-1
  805264:	44e6703a 	and	r19,r8,r19
  805268:	98007626 	beq	r19,zero,805444 <__adddf3+0x360>
  80526c:	9809883a 	mov	r4,r19
  805270:	0806cf80 	call	806cf8 <__clzsi2>
  805274:	10fffe04 	addi	r3,r2,-8
  805278:	010007c4 	movi	r4,31
  80527c:	20c07716 	blt	r4,r3,80545c <__adddf3+0x378>
  805280:	00800804 	movi	r2,32
  805284:	10c5c83a 	sub	r2,r2,r3
  805288:	8884d83a 	srl	r2,r17,r2
  80528c:	98d0983a 	sll	r8,r19,r3
  805290:	88e2983a 	sll	r17,r17,r3
  805294:	1204b03a 	or	r2,r2,r8
  805298:	1c007416 	blt	r3,r16,80546c <__adddf3+0x388>
  80529c:	1c21c83a 	sub	r16,r3,r16
  8052a0:	82000044 	addi	r8,r16,1
  8052a4:	00c007c4 	movi	r3,31
  8052a8:	1a009116 	blt	r3,r8,8054f0 <__adddf3+0x40c>
  8052ac:	00c00804 	movi	r3,32
  8052b0:	1a07c83a 	sub	r3,r3,r8
  8052b4:	8a08d83a 	srl	r4,r17,r8
  8052b8:	88e2983a 	sll	r17,r17,r3
  8052bc:	10c6983a 	sll	r3,r2,r3
  8052c0:	1210d83a 	srl	r8,r2,r8
  8052c4:	8804c03a 	cmpne	r2,r17,zero
  8052c8:	1906b03a 	or	r3,r3,r4
  8052cc:	18a2b03a 	or	r17,r3,r2
  8052d0:	0021883a 	mov	r16,zero
  8052d4:	003fa206 	br	805160 <__alt_mem_onchip_mem+0xff7fd160>
  8052d8:	1890b03a 	or	r8,r3,r2
  8052dc:	40017d26 	beq	r8,zero,8058d4 <__adddf3+0x7f0>
  8052e0:	1011883a 	mov	r8,r2
  8052e4:	1823883a 	mov	r17,r3
  8052e8:	888001cc 	andi	r2,r17,7
  8052ec:	103f9e1e 	bne	r2,zero,805168 <__alt_mem_onchip_mem+0xff7fd168>
  8052f0:	4004977a 	slli	r2,r8,29
  8052f4:	8822d0fa 	srli	r17,r17,3
  8052f8:	4010d0fa 	srli	r8,r8,3
  8052fc:	9007883a 	mov	r3,r18
  805300:	1444b03a 	or	r2,r2,r17
  805304:	0101ffc4 	movi	r4,2047
  805308:	81002426 	beq	r16,r4,80539c <__adddf3+0x2b8>
  80530c:	8120703a 	and	r16,r16,r4
  805310:	01000434 	movhi	r4,16
  805314:	213fffc4 	addi	r4,r4,-1
  805318:	4110703a 	and	r8,r8,r4
  80531c:	003fa806 	br	8051c0 <__alt_mem_onchip_mem+0xff7fd1c0>
  805320:	8089c83a 	sub	r4,r16,r2
  805324:	01005e0e 	bge	zero,r4,8054a0 <__adddf3+0x3bc>
  805328:	10002b26 	beq	r2,zero,8053d8 <__adddf3+0x2f4>
  80532c:	0081ffc4 	movi	r2,2047
  805330:	80bf8b26 	beq	r16,r2,805160 <__alt_mem_onchip_mem+0xff7fd160>
  805334:	4a402034 	orhi	r9,r9,128
  805338:	00800e04 	movi	r2,56
  80533c:	1100a40e 	bge	r2,r4,8055d0 <__adddf3+0x4ec>
  805340:	498cb03a 	or	r6,r9,r6
  805344:	300ac03a 	cmpne	r5,r6,zero
  805348:	0013883a 	mov	r9,zero
  80534c:	2c4b883a 	add	r5,r5,r17
  805350:	2c63803a 	cmpltu	r17,r5,r17
  805354:	4a11883a 	add	r8,r9,r8
  805358:	8a11883a 	add	r8,r17,r8
  80535c:	2823883a 	mov	r17,r5
  805360:	4080202c 	andhi	r2,r8,128
  805364:	103fe026 	beq	r2,zero,8052e8 <__alt_mem_onchip_mem+0xff7fd2e8>
  805368:	84000044 	addi	r16,r16,1
  80536c:	0081ffc4 	movi	r2,2047
  805370:	8080d226 	beq	r16,r2,8056bc <__adddf3+0x5d8>
  805374:	00bfe034 	movhi	r2,65408
  805378:	10bfffc4 	addi	r2,r2,-1
  80537c:	4090703a 	and	r8,r8,r2
  805380:	880ad07a 	srli	r5,r17,1
  805384:	400897fa 	slli	r4,r8,31
  805388:	88c0004c 	andi	r3,r17,1
  80538c:	28e2b03a 	or	r17,r5,r3
  805390:	4010d07a 	srli	r8,r8,1
  805394:	2462b03a 	or	r17,r4,r17
  805398:	003f7106 	br	805160 <__alt_mem_onchip_mem+0xff7fd160>
  80539c:	4088b03a 	or	r4,r8,r2
  8053a0:	20014526 	beq	r4,zero,8058b8 <__adddf3+0x7d4>
  8053a4:	01000434 	movhi	r4,16
  8053a8:	42000234 	orhi	r8,r8,8
  8053ac:	213fffc4 	addi	r4,r4,-1
  8053b0:	4110703a 	and	r8,r8,r4
  8053b4:	003f8206 	br	8051c0 <__alt_mem_onchip_mem+0xff7fd1c0>
  8053b8:	18ffffc4 	addi	r3,r3,-1
  8053bc:	1800491e 	bne	r3,zero,8054e4 <__adddf3+0x400>
  8053c0:	898bc83a 	sub	r5,r17,r6
  8053c4:	8963803a 	cmpltu	r17,r17,r5
  8053c8:	4251c83a 	sub	r8,r8,r9
  8053cc:	4451c83a 	sub	r8,r8,r17
  8053d0:	2823883a 	mov	r17,r5
  8053d4:	003f9f06 	br	805254 <__alt_mem_onchip_mem+0xff7fd254>
  8053d8:	4984b03a 	or	r2,r9,r6
  8053dc:	103f6026 	beq	r2,zero,805160 <__alt_mem_onchip_mem+0xff7fd160>
  8053e0:	213fffc4 	addi	r4,r4,-1
  8053e4:	2000931e 	bne	r4,zero,805634 <__adddf3+0x550>
  8053e8:	898d883a 	add	r6,r17,r6
  8053ec:	3463803a 	cmpltu	r17,r6,r17
  8053f0:	4251883a 	add	r8,r8,r9
  8053f4:	8a11883a 	add	r8,r17,r8
  8053f8:	3023883a 	mov	r17,r6
  8053fc:	003fd806 	br	805360 <__alt_mem_onchip_mem+0xff7fd360>
  805400:	1800541e 	bne	r3,zero,805554 <__adddf3+0x470>
  805404:	80800044 	addi	r2,r16,1
  805408:	1081ffcc 	andi	r2,r2,2047
  80540c:	00c00044 	movi	r3,1
  805410:	1880a00e 	bge	r3,r2,805694 <__adddf3+0x5b0>
  805414:	8989c83a 	sub	r4,r17,r6
  805418:	8905803a 	cmpltu	r2,r17,r4
  80541c:	4267c83a 	sub	r19,r8,r9
  805420:	98a7c83a 	sub	r19,r19,r2
  805424:	9880202c 	andhi	r2,r19,128
  805428:	10006326 	beq	r2,zero,8055b8 <__adddf3+0x4d4>
  80542c:	3463c83a 	sub	r17,r6,r17
  805430:	4a07c83a 	sub	r3,r9,r8
  805434:	344d803a 	cmpltu	r6,r6,r17
  805438:	19a7c83a 	sub	r19,r3,r6
  80543c:	3825883a 	mov	r18,r7
  805440:	983f8a1e 	bne	r19,zero,80526c <__alt_mem_onchip_mem+0xff7fd26c>
  805444:	8809883a 	mov	r4,r17
  805448:	0806cf80 	call	806cf8 <__clzsi2>
  80544c:	10800804 	addi	r2,r2,32
  805450:	10fffe04 	addi	r3,r2,-8
  805454:	010007c4 	movi	r4,31
  805458:	20ff890e 	bge	r4,r3,805280 <__alt_mem_onchip_mem+0xff7fd280>
  80545c:	10bff604 	addi	r2,r2,-40
  805460:	8884983a 	sll	r2,r17,r2
  805464:	0023883a 	mov	r17,zero
  805468:	1c3f8c0e 	bge	r3,r16,80529c <__alt_mem_onchip_mem+0xff7fd29c>
  80546c:	023fe034 	movhi	r8,65408
  805470:	423fffc4 	addi	r8,r8,-1
  805474:	80e1c83a 	sub	r16,r16,r3
  805478:	1210703a 	and	r8,r2,r8
  80547c:	003f3806 	br	805160 <__alt_mem_onchip_mem+0xff7fd160>
  805480:	9007883a 	mov	r3,r18
  805484:	0011883a 	mov	r8,zero
  805488:	0005883a 	mov	r2,zero
  80548c:	003f4c06 	br	8051c0 <__alt_mem_onchip_mem+0xff7fd1c0>
  805490:	498cb03a 	or	r6,r9,r6
  805494:	300cc03a 	cmpne	r6,r6,zero
  805498:	0007883a 	mov	r3,zero
  80549c:	003f6806 	br	805240 <__alt_mem_onchip_mem+0xff7fd240>
  8054a0:	20009c1e 	bne	r4,zero,805714 <__adddf3+0x630>
  8054a4:	80800044 	addi	r2,r16,1
  8054a8:	1141ffcc 	andi	r5,r2,2047
  8054ac:	01000044 	movi	r4,1
  8054b0:	2140670e 	bge	r4,r5,805650 <__adddf3+0x56c>
  8054b4:	0101ffc4 	movi	r4,2047
  8054b8:	11007f26 	beq	r2,r4,8056b8 <__adddf3+0x5d4>
  8054bc:	898d883a 	add	r6,r17,r6
  8054c0:	4247883a 	add	r3,r8,r9
  8054c4:	3451803a 	cmpltu	r8,r6,r17
  8054c8:	40d1883a 	add	r8,r8,r3
  8054cc:	402297fa 	slli	r17,r8,31
  8054d0:	300cd07a 	srli	r6,r6,1
  8054d4:	4010d07a 	srli	r8,r8,1
  8054d8:	1021883a 	mov	r16,r2
  8054dc:	89a2b03a 	or	r17,r17,r6
  8054e0:	003f1f06 	br	805160 <__alt_mem_onchip_mem+0xff7fd160>
  8054e4:	0081ffc4 	movi	r2,2047
  8054e8:	80bf481e 	bne	r16,r2,80520c <__alt_mem_onchip_mem+0xff7fd20c>
  8054ec:	003f1c06 	br	805160 <__alt_mem_onchip_mem+0xff7fd160>
  8054f0:	843ff844 	addi	r16,r16,-31
  8054f4:	01000804 	movi	r4,32
  8054f8:	1406d83a 	srl	r3,r2,r16
  8054fc:	41005026 	beq	r8,r4,805640 <__adddf3+0x55c>
  805500:	01001004 	movi	r4,64
  805504:	2211c83a 	sub	r8,r4,r8
  805508:	1204983a 	sll	r2,r2,r8
  80550c:	88a2b03a 	or	r17,r17,r2
  805510:	8822c03a 	cmpne	r17,r17,zero
  805514:	1c62b03a 	or	r17,r3,r17
  805518:	0011883a 	mov	r8,zero
  80551c:	0021883a 	mov	r16,zero
  805520:	003f7106 	br	8052e8 <__alt_mem_onchip_mem+0xff7fd2e8>
  805524:	193ff804 	addi	r4,r3,-32
  805528:	00800804 	movi	r2,32
  80552c:	4908d83a 	srl	r4,r9,r4
  805530:	18804526 	beq	r3,r2,805648 <__adddf3+0x564>
  805534:	00801004 	movi	r2,64
  805538:	10c5c83a 	sub	r2,r2,r3
  80553c:	4886983a 	sll	r3,r9,r2
  805540:	198cb03a 	or	r6,r3,r6
  805544:	300cc03a 	cmpne	r6,r6,zero
  805548:	218cb03a 	or	r6,r4,r6
  80554c:	0007883a 	mov	r3,zero
  805550:	003f3b06 	br	805240 <__alt_mem_onchip_mem+0xff7fd240>
  805554:	80002a26 	beq	r16,zero,805600 <__adddf3+0x51c>
  805558:	0101ffc4 	movi	r4,2047
  80555c:	11006826 	beq	r2,r4,805700 <__adddf3+0x61c>
  805560:	00c7c83a 	sub	r3,zero,r3
  805564:	42002034 	orhi	r8,r8,128
  805568:	01000e04 	movi	r4,56
  80556c:	20c07c16 	blt	r4,r3,805760 <__adddf3+0x67c>
  805570:	010007c4 	movi	r4,31
  805574:	20c0da16 	blt	r4,r3,8058e0 <__adddf3+0x7fc>
  805578:	01000804 	movi	r4,32
  80557c:	20c9c83a 	sub	r4,r4,r3
  805580:	4114983a 	sll	r10,r8,r4
  805584:	88cad83a 	srl	r5,r17,r3
  805588:	8908983a 	sll	r4,r17,r4
  80558c:	40c6d83a 	srl	r3,r8,r3
  805590:	5162b03a 	or	r17,r10,r5
  805594:	2008c03a 	cmpne	r4,r4,zero
  805598:	8922b03a 	or	r17,r17,r4
  80559c:	3463c83a 	sub	r17,r6,r17
  8055a0:	48c7c83a 	sub	r3,r9,r3
  8055a4:	344d803a 	cmpltu	r6,r6,r17
  8055a8:	1991c83a 	sub	r8,r3,r6
  8055ac:	1021883a 	mov	r16,r2
  8055b0:	3825883a 	mov	r18,r7
  8055b4:	003f2706 	br	805254 <__alt_mem_onchip_mem+0xff7fd254>
  8055b8:	24d0b03a 	or	r8,r4,r19
  8055bc:	40001b1e 	bne	r8,zero,80562c <__adddf3+0x548>
  8055c0:	0005883a 	mov	r2,zero
  8055c4:	0007883a 	mov	r3,zero
  8055c8:	0021883a 	mov	r16,zero
  8055cc:	003f4d06 	br	805304 <__alt_mem_onchip_mem+0xff7fd304>
  8055d0:	008007c4 	movi	r2,31
  8055d4:	11003c16 	blt	r2,r4,8056c8 <__adddf3+0x5e4>
  8055d8:	00800804 	movi	r2,32
  8055dc:	1105c83a 	sub	r2,r2,r4
  8055e0:	488e983a 	sll	r7,r9,r2
  8055e4:	310ad83a 	srl	r5,r6,r4
  8055e8:	3084983a 	sll	r2,r6,r2
  8055ec:	4912d83a 	srl	r9,r9,r4
  8055f0:	394ab03a 	or	r5,r7,r5
  8055f4:	1004c03a 	cmpne	r2,r2,zero
  8055f8:	288ab03a 	or	r5,r5,r2
  8055fc:	003f5306 	br	80534c <__alt_mem_onchip_mem+0xff7fd34c>
  805600:	4448b03a 	or	r4,r8,r17
  805604:	20003e26 	beq	r4,zero,805700 <__adddf3+0x61c>
  805608:	00c6303a 	nor	r3,zero,r3
  80560c:	18003a1e 	bne	r3,zero,8056f8 <__adddf3+0x614>
  805610:	3463c83a 	sub	r17,r6,r17
  805614:	4a07c83a 	sub	r3,r9,r8
  805618:	344d803a 	cmpltu	r6,r6,r17
  80561c:	1991c83a 	sub	r8,r3,r6
  805620:	1021883a 	mov	r16,r2
  805624:	3825883a 	mov	r18,r7
  805628:	003f0a06 	br	805254 <__alt_mem_onchip_mem+0xff7fd254>
  80562c:	2023883a 	mov	r17,r4
  805630:	003f0d06 	br	805268 <__alt_mem_onchip_mem+0xff7fd268>
  805634:	0081ffc4 	movi	r2,2047
  805638:	80bf3f1e 	bne	r16,r2,805338 <__alt_mem_onchip_mem+0xff7fd338>
  80563c:	003ec806 	br	805160 <__alt_mem_onchip_mem+0xff7fd160>
  805640:	0005883a 	mov	r2,zero
  805644:	003fb106 	br	80550c <__alt_mem_onchip_mem+0xff7fd50c>
  805648:	0007883a 	mov	r3,zero
  80564c:	003fbc06 	br	805540 <__alt_mem_onchip_mem+0xff7fd540>
  805650:	4444b03a 	or	r2,r8,r17
  805654:	8000871e 	bne	r16,zero,805874 <__adddf3+0x790>
  805658:	1000ba26 	beq	r2,zero,805944 <__adddf3+0x860>
  80565c:	4984b03a 	or	r2,r9,r6
  805660:	103ebf26 	beq	r2,zero,805160 <__alt_mem_onchip_mem+0xff7fd160>
  805664:	8985883a 	add	r2,r17,r6
  805668:	4247883a 	add	r3,r8,r9
  80566c:	1451803a 	cmpltu	r8,r2,r17
  805670:	40d1883a 	add	r8,r8,r3
  805674:	40c0202c 	andhi	r3,r8,128
  805678:	1023883a 	mov	r17,r2
  80567c:	183f1a26 	beq	r3,zero,8052e8 <__alt_mem_onchip_mem+0xff7fd2e8>
  805680:	00bfe034 	movhi	r2,65408
  805684:	10bfffc4 	addi	r2,r2,-1
  805688:	2021883a 	mov	r16,r4
  80568c:	4090703a 	and	r8,r8,r2
  805690:	003eb306 	br	805160 <__alt_mem_onchip_mem+0xff7fd160>
  805694:	4444b03a 	or	r2,r8,r17
  805698:	8000291e 	bne	r16,zero,805740 <__adddf3+0x65c>
  80569c:	10004b1e 	bne	r2,zero,8057cc <__adddf3+0x6e8>
  8056a0:	4990b03a 	or	r8,r9,r6
  8056a4:	40008b26 	beq	r8,zero,8058d4 <__adddf3+0x7f0>
  8056a8:	4811883a 	mov	r8,r9
  8056ac:	3023883a 	mov	r17,r6
  8056b0:	3825883a 	mov	r18,r7
  8056b4:	003eaa06 	br	805160 <__alt_mem_onchip_mem+0xff7fd160>
  8056b8:	1021883a 	mov	r16,r2
  8056bc:	0011883a 	mov	r8,zero
  8056c0:	0005883a 	mov	r2,zero
  8056c4:	003f0f06 	br	805304 <__alt_mem_onchip_mem+0xff7fd304>
  8056c8:	217ff804 	addi	r5,r4,-32
  8056cc:	00800804 	movi	r2,32
  8056d0:	494ad83a 	srl	r5,r9,r5
  8056d4:	20807d26 	beq	r4,r2,8058cc <__adddf3+0x7e8>
  8056d8:	00801004 	movi	r2,64
  8056dc:	1109c83a 	sub	r4,r2,r4
  8056e0:	4912983a 	sll	r9,r9,r4
  8056e4:	498cb03a 	or	r6,r9,r6
  8056e8:	300cc03a 	cmpne	r6,r6,zero
  8056ec:	298ab03a 	or	r5,r5,r6
  8056f0:	0013883a 	mov	r9,zero
  8056f4:	003f1506 	br	80534c <__alt_mem_onchip_mem+0xff7fd34c>
  8056f8:	0101ffc4 	movi	r4,2047
  8056fc:	113f9a1e 	bne	r2,r4,805568 <__alt_mem_onchip_mem+0xff7fd568>
  805700:	4811883a 	mov	r8,r9
  805704:	3023883a 	mov	r17,r6
  805708:	1021883a 	mov	r16,r2
  80570c:	3825883a 	mov	r18,r7
  805710:	003e9306 	br	805160 <__alt_mem_onchip_mem+0xff7fd160>
  805714:	8000161e 	bne	r16,zero,805770 <__adddf3+0x68c>
  805718:	444ab03a 	or	r5,r8,r17
  80571c:	28005126 	beq	r5,zero,805864 <__adddf3+0x780>
  805720:	0108303a 	nor	r4,zero,r4
  805724:	20004d1e 	bne	r4,zero,80585c <__adddf3+0x778>
  805728:	89a3883a 	add	r17,r17,r6
  80572c:	4253883a 	add	r9,r8,r9
  805730:	898d803a 	cmpltu	r6,r17,r6
  805734:	3251883a 	add	r8,r6,r9
  805738:	1021883a 	mov	r16,r2
  80573c:	003f0806 	br	805360 <__alt_mem_onchip_mem+0xff7fd360>
  805740:	1000301e 	bne	r2,zero,805804 <__adddf3+0x720>
  805744:	4984b03a 	or	r2,r9,r6
  805748:	10007126 	beq	r2,zero,805910 <__adddf3+0x82c>
  80574c:	4811883a 	mov	r8,r9
  805750:	3023883a 	mov	r17,r6
  805754:	3825883a 	mov	r18,r7
  805758:	0401ffc4 	movi	r16,2047
  80575c:	003e8006 	br	805160 <__alt_mem_onchip_mem+0xff7fd160>
  805760:	4462b03a 	or	r17,r8,r17
  805764:	8822c03a 	cmpne	r17,r17,zero
  805768:	0007883a 	mov	r3,zero
  80576c:	003f8b06 	br	80559c <__alt_mem_onchip_mem+0xff7fd59c>
  805770:	0141ffc4 	movi	r5,2047
  805774:	11403b26 	beq	r2,r5,805864 <__adddf3+0x780>
  805778:	0109c83a 	sub	r4,zero,r4
  80577c:	42002034 	orhi	r8,r8,128
  805780:	01400e04 	movi	r5,56
  805784:	29006716 	blt	r5,r4,805924 <__adddf3+0x840>
  805788:	014007c4 	movi	r5,31
  80578c:	29007016 	blt	r5,r4,805950 <__adddf3+0x86c>
  805790:	01400804 	movi	r5,32
  805794:	290bc83a 	sub	r5,r5,r4
  805798:	4154983a 	sll	r10,r8,r5
  80579c:	890ed83a 	srl	r7,r17,r4
  8057a0:	894a983a 	sll	r5,r17,r5
  8057a4:	4108d83a 	srl	r4,r8,r4
  8057a8:	51e2b03a 	or	r17,r10,r7
  8057ac:	280ac03a 	cmpne	r5,r5,zero
  8057b0:	8962b03a 	or	r17,r17,r5
  8057b4:	89a3883a 	add	r17,r17,r6
  8057b8:	2253883a 	add	r9,r4,r9
  8057bc:	898d803a 	cmpltu	r6,r17,r6
  8057c0:	3251883a 	add	r8,r6,r9
  8057c4:	1021883a 	mov	r16,r2
  8057c8:	003ee506 	br	805360 <__alt_mem_onchip_mem+0xff7fd360>
  8057cc:	4984b03a 	or	r2,r9,r6
  8057d0:	103e6326 	beq	r2,zero,805160 <__alt_mem_onchip_mem+0xff7fd160>
  8057d4:	8987c83a 	sub	r3,r17,r6
  8057d8:	88c9803a 	cmpltu	r4,r17,r3
  8057dc:	4245c83a 	sub	r2,r8,r9
  8057e0:	1105c83a 	sub	r2,r2,r4
  8057e4:	1100202c 	andhi	r4,r2,128
  8057e8:	203ebb26 	beq	r4,zero,8052d8 <__alt_mem_onchip_mem+0xff7fd2d8>
  8057ec:	3463c83a 	sub	r17,r6,r17
  8057f0:	4a07c83a 	sub	r3,r9,r8
  8057f4:	344d803a 	cmpltu	r6,r6,r17
  8057f8:	1991c83a 	sub	r8,r3,r6
  8057fc:	3825883a 	mov	r18,r7
  805800:	003e5706 	br	805160 <__alt_mem_onchip_mem+0xff7fd160>
  805804:	4984b03a 	or	r2,r9,r6
  805808:	10002e26 	beq	r2,zero,8058c4 <__adddf3+0x7e0>
  80580c:	4004d0fa 	srli	r2,r8,3
  805810:	8822d0fa 	srli	r17,r17,3
  805814:	4010977a 	slli	r8,r8,29
  805818:	10c0022c 	andhi	r3,r2,8
  80581c:	4462b03a 	or	r17,r8,r17
  805820:	18000826 	beq	r3,zero,805844 <__adddf3+0x760>
  805824:	4808d0fa 	srli	r4,r9,3
  805828:	20c0022c 	andhi	r3,r4,8
  80582c:	1800051e 	bne	r3,zero,805844 <__adddf3+0x760>
  805830:	300cd0fa 	srli	r6,r6,3
  805834:	4806977a 	slli	r3,r9,29
  805838:	2005883a 	mov	r2,r4
  80583c:	3825883a 	mov	r18,r7
  805840:	19a2b03a 	or	r17,r3,r6
  805844:	8810d77a 	srli	r8,r17,29
  805848:	100490fa 	slli	r2,r2,3
  80584c:	882290fa 	slli	r17,r17,3
  805850:	0401ffc4 	movi	r16,2047
  805854:	4090b03a 	or	r8,r8,r2
  805858:	003e4106 	br	805160 <__alt_mem_onchip_mem+0xff7fd160>
  80585c:	0141ffc4 	movi	r5,2047
  805860:	117fc71e 	bne	r2,r5,805780 <__alt_mem_onchip_mem+0xff7fd780>
  805864:	4811883a 	mov	r8,r9
  805868:	3023883a 	mov	r17,r6
  80586c:	1021883a 	mov	r16,r2
  805870:	003e3b06 	br	805160 <__alt_mem_onchip_mem+0xff7fd160>
  805874:	10002f26 	beq	r2,zero,805934 <__adddf3+0x850>
  805878:	4984b03a 	or	r2,r9,r6
  80587c:	10001126 	beq	r2,zero,8058c4 <__adddf3+0x7e0>
  805880:	4004d0fa 	srli	r2,r8,3
  805884:	8822d0fa 	srli	r17,r17,3
  805888:	4010977a 	slli	r8,r8,29
  80588c:	10c0022c 	andhi	r3,r2,8
  805890:	4462b03a 	or	r17,r8,r17
  805894:	183feb26 	beq	r3,zero,805844 <__alt_mem_onchip_mem+0xff7fd844>
  805898:	4808d0fa 	srli	r4,r9,3
  80589c:	20c0022c 	andhi	r3,r4,8
  8058a0:	183fe81e 	bne	r3,zero,805844 <__alt_mem_onchip_mem+0xff7fd844>
  8058a4:	300cd0fa 	srli	r6,r6,3
  8058a8:	4806977a 	slli	r3,r9,29
  8058ac:	2005883a 	mov	r2,r4
  8058b0:	19a2b03a 	or	r17,r3,r6
  8058b4:	003fe306 	br	805844 <__alt_mem_onchip_mem+0xff7fd844>
  8058b8:	0011883a 	mov	r8,zero
  8058bc:	0005883a 	mov	r2,zero
  8058c0:	003e3f06 	br	8051c0 <__alt_mem_onchip_mem+0xff7fd1c0>
  8058c4:	0401ffc4 	movi	r16,2047
  8058c8:	003e2506 	br	805160 <__alt_mem_onchip_mem+0xff7fd160>
  8058cc:	0013883a 	mov	r9,zero
  8058d0:	003f8406 	br	8056e4 <__alt_mem_onchip_mem+0xff7fd6e4>
  8058d4:	0005883a 	mov	r2,zero
  8058d8:	0007883a 	mov	r3,zero
  8058dc:	003e8906 	br	805304 <__alt_mem_onchip_mem+0xff7fd304>
  8058e0:	197ff804 	addi	r5,r3,-32
  8058e4:	01000804 	movi	r4,32
  8058e8:	414ad83a 	srl	r5,r8,r5
  8058ec:	19002426 	beq	r3,r4,805980 <__adddf3+0x89c>
  8058f0:	01001004 	movi	r4,64
  8058f4:	20c7c83a 	sub	r3,r4,r3
  8058f8:	40c6983a 	sll	r3,r8,r3
  8058fc:	1c46b03a 	or	r3,r3,r17
  805900:	1806c03a 	cmpne	r3,r3,zero
  805904:	28e2b03a 	or	r17,r5,r3
  805908:	0007883a 	mov	r3,zero
  80590c:	003f2306 	br	80559c <__alt_mem_onchip_mem+0xff7fd59c>
  805910:	0007883a 	mov	r3,zero
  805914:	5811883a 	mov	r8,r11
  805918:	00bfffc4 	movi	r2,-1
  80591c:	0401ffc4 	movi	r16,2047
  805920:	003e7806 	br	805304 <__alt_mem_onchip_mem+0xff7fd304>
  805924:	4462b03a 	or	r17,r8,r17
  805928:	8822c03a 	cmpne	r17,r17,zero
  80592c:	0009883a 	mov	r4,zero
  805930:	003fa006 	br	8057b4 <__alt_mem_onchip_mem+0xff7fd7b4>
  805934:	4811883a 	mov	r8,r9
  805938:	3023883a 	mov	r17,r6
  80593c:	0401ffc4 	movi	r16,2047
  805940:	003e0706 	br	805160 <__alt_mem_onchip_mem+0xff7fd160>
  805944:	4811883a 	mov	r8,r9
  805948:	3023883a 	mov	r17,r6
  80594c:	003e0406 	br	805160 <__alt_mem_onchip_mem+0xff7fd160>
  805950:	21fff804 	addi	r7,r4,-32
  805954:	01400804 	movi	r5,32
  805958:	41ced83a 	srl	r7,r8,r7
  80595c:	21400a26 	beq	r4,r5,805988 <__adddf3+0x8a4>
  805960:	01401004 	movi	r5,64
  805964:	2909c83a 	sub	r4,r5,r4
  805968:	4108983a 	sll	r4,r8,r4
  80596c:	2448b03a 	or	r4,r4,r17
  805970:	2008c03a 	cmpne	r4,r4,zero
  805974:	3922b03a 	or	r17,r7,r4
  805978:	0009883a 	mov	r4,zero
  80597c:	003f8d06 	br	8057b4 <__alt_mem_onchip_mem+0xff7fd7b4>
  805980:	0007883a 	mov	r3,zero
  805984:	003fdd06 	br	8058fc <__alt_mem_onchip_mem+0xff7fd8fc>
  805988:	0009883a 	mov	r4,zero
  80598c:	003ff706 	br	80596c <__alt_mem_onchip_mem+0xff7fd96c>

00805990 <__gedf2>:
  805990:	2804d53a 	srli	r2,r5,20
  805994:	3806d53a 	srli	r3,r7,20
  805998:	02000434 	movhi	r8,16
  80599c:	423fffc4 	addi	r8,r8,-1
  8059a0:	1081ffcc 	andi	r2,r2,2047
  8059a4:	0241ffc4 	movi	r9,2047
  8059a8:	2a14703a 	and	r10,r5,r8
  8059ac:	18c1ffcc 	andi	r3,r3,2047
  8059b0:	3a10703a 	and	r8,r7,r8
  8059b4:	280ad7fa 	srli	r5,r5,31
  8059b8:	380ed7fa 	srli	r7,r7,31
  8059bc:	12401d26 	beq	r2,r9,805a34 <__gedf2+0xa4>
  8059c0:	0241ffc4 	movi	r9,2047
  8059c4:	1a401226 	beq	r3,r9,805a10 <__gedf2+0x80>
  8059c8:	1000081e 	bne	r2,zero,8059ec <__gedf2+0x5c>
  8059cc:	2296b03a 	or	r11,r4,r10
  8059d0:	5813003a 	cmpeq	r9,r11,zero
  8059d4:	1800091e 	bne	r3,zero,8059fc <__gedf2+0x6c>
  8059d8:	3218b03a 	or	r12,r6,r8
  8059dc:	6000071e 	bne	r12,zero,8059fc <__gedf2+0x6c>
  8059e0:	0005883a 	mov	r2,zero
  8059e4:	5800101e 	bne	r11,zero,805a28 <__gedf2+0x98>
  8059e8:	f800283a 	ret
  8059ec:	18000c1e 	bne	r3,zero,805a20 <__gedf2+0x90>
  8059f0:	3212b03a 	or	r9,r6,r8
  8059f4:	48000c26 	beq	r9,zero,805a28 <__gedf2+0x98>
  8059f8:	0013883a 	mov	r9,zero
  8059fc:	39c03fcc 	andi	r7,r7,255
  805a00:	48000826 	beq	r9,zero,805a24 <__gedf2+0x94>
  805a04:	38000926 	beq	r7,zero,805a2c <__gedf2+0x9c>
  805a08:	00800044 	movi	r2,1
  805a0c:	f800283a 	ret
  805a10:	3212b03a 	or	r9,r6,r8
  805a14:	483fec26 	beq	r9,zero,8059c8 <__alt_mem_onchip_mem+0xff7fd9c8>
  805a18:	00bfff84 	movi	r2,-2
  805a1c:	f800283a 	ret
  805a20:	39c03fcc 	andi	r7,r7,255
  805a24:	29c00626 	beq	r5,r7,805a40 <__gedf2+0xb0>
  805a28:	283ff726 	beq	r5,zero,805a08 <__alt_mem_onchip_mem+0xff7fda08>
  805a2c:	00bfffc4 	movi	r2,-1
  805a30:	f800283a 	ret
  805a34:	2292b03a 	or	r9,r4,r10
  805a38:	483fe126 	beq	r9,zero,8059c0 <__alt_mem_onchip_mem+0xff7fd9c0>
  805a3c:	003ff606 	br	805a18 <__alt_mem_onchip_mem+0xff7fda18>
  805a40:	18bff916 	blt	r3,r2,805a28 <__alt_mem_onchip_mem+0xff7fda28>
  805a44:	10c00316 	blt	r2,r3,805a54 <__gedf2+0xc4>
  805a48:	42bff736 	bltu	r8,r10,805a28 <__alt_mem_onchip_mem+0xff7fda28>
  805a4c:	52000326 	beq	r10,r8,805a5c <__gedf2+0xcc>
  805a50:	5200042e 	bgeu	r10,r8,805a64 <__gedf2+0xd4>
  805a54:	283fec1e 	bne	r5,zero,805a08 <__alt_mem_onchip_mem+0xff7fda08>
  805a58:	003ff406 	br	805a2c <__alt_mem_onchip_mem+0xff7fda2c>
  805a5c:	313ff236 	bltu	r6,r4,805a28 <__alt_mem_onchip_mem+0xff7fda28>
  805a60:	21bffc36 	bltu	r4,r6,805a54 <__alt_mem_onchip_mem+0xff7fda54>
  805a64:	0005883a 	mov	r2,zero
  805a68:	f800283a 	ret

00805a6c <__ledf2>:
  805a6c:	2804d53a 	srli	r2,r5,20
  805a70:	3810d53a 	srli	r8,r7,20
  805a74:	00c00434 	movhi	r3,16
  805a78:	18ffffc4 	addi	r3,r3,-1
  805a7c:	1081ffcc 	andi	r2,r2,2047
  805a80:	0241ffc4 	movi	r9,2047
  805a84:	28d4703a 	and	r10,r5,r3
  805a88:	4201ffcc 	andi	r8,r8,2047
  805a8c:	38c6703a 	and	r3,r7,r3
  805a90:	280ad7fa 	srli	r5,r5,31
  805a94:	380ed7fa 	srli	r7,r7,31
  805a98:	12401f26 	beq	r2,r9,805b18 <__ledf2+0xac>
  805a9c:	0241ffc4 	movi	r9,2047
  805aa0:	42401426 	beq	r8,r9,805af4 <__ledf2+0x88>
  805aa4:	1000091e 	bne	r2,zero,805acc <__ledf2+0x60>
  805aa8:	2296b03a 	or	r11,r4,r10
  805aac:	5813003a 	cmpeq	r9,r11,zero
  805ab0:	29403fcc 	andi	r5,r5,255
  805ab4:	40000a1e 	bne	r8,zero,805ae0 <__ledf2+0x74>
  805ab8:	30d8b03a 	or	r12,r6,r3
  805abc:	6000081e 	bne	r12,zero,805ae0 <__ledf2+0x74>
  805ac0:	0005883a 	mov	r2,zero
  805ac4:	5800111e 	bne	r11,zero,805b0c <__ledf2+0xa0>
  805ac8:	f800283a 	ret
  805acc:	29403fcc 	andi	r5,r5,255
  805ad0:	40000c1e 	bne	r8,zero,805b04 <__ledf2+0x98>
  805ad4:	30d2b03a 	or	r9,r6,r3
  805ad8:	48000c26 	beq	r9,zero,805b0c <__ledf2+0xa0>
  805adc:	0013883a 	mov	r9,zero
  805ae0:	39c03fcc 	andi	r7,r7,255
  805ae4:	48000826 	beq	r9,zero,805b08 <__ledf2+0x9c>
  805ae8:	38001126 	beq	r7,zero,805b30 <__ledf2+0xc4>
  805aec:	00800044 	movi	r2,1
  805af0:	f800283a 	ret
  805af4:	30d2b03a 	or	r9,r6,r3
  805af8:	483fea26 	beq	r9,zero,805aa4 <__alt_mem_onchip_mem+0xff7fdaa4>
  805afc:	00800084 	movi	r2,2
  805b00:	f800283a 	ret
  805b04:	39c03fcc 	andi	r7,r7,255
  805b08:	39400726 	beq	r7,r5,805b28 <__ledf2+0xbc>
  805b0c:	2800081e 	bne	r5,zero,805b30 <__ledf2+0xc4>
  805b10:	00800044 	movi	r2,1
  805b14:	f800283a 	ret
  805b18:	2292b03a 	or	r9,r4,r10
  805b1c:	483fdf26 	beq	r9,zero,805a9c <__alt_mem_onchip_mem+0xff7fda9c>
  805b20:	00800084 	movi	r2,2
  805b24:	f800283a 	ret
  805b28:	4080030e 	bge	r8,r2,805b38 <__ledf2+0xcc>
  805b2c:	383fef26 	beq	r7,zero,805aec <__alt_mem_onchip_mem+0xff7fdaec>
  805b30:	00bfffc4 	movi	r2,-1
  805b34:	f800283a 	ret
  805b38:	123feb16 	blt	r2,r8,805ae8 <__alt_mem_onchip_mem+0xff7fdae8>
  805b3c:	1abff336 	bltu	r3,r10,805b0c <__alt_mem_onchip_mem+0xff7fdb0c>
  805b40:	50c00326 	beq	r10,r3,805b50 <__ledf2+0xe4>
  805b44:	50c0042e 	bgeu	r10,r3,805b58 <__ledf2+0xec>
  805b48:	283fe81e 	bne	r5,zero,805aec <__alt_mem_onchip_mem+0xff7fdaec>
  805b4c:	003ff806 	br	805b30 <__alt_mem_onchip_mem+0xff7fdb30>
  805b50:	313fee36 	bltu	r6,r4,805b0c <__alt_mem_onchip_mem+0xff7fdb0c>
  805b54:	21bffc36 	bltu	r4,r6,805b48 <__alt_mem_onchip_mem+0xff7fdb48>
  805b58:	0005883a 	mov	r2,zero
  805b5c:	f800283a 	ret

00805b60 <__muldf3>:
  805b60:	defff304 	addi	sp,sp,-52
  805b64:	2804d53a 	srli	r2,r5,20
  805b68:	dd800915 	stw	r22,36(sp)
  805b6c:	282cd7fa 	srli	r22,r5,31
  805b70:	dc000315 	stw	r16,12(sp)
  805b74:	04000434 	movhi	r16,16
  805b78:	dd400815 	stw	r21,32(sp)
  805b7c:	dc800515 	stw	r18,20(sp)
  805b80:	843fffc4 	addi	r16,r16,-1
  805b84:	dfc00c15 	stw	ra,48(sp)
  805b88:	df000b15 	stw	fp,44(sp)
  805b8c:	ddc00a15 	stw	r23,40(sp)
  805b90:	dd000715 	stw	r20,28(sp)
  805b94:	dcc00615 	stw	r19,24(sp)
  805b98:	dc400415 	stw	r17,16(sp)
  805b9c:	1481ffcc 	andi	r18,r2,2047
  805ba0:	2c20703a 	and	r16,r5,r16
  805ba4:	b02b883a 	mov	r21,r22
  805ba8:	b2403fcc 	andi	r9,r22,255
  805bac:	90006026 	beq	r18,zero,805d30 <__muldf3+0x1d0>
  805bb0:	0081ffc4 	movi	r2,2047
  805bb4:	2029883a 	mov	r20,r4
  805bb8:	90803626 	beq	r18,r2,805c94 <__muldf3+0x134>
  805bbc:	80800434 	orhi	r2,r16,16
  805bc0:	100490fa 	slli	r2,r2,3
  805bc4:	2020d77a 	srli	r16,r4,29
  805bc8:	202890fa 	slli	r20,r4,3
  805bcc:	94bf0044 	addi	r18,r18,-1023
  805bd0:	80a0b03a 	or	r16,r16,r2
  805bd4:	0027883a 	mov	r19,zero
  805bd8:	0039883a 	mov	fp,zero
  805bdc:	3804d53a 	srli	r2,r7,20
  805be0:	382ed7fa 	srli	r23,r7,31
  805be4:	04400434 	movhi	r17,16
  805be8:	8c7fffc4 	addi	r17,r17,-1
  805bec:	1081ffcc 	andi	r2,r2,2047
  805bf0:	3011883a 	mov	r8,r6
  805bf4:	3c62703a 	and	r17,r7,r17
  805bf8:	ba803fcc 	andi	r10,r23,255
  805bfc:	10006d26 	beq	r2,zero,805db4 <__muldf3+0x254>
  805c00:	00c1ffc4 	movi	r3,2047
  805c04:	10c06526 	beq	r2,r3,805d9c <__muldf3+0x23c>
  805c08:	88c00434 	orhi	r3,r17,16
  805c0c:	180690fa 	slli	r3,r3,3
  805c10:	3022d77a 	srli	r17,r6,29
  805c14:	301090fa 	slli	r8,r6,3
  805c18:	10bf0044 	addi	r2,r2,-1023
  805c1c:	88e2b03a 	or	r17,r17,r3
  805c20:	000b883a 	mov	r5,zero
  805c24:	9085883a 	add	r2,r18,r2
  805c28:	2cc8b03a 	or	r4,r5,r19
  805c2c:	00c003c4 	movi	r3,15
  805c30:	bdacf03a 	xor	r22,r23,r22
  805c34:	12c00044 	addi	r11,r2,1
  805c38:	19009936 	bltu	r3,r4,805ea0 <__muldf3+0x340>
  805c3c:	200890ba 	slli	r4,r4,2
  805c40:	00c02034 	movhi	r3,128
  805c44:	18d71504 	addi	r3,r3,23636
  805c48:	20c9883a 	add	r4,r4,r3
  805c4c:	20c00017 	ldw	r3,0(r4)
  805c50:	1800683a 	jmp	r3
  805c54:	00805ea0 	cmpeqi	r2,zero,378
  805c58:	00805cb4 	movhi	r2,370
  805c5c:	00805cb4 	movhi	r2,370
  805c60:	00805cb0 	cmpltui	r2,zero,370
  805c64:	00805e7c 	xorhi	r2,zero,377
  805c68:	00805e7c 	xorhi	r2,zero,377
  805c6c:	00805e64 	muli	r2,zero,377
  805c70:	00805cb0 	cmpltui	r2,zero,370
  805c74:	00805e7c 	xorhi	r2,zero,377
  805c78:	00805e64 	muli	r2,zero,377
  805c7c:	00805e7c 	xorhi	r2,zero,377
  805c80:	00805cb0 	cmpltui	r2,zero,370
  805c84:	00805e8c 	andi	r2,zero,378
  805c88:	00805e8c 	andi	r2,zero,378
  805c8c:	00805e8c 	andi	r2,zero,378
  805c90:	008060a8 	cmpgeui	r2,zero,386
  805c94:	2404b03a 	or	r2,r4,r16
  805c98:	10006f1e 	bne	r2,zero,805e58 <__muldf3+0x2f8>
  805c9c:	04c00204 	movi	r19,8
  805ca0:	0021883a 	mov	r16,zero
  805ca4:	0029883a 	mov	r20,zero
  805ca8:	07000084 	movi	fp,2
  805cac:	003fcb06 	br	805bdc <__alt_mem_onchip_mem+0xff7fdbdc>
  805cb0:	502d883a 	mov	r22,r10
  805cb4:	00800084 	movi	r2,2
  805cb8:	28805726 	beq	r5,r2,805e18 <__muldf3+0x2b8>
  805cbc:	008000c4 	movi	r2,3
  805cc0:	28816626 	beq	r5,r2,80625c <__muldf3+0x6fc>
  805cc4:	00800044 	movi	r2,1
  805cc8:	2881411e 	bne	r5,r2,8061d0 <__muldf3+0x670>
  805ccc:	b02b883a 	mov	r21,r22
  805cd0:	0005883a 	mov	r2,zero
  805cd4:	000b883a 	mov	r5,zero
  805cd8:	0029883a 	mov	r20,zero
  805cdc:	1004953a 	slli	r2,r2,20
  805ce0:	a8c03fcc 	andi	r3,r21,255
  805ce4:	04400434 	movhi	r17,16
  805ce8:	8c7fffc4 	addi	r17,r17,-1
  805cec:	180697fa 	slli	r3,r3,31
  805cf0:	2c4a703a 	and	r5,r5,r17
  805cf4:	288ab03a 	or	r5,r5,r2
  805cf8:	28c6b03a 	or	r3,r5,r3
  805cfc:	a005883a 	mov	r2,r20
  805d00:	dfc00c17 	ldw	ra,48(sp)
  805d04:	df000b17 	ldw	fp,44(sp)
  805d08:	ddc00a17 	ldw	r23,40(sp)
  805d0c:	dd800917 	ldw	r22,36(sp)
  805d10:	dd400817 	ldw	r21,32(sp)
  805d14:	dd000717 	ldw	r20,28(sp)
  805d18:	dcc00617 	ldw	r19,24(sp)
  805d1c:	dc800517 	ldw	r18,20(sp)
  805d20:	dc400417 	ldw	r17,16(sp)
  805d24:	dc000317 	ldw	r16,12(sp)
  805d28:	dec00d04 	addi	sp,sp,52
  805d2c:	f800283a 	ret
  805d30:	2404b03a 	or	r2,r4,r16
  805d34:	2027883a 	mov	r19,r4
  805d38:	10004226 	beq	r2,zero,805e44 <__muldf3+0x2e4>
  805d3c:	8000fc26 	beq	r16,zero,806130 <__muldf3+0x5d0>
  805d40:	8009883a 	mov	r4,r16
  805d44:	d9800215 	stw	r6,8(sp)
  805d48:	d9c00015 	stw	r7,0(sp)
  805d4c:	da400115 	stw	r9,4(sp)
  805d50:	0806cf80 	call	806cf8 <__clzsi2>
  805d54:	d9800217 	ldw	r6,8(sp)
  805d58:	d9c00017 	ldw	r7,0(sp)
  805d5c:	da400117 	ldw	r9,4(sp)
  805d60:	113ffd44 	addi	r4,r2,-11
  805d64:	00c00704 	movi	r3,28
  805d68:	1900ed16 	blt	r3,r4,806120 <__muldf3+0x5c0>
  805d6c:	00c00744 	movi	r3,29
  805d70:	147ffe04 	addi	r17,r2,-8
  805d74:	1907c83a 	sub	r3,r3,r4
  805d78:	8460983a 	sll	r16,r16,r17
  805d7c:	98c6d83a 	srl	r3,r19,r3
  805d80:	9c68983a 	sll	r20,r19,r17
  805d84:	1c20b03a 	or	r16,r3,r16
  805d88:	1080fcc4 	addi	r2,r2,1011
  805d8c:	00a5c83a 	sub	r18,zero,r2
  805d90:	0027883a 	mov	r19,zero
  805d94:	0039883a 	mov	fp,zero
  805d98:	003f9006 	br	805bdc <__alt_mem_onchip_mem+0xff7fdbdc>
  805d9c:	3446b03a 	or	r3,r6,r17
  805da0:	1800261e 	bne	r3,zero,805e3c <__muldf3+0x2dc>
  805da4:	0023883a 	mov	r17,zero
  805da8:	0011883a 	mov	r8,zero
  805dac:	01400084 	movi	r5,2
  805db0:	003f9c06 	br	805c24 <__alt_mem_onchip_mem+0xff7fdc24>
  805db4:	3446b03a 	or	r3,r6,r17
  805db8:	18001c26 	beq	r3,zero,805e2c <__muldf3+0x2cc>
  805dbc:	8800ce26 	beq	r17,zero,8060f8 <__muldf3+0x598>
  805dc0:	8809883a 	mov	r4,r17
  805dc4:	d9800215 	stw	r6,8(sp)
  805dc8:	da400115 	stw	r9,4(sp)
  805dcc:	da800015 	stw	r10,0(sp)
  805dd0:	0806cf80 	call	806cf8 <__clzsi2>
  805dd4:	d9800217 	ldw	r6,8(sp)
  805dd8:	da400117 	ldw	r9,4(sp)
  805ddc:	da800017 	ldw	r10,0(sp)
  805de0:	113ffd44 	addi	r4,r2,-11
  805de4:	00c00704 	movi	r3,28
  805de8:	1900bf16 	blt	r3,r4,8060e8 <__muldf3+0x588>
  805dec:	00c00744 	movi	r3,29
  805df0:	123ffe04 	addi	r8,r2,-8
  805df4:	1907c83a 	sub	r3,r3,r4
  805df8:	8a22983a 	sll	r17,r17,r8
  805dfc:	30c6d83a 	srl	r3,r6,r3
  805e00:	3210983a 	sll	r8,r6,r8
  805e04:	1c62b03a 	or	r17,r3,r17
  805e08:	1080fcc4 	addi	r2,r2,1011
  805e0c:	0085c83a 	sub	r2,zero,r2
  805e10:	000b883a 	mov	r5,zero
  805e14:	003f8306 	br	805c24 <__alt_mem_onchip_mem+0xff7fdc24>
  805e18:	b02b883a 	mov	r21,r22
  805e1c:	0081ffc4 	movi	r2,2047
  805e20:	000b883a 	mov	r5,zero
  805e24:	0029883a 	mov	r20,zero
  805e28:	003fac06 	br	805cdc <__alt_mem_onchip_mem+0xff7fdcdc>
  805e2c:	0023883a 	mov	r17,zero
  805e30:	0011883a 	mov	r8,zero
  805e34:	01400044 	movi	r5,1
  805e38:	003f7a06 	br	805c24 <__alt_mem_onchip_mem+0xff7fdc24>
  805e3c:	014000c4 	movi	r5,3
  805e40:	003f7806 	br	805c24 <__alt_mem_onchip_mem+0xff7fdc24>
  805e44:	04c00104 	movi	r19,4
  805e48:	0021883a 	mov	r16,zero
  805e4c:	0029883a 	mov	r20,zero
  805e50:	07000044 	movi	fp,1
  805e54:	003f6106 	br	805bdc <__alt_mem_onchip_mem+0xff7fdbdc>
  805e58:	04c00304 	movi	r19,12
  805e5c:	070000c4 	movi	fp,3
  805e60:	003f5e06 	br	805bdc <__alt_mem_onchip_mem+0xff7fdbdc>
  805e64:	01400434 	movhi	r5,16
  805e68:	002b883a 	mov	r21,zero
  805e6c:	297fffc4 	addi	r5,r5,-1
  805e70:	053fffc4 	movi	r20,-1
  805e74:	0081ffc4 	movi	r2,2047
  805e78:	003f9806 	br	805cdc <__alt_mem_onchip_mem+0xff7fdcdc>
  805e7c:	8023883a 	mov	r17,r16
  805e80:	a011883a 	mov	r8,r20
  805e84:	e00b883a 	mov	r5,fp
  805e88:	003f8a06 	br	805cb4 <__alt_mem_onchip_mem+0xff7fdcb4>
  805e8c:	8023883a 	mov	r17,r16
  805e90:	a011883a 	mov	r8,r20
  805e94:	482d883a 	mov	r22,r9
  805e98:	e00b883a 	mov	r5,fp
  805e9c:	003f8506 	br	805cb4 <__alt_mem_onchip_mem+0xff7fdcb4>
  805ea0:	a00ad43a 	srli	r5,r20,16
  805ea4:	401ad43a 	srli	r13,r8,16
  805ea8:	a53fffcc 	andi	r20,r20,65535
  805eac:	423fffcc 	andi	r8,r8,65535
  805eb0:	4519383a 	mul	r12,r8,r20
  805eb4:	4147383a 	mul	r3,r8,r5
  805eb8:	6d09383a 	mul	r4,r13,r20
  805ebc:	600cd43a 	srli	r6,r12,16
  805ec0:	2b5d383a 	mul	r14,r5,r13
  805ec4:	20c9883a 	add	r4,r4,r3
  805ec8:	310d883a 	add	r6,r6,r4
  805ecc:	30c0022e 	bgeu	r6,r3,805ed8 <__muldf3+0x378>
  805ed0:	00c00074 	movhi	r3,1
  805ed4:	70dd883a 	add	r14,r14,r3
  805ed8:	8826d43a 	srli	r19,r17,16
  805edc:	8bffffcc 	andi	r15,r17,65535
  805ee0:	7d23383a 	mul	r17,r15,r20
  805ee4:	7949383a 	mul	r4,r15,r5
  805ee8:	9d29383a 	mul	r20,r19,r20
  805eec:	8814d43a 	srli	r10,r17,16
  805ef0:	3012943a 	slli	r9,r6,16
  805ef4:	a129883a 	add	r20,r20,r4
  805ef8:	633fffcc 	andi	r12,r12,65535
  805efc:	5515883a 	add	r10,r10,r20
  805f00:	3006d43a 	srli	r3,r6,16
  805f04:	4b13883a 	add	r9,r9,r12
  805f08:	2ccb383a 	mul	r5,r5,r19
  805f0c:	5100022e 	bgeu	r10,r4,805f18 <__muldf3+0x3b8>
  805f10:	01000074 	movhi	r4,1
  805f14:	290b883a 	add	r5,r5,r4
  805f18:	802ad43a 	srli	r21,r16,16
  805f1c:	843fffcc 	andi	r16,r16,65535
  805f20:	440d383a 	mul	r6,r8,r16
  805f24:	4565383a 	mul	r18,r8,r21
  805f28:	8349383a 	mul	r4,r16,r13
  805f2c:	500e943a 	slli	r7,r10,16
  805f30:	3010d43a 	srli	r8,r6,16
  805f34:	5028d43a 	srli	r20,r10,16
  805f38:	2489883a 	add	r4,r4,r18
  805f3c:	8abfffcc 	andi	r10,r17,65535
  805f40:	3a95883a 	add	r10,r7,r10
  805f44:	4119883a 	add	r12,r8,r4
  805f48:	a169883a 	add	r20,r20,r5
  805f4c:	1a87883a 	add	r3,r3,r10
  805f50:	6d5b383a 	mul	r13,r13,r21
  805f54:	6480022e 	bgeu	r12,r18,805f60 <__muldf3+0x400>
  805f58:	01000074 	movhi	r4,1
  805f5c:	691b883a 	add	r13,r13,r4
  805f60:	7c25383a 	mul	r18,r15,r16
  805f64:	7d4b383a 	mul	r5,r15,r21
  805f68:	84cf383a 	mul	r7,r16,r19
  805f6c:	901ed43a 	srli	r15,r18,16
  805f70:	6008d43a 	srli	r4,r12,16
  805f74:	6010943a 	slli	r8,r12,16
  805f78:	394f883a 	add	r7,r7,r5
  805f7c:	333fffcc 	andi	r12,r6,65535
  805f80:	79df883a 	add	r15,r15,r7
  805f84:	235b883a 	add	r13,r4,r13
  805f88:	9d63383a 	mul	r17,r19,r21
  805f8c:	4309883a 	add	r4,r8,r12
  805f90:	7940022e 	bgeu	r15,r5,805f9c <__muldf3+0x43c>
  805f94:	01400074 	movhi	r5,1
  805f98:	8963883a 	add	r17,r17,r5
  805f9c:	780a943a 	slli	r5,r15,16
  805fa0:	91bfffcc 	andi	r6,r18,65535
  805fa4:	70c7883a 	add	r3,r14,r3
  805fa8:	298d883a 	add	r6,r5,r6
  805fac:	1a8f803a 	cmpltu	r7,r3,r10
  805fb0:	350b883a 	add	r5,r6,r20
  805fb4:	20c7883a 	add	r3,r4,r3
  805fb8:	3955883a 	add	r10,r7,r5
  805fbc:	1909803a 	cmpltu	r4,r3,r4
  805fc0:	6a91883a 	add	r8,r13,r10
  805fc4:	780cd43a 	srli	r6,r15,16
  805fc8:	2219883a 	add	r12,r4,r8
  805fcc:	2d0b803a 	cmpltu	r5,r5,r20
  805fd0:	51cf803a 	cmpltu	r7,r10,r7
  805fd4:	29ceb03a 	or	r7,r5,r7
  805fd8:	4351803a 	cmpltu	r8,r8,r13
  805fdc:	610b803a 	cmpltu	r5,r12,r4
  805fe0:	4148b03a 	or	r4,r8,r5
  805fe4:	398f883a 	add	r7,r7,r6
  805fe8:	3909883a 	add	r4,r7,r4
  805fec:	1810927a 	slli	r8,r3,9
  805ff0:	2449883a 	add	r4,r4,r17
  805ff4:	2008927a 	slli	r4,r4,9
  805ff8:	6022d5fa 	srli	r17,r12,23
  805ffc:	1806d5fa 	srli	r3,r3,23
  806000:	4252b03a 	or	r9,r8,r9
  806004:	600a927a 	slli	r5,r12,9
  806008:	4810c03a 	cmpne	r8,r9,zero
  80600c:	2462b03a 	or	r17,r4,r17
  806010:	40c6b03a 	or	r3,r8,r3
  806014:	8900402c 	andhi	r4,r17,256
  806018:	1950b03a 	or	r8,r3,r5
  80601c:	20000726 	beq	r4,zero,80603c <__muldf3+0x4dc>
  806020:	4006d07a 	srli	r3,r8,1
  806024:	880497fa 	slli	r2,r17,31
  806028:	4200004c 	andi	r8,r8,1
  80602c:	8822d07a 	srli	r17,r17,1
  806030:	1a10b03a 	or	r8,r3,r8
  806034:	1210b03a 	or	r8,r2,r8
  806038:	5805883a 	mov	r2,r11
  80603c:	1140ffc4 	addi	r5,r2,1023
  806040:	0140440e 	bge	zero,r5,806154 <__muldf3+0x5f4>
  806044:	40c001cc 	andi	r3,r8,7
  806048:	18000726 	beq	r3,zero,806068 <__muldf3+0x508>
  80604c:	40c003cc 	andi	r3,r8,15
  806050:	01000104 	movi	r4,4
  806054:	19000426 	beq	r3,r4,806068 <__muldf3+0x508>
  806058:	4107883a 	add	r3,r8,r4
  80605c:	1a11803a 	cmpltu	r8,r3,r8
  806060:	8a23883a 	add	r17,r17,r8
  806064:	1811883a 	mov	r8,r3
  806068:	88c0402c 	andhi	r3,r17,256
  80606c:	18000426 	beq	r3,zero,806080 <__muldf3+0x520>
  806070:	11410004 	addi	r5,r2,1024
  806074:	00bfc034 	movhi	r2,65280
  806078:	10bfffc4 	addi	r2,r2,-1
  80607c:	88a2703a 	and	r17,r17,r2
  806080:	0081ff84 	movi	r2,2046
  806084:	117f6416 	blt	r2,r5,805e18 <__alt_mem_onchip_mem+0xff7fde18>
  806088:	8828977a 	slli	r20,r17,29
  80608c:	4010d0fa 	srli	r8,r8,3
  806090:	8822927a 	slli	r17,r17,9
  806094:	2881ffcc 	andi	r2,r5,2047
  806098:	a228b03a 	or	r20,r20,r8
  80609c:	880ad33a 	srli	r5,r17,12
  8060a0:	b02b883a 	mov	r21,r22
  8060a4:	003f0d06 	br	805cdc <__alt_mem_onchip_mem+0xff7fdcdc>
  8060a8:	8080022c 	andhi	r2,r16,8
  8060ac:	10000926 	beq	r2,zero,8060d4 <__muldf3+0x574>
  8060b0:	8880022c 	andhi	r2,r17,8
  8060b4:	1000071e 	bne	r2,zero,8060d4 <__muldf3+0x574>
  8060b8:	00800434 	movhi	r2,16
  8060bc:	89400234 	orhi	r5,r17,8
  8060c0:	10bfffc4 	addi	r2,r2,-1
  8060c4:	b82b883a 	mov	r21,r23
  8060c8:	288a703a 	and	r5,r5,r2
  8060cc:	4029883a 	mov	r20,r8
  8060d0:	003f6806 	br	805e74 <__alt_mem_onchip_mem+0xff7fde74>
  8060d4:	00800434 	movhi	r2,16
  8060d8:	81400234 	orhi	r5,r16,8
  8060dc:	10bfffc4 	addi	r2,r2,-1
  8060e0:	288a703a 	and	r5,r5,r2
  8060e4:	003f6306 	br	805e74 <__alt_mem_onchip_mem+0xff7fde74>
  8060e8:	147ff604 	addi	r17,r2,-40
  8060ec:	3462983a 	sll	r17,r6,r17
  8060f0:	0011883a 	mov	r8,zero
  8060f4:	003f4406 	br	805e08 <__alt_mem_onchip_mem+0xff7fde08>
  8060f8:	3009883a 	mov	r4,r6
  8060fc:	d9800215 	stw	r6,8(sp)
  806100:	da400115 	stw	r9,4(sp)
  806104:	da800015 	stw	r10,0(sp)
  806108:	0806cf80 	call	806cf8 <__clzsi2>
  80610c:	10800804 	addi	r2,r2,32
  806110:	da800017 	ldw	r10,0(sp)
  806114:	da400117 	ldw	r9,4(sp)
  806118:	d9800217 	ldw	r6,8(sp)
  80611c:	003f3006 	br	805de0 <__alt_mem_onchip_mem+0xff7fdde0>
  806120:	143ff604 	addi	r16,r2,-40
  806124:	9c20983a 	sll	r16,r19,r16
  806128:	0029883a 	mov	r20,zero
  80612c:	003f1606 	br	805d88 <__alt_mem_onchip_mem+0xff7fdd88>
  806130:	d9800215 	stw	r6,8(sp)
  806134:	d9c00015 	stw	r7,0(sp)
  806138:	da400115 	stw	r9,4(sp)
  80613c:	0806cf80 	call	806cf8 <__clzsi2>
  806140:	10800804 	addi	r2,r2,32
  806144:	da400117 	ldw	r9,4(sp)
  806148:	d9c00017 	ldw	r7,0(sp)
  80614c:	d9800217 	ldw	r6,8(sp)
  806150:	003f0306 	br	805d60 <__alt_mem_onchip_mem+0xff7fdd60>
  806154:	00c00044 	movi	r3,1
  806158:	1947c83a 	sub	r3,r3,r5
  80615c:	00800e04 	movi	r2,56
  806160:	10feda16 	blt	r2,r3,805ccc <__alt_mem_onchip_mem+0xff7fdccc>
  806164:	008007c4 	movi	r2,31
  806168:	10c01b16 	blt	r2,r3,8061d8 <__muldf3+0x678>
  80616c:	00800804 	movi	r2,32
  806170:	10c5c83a 	sub	r2,r2,r3
  806174:	888a983a 	sll	r5,r17,r2
  806178:	40c8d83a 	srl	r4,r8,r3
  80617c:	4084983a 	sll	r2,r8,r2
  806180:	88e2d83a 	srl	r17,r17,r3
  806184:	2906b03a 	or	r3,r5,r4
  806188:	1004c03a 	cmpne	r2,r2,zero
  80618c:	1886b03a 	or	r3,r3,r2
  806190:	188001cc 	andi	r2,r3,7
  806194:	10000726 	beq	r2,zero,8061b4 <__muldf3+0x654>
  806198:	188003cc 	andi	r2,r3,15
  80619c:	01000104 	movi	r4,4
  8061a0:	11000426 	beq	r2,r4,8061b4 <__muldf3+0x654>
  8061a4:	1805883a 	mov	r2,r3
  8061a8:	10c00104 	addi	r3,r2,4
  8061ac:	1885803a 	cmpltu	r2,r3,r2
  8061b0:	88a3883a 	add	r17,r17,r2
  8061b4:	8880202c 	andhi	r2,r17,128
  8061b8:	10001c26 	beq	r2,zero,80622c <__muldf3+0x6cc>
  8061bc:	b02b883a 	mov	r21,r22
  8061c0:	00800044 	movi	r2,1
  8061c4:	000b883a 	mov	r5,zero
  8061c8:	0029883a 	mov	r20,zero
  8061cc:	003ec306 	br	805cdc <__alt_mem_onchip_mem+0xff7fdcdc>
  8061d0:	5805883a 	mov	r2,r11
  8061d4:	003f9906 	br	80603c <__alt_mem_onchip_mem+0xff7fe03c>
  8061d8:	00bff844 	movi	r2,-31
  8061dc:	1145c83a 	sub	r2,r2,r5
  8061e0:	8888d83a 	srl	r4,r17,r2
  8061e4:	00800804 	movi	r2,32
  8061e8:	18801a26 	beq	r3,r2,806254 <__muldf3+0x6f4>
  8061ec:	00801004 	movi	r2,64
  8061f0:	10c5c83a 	sub	r2,r2,r3
  8061f4:	8884983a 	sll	r2,r17,r2
  8061f8:	1204b03a 	or	r2,r2,r8
  8061fc:	1004c03a 	cmpne	r2,r2,zero
  806200:	2084b03a 	or	r2,r4,r2
  806204:	144001cc 	andi	r17,r2,7
  806208:	88000d1e 	bne	r17,zero,806240 <__muldf3+0x6e0>
  80620c:	000b883a 	mov	r5,zero
  806210:	1028d0fa 	srli	r20,r2,3
  806214:	b02b883a 	mov	r21,r22
  806218:	0005883a 	mov	r2,zero
  80621c:	a468b03a 	or	r20,r20,r17
  806220:	003eae06 	br	805cdc <__alt_mem_onchip_mem+0xff7fdcdc>
  806224:	1007883a 	mov	r3,r2
  806228:	0023883a 	mov	r17,zero
  80622c:	880a927a 	slli	r5,r17,9
  806230:	1805883a 	mov	r2,r3
  806234:	8822977a 	slli	r17,r17,29
  806238:	280ad33a 	srli	r5,r5,12
  80623c:	003ff406 	br	806210 <__alt_mem_onchip_mem+0xff7fe210>
  806240:	10c003cc 	andi	r3,r2,15
  806244:	01000104 	movi	r4,4
  806248:	193ff626 	beq	r3,r4,806224 <__alt_mem_onchip_mem+0xff7fe224>
  80624c:	0023883a 	mov	r17,zero
  806250:	003fd506 	br	8061a8 <__alt_mem_onchip_mem+0xff7fe1a8>
  806254:	0005883a 	mov	r2,zero
  806258:	003fe706 	br	8061f8 <__alt_mem_onchip_mem+0xff7fe1f8>
  80625c:	00800434 	movhi	r2,16
  806260:	89400234 	orhi	r5,r17,8
  806264:	10bfffc4 	addi	r2,r2,-1
  806268:	b02b883a 	mov	r21,r22
  80626c:	288a703a 	and	r5,r5,r2
  806270:	4029883a 	mov	r20,r8
  806274:	003eff06 	br	805e74 <__alt_mem_onchip_mem+0xff7fde74>

00806278 <__subdf3>:
  806278:	02000434 	movhi	r8,16
  80627c:	423fffc4 	addi	r8,r8,-1
  806280:	defffb04 	addi	sp,sp,-20
  806284:	2a14703a 	and	r10,r5,r8
  806288:	3812d53a 	srli	r9,r7,20
  80628c:	3a10703a 	and	r8,r7,r8
  806290:	2006d77a 	srli	r3,r4,29
  806294:	3004d77a 	srli	r2,r6,29
  806298:	dc000015 	stw	r16,0(sp)
  80629c:	501490fa 	slli	r10,r10,3
  8062a0:	2820d53a 	srli	r16,r5,20
  8062a4:	401090fa 	slli	r8,r8,3
  8062a8:	dc800215 	stw	r18,8(sp)
  8062ac:	dc400115 	stw	r17,4(sp)
  8062b0:	dfc00415 	stw	ra,16(sp)
  8062b4:	202290fa 	slli	r17,r4,3
  8062b8:	dcc00315 	stw	r19,12(sp)
  8062bc:	4a41ffcc 	andi	r9,r9,2047
  8062c0:	0101ffc4 	movi	r4,2047
  8062c4:	2824d7fa 	srli	r18,r5,31
  8062c8:	8401ffcc 	andi	r16,r16,2047
  8062cc:	50c6b03a 	or	r3,r10,r3
  8062d0:	380ed7fa 	srli	r7,r7,31
  8062d4:	408ab03a 	or	r5,r8,r2
  8062d8:	300c90fa 	slli	r6,r6,3
  8062dc:	49009626 	beq	r9,r4,806538 <__subdf3+0x2c0>
  8062e0:	39c0005c 	xori	r7,r7,1
  8062e4:	8245c83a 	sub	r2,r16,r9
  8062e8:	3c807426 	beq	r7,r18,8064bc <__subdf3+0x244>
  8062ec:	0080af0e 	bge	zero,r2,8065ac <__subdf3+0x334>
  8062f0:	48002a1e 	bne	r9,zero,80639c <__subdf3+0x124>
  8062f4:	2988b03a 	or	r4,r5,r6
  8062f8:	20009a1e 	bne	r4,zero,806564 <__subdf3+0x2ec>
  8062fc:	888001cc 	andi	r2,r17,7
  806300:	10000726 	beq	r2,zero,806320 <__subdf3+0xa8>
  806304:	888003cc 	andi	r2,r17,15
  806308:	01000104 	movi	r4,4
  80630c:	11000426 	beq	r2,r4,806320 <__subdf3+0xa8>
  806310:	890b883a 	add	r5,r17,r4
  806314:	2c63803a 	cmpltu	r17,r5,r17
  806318:	1c47883a 	add	r3,r3,r17
  80631c:	2823883a 	mov	r17,r5
  806320:	1880202c 	andhi	r2,r3,128
  806324:	10005926 	beq	r2,zero,80648c <__subdf3+0x214>
  806328:	84000044 	addi	r16,r16,1
  80632c:	0081ffc4 	movi	r2,2047
  806330:	8080be26 	beq	r16,r2,80662c <__subdf3+0x3b4>
  806334:	017fe034 	movhi	r5,65408
  806338:	297fffc4 	addi	r5,r5,-1
  80633c:	1946703a 	and	r3,r3,r5
  806340:	1804977a 	slli	r2,r3,29
  806344:	1806927a 	slli	r3,r3,9
  806348:	8822d0fa 	srli	r17,r17,3
  80634c:	8401ffcc 	andi	r16,r16,2047
  806350:	180ad33a 	srli	r5,r3,12
  806354:	9100004c 	andi	r4,r18,1
  806358:	1444b03a 	or	r2,r2,r17
  80635c:	80c1ffcc 	andi	r3,r16,2047
  806360:	1820953a 	slli	r16,r3,20
  806364:	20c03fcc 	andi	r3,r4,255
  806368:	180897fa 	slli	r4,r3,31
  80636c:	00c00434 	movhi	r3,16
  806370:	18ffffc4 	addi	r3,r3,-1
  806374:	28c6703a 	and	r3,r5,r3
  806378:	1c06b03a 	or	r3,r3,r16
  80637c:	1906b03a 	or	r3,r3,r4
  806380:	dfc00417 	ldw	ra,16(sp)
  806384:	dcc00317 	ldw	r19,12(sp)
  806388:	dc800217 	ldw	r18,8(sp)
  80638c:	dc400117 	ldw	r17,4(sp)
  806390:	dc000017 	ldw	r16,0(sp)
  806394:	dec00504 	addi	sp,sp,20
  806398:	f800283a 	ret
  80639c:	0101ffc4 	movi	r4,2047
  8063a0:	813fd626 	beq	r16,r4,8062fc <__alt_mem_onchip_mem+0xff7fe2fc>
  8063a4:	29402034 	orhi	r5,r5,128
  8063a8:	01000e04 	movi	r4,56
  8063ac:	2080a316 	blt	r4,r2,80663c <__subdf3+0x3c4>
  8063b0:	010007c4 	movi	r4,31
  8063b4:	2080c616 	blt	r4,r2,8066d0 <__subdf3+0x458>
  8063b8:	01000804 	movi	r4,32
  8063bc:	2089c83a 	sub	r4,r4,r2
  8063c0:	2910983a 	sll	r8,r5,r4
  8063c4:	308ed83a 	srl	r7,r6,r2
  8063c8:	3108983a 	sll	r4,r6,r4
  8063cc:	2884d83a 	srl	r2,r5,r2
  8063d0:	41ccb03a 	or	r6,r8,r7
  8063d4:	2008c03a 	cmpne	r4,r4,zero
  8063d8:	310cb03a 	or	r6,r6,r4
  8063dc:	898dc83a 	sub	r6,r17,r6
  8063e0:	89a3803a 	cmpltu	r17,r17,r6
  8063e4:	1887c83a 	sub	r3,r3,r2
  8063e8:	1c47c83a 	sub	r3,r3,r17
  8063ec:	3023883a 	mov	r17,r6
  8063f0:	1880202c 	andhi	r2,r3,128
  8063f4:	10002326 	beq	r2,zero,806484 <__subdf3+0x20c>
  8063f8:	04c02034 	movhi	r19,128
  8063fc:	9cffffc4 	addi	r19,r19,-1
  806400:	1ce6703a 	and	r19,r3,r19
  806404:	98007a26 	beq	r19,zero,8065f0 <__subdf3+0x378>
  806408:	9809883a 	mov	r4,r19
  80640c:	0806cf80 	call	806cf8 <__clzsi2>
  806410:	113ffe04 	addi	r4,r2,-8
  806414:	00c007c4 	movi	r3,31
  806418:	19007b16 	blt	r3,r4,806608 <__subdf3+0x390>
  80641c:	00800804 	movi	r2,32
  806420:	1105c83a 	sub	r2,r2,r4
  806424:	8884d83a 	srl	r2,r17,r2
  806428:	9906983a 	sll	r3,r19,r4
  80642c:	8922983a 	sll	r17,r17,r4
  806430:	10c4b03a 	or	r2,r2,r3
  806434:	24007816 	blt	r4,r16,806618 <__subdf3+0x3a0>
  806438:	2421c83a 	sub	r16,r4,r16
  80643c:	80c00044 	addi	r3,r16,1
  806440:	010007c4 	movi	r4,31
  806444:	20c09516 	blt	r4,r3,80669c <__subdf3+0x424>
  806448:	01400804 	movi	r5,32
  80644c:	28cbc83a 	sub	r5,r5,r3
  806450:	88c8d83a 	srl	r4,r17,r3
  806454:	8962983a 	sll	r17,r17,r5
  806458:	114a983a 	sll	r5,r2,r5
  80645c:	10c6d83a 	srl	r3,r2,r3
  806460:	8804c03a 	cmpne	r2,r17,zero
  806464:	290ab03a 	or	r5,r5,r4
  806468:	28a2b03a 	or	r17,r5,r2
  80646c:	0021883a 	mov	r16,zero
  806470:	003fa206 	br	8062fc <__alt_mem_onchip_mem+0xff7fe2fc>
  806474:	2090b03a 	or	r8,r4,r2
  806478:	40018e26 	beq	r8,zero,806ab4 <__subdf3+0x83c>
  80647c:	1007883a 	mov	r3,r2
  806480:	2023883a 	mov	r17,r4
  806484:	888001cc 	andi	r2,r17,7
  806488:	103f9e1e 	bne	r2,zero,806304 <__alt_mem_onchip_mem+0xff7fe304>
  80648c:	1804977a 	slli	r2,r3,29
  806490:	8822d0fa 	srli	r17,r17,3
  806494:	1810d0fa 	srli	r8,r3,3
  806498:	9100004c 	andi	r4,r18,1
  80649c:	1444b03a 	or	r2,r2,r17
  8064a0:	00c1ffc4 	movi	r3,2047
  8064a4:	80c02826 	beq	r16,r3,806548 <__subdf3+0x2d0>
  8064a8:	01400434 	movhi	r5,16
  8064ac:	297fffc4 	addi	r5,r5,-1
  8064b0:	80e0703a 	and	r16,r16,r3
  8064b4:	414a703a 	and	r5,r8,r5
  8064b8:	003fa806 	br	80635c <__alt_mem_onchip_mem+0xff7fe35c>
  8064bc:	0080630e 	bge	zero,r2,80664c <__subdf3+0x3d4>
  8064c0:	48003026 	beq	r9,zero,806584 <__subdf3+0x30c>
  8064c4:	0101ffc4 	movi	r4,2047
  8064c8:	813f8c26 	beq	r16,r4,8062fc <__alt_mem_onchip_mem+0xff7fe2fc>
  8064cc:	29402034 	orhi	r5,r5,128
  8064d0:	01000e04 	movi	r4,56
  8064d4:	2080a90e 	bge	r4,r2,80677c <__subdf3+0x504>
  8064d8:	298cb03a 	or	r6,r5,r6
  8064dc:	3012c03a 	cmpne	r9,r6,zero
  8064e0:	0005883a 	mov	r2,zero
  8064e4:	4c53883a 	add	r9,r9,r17
  8064e8:	4c63803a 	cmpltu	r17,r9,r17
  8064ec:	10c7883a 	add	r3,r2,r3
  8064f0:	88c7883a 	add	r3,r17,r3
  8064f4:	4823883a 	mov	r17,r9
  8064f8:	1880202c 	andhi	r2,r3,128
  8064fc:	1000d026 	beq	r2,zero,806840 <__subdf3+0x5c8>
  806500:	84000044 	addi	r16,r16,1
  806504:	0081ffc4 	movi	r2,2047
  806508:	8080fe26 	beq	r16,r2,806904 <__subdf3+0x68c>
  80650c:	00bfe034 	movhi	r2,65408
  806510:	10bfffc4 	addi	r2,r2,-1
  806514:	1886703a 	and	r3,r3,r2
  806518:	880ad07a 	srli	r5,r17,1
  80651c:	180497fa 	slli	r2,r3,31
  806520:	8900004c 	andi	r4,r17,1
  806524:	2922b03a 	or	r17,r5,r4
  806528:	1806d07a 	srli	r3,r3,1
  80652c:	1462b03a 	or	r17,r2,r17
  806530:	3825883a 	mov	r18,r7
  806534:	003f7106 	br	8062fc <__alt_mem_onchip_mem+0xff7fe2fc>
  806538:	2984b03a 	or	r2,r5,r6
  80653c:	103f6826 	beq	r2,zero,8062e0 <__alt_mem_onchip_mem+0xff7fe2e0>
  806540:	39c03fcc 	andi	r7,r7,255
  806544:	003f6706 	br	8062e4 <__alt_mem_onchip_mem+0xff7fe2e4>
  806548:	4086b03a 	or	r3,r8,r2
  80654c:	18015226 	beq	r3,zero,806a98 <__subdf3+0x820>
  806550:	00c00434 	movhi	r3,16
  806554:	41400234 	orhi	r5,r8,8
  806558:	18ffffc4 	addi	r3,r3,-1
  80655c:	28ca703a 	and	r5,r5,r3
  806560:	003f7e06 	br	80635c <__alt_mem_onchip_mem+0xff7fe35c>
  806564:	10bfffc4 	addi	r2,r2,-1
  806568:	1000491e 	bne	r2,zero,806690 <__subdf3+0x418>
  80656c:	898fc83a 	sub	r7,r17,r6
  806570:	89e3803a 	cmpltu	r17,r17,r7
  806574:	1947c83a 	sub	r3,r3,r5
  806578:	1c47c83a 	sub	r3,r3,r17
  80657c:	3823883a 	mov	r17,r7
  806580:	003f9b06 	br	8063f0 <__alt_mem_onchip_mem+0xff7fe3f0>
  806584:	2988b03a 	or	r4,r5,r6
  806588:	203f5c26 	beq	r4,zero,8062fc <__alt_mem_onchip_mem+0xff7fe2fc>
  80658c:	10bfffc4 	addi	r2,r2,-1
  806590:	1000931e 	bne	r2,zero,8067e0 <__subdf3+0x568>
  806594:	898d883a 	add	r6,r17,r6
  806598:	3463803a 	cmpltu	r17,r6,r17
  80659c:	1947883a 	add	r3,r3,r5
  8065a0:	88c7883a 	add	r3,r17,r3
  8065a4:	3023883a 	mov	r17,r6
  8065a8:	003fd306 	br	8064f8 <__alt_mem_onchip_mem+0xff7fe4f8>
  8065ac:	1000541e 	bne	r2,zero,806700 <__subdf3+0x488>
  8065b0:	80800044 	addi	r2,r16,1
  8065b4:	1081ffcc 	andi	r2,r2,2047
  8065b8:	01000044 	movi	r4,1
  8065bc:	2080a20e 	bge	r4,r2,806848 <__subdf3+0x5d0>
  8065c0:	8989c83a 	sub	r4,r17,r6
  8065c4:	8905803a 	cmpltu	r2,r17,r4
  8065c8:	1967c83a 	sub	r19,r3,r5
  8065cc:	98a7c83a 	sub	r19,r19,r2
  8065d0:	9880202c 	andhi	r2,r19,128
  8065d4:	10006326 	beq	r2,zero,806764 <__subdf3+0x4ec>
  8065d8:	3463c83a 	sub	r17,r6,r17
  8065dc:	28c7c83a 	sub	r3,r5,r3
  8065e0:	344d803a 	cmpltu	r6,r6,r17
  8065e4:	19a7c83a 	sub	r19,r3,r6
  8065e8:	3825883a 	mov	r18,r7
  8065ec:	983f861e 	bne	r19,zero,806408 <__alt_mem_onchip_mem+0xff7fe408>
  8065f0:	8809883a 	mov	r4,r17
  8065f4:	0806cf80 	call	806cf8 <__clzsi2>
  8065f8:	10800804 	addi	r2,r2,32
  8065fc:	113ffe04 	addi	r4,r2,-8
  806600:	00c007c4 	movi	r3,31
  806604:	193f850e 	bge	r3,r4,80641c <__alt_mem_onchip_mem+0xff7fe41c>
  806608:	10bff604 	addi	r2,r2,-40
  80660c:	8884983a 	sll	r2,r17,r2
  806610:	0023883a 	mov	r17,zero
  806614:	243f880e 	bge	r4,r16,806438 <__alt_mem_onchip_mem+0xff7fe438>
  806618:	00ffe034 	movhi	r3,65408
  80661c:	18ffffc4 	addi	r3,r3,-1
  806620:	8121c83a 	sub	r16,r16,r4
  806624:	10c6703a 	and	r3,r2,r3
  806628:	003f3406 	br	8062fc <__alt_mem_onchip_mem+0xff7fe2fc>
  80662c:	9100004c 	andi	r4,r18,1
  806630:	000b883a 	mov	r5,zero
  806634:	0005883a 	mov	r2,zero
  806638:	003f4806 	br	80635c <__alt_mem_onchip_mem+0xff7fe35c>
  80663c:	298cb03a 	or	r6,r5,r6
  806640:	300cc03a 	cmpne	r6,r6,zero
  806644:	0005883a 	mov	r2,zero
  806648:	003f6406 	br	8063dc <__alt_mem_onchip_mem+0xff7fe3dc>
  80664c:	10009a1e 	bne	r2,zero,8068b8 <__subdf3+0x640>
  806650:	82400044 	addi	r9,r16,1
  806654:	4881ffcc 	andi	r2,r9,2047
  806658:	02800044 	movi	r10,1
  80665c:	5080670e 	bge	r10,r2,8067fc <__subdf3+0x584>
  806660:	0081ffc4 	movi	r2,2047
  806664:	4880af26 	beq	r9,r2,806924 <__subdf3+0x6ac>
  806668:	898d883a 	add	r6,r17,r6
  80666c:	1945883a 	add	r2,r3,r5
  806670:	3447803a 	cmpltu	r3,r6,r17
  806674:	1887883a 	add	r3,r3,r2
  806678:	182297fa 	slli	r17,r3,31
  80667c:	300cd07a 	srli	r6,r6,1
  806680:	1806d07a 	srli	r3,r3,1
  806684:	4821883a 	mov	r16,r9
  806688:	89a2b03a 	or	r17,r17,r6
  80668c:	003f1b06 	br	8062fc <__alt_mem_onchip_mem+0xff7fe2fc>
  806690:	0101ffc4 	movi	r4,2047
  806694:	813f441e 	bne	r16,r4,8063a8 <__alt_mem_onchip_mem+0xff7fe3a8>
  806698:	003f1806 	br	8062fc <__alt_mem_onchip_mem+0xff7fe2fc>
  80669c:	843ff844 	addi	r16,r16,-31
  8066a0:	01400804 	movi	r5,32
  8066a4:	1408d83a 	srl	r4,r2,r16
  8066a8:	19405026 	beq	r3,r5,8067ec <__subdf3+0x574>
  8066ac:	01401004 	movi	r5,64
  8066b0:	28c7c83a 	sub	r3,r5,r3
  8066b4:	10c4983a 	sll	r2,r2,r3
  8066b8:	88a2b03a 	or	r17,r17,r2
  8066bc:	8822c03a 	cmpne	r17,r17,zero
  8066c0:	2462b03a 	or	r17,r4,r17
  8066c4:	0007883a 	mov	r3,zero
  8066c8:	0021883a 	mov	r16,zero
  8066cc:	003f6d06 	br	806484 <__alt_mem_onchip_mem+0xff7fe484>
  8066d0:	11fff804 	addi	r7,r2,-32
  8066d4:	01000804 	movi	r4,32
  8066d8:	29ced83a 	srl	r7,r5,r7
  8066dc:	11004526 	beq	r2,r4,8067f4 <__subdf3+0x57c>
  8066e0:	01001004 	movi	r4,64
  8066e4:	2089c83a 	sub	r4,r4,r2
  8066e8:	2904983a 	sll	r2,r5,r4
  8066ec:	118cb03a 	or	r6,r2,r6
  8066f0:	300cc03a 	cmpne	r6,r6,zero
  8066f4:	398cb03a 	or	r6,r7,r6
  8066f8:	0005883a 	mov	r2,zero
  8066fc:	003f3706 	br	8063dc <__alt_mem_onchip_mem+0xff7fe3dc>
  806700:	80002a26 	beq	r16,zero,8067ac <__subdf3+0x534>
  806704:	0101ffc4 	movi	r4,2047
  806708:	49006626 	beq	r9,r4,8068a4 <__subdf3+0x62c>
  80670c:	0085c83a 	sub	r2,zero,r2
  806710:	18c02034 	orhi	r3,r3,128
  806714:	01000e04 	movi	r4,56
  806718:	20807e16 	blt	r4,r2,806914 <__subdf3+0x69c>
  80671c:	010007c4 	movi	r4,31
  806720:	2080e716 	blt	r4,r2,806ac0 <__subdf3+0x848>
  806724:	01000804 	movi	r4,32
  806728:	2089c83a 	sub	r4,r4,r2
  80672c:	1914983a 	sll	r10,r3,r4
  806730:	8890d83a 	srl	r8,r17,r2
  806734:	8908983a 	sll	r4,r17,r4
  806738:	1884d83a 	srl	r2,r3,r2
  80673c:	5222b03a 	or	r17,r10,r8
  806740:	2006c03a 	cmpne	r3,r4,zero
  806744:	88e2b03a 	or	r17,r17,r3
  806748:	3463c83a 	sub	r17,r6,r17
  80674c:	2885c83a 	sub	r2,r5,r2
  806750:	344d803a 	cmpltu	r6,r6,r17
  806754:	1187c83a 	sub	r3,r2,r6
  806758:	4821883a 	mov	r16,r9
  80675c:	3825883a 	mov	r18,r7
  806760:	003f2306 	br	8063f0 <__alt_mem_onchip_mem+0xff7fe3f0>
  806764:	24d0b03a 	or	r8,r4,r19
  806768:	40001b1e 	bne	r8,zero,8067d8 <__subdf3+0x560>
  80676c:	0005883a 	mov	r2,zero
  806770:	0009883a 	mov	r4,zero
  806774:	0021883a 	mov	r16,zero
  806778:	003f4906 	br	8064a0 <__alt_mem_onchip_mem+0xff7fe4a0>
  80677c:	010007c4 	movi	r4,31
  806780:	20803a16 	blt	r4,r2,80686c <__subdf3+0x5f4>
  806784:	01000804 	movi	r4,32
  806788:	2089c83a 	sub	r4,r4,r2
  80678c:	2912983a 	sll	r9,r5,r4
  806790:	3090d83a 	srl	r8,r6,r2
  806794:	3108983a 	sll	r4,r6,r4
  806798:	2884d83a 	srl	r2,r5,r2
  80679c:	4a12b03a 	or	r9,r9,r8
  8067a0:	2008c03a 	cmpne	r4,r4,zero
  8067a4:	4912b03a 	or	r9,r9,r4
  8067a8:	003f4e06 	br	8064e4 <__alt_mem_onchip_mem+0xff7fe4e4>
  8067ac:	1c48b03a 	or	r4,r3,r17
  8067b0:	20003c26 	beq	r4,zero,8068a4 <__subdf3+0x62c>
  8067b4:	0084303a 	nor	r2,zero,r2
  8067b8:	1000381e 	bne	r2,zero,80689c <__subdf3+0x624>
  8067bc:	3463c83a 	sub	r17,r6,r17
  8067c0:	28c5c83a 	sub	r2,r5,r3
  8067c4:	344d803a 	cmpltu	r6,r6,r17
  8067c8:	1187c83a 	sub	r3,r2,r6
  8067cc:	4821883a 	mov	r16,r9
  8067d0:	3825883a 	mov	r18,r7
  8067d4:	003f0606 	br	8063f0 <__alt_mem_onchip_mem+0xff7fe3f0>
  8067d8:	2023883a 	mov	r17,r4
  8067dc:	003f0906 	br	806404 <__alt_mem_onchip_mem+0xff7fe404>
  8067e0:	0101ffc4 	movi	r4,2047
  8067e4:	813f3a1e 	bne	r16,r4,8064d0 <__alt_mem_onchip_mem+0xff7fe4d0>
  8067e8:	003ec406 	br	8062fc <__alt_mem_onchip_mem+0xff7fe2fc>
  8067ec:	0005883a 	mov	r2,zero
  8067f0:	003fb106 	br	8066b8 <__alt_mem_onchip_mem+0xff7fe6b8>
  8067f4:	0005883a 	mov	r2,zero
  8067f8:	003fbc06 	br	8066ec <__alt_mem_onchip_mem+0xff7fe6ec>
  8067fc:	1c44b03a 	or	r2,r3,r17
  806800:	80008e1e 	bne	r16,zero,806a3c <__subdf3+0x7c4>
  806804:	1000c826 	beq	r2,zero,806b28 <__subdf3+0x8b0>
  806808:	2984b03a 	or	r2,r5,r6
  80680c:	103ebb26 	beq	r2,zero,8062fc <__alt_mem_onchip_mem+0xff7fe2fc>
  806810:	8989883a 	add	r4,r17,r6
  806814:	1945883a 	add	r2,r3,r5
  806818:	2447803a 	cmpltu	r3,r4,r17
  80681c:	1887883a 	add	r3,r3,r2
  806820:	1880202c 	andhi	r2,r3,128
  806824:	2023883a 	mov	r17,r4
  806828:	103f1626 	beq	r2,zero,806484 <__alt_mem_onchip_mem+0xff7fe484>
  80682c:	00bfe034 	movhi	r2,65408
  806830:	10bfffc4 	addi	r2,r2,-1
  806834:	5021883a 	mov	r16,r10
  806838:	1886703a 	and	r3,r3,r2
  80683c:	003eaf06 	br	8062fc <__alt_mem_onchip_mem+0xff7fe2fc>
  806840:	3825883a 	mov	r18,r7
  806844:	003f0f06 	br	806484 <__alt_mem_onchip_mem+0xff7fe484>
  806848:	1c44b03a 	or	r2,r3,r17
  80684c:	8000251e 	bne	r16,zero,8068e4 <__subdf3+0x66c>
  806850:	1000661e 	bne	r2,zero,8069ec <__subdf3+0x774>
  806854:	2990b03a 	or	r8,r5,r6
  806858:	40009626 	beq	r8,zero,806ab4 <__subdf3+0x83c>
  80685c:	2807883a 	mov	r3,r5
  806860:	3023883a 	mov	r17,r6
  806864:	3825883a 	mov	r18,r7
  806868:	003ea406 	br	8062fc <__alt_mem_onchip_mem+0xff7fe2fc>
  80686c:	127ff804 	addi	r9,r2,-32
  806870:	01000804 	movi	r4,32
  806874:	2a52d83a 	srl	r9,r5,r9
  806878:	11008c26 	beq	r2,r4,806aac <__subdf3+0x834>
  80687c:	01001004 	movi	r4,64
  806880:	2085c83a 	sub	r2,r4,r2
  806884:	2884983a 	sll	r2,r5,r2
  806888:	118cb03a 	or	r6,r2,r6
  80688c:	300cc03a 	cmpne	r6,r6,zero
  806890:	4992b03a 	or	r9,r9,r6
  806894:	0005883a 	mov	r2,zero
  806898:	003f1206 	br	8064e4 <__alt_mem_onchip_mem+0xff7fe4e4>
  80689c:	0101ffc4 	movi	r4,2047
  8068a0:	493f9c1e 	bne	r9,r4,806714 <__alt_mem_onchip_mem+0xff7fe714>
  8068a4:	2807883a 	mov	r3,r5
  8068a8:	3023883a 	mov	r17,r6
  8068ac:	4821883a 	mov	r16,r9
  8068b0:	3825883a 	mov	r18,r7
  8068b4:	003e9106 	br	8062fc <__alt_mem_onchip_mem+0xff7fe2fc>
  8068b8:	80001f1e 	bne	r16,zero,806938 <__subdf3+0x6c0>
  8068bc:	1c48b03a 	or	r4,r3,r17
  8068c0:	20005a26 	beq	r4,zero,806a2c <__subdf3+0x7b4>
  8068c4:	0084303a 	nor	r2,zero,r2
  8068c8:	1000561e 	bne	r2,zero,806a24 <__subdf3+0x7ac>
  8068cc:	89a3883a 	add	r17,r17,r6
  8068d0:	1945883a 	add	r2,r3,r5
  8068d4:	898d803a 	cmpltu	r6,r17,r6
  8068d8:	3087883a 	add	r3,r6,r2
  8068dc:	4821883a 	mov	r16,r9
  8068e0:	003f0506 	br	8064f8 <__alt_mem_onchip_mem+0xff7fe4f8>
  8068e4:	10002b1e 	bne	r2,zero,806994 <__subdf3+0x71c>
  8068e8:	2984b03a 	or	r2,r5,r6
  8068ec:	10008026 	beq	r2,zero,806af0 <__subdf3+0x878>
  8068f0:	2807883a 	mov	r3,r5
  8068f4:	3023883a 	mov	r17,r6
  8068f8:	3825883a 	mov	r18,r7
  8068fc:	0401ffc4 	movi	r16,2047
  806900:	003e7e06 	br	8062fc <__alt_mem_onchip_mem+0xff7fe2fc>
  806904:	3809883a 	mov	r4,r7
  806908:	0011883a 	mov	r8,zero
  80690c:	0005883a 	mov	r2,zero
  806910:	003ee306 	br	8064a0 <__alt_mem_onchip_mem+0xff7fe4a0>
  806914:	1c62b03a 	or	r17,r3,r17
  806918:	8822c03a 	cmpne	r17,r17,zero
  80691c:	0005883a 	mov	r2,zero
  806920:	003f8906 	br	806748 <__alt_mem_onchip_mem+0xff7fe748>
  806924:	3809883a 	mov	r4,r7
  806928:	4821883a 	mov	r16,r9
  80692c:	0011883a 	mov	r8,zero
  806930:	0005883a 	mov	r2,zero
  806934:	003eda06 	br	8064a0 <__alt_mem_onchip_mem+0xff7fe4a0>
  806938:	0101ffc4 	movi	r4,2047
  80693c:	49003b26 	beq	r9,r4,806a2c <__subdf3+0x7b4>
  806940:	0085c83a 	sub	r2,zero,r2
  806944:	18c02034 	orhi	r3,r3,128
  806948:	01000e04 	movi	r4,56
  80694c:	20806e16 	blt	r4,r2,806b08 <__subdf3+0x890>
  806950:	010007c4 	movi	r4,31
  806954:	20807716 	blt	r4,r2,806b34 <__subdf3+0x8bc>
  806958:	01000804 	movi	r4,32
  80695c:	2089c83a 	sub	r4,r4,r2
  806960:	1914983a 	sll	r10,r3,r4
  806964:	8890d83a 	srl	r8,r17,r2
  806968:	8908983a 	sll	r4,r17,r4
  80696c:	1884d83a 	srl	r2,r3,r2
  806970:	5222b03a 	or	r17,r10,r8
  806974:	2006c03a 	cmpne	r3,r4,zero
  806978:	88e2b03a 	or	r17,r17,r3
  80697c:	89a3883a 	add	r17,r17,r6
  806980:	1145883a 	add	r2,r2,r5
  806984:	898d803a 	cmpltu	r6,r17,r6
  806988:	3087883a 	add	r3,r6,r2
  80698c:	4821883a 	mov	r16,r9
  806990:	003ed906 	br	8064f8 <__alt_mem_onchip_mem+0xff7fe4f8>
  806994:	2984b03a 	or	r2,r5,r6
  806998:	10004226 	beq	r2,zero,806aa4 <__subdf3+0x82c>
  80699c:	1808d0fa 	srli	r4,r3,3
  8069a0:	8822d0fa 	srli	r17,r17,3
  8069a4:	1806977a 	slli	r3,r3,29
  8069a8:	2080022c 	andhi	r2,r4,8
  8069ac:	1c62b03a 	or	r17,r3,r17
  8069b0:	10000826 	beq	r2,zero,8069d4 <__subdf3+0x75c>
  8069b4:	2812d0fa 	srli	r9,r5,3
  8069b8:	4880022c 	andhi	r2,r9,8
  8069bc:	1000051e 	bne	r2,zero,8069d4 <__subdf3+0x75c>
  8069c0:	300cd0fa 	srli	r6,r6,3
  8069c4:	2804977a 	slli	r2,r5,29
  8069c8:	4809883a 	mov	r4,r9
  8069cc:	3825883a 	mov	r18,r7
  8069d0:	11a2b03a 	or	r17,r2,r6
  8069d4:	8806d77a 	srli	r3,r17,29
  8069d8:	200890fa 	slli	r4,r4,3
  8069dc:	882290fa 	slli	r17,r17,3
  8069e0:	0401ffc4 	movi	r16,2047
  8069e4:	1906b03a 	or	r3,r3,r4
  8069e8:	003e4406 	br	8062fc <__alt_mem_onchip_mem+0xff7fe2fc>
  8069ec:	2984b03a 	or	r2,r5,r6
  8069f0:	103e4226 	beq	r2,zero,8062fc <__alt_mem_onchip_mem+0xff7fe2fc>
  8069f4:	8989c83a 	sub	r4,r17,r6
  8069f8:	8911803a 	cmpltu	r8,r17,r4
  8069fc:	1945c83a 	sub	r2,r3,r5
  806a00:	1205c83a 	sub	r2,r2,r8
  806a04:	1200202c 	andhi	r8,r2,128
  806a08:	403e9a26 	beq	r8,zero,806474 <__alt_mem_onchip_mem+0xff7fe474>
  806a0c:	3463c83a 	sub	r17,r6,r17
  806a10:	28c5c83a 	sub	r2,r5,r3
  806a14:	344d803a 	cmpltu	r6,r6,r17
  806a18:	1187c83a 	sub	r3,r2,r6
  806a1c:	3825883a 	mov	r18,r7
  806a20:	003e3606 	br	8062fc <__alt_mem_onchip_mem+0xff7fe2fc>
  806a24:	0101ffc4 	movi	r4,2047
  806a28:	493fc71e 	bne	r9,r4,806948 <__alt_mem_onchip_mem+0xff7fe948>
  806a2c:	2807883a 	mov	r3,r5
  806a30:	3023883a 	mov	r17,r6
  806a34:	4821883a 	mov	r16,r9
  806a38:	003e3006 	br	8062fc <__alt_mem_onchip_mem+0xff7fe2fc>
  806a3c:	10003626 	beq	r2,zero,806b18 <__subdf3+0x8a0>
  806a40:	2984b03a 	or	r2,r5,r6
  806a44:	10001726 	beq	r2,zero,806aa4 <__subdf3+0x82c>
  806a48:	1808d0fa 	srli	r4,r3,3
  806a4c:	8822d0fa 	srli	r17,r17,3
  806a50:	1806977a 	slli	r3,r3,29
  806a54:	2080022c 	andhi	r2,r4,8
  806a58:	1c62b03a 	or	r17,r3,r17
  806a5c:	10000726 	beq	r2,zero,806a7c <__subdf3+0x804>
  806a60:	2812d0fa 	srli	r9,r5,3
  806a64:	4880022c 	andhi	r2,r9,8
  806a68:	1000041e 	bne	r2,zero,806a7c <__subdf3+0x804>
  806a6c:	300cd0fa 	srli	r6,r6,3
  806a70:	2804977a 	slli	r2,r5,29
  806a74:	4809883a 	mov	r4,r9
  806a78:	11a2b03a 	or	r17,r2,r6
  806a7c:	8806d77a 	srli	r3,r17,29
  806a80:	200890fa 	slli	r4,r4,3
  806a84:	882290fa 	slli	r17,r17,3
  806a88:	3825883a 	mov	r18,r7
  806a8c:	1906b03a 	or	r3,r3,r4
  806a90:	0401ffc4 	movi	r16,2047
  806a94:	003e1906 	br	8062fc <__alt_mem_onchip_mem+0xff7fe2fc>
  806a98:	000b883a 	mov	r5,zero
  806a9c:	0005883a 	mov	r2,zero
  806aa0:	003e2e06 	br	80635c <__alt_mem_onchip_mem+0xff7fe35c>
  806aa4:	0401ffc4 	movi	r16,2047
  806aa8:	003e1406 	br	8062fc <__alt_mem_onchip_mem+0xff7fe2fc>
  806aac:	0005883a 	mov	r2,zero
  806ab0:	003f7506 	br	806888 <__alt_mem_onchip_mem+0xff7fe888>
  806ab4:	0005883a 	mov	r2,zero
  806ab8:	0009883a 	mov	r4,zero
  806abc:	003e7806 	br	8064a0 <__alt_mem_onchip_mem+0xff7fe4a0>
  806ac0:	123ff804 	addi	r8,r2,-32
  806ac4:	01000804 	movi	r4,32
  806ac8:	1a10d83a 	srl	r8,r3,r8
  806acc:	11002526 	beq	r2,r4,806b64 <__subdf3+0x8ec>
  806ad0:	01001004 	movi	r4,64
  806ad4:	2085c83a 	sub	r2,r4,r2
  806ad8:	1884983a 	sll	r2,r3,r2
  806adc:	1444b03a 	or	r2,r2,r17
  806ae0:	1004c03a 	cmpne	r2,r2,zero
  806ae4:	40a2b03a 	or	r17,r8,r2
  806ae8:	0005883a 	mov	r2,zero
  806aec:	003f1606 	br	806748 <__alt_mem_onchip_mem+0xff7fe748>
  806af0:	02000434 	movhi	r8,16
  806af4:	0009883a 	mov	r4,zero
  806af8:	423fffc4 	addi	r8,r8,-1
  806afc:	00bfffc4 	movi	r2,-1
  806b00:	0401ffc4 	movi	r16,2047
  806b04:	003e6606 	br	8064a0 <__alt_mem_onchip_mem+0xff7fe4a0>
  806b08:	1c62b03a 	or	r17,r3,r17
  806b0c:	8822c03a 	cmpne	r17,r17,zero
  806b10:	0005883a 	mov	r2,zero
  806b14:	003f9906 	br	80697c <__alt_mem_onchip_mem+0xff7fe97c>
  806b18:	2807883a 	mov	r3,r5
  806b1c:	3023883a 	mov	r17,r6
  806b20:	0401ffc4 	movi	r16,2047
  806b24:	003df506 	br	8062fc <__alt_mem_onchip_mem+0xff7fe2fc>
  806b28:	2807883a 	mov	r3,r5
  806b2c:	3023883a 	mov	r17,r6
  806b30:	003df206 	br	8062fc <__alt_mem_onchip_mem+0xff7fe2fc>
  806b34:	123ff804 	addi	r8,r2,-32
  806b38:	01000804 	movi	r4,32
  806b3c:	1a10d83a 	srl	r8,r3,r8
  806b40:	11000a26 	beq	r2,r4,806b6c <__subdf3+0x8f4>
  806b44:	01001004 	movi	r4,64
  806b48:	2085c83a 	sub	r2,r4,r2
  806b4c:	1884983a 	sll	r2,r3,r2
  806b50:	1444b03a 	or	r2,r2,r17
  806b54:	1004c03a 	cmpne	r2,r2,zero
  806b58:	40a2b03a 	or	r17,r8,r2
  806b5c:	0005883a 	mov	r2,zero
  806b60:	003f8606 	br	80697c <__alt_mem_onchip_mem+0xff7fe97c>
  806b64:	0005883a 	mov	r2,zero
  806b68:	003fdc06 	br	806adc <__alt_mem_onchip_mem+0xff7feadc>
  806b6c:	0005883a 	mov	r2,zero
  806b70:	003ff706 	br	806b50 <__alt_mem_onchip_mem+0xff7feb50>

00806b74 <__floatsidf>:
  806b74:	defffd04 	addi	sp,sp,-12
  806b78:	dfc00215 	stw	ra,8(sp)
  806b7c:	dc400115 	stw	r17,4(sp)
  806b80:	dc000015 	stw	r16,0(sp)
  806b84:	20002b26 	beq	r4,zero,806c34 <__floatsidf+0xc0>
  806b88:	2023883a 	mov	r17,r4
  806b8c:	2020d7fa 	srli	r16,r4,31
  806b90:	20002d16 	blt	r4,zero,806c48 <__floatsidf+0xd4>
  806b94:	8809883a 	mov	r4,r17
  806b98:	0806cf80 	call	806cf8 <__clzsi2>
  806b9c:	01410784 	movi	r5,1054
  806ba0:	288bc83a 	sub	r5,r5,r2
  806ba4:	01010cc4 	movi	r4,1075
  806ba8:	2149c83a 	sub	r4,r4,r5
  806bac:	00c007c4 	movi	r3,31
  806bb0:	1900160e 	bge	r3,r4,806c0c <__floatsidf+0x98>
  806bb4:	00c104c4 	movi	r3,1043
  806bb8:	1947c83a 	sub	r3,r3,r5
  806bbc:	88c6983a 	sll	r3,r17,r3
  806bc0:	00800434 	movhi	r2,16
  806bc4:	10bfffc4 	addi	r2,r2,-1
  806bc8:	1886703a 	and	r3,r3,r2
  806bcc:	2941ffcc 	andi	r5,r5,2047
  806bd0:	800d883a 	mov	r6,r16
  806bd4:	0005883a 	mov	r2,zero
  806bd8:	280a953a 	slli	r5,r5,20
  806bdc:	31803fcc 	andi	r6,r6,255
  806be0:	01000434 	movhi	r4,16
  806be4:	300c97fa 	slli	r6,r6,31
  806be8:	213fffc4 	addi	r4,r4,-1
  806bec:	1906703a 	and	r3,r3,r4
  806bf0:	1946b03a 	or	r3,r3,r5
  806bf4:	1986b03a 	or	r3,r3,r6
  806bf8:	dfc00217 	ldw	ra,8(sp)
  806bfc:	dc400117 	ldw	r17,4(sp)
  806c00:	dc000017 	ldw	r16,0(sp)
  806c04:	dec00304 	addi	sp,sp,12
  806c08:	f800283a 	ret
  806c0c:	00c002c4 	movi	r3,11
  806c10:	1887c83a 	sub	r3,r3,r2
  806c14:	88c6d83a 	srl	r3,r17,r3
  806c18:	8904983a 	sll	r2,r17,r4
  806c1c:	01000434 	movhi	r4,16
  806c20:	213fffc4 	addi	r4,r4,-1
  806c24:	2941ffcc 	andi	r5,r5,2047
  806c28:	1906703a 	and	r3,r3,r4
  806c2c:	800d883a 	mov	r6,r16
  806c30:	003fe906 	br	806bd8 <__alt_mem_onchip_mem+0xff7febd8>
  806c34:	000d883a 	mov	r6,zero
  806c38:	000b883a 	mov	r5,zero
  806c3c:	0007883a 	mov	r3,zero
  806c40:	0005883a 	mov	r2,zero
  806c44:	003fe406 	br	806bd8 <__alt_mem_onchip_mem+0xff7febd8>
  806c48:	0123c83a 	sub	r17,zero,r4
  806c4c:	003fd106 	br	806b94 <__alt_mem_onchip_mem+0xff7feb94>

00806c50 <__floatunsidf>:
  806c50:	defffe04 	addi	sp,sp,-8
  806c54:	dc000015 	stw	r16,0(sp)
  806c58:	dfc00115 	stw	ra,4(sp)
  806c5c:	2021883a 	mov	r16,r4
  806c60:	20002226 	beq	r4,zero,806cec <__floatunsidf+0x9c>
  806c64:	0806cf80 	call	806cf8 <__clzsi2>
  806c68:	01010784 	movi	r4,1054
  806c6c:	2089c83a 	sub	r4,r4,r2
  806c70:	01810cc4 	movi	r6,1075
  806c74:	310dc83a 	sub	r6,r6,r4
  806c78:	00c007c4 	movi	r3,31
  806c7c:	1980120e 	bge	r3,r6,806cc8 <__floatunsidf+0x78>
  806c80:	00c104c4 	movi	r3,1043
  806c84:	1907c83a 	sub	r3,r3,r4
  806c88:	80ca983a 	sll	r5,r16,r3
  806c8c:	00800434 	movhi	r2,16
  806c90:	10bfffc4 	addi	r2,r2,-1
  806c94:	2101ffcc 	andi	r4,r4,2047
  806c98:	0021883a 	mov	r16,zero
  806c9c:	288a703a 	and	r5,r5,r2
  806ca0:	2008953a 	slli	r4,r4,20
  806ca4:	00c00434 	movhi	r3,16
  806ca8:	18ffffc4 	addi	r3,r3,-1
  806cac:	28c6703a 	and	r3,r5,r3
  806cb0:	8005883a 	mov	r2,r16
  806cb4:	1906b03a 	or	r3,r3,r4
  806cb8:	dfc00117 	ldw	ra,4(sp)
  806cbc:	dc000017 	ldw	r16,0(sp)
  806cc0:	dec00204 	addi	sp,sp,8
  806cc4:	f800283a 	ret
  806cc8:	00c002c4 	movi	r3,11
  806ccc:	188bc83a 	sub	r5,r3,r2
  806cd0:	814ad83a 	srl	r5,r16,r5
  806cd4:	00c00434 	movhi	r3,16
  806cd8:	18ffffc4 	addi	r3,r3,-1
  806cdc:	81a0983a 	sll	r16,r16,r6
  806ce0:	2101ffcc 	andi	r4,r4,2047
  806ce4:	28ca703a 	and	r5,r5,r3
  806ce8:	003fed06 	br	806ca0 <__alt_mem_onchip_mem+0xff7feca0>
  806cec:	0009883a 	mov	r4,zero
  806cf0:	000b883a 	mov	r5,zero
  806cf4:	003fea06 	br	806ca0 <__alt_mem_onchip_mem+0xff7feca0>

00806cf8 <__clzsi2>:
  806cf8:	00bfffd4 	movui	r2,65535
  806cfc:	11000536 	bltu	r2,r4,806d14 <__clzsi2+0x1c>
  806d00:	00803fc4 	movi	r2,255
  806d04:	11000f36 	bltu	r2,r4,806d44 <__clzsi2+0x4c>
  806d08:	00800804 	movi	r2,32
  806d0c:	0007883a 	mov	r3,zero
  806d10:	00000506 	br	806d28 <__clzsi2+0x30>
  806d14:	00804034 	movhi	r2,256
  806d18:	10bfffc4 	addi	r2,r2,-1
  806d1c:	11000c2e 	bgeu	r2,r4,806d50 <__clzsi2+0x58>
  806d20:	00800204 	movi	r2,8
  806d24:	00c00604 	movi	r3,24
  806d28:	20c8d83a 	srl	r4,r4,r3
  806d2c:	00c02074 	movhi	r3,129
  806d30:	18d6a804 	addi	r3,r3,23200
  806d34:	1909883a 	add	r4,r3,r4
  806d38:	20c00003 	ldbu	r3,0(r4)
  806d3c:	10c5c83a 	sub	r2,r2,r3
  806d40:	f800283a 	ret
  806d44:	00800604 	movi	r2,24
  806d48:	00c00204 	movi	r3,8
  806d4c:	003ff606 	br	806d28 <__alt_mem_onchip_mem+0xff7fed28>
  806d50:	00800404 	movi	r2,16
  806d54:	1007883a 	mov	r3,r2
  806d58:	003ff306 	br	806d28 <__alt_mem_onchip_mem+0xff7fed28>

00806d5c <_printf_r>:
  806d5c:	defffd04 	addi	sp,sp,-12
  806d60:	2805883a 	mov	r2,r5
  806d64:	dfc00015 	stw	ra,0(sp)
  806d68:	d9800115 	stw	r6,4(sp)
  806d6c:	d9c00215 	stw	r7,8(sp)
  806d70:	21400217 	ldw	r5,8(r4)
  806d74:	d9c00104 	addi	r7,sp,4
  806d78:	100d883a 	mov	r6,r2
  806d7c:	0806dc80 	call	806dc8 <___vfprintf_internal_r>
  806d80:	dfc00017 	ldw	ra,0(sp)
  806d84:	dec00304 	addi	sp,sp,12
  806d88:	f800283a 	ret

00806d8c <printf>:
  806d8c:	defffc04 	addi	sp,sp,-16
  806d90:	dfc00015 	stw	ra,0(sp)
  806d94:	d9400115 	stw	r5,4(sp)
  806d98:	d9800215 	stw	r6,8(sp)
  806d9c:	d9c00315 	stw	r7,12(sp)
  806da0:	00802074 	movhi	r2,129
  806da4:	109f3004 	addi	r2,r2,31936
  806da8:	10800017 	ldw	r2,0(r2)
  806dac:	200b883a 	mov	r5,r4
  806db0:	d9800104 	addi	r6,sp,4
  806db4:	11000217 	ldw	r4,8(r2)
  806db8:	0808fc00 	call	808fc0 <__vfprintf_internal>
  806dbc:	dfc00017 	ldw	ra,0(sp)
  806dc0:	dec00404 	addi	sp,sp,16
  806dc4:	f800283a 	ret

00806dc8 <___vfprintf_internal_r>:
  806dc8:	deffb804 	addi	sp,sp,-288
  806dcc:	dfc04715 	stw	ra,284(sp)
  806dd0:	ddc04515 	stw	r23,276(sp)
  806dd4:	dd404315 	stw	r21,268(sp)
  806dd8:	d9002c15 	stw	r4,176(sp)
  806ddc:	282f883a 	mov	r23,r5
  806de0:	302b883a 	mov	r21,r6
  806de4:	d9c02d15 	stw	r7,180(sp)
  806de8:	df004615 	stw	fp,280(sp)
  806dec:	dd804415 	stw	r22,272(sp)
  806df0:	dd004215 	stw	r20,264(sp)
  806df4:	dcc04115 	stw	r19,260(sp)
  806df8:	dc804015 	stw	r18,256(sp)
  806dfc:	dc403f15 	stw	r17,252(sp)
  806e00:	dc003e15 	stw	r16,248(sp)
  806e04:	080b7240 	call	80b724 <_localeconv_r>
  806e08:	10800017 	ldw	r2,0(r2)
  806e0c:	1009883a 	mov	r4,r2
  806e10:	d8803415 	stw	r2,208(sp)
  806e14:	080d74c0 	call	80d74c <strlen>
  806e18:	d8803715 	stw	r2,220(sp)
  806e1c:	d8802c17 	ldw	r2,176(sp)
  806e20:	10000226 	beq	r2,zero,806e2c <___vfprintf_internal_r+0x64>
  806e24:	10800e17 	ldw	r2,56(r2)
  806e28:	1000f926 	beq	r2,zero,807210 <___vfprintf_internal_r+0x448>
  806e2c:	b880030b 	ldhu	r2,12(r23)
  806e30:	10c8000c 	andi	r3,r2,8192
  806e34:	1800061e 	bne	r3,zero,806e50 <___vfprintf_internal_r+0x88>
  806e38:	b9001917 	ldw	r4,100(r23)
  806e3c:	00f7ffc4 	movi	r3,-8193
  806e40:	10880014 	ori	r2,r2,8192
  806e44:	20c6703a 	and	r3,r4,r3
  806e48:	b880030d 	sth	r2,12(r23)
  806e4c:	b8c01915 	stw	r3,100(r23)
  806e50:	10c0020c 	andi	r3,r2,8
  806e54:	1800c126 	beq	r3,zero,80715c <___vfprintf_internal_r+0x394>
  806e58:	b8c00417 	ldw	r3,16(r23)
  806e5c:	1800bf26 	beq	r3,zero,80715c <___vfprintf_internal_r+0x394>
  806e60:	1080068c 	andi	r2,r2,26
  806e64:	00c00284 	movi	r3,10
  806e68:	10c0c426 	beq	r2,r3,80717c <___vfprintf_internal_r+0x3b4>
  806e6c:	d8c00404 	addi	r3,sp,16
  806e70:	05002074 	movhi	r20,129
  806e74:	d9001e04 	addi	r4,sp,120
  806e78:	a516f884 	addi	r20,r20,23522
  806e7c:	d8c01e15 	stw	r3,120(sp)
  806e80:	d8002015 	stw	zero,128(sp)
  806e84:	d8001f15 	stw	zero,124(sp)
  806e88:	d8003315 	stw	zero,204(sp)
  806e8c:	d8003615 	stw	zero,216(sp)
  806e90:	d8003815 	stw	zero,224(sp)
  806e94:	1811883a 	mov	r8,r3
  806e98:	d8003915 	stw	zero,228(sp)
  806e9c:	d8003a15 	stw	zero,232(sp)
  806ea0:	d8002f15 	stw	zero,188(sp)
  806ea4:	d9002815 	stw	r4,160(sp)
  806ea8:	a8800007 	ldb	r2,0(r21)
  806eac:	10027b26 	beq	r2,zero,80789c <___vfprintf_internal_r+0xad4>
  806eb0:	00c00944 	movi	r3,37
  806eb4:	a821883a 	mov	r16,r21
  806eb8:	10c0021e 	bne	r2,r3,806ec4 <___vfprintf_internal_r+0xfc>
  806ebc:	00001406 	br	806f10 <___vfprintf_internal_r+0x148>
  806ec0:	10c00326 	beq	r2,r3,806ed0 <___vfprintf_internal_r+0x108>
  806ec4:	84000044 	addi	r16,r16,1
  806ec8:	80800007 	ldb	r2,0(r16)
  806ecc:	103ffc1e 	bne	r2,zero,806ec0 <__alt_mem_onchip_mem+0xff7feec0>
  806ed0:	8563c83a 	sub	r17,r16,r21
  806ed4:	88000e26 	beq	r17,zero,806f10 <___vfprintf_internal_r+0x148>
  806ed8:	d8c02017 	ldw	r3,128(sp)
  806edc:	d8801f17 	ldw	r2,124(sp)
  806ee0:	45400015 	stw	r21,0(r8)
  806ee4:	1c47883a 	add	r3,r3,r17
  806ee8:	10800044 	addi	r2,r2,1
  806eec:	d8c02015 	stw	r3,128(sp)
  806ef0:	44400115 	stw	r17,4(r8)
  806ef4:	d8801f15 	stw	r2,124(sp)
  806ef8:	00c001c4 	movi	r3,7
  806efc:	1880a716 	blt	r3,r2,80719c <___vfprintf_internal_r+0x3d4>
  806f00:	42000204 	addi	r8,r8,8
  806f04:	d9402f17 	ldw	r5,188(sp)
  806f08:	2c4b883a 	add	r5,r5,r17
  806f0c:	d9402f15 	stw	r5,188(sp)
  806f10:	80800007 	ldb	r2,0(r16)
  806f14:	1000a826 	beq	r2,zero,8071b8 <___vfprintf_internal_r+0x3f0>
  806f18:	84400047 	ldb	r17,1(r16)
  806f1c:	00bfffc4 	movi	r2,-1
  806f20:	85400044 	addi	r21,r16,1
  806f24:	d8002785 	stb	zero,158(sp)
  806f28:	0007883a 	mov	r3,zero
  806f2c:	000f883a 	mov	r7,zero
  806f30:	d8802915 	stw	r2,164(sp)
  806f34:	d8003115 	stw	zero,196(sp)
  806f38:	0025883a 	mov	r18,zero
  806f3c:	01401604 	movi	r5,88
  806f40:	01800244 	movi	r6,9
  806f44:	02800a84 	movi	r10,42
  806f48:	02401b04 	movi	r9,108
  806f4c:	ad400044 	addi	r21,r21,1
  806f50:	88bff804 	addi	r2,r17,-32
  806f54:	28830436 	bltu	r5,r2,807b68 <___vfprintf_internal_r+0xda0>
  806f58:	100490ba 	slli	r2,r2,2
  806f5c:	01002034 	movhi	r4,128
  806f60:	211bdc04 	addi	r4,r4,28528
  806f64:	1105883a 	add	r2,r2,r4
  806f68:	10800017 	ldw	r2,0(r2)
  806f6c:	1000683a 	jmp	r2
  806f70:	00807a88 	cmpgei	r2,zero,490
  806f74:	00807b68 	cmpgeui	r2,zero,493
  806f78:	00807b68 	cmpgeui	r2,zero,493
  806f7c:	00807aa8 	cmpgeui	r2,zero,490
  806f80:	00807b68 	cmpgeui	r2,zero,493
  806f84:	00807b68 	cmpgeui	r2,zero,493
  806f88:	00807b68 	cmpgeui	r2,zero,493
  806f8c:	00807b68 	cmpgeui	r2,zero,493
  806f90:	00807b68 	cmpgeui	r2,zero,493
  806f94:	00807b68 	cmpgeui	r2,zero,493
  806f98:	0080721c 	xori	r2,zero,456
  806f9c:	008079c4 	movi	r2,487
  806fa0:	00807b68 	cmpgeui	r2,zero,493
  806fa4:	008070e4 	muli	r2,zero,451
  806fa8:	00807244 	movi	r2,457
  806fac:	00807b68 	cmpgeui	r2,zero,493
  806fb0:	00807284 	movi	r2,458
  806fb4:	00807290 	cmplti	r2,zero,458
  806fb8:	00807290 	cmplti	r2,zero,458
  806fbc:	00807290 	cmplti	r2,zero,458
  806fc0:	00807290 	cmplti	r2,zero,458
  806fc4:	00807290 	cmplti	r2,zero,458
  806fc8:	00807290 	cmplti	r2,zero,458
  806fcc:	00807290 	cmplti	r2,zero,458
  806fd0:	00807290 	cmplti	r2,zero,458
  806fd4:	00807290 	cmplti	r2,zero,458
  806fd8:	00807b68 	cmpgeui	r2,zero,493
  806fdc:	00807b68 	cmpgeui	r2,zero,493
  806fe0:	00807b68 	cmpgeui	r2,zero,493
  806fe4:	00807b68 	cmpgeui	r2,zero,493
  806fe8:	00807b68 	cmpgeui	r2,zero,493
  806fec:	00807b68 	cmpgeui	r2,zero,493
  806ff0:	00807b68 	cmpgeui	r2,zero,493
  806ff4:	00807b68 	cmpgeui	r2,zero,493
  806ff8:	00807b68 	cmpgeui	r2,zero,493
  806ffc:	00807b68 	cmpgeui	r2,zero,493
  807000:	008072c4 	movi	r2,459
  807004:	00807380 	call	80738 <__alt_mem_sdram-0x77f8c8>
  807008:	00807b68 	cmpgeui	r2,zero,493
  80700c:	00807380 	call	80738 <__alt_mem_sdram-0x77f8c8>
  807010:	00807b68 	cmpgeui	r2,zero,493
  807014:	00807b68 	cmpgeui	r2,zero,493
  807018:	00807b68 	cmpgeui	r2,zero,493
  80701c:	00807b68 	cmpgeui	r2,zero,493
  807020:	00807420 	cmpeqi	r2,zero,464
  807024:	00807b68 	cmpgeui	r2,zero,493
  807028:	00807b68 	cmpgeui	r2,zero,493
  80702c:	0080742c 	andhi	r2,zero,464
  807030:	00807b68 	cmpgeui	r2,zero,493
  807034:	00807b68 	cmpgeui	r2,zero,493
  807038:	00807b68 	cmpgeui	r2,zero,493
  80703c:	00807b68 	cmpgeui	r2,zero,493
  807040:	00807b68 	cmpgeui	r2,zero,493
  807044:	008078a4 	muli	r2,zero,482
  807048:	00807b68 	cmpgeui	r2,zero,493
  80704c:	00807b68 	cmpgeui	r2,zero,493
  807050:	00807904 	movi	r2,484
  807054:	00807b68 	cmpgeui	r2,zero,493
  807058:	00807b68 	cmpgeui	r2,zero,493
  80705c:	00807b68 	cmpgeui	r2,zero,493
  807060:	00807b68 	cmpgeui	r2,zero,493
  807064:	00807b68 	cmpgeui	r2,zero,493
  807068:	00807b68 	cmpgeui	r2,zero,493
  80706c:	00807b68 	cmpgeui	r2,zero,493
  807070:	00807b68 	cmpgeui	r2,zero,493
  807074:	00807b68 	cmpgeui	r2,zero,493
  807078:	00807b68 	cmpgeui	r2,zero,493
  80707c:	00807b14 	movui	r2,492
  807080:	00807ab4 	movhi	r2,490
  807084:	00807380 	call	80738 <__alt_mem_sdram-0x77f8c8>
  807088:	00807380 	call	80738 <__alt_mem_sdram-0x77f8c8>
  80708c:	00807380 	call	80738 <__alt_mem_sdram-0x77f8c8>
  807090:	00807ac4 	movi	r2,491
  807094:	00807ab4 	movhi	r2,490
  807098:	00807b68 	cmpgeui	r2,zero,493
  80709c:	00807b68 	cmpgeui	r2,zero,493
  8070a0:	00807ad0 	cmplti	r2,zero,491
  8070a4:	00807b68 	cmpgeui	r2,zero,493
  8070a8:	00807ae0 	cmpeqi	r2,zero,491
  8070ac:	008079b4 	movhi	r2,486
  8070b0:	008070f0 	cmpltui	r2,zero,451
  8070b4:	008079d4 	movui	r2,487
  8070b8:	00807b68 	cmpgeui	r2,zero,493
  8070bc:	008079e0 	cmpeqi	r2,zero,487
  8070c0:	00807b68 	cmpgeui	r2,zero,493
  8070c4:	00807a3c 	xorhi	r2,zero,488
  8070c8:	00807b68 	cmpgeui	r2,zero,493
  8070cc:	00807b68 	cmpgeui	r2,zero,493
  8070d0:	00807a4c 	andi	r2,zero,489
  8070d4:	d9003117 	ldw	r4,196(sp)
  8070d8:	d8802d15 	stw	r2,180(sp)
  8070dc:	0109c83a 	sub	r4,zero,r4
  8070e0:	d9003115 	stw	r4,196(sp)
  8070e4:	94800114 	ori	r18,r18,4
  8070e8:	ac400007 	ldb	r17,0(r21)
  8070ec:	003f9706 	br	806f4c <__alt_mem_onchip_mem+0xff7fef4c>
  8070f0:	00800c04 	movi	r2,48
  8070f4:	d9002d17 	ldw	r4,180(sp)
  8070f8:	d9402917 	ldw	r5,164(sp)
  8070fc:	d8802705 	stb	r2,156(sp)
  807100:	00801e04 	movi	r2,120
  807104:	d8802745 	stb	r2,157(sp)
  807108:	d8002785 	stb	zero,158(sp)
  80710c:	20c00104 	addi	r3,r4,4
  807110:	24c00017 	ldw	r19,0(r4)
  807114:	002d883a 	mov	r22,zero
  807118:	90800094 	ori	r2,r18,2
  80711c:	28029a16 	blt	r5,zero,807b88 <___vfprintf_internal_r+0xdc0>
  807120:	00bfdfc4 	movi	r2,-129
  807124:	90a4703a 	and	r18,r18,r2
  807128:	d8c02d15 	stw	r3,180(sp)
  80712c:	94800094 	ori	r18,r18,2
  807130:	9802871e 	bne	r19,zero,807b50 <___vfprintf_internal_r+0xd88>
  807134:	00802074 	movhi	r2,129
  807138:	1096f104 	addi	r2,r2,23492
  80713c:	d8803915 	stw	r2,228(sp)
  807140:	04401e04 	movi	r17,120
  807144:	d8802917 	ldw	r2,164(sp)
  807148:	0039883a 	mov	fp,zero
  80714c:	1001e926 	beq	r2,zero,8078f4 <___vfprintf_internal_r+0xb2c>
  807150:	0027883a 	mov	r19,zero
  807154:	002d883a 	mov	r22,zero
  807158:	00020506 	br	807970 <___vfprintf_internal_r+0xba8>
  80715c:	d9002c17 	ldw	r4,176(sp)
  807160:	b80b883a 	mov	r5,r23
  807164:	08090980 	call	809098 <__swsetup_r>
  807168:	1005ac1e 	bne	r2,zero,80881c <___vfprintf_internal_r+0x1a54>
  80716c:	b880030b 	ldhu	r2,12(r23)
  807170:	00c00284 	movi	r3,10
  807174:	1080068c 	andi	r2,r2,26
  807178:	10ff3c1e 	bne	r2,r3,806e6c <__alt_mem_onchip_mem+0xff7fee6c>
  80717c:	b880038f 	ldh	r2,14(r23)
  807180:	103f3a16 	blt	r2,zero,806e6c <__alt_mem_onchip_mem+0xff7fee6c>
  807184:	d9c02d17 	ldw	r7,180(sp)
  807188:	d9002c17 	ldw	r4,176(sp)
  80718c:	a80d883a 	mov	r6,r21
  807190:	b80b883a 	mov	r5,r23
  807194:	0808fdc0 	call	808fdc <__sbprintf>
  807198:	00001106 	br	8071e0 <___vfprintf_internal_r+0x418>
  80719c:	d9002c17 	ldw	r4,176(sp)
  8071a0:	d9801e04 	addi	r6,sp,120
  8071a4:	b80b883a 	mov	r5,r23
  8071a8:	080d8e00 	call	80d8e0 <__sprint_r>
  8071ac:	1000081e 	bne	r2,zero,8071d0 <___vfprintf_internal_r+0x408>
  8071b0:	da000404 	addi	r8,sp,16
  8071b4:	003f5306 	br	806f04 <__alt_mem_onchip_mem+0xff7fef04>
  8071b8:	d8802017 	ldw	r2,128(sp)
  8071bc:	10000426 	beq	r2,zero,8071d0 <___vfprintf_internal_r+0x408>
  8071c0:	d9002c17 	ldw	r4,176(sp)
  8071c4:	d9801e04 	addi	r6,sp,120
  8071c8:	b80b883a 	mov	r5,r23
  8071cc:	080d8e00 	call	80d8e0 <__sprint_r>
  8071d0:	b880030b 	ldhu	r2,12(r23)
  8071d4:	1080100c 	andi	r2,r2,64
  8071d8:	1005901e 	bne	r2,zero,80881c <___vfprintf_internal_r+0x1a54>
  8071dc:	d8802f17 	ldw	r2,188(sp)
  8071e0:	dfc04717 	ldw	ra,284(sp)
  8071e4:	df004617 	ldw	fp,280(sp)
  8071e8:	ddc04517 	ldw	r23,276(sp)
  8071ec:	dd804417 	ldw	r22,272(sp)
  8071f0:	dd404317 	ldw	r21,268(sp)
  8071f4:	dd004217 	ldw	r20,264(sp)
  8071f8:	dcc04117 	ldw	r19,260(sp)
  8071fc:	dc804017 	ldw	r18,256(sp)
  807200:	dc403f17 	ldw	r17,252(sp)
  807204:	dc003e17 	ldw	r16,248(sp)
  807208:	dec04804 	addi	sp,sp,288
  80720c:	f800283a 	ret
  807210:	d9002c17 	ldw	r4,176(sp)
  807214:	080b06c0 	call	80b06c <__sinit>
  807218:	003f0406 	br	806e2c <__alt_mem_onchip_mem+0xff7fee2c>
  80721c:	d8802d17 	ldw	r2,180(sp)
  807220:	d9002d17 	ldw	r4,180(sp)
  807224:	10800017 	ldw	r2,0(r2)
  807228:	d8803115 	stw	r2,196(sp)
  80722c:	20800104 	addi	r2,r4,4
  807230:	d9003117 	ldw	r4,196(sp)
  807234:	203fa716 	blt	r4,zero,8070d4 <__alt_mem_onchip_mem+0xff7ff0d4>
  807238:	d8802d15 	stw	r2,180(sp)
  80723c:	ac400007 	ldb	r17,0(r21)
  807240:	003f4206 	br	806f4c <__alt_mem_onchip_mem+0xff7fef4c>
  807244:	ac400007 	ldb	r17,0(r21)
  807248:	aac00044 	addi	r11,r21,1
  80724c:	8a872826 	beq	r17,r10,808ef0 <___vfprintf_internal_r+0x2128>
  807250:	88bff404 	addi	r2,r17,-48
  807254:	0009883a 	mov	r4,zero
  807258:	30867d36 	bltu	r6,r2,808c50 <___vfprintf_internal_r+0x1e88>
  80725c:	5c400007 	ldb	r17,0(r11)
  807260:	210002a4 	muli	r4,r4,10
  807264:	5d400044 	addi	r21,r11,1
  807268:	a817883a 	mov	r11,r21
  80726c:	2089883a 	add	r4,r4,r2
  807270:	88bff404 	addi	r2,r17,-48
  807274:	30bff92e 	bgeu	r6,r2,80725c <__alt_mem_onchip_mem+0xff7ff25c>
  807278:	2005c916 	blt	r4,zero,8089a0 <___vfprintf_internal_r+0x1bd8>
  80727c:	d9002915 	stw	r4,164(sp)
  807280:	003f3306 	br	806f50 <__alt_mem_onchip_mem+0xff7fef50>
  807284:	94802014 	ori	r18,r18,128
  807288:	ac400007 	ldb	r17,0(r21)
  80728c:	003f2f06 	br	806f4c <__alt_mem_onchip_mem+0xff7fef4c>
  807290:	a809883a 	mov	r4,r21
  807294:	d8003115 	stw	zero,196(sp)
  807298:	88bff404 	addi	r2,r17,-48
  80729c:	0017883a 	mov	r11,zero
  8072a0:	24400007 	ldb	r17,0(r4)
  8072a4:	5ac002a4 	muli	r11,r11,10
  8072a8:	ad400044 	addi	r21,r21,1
  8072ac:	a809883a 	mov	r4,r21
  8072b0:	12d7883a 	add	r11,r2,r11
  8072b4:	88bff404 	addi	r2,r17,-48
  8072b8:	30bff92e 	bgeu	r6,r2,8072a0 <__alt_mem_onchip_mem+0xff7ff2a0>
  8072bc:	dac03115 	stw	r11,196(sp)
  8072c0:	003f2306 	br	806f50 <__alt_mem_onchip_mem+0xff7fef50>
  8072c4:	18c03fcc 	andi	r3,r3,255
  8072c8:	18072b1e 	bne	r3,zero,808f78 <___vfprintf_internal_r+0x21b0>
  8072cc:	94800414 	ori	r18,r18,16
  8072d0:	9080080c 	andi	r2,r18,32
  8072d4:	10037b26 	beq	r2,zero,8080c4 <___vfprintf_internal_r+0x12fc>
  8072d8:	d9402d17 	ldw	r5,180(sp)
  8072dc:	28800117 	ldw	r2,4(r5)
  8072e0:	2cc00017 	ldw	r19,0(r5)
  8072e4:	29400204 	addi	r5,r5,8
  8072e8:	d9402d15 	stw	r5,180(sp)
  8072ec:	102d883a 	mov	r22,r2
  8072f0:	10044b16 	blt	r2,zero,808420 <___vfprintf_internal_r+0x1658>
  8072f4:	d9402917 	ldw	r5,164(sp)
  8072f8:	df002783 	ldbu	fp,158(sp)
  8072fc:	2803bc16 	blt	r5,zero,8081f0 <___vfprintf_internal_r+0x1428>
  807300:	00ffdfc4 	movi	r3,-129
  807304:	9d84b03a 	or	r2,r19,r22
  807308:	90e4703a 	and	r18,r18,r3
  80730c:	10017726 	beq	r2,zero,8078ec <___vfprintf_internal_r+0xb24>
  807310:	b0038326 	beq	r22,zero,808120 <___vfprintf_internal_r+0x1358>
  807314:	dc402a15 	stw	r17,168(sp)
  807318:	dc001e04 	addi	r16,sp,120
  80731c:	b023883a 	mov	r17,r22
  807320:	402d883a 	mov	r22,r8
  807324:	9809883a 	mov	r4,r19
  807328:	880b883a 	mov	r5,r17
  80732c:	01800284 	movi	r6,10
  807330:	000f883a 	mov	r7,zero
  807334:	08108540 	call	810854 <__umoddi3>
  807338:	10800c04 	addi	r2,r2,48
  80733c:	843fffc4 	addi	r16,r16,-1
  807340:	9809883a 	mov	r4,r19
  807344:	880b883a 	mov	r5,r17
  807348:	80800005 	stb	r2,0(r16)
  80734c:	01800284 	movi	r6,10
  807350:	000f883a 	mov	r7,zero
  807354:	08102dc0 	call	8102dc <__udivdi3>
  807358:	1027883a 	mov	r19,r2
  80735c:	10c4b03a 	or	r2,r2,r3
  807360:	1823883a 	mov	r17,r3
  807364:	103fef1e 	bne	r2,zero,807324 <__alt_mem_onchip_mem+0xff7ff324>
  807368:	d8c02817 	ldw	r3,160(sp)
  80736c:	dc402a17 	ldw	r17,168(sp)
  807370:	b011883a 	mov	r8,r22
  807374:	1c07c83a 	sub	r3,r3,r16
  807378:	d8c02e15 	stw	r3,184(sp)
  80737c:	00005906 	br	8074e4 <___vfprintf_internal_r+0x71c>
  807380:	18c03fcc 	andi	r3,r3,255
  807384:	1806fa1e 	bne	r3,zero,808f70 <___vfprintf_internal_r+0x21a8>
  807388:	9080020c 	andi	r2,r18,8
  80738c:	10048a26 	beq	r2,zero,8085b8 <___vfprintf_internal_r+0x17f0>
  807390:	d8c02d17 	ldw	r3,180(sp)
  807394:	d9002d17 	ldw	r4,180(sp)
  807398:	d9402d17 	ldw	r5,180(sp)
  80739c:	18c00017 	ldw	r3,0(r3)
  8073a0:	21000117 	ldw	r4,4(r4)
  8073a4:	29400204 	addi	r5,r5,8
  8073a8:	d8c03615 	stw	r3,216(sp)
  8073ac:	d9003815 	stw	r4,224(sp)
  8073b0:	d9402d15 	stw	r5,180(sp)
  8073b4:	d9003617 	ldw	r4,216(sp)
  8073b8:	d9403817 	ldw	r5,224(sp)
  8073bc:	da003d15 	stw	r8,244(sp)
  8073c0:	04000044 	movi	r16,1
  8073c4:	080d46c0 	call	80d46c <__fpclassifyd>
  8073c8:	da003d17 	ldw	r8,244(sp)
  8073cc:	14041f1e 	bne	r2,r16,80844c <___vfprintf_internal_r+0x1684>
  8073d0:	d9003617 	ldw	r4,216(sp)
  8073d4:	d9403817 	ldw	r5,224(sp)
  8073d8:	000d883a 	mov	r6,zero
  8073dc:	000f883a 	mov	r7,zero
  8073e0:	0805a6c0 	call	805a6c <__ledf2>
  8073e4:	da003d17 	ldw	r8,244(sp)
  8073e8:	1005be16 	blt	r2,zero,808ae4 <___vfprintf_internal_r+0x1d1c>
  8073ec:	df002783 	ldbu	fp,158(sp)
  8073f0:	008011c4 	movi	r2,71
  8073f4:	1445330e 	bge	r2,r17,8088c4 <___vfprintf_internal_r+0x1afc>
  8073f8:	04002074 	movhi	r16,129
  8073fc:	8416e904 	addi	r16,r16,23460
  807400:	00c000c4 	movi	r3,3
  807404:	00bfdfc4 	movi	r2,-129
  807408:	d8c02a15 	stw	r3,168(sp)
  80740c:	90a4703a 	and	r18,r18,r2
  807410:	d8c02e15 	stw	r3,184(sp)
  807414:	d8002915 	stw	zero,164(sp)
  807418:	d8003215 	stw	zero,200(sp)
  80741c:	00003706 	br	8074fc <___vfprintf_internal_r+0x734>
  807420:	94800214 	ori	r18,r18,8
  807424:	ac400007 	ldb	r17,0(r21)
  807428:	003ec806 	br	806f4c <__alt_mem_onchip_mem+0xff7fef4c>
  80742c:	18c03fcc 	andi	r3,r3,255
  807430:	1806db1e 	bne	r3,zero,808fa0 <___vfprintf_internal_r+0x21d8>
  807434:	94800414 	ori	r18,r18,16
  807438:	9080080c 	andi	r2,r18,32
  80743c:	1002d826 	beq	r2,zero,807fa0 <___vfprintf_internal_r+0x11d8>
  807440:	d9402d17 	ldw	r5,180(sp)
  807444:	d8c02917 	ldw	r3,164(sp)
  807448:	d8002785 	stb	zero,158(sp)
  80744c:	28800204 	addi	r2,r5,8
  807450:	2cc00017 	ldw	r19,0(r5)
  807454:	2d800117 	ldw	r22,4(r5)
  807458:	18048f16 	blt	r3,zero,808698 <___vfprintf_internal_r+0x18d0>
  80745c:	013fdfc4 	movi	r4,-129
  807460:	9d86b03a 	or	r3,r19,r22
  807464:	d8802d15 	stw	r2,180(sp)
  807468:	9124703a 	and	r18,r18,r4
  80746c:	1802d91e 	bne	r3,zero,807fd4 <___vfprintf_internal_r+0x120c>
  807470:	d8c02917 	ldw	r3,164(sp)
  807474:	0039883a 	mov	fp,zero
  807478:	1805c326 	beq	r3,zero,808b88 <___vfprintf_internal_r+0x1dc0>
  80747c:	0027883a 	mov	r19,zero
  807480:	002d883a 	mov	r22,zero
  807484:	dc001e04 	addi	r16,sp,120
  807488:	9806d0fa 	srli	r3,r19,3
  80748c:	b008977a 	slli	r4,r22,29
  807490:	b02cd0fa 	srli	r22,r22,3
  807494:	9cc001cc 	andi	r19,r19,7
  807498:	98800c04 	addi	r2,r19,48
  80749c:	843fffc4 	addi	r16,r16,-1
  8074a0:	20e6b03a 	or	r19,r4,r3
  8074a4:	80800005 	stb	r2,0(r16)
  8074a8:	9d86b03a 	or	r3,r19,r22
  8074ac:	183ff61e 	bne	r3,zero,807488 <__alt_mem_onchip_mem+0xff7ff488>
  8074b0:	90c0004c 	andi	r3,r18,1
  8074b4:	18013b26 	beq	r3,zero,8079a4 <___vfprintf_internal_r+0xbdc>
  8074b8:	10803fcc 	andi	r2,r2,255
  8074bc:	1080201c 	xori	r2,r2,128
  8074c0:	10bfe004 	addi	r2,r2,-128
  8074c4:	00c00c04 	movi	r3,48
  8074c8:	10c13626 	beq	r2,r3,8079a4 <___vfprintf_internal_r+0xbdc>
  8074cc:	80ffffc5 	stb	r3,-1(r16)
  8074d0:	d8c02817 	ldw	r3,160(sp)
  8074d4:	80bfffc4 	addi	r2,r16,-1
  8074d8:	1021883a 	mov	r16,r2
  8074dc:	1887c83a 	sub	r3,r3,r2
  8074e0:	d8c02e15 	stw	r3,184(sp)
  8074e4:	d8802e17 	ldw	r2,184(sp)
  8074e8:	d9002917 	ldw	r4,164(sp)
  8074ec:	1100010e 	bge	r2,r4,8074f4 <___vfprintf_internal_r+0x72c>
  8074f0:	2005883a 	mov	r2,r4
  8074f4:	d8802a15 	stw	r2,168(sp)
  8074f8:	d8003215 	stw	zero,200(sp)
  8074fc:	e7003fcc 	andi	fp,fp,255
  807500:	e700201c 	xori	fp,fp,128
  807504:	e73fe004 	addi	fp,fp,-128
  807508:	e0000326 	beq	fp,zero,807518 <___vfprintf_internal_r+0x750>
  80750c:	d8c02a17 	ldw	r3,168(sp)
  807510:	18c00044 	addi	r3,r3,1
  807514:	d8c02a15 	stw	r3,168(sp)
  807518:	90c0008c 	andi	r3,r18,2
  80751c:	d8c02b15 	stw	r3,172(sp)
  807520:	18000326 	beq	r3,zero,807530 <___vfprintf_internal_r+0x768>
  807524:	d8c02a17 	ldw	r3,168(sp)
  807528:	18c00084 	addi	r3,r3,2
  80752c:	d8c02a15 	stw	r3,168(sp)
  807530:	90c0210c 	andi	r3,r18,132
  807534:	d8c03015 	stw	r3,192(sp)
  807538:	1801a31e 	bne	r3,zero,807bc8 <___vfprintf_internal_r+0xe00>
  80753c:	d9003117 	ldw	r4,196(sp)
  807540:	d8c02a17 	ldw	r3,168(sp)
  807544:	20e7c83a 	sub	r19,r4,r3
  807548:	04c19f0e 	bge	zero,r19,807bc8 <___vfprintf_internal_r+0xe00>
  80754c:	02400404 	movi	r9,16
  807550:	d8c02017 	ldw	r3,128(sp)
  807554:	d8801f17 	ldw	r2,124(sp)
  807558:	4cc50d0e 	bge	r9,r19,808990 <___vfprintf_internal_r+0x1bc8>
  80755c:	01402074 	movhi	r5,129
  807560:	2956fc84 	addi	r5,r5,23538
  807564:	dc403b15 	stw	r17,236(sp)
  807568:	d9403515 	stw	r5,212(sp)
  80756c:	9823883a 	mov	r17,r19
  807570:	482d883a 	mov	r22,r9
  807574:	9027883a 	mov	r19,r18
  807578:	070001c4 	movi	fp,7
  80757c:	8025883a 	mov	r18,r16
  807580:	dc002c17 	ldw	r16,176(sp)
  807584:	00000306 	br	807594 <___vfprintf_internal_r+0x7cc>
  807588:	8c7ffc04 	addi	r17,r17,-16
  80758c:	42000204 	addi	r8,r8,8
  807590:	b440130e 	bge	r22,r17,8075e0 <___vfprintf_internal_r+0x818>
  807594:	01002074 	movhi	r4,129
  807598:	18c00404 	addi	r3,r3,16
  80759c:	10800044 	addi	r2,r2,1
  8075a0:	2116fc84 	addi	r4,r4,23538
  8075a4:	41000015 	stw	r4,0(r8)
  8075a8:	45800115 	stw	r22,4(r8)
  8075ac:	d8c02015 	stw	r3,128(sp)
  8075b0:	d8801f15 	stw	r2,124(sp)
  8075b4:	e0bff40e 	bge	fp,r2,807588 <__alt_mem_onchip_mem+0xff7ff588>
  8075b8:	d9801e04 	addi	r6,sp,120
  8075bc:	b80b883a 	mov	r5,r23
  8075c0:	8009883a 	mov	r4,r16
  8075c4:	080d8e00 	call	80d8e0 <__sprint_r>
  8075c8:	103f011e 	bne	r2,zero,8071d0 <__alt_mem_onchip_mem+0xff7ff1d0>
  8075cc:	8c7ffc04 	addi	r17,r17,-16
  8075d0:	d8c02017 	ldw	r3,128(sp)
  8075d4:	d8801f17 	ldw	r2,124(sp)
  8075d8:	da000404 	addi	r8,sp,16
  8075dc:	b47fed16 	blt	r22,r17,807594 <__alt_mem_onchip_mem+0xff7ff594>
  8075e0:	9021883a 	mov	r16,r18
  8075e4:	9825883a 	mov	r18,r19
  8075e8:	8827883a 	mov	r19,r17
  8075ec:	dc403b17 	ldw	r17,236(sp)
  8075f0:	d9403517 	ldw	r5,212(sp)
  8075f4:	98c7883a 	add	r3,r19,r3
  8075f8:	10800044 	addi	r2,r2,1
  8075fc:	41400015 	stw	r5,0(r8)
  807600:	44c00115 	stw	r19,4(r8)
  807604:	d8c02015 	stw	r3,128(sp)
  807608:	d8801f15 	stw	r2,124(sp)
  80760c:	010001c4 	movi	r4,7
  807610:	2082a316 	blt	r4,r2,8080a0 <___vfprintf_internal_r+0x12d8>
  807614:	df002787 	ldb	fp,158(sp)
  807618:	42000204 	addi	r8,r8,8
  80761c:	e0000c26 	beq	fp,zero,807650 <___vfprintf_internal_r+0x888>
  807620:	d8801f17 	ldw	r2,124(sp)
  807624:	d9002784 	addi	r4,sp,158
  807628:	18c00044 	addi	r3,r3,1
  80762c:	10800044 	addi	r2,r2,1
  807630:	41000015 	stw	r4,0(r8)
  807634:	01000044 	movi	r4,1
  807638:	41000115 	stw	r4,4(r8)
  80763c:	d8c02015 	stw	r3,128(sp)
  807640:	d8801f15 	stw	r2,124(sp)
  807644:	010001c4 	movi	r4,7
  807648:	20823c16 	blt	r4,r2,807f3c <___vfprintf_internal_r+0x1174>
  80764c:	42000204 	addi	r8,r8,8
  807650:	d8802b17 	ldw	r2,172(sp)
  807654:	10000c26 	beq	r2,zero,807688 <___vfprintf_internal_r+0x8c0>
  807658:	d8801f17 	ldw	r2,124(sp)
  80765c:	d9002704 	addi	r4,sp,156
  807660:	18c00084 	addi	r3,r3,2
  807664:	10800044 	addi	r2,r2,1
  807668:	41000015 	stw	r4,0(r8)
  80766c:	01000084 	movi	r4,2
  807670:	41000115 	stw	r4,4(r8)
  807674:	d8c02015 	stw	r3,128(sp)
  807678:	d8801f15 	stw	r2,124(sp)
  80767c:	010001c4 	movi	r4,7
  807680:	20823616 	blt	r4,r2,807f5c <___vfprintf_internal_r+0x1194>
  807684:	42000204 	addi	r8,r8,8
  807688:	d9003017 	ldw	r4,192(sp)
  80768c:	00802004 	movi	r2,128
  807690:	20819926 	beq	r4,r2,807cf8 <___vfprintf_internal_r+0xf30>
  807694:	d9402917 	ldw	r5,164(sp)
  807698:	d8802e17 	ldw	r2,184(sp)
  80769c:	28adc83a 	sub	r22,r5,r2
  8076a0:	0580310e 	bge	zero,r22,807768 <___vfprintf_internal_r+0x9a0>
  8076a4:	07000404 	movi	fp,16
  8076a8:	d8801f17 	ldw	r2,124(sp)
  8076ac:	e584140e 	bge	fp,r22,808700 <___vfprintf_internal_r+0x1938>
  8076b0:	01402074 	movhi	r5,129
  8076b4:	2956f884 	addi	r5,r5,23522
  8076b8:	dc402915 	stw	r17,164(sp)
  8076bc:	d9402b15 	stw	r5,172(sp)
  8076c0:	b023883a 	mov	r17,r22
  8076c4:	04c001c4 	movi	r19,7
  8076c8:	a82d883a 	mov	r22,r21
  8076cc:	902b883a 	mov	r21,r18
  8076d0:	8025883a 	mov	r18,r16
  8076d4:	dc002c17 	ldw	r16,176(sp)
  8076d8:	00000306 	br	8076e8 <___vfprintf_internal_r+0x920>
  8076dc:	8c7ffc04 	addi	r17,r17,-16
  8076e0:	42000204 	addi	r8,r8,8
  8076e4:	e440110e 	bge	fp,r17,80772c <___vfprintf_internal_r+0x964>
  8076e8:	18c00404 	addi	r3,r3,16
  8076ec:	10800044 	addi	r2,r2,1
  8076f0:	45000015 	stw	r20,0(r8)
  8076f4:	47000115 	stw	fp,4(r8)
  8076f8:	d8c02015 	stw	r3,128(sp)
  8076fc:	d8801f15 	stw	r2,124(sp)
  807700:	98bff60e 	bge	r19,r2,8076dc <__alt_mem_onchip_mem+0xff7ff6dc>
  807704:	d9801e04 	addi	r6,sp,120
  807708:	b80b883a 	mov	r5,r23
  80770c:	8009883a 	mov	r4,r16
  807710:	080d8e00 	call	80d8e0 <__sprint_r>
  807714:	103eae1e 	bne	r2,zero,8071d0 <__alt_mem_onchip_mem+0xff7ff1d0>
  807718:	8c7ffc04 	addi	r17,r17,-16
  80771c:	d8c02017 	ldw	r3,128(sp)
  807720:	d8801f17 	ldw	r2,124(sp)
  807724:	da000404 	addi	r8,sp,16
  807728:	e47fef16 	blt	fp,r17,8076e8 <__alt_mem_onchip_mem+0xff7ff6e8>
  80772c:	9021883a 	mov	r16,r18
  807730:	a825883a 	mov	r18,r21
  807734:	b02b883a 	mov	r21,r22
  807738:	882d883a 	mov	r22,r17
  80773c:	dc402917 	ldw	r17,164(sp)
  807740:	d9002b17 	ldw	r4,172(sp)
  807744:	1d87883a 	add	r3,r3,r22
  807748:	10800044 	addi	r2,r2,1
  80774c:	41000015 	stw	r4,0(r8)
  807750:	45800115 	stw	r22,4(r8)
  807754:	d8c02015 	stw	r3,128(sp)
  807758:	d8801f15 	stw	r2,124(sp)
  80775c:	010001c4 	movi	r4,7
  807760:	2081ee16 	blt	r4,r2,807f1c <___vfprintf_internal_r+0x1154>
  807764:	42000204 	addi	r8,r8,8
  807768:	9080400c 	andi	r2,r18,256
  80776c:	1001181e 	bne	r2,zero,807bd0 <___vfprintf_internal_r+0xe08>
  807770:	d9402e17 	ldw	r5,184(sp)
  807774:	d8801f17 	ldw	r2,124(sp)
  807778:	44000015 	stw	r16,0(r8)
  80777c:	1947883a 	add	r3,r3,r5
  807780:	10800044 	addi	r2,r2,1
  807784:	41400115 	stw	r5,4(r8)
  807788:	d8c02015 	stw	r3,128(sp)
  80778c:	d8801f15 	stw	r2,124(sp)
  807790:	010001c4 	movi	r4,7
  807794:	2081d316 	blt	r4,r2,807ee4 <___vfprintf_internal_r+0x111c>
  807798:	42000204 	addi	r8,r8,8
  80779c:	9480010c 	andi	r18,r18,4
  8077a0:	90003226 	beq	r18,zero,80786c <___vfprintf_internal_r+0xaa4>
  8077a4:	d9403117 	ldw	r5,196(sp)
  8077a8:	d8802a17 	ldw	r2,168(sp)
  8077ac:	28a1c83a 	sub	r16,r5,r2
  8077b0:	04002e0e 	bge	zero,r16,80786c <___vfprintf_internal_r+0xaa4>
  8077b4:	04400404 	movi	r17,16
  8077b8:	d8801f17 	ldw	r2,124(sp)
  8077bc:	8c04a20e 	bge	r17,r16,808a48 <___vfprintf_internal_r+0x1c80>
  8077c0:	01402074 	movhi	r5,129
  8077c4:	2956fc84 	addi	r5,r5,23538
  8077c8:	d9403515 	stw	r5,212(sp)
  8077cc:	048001c4 	movi	r18,7
  8077d0:	dcc02c17 	ldw	r19,176(sp)
  8077d4:	00000306 	br	8077e4 <___vfprintf_internal_r+0xa1c>
  8077d8:	843ffc04 	addi	r16,r16,-16
  8077dc:	42000204 	addi	r8,r8,8
  8077e0:	8c00130e 	bge	r17,r16,807830 <___vfprintf_internal_r+0xa68>
  8077e4:	01002074 	movhi	r4,129
  8077e8:	18c00404 	addi	r3,r3,16
  8077ec:	10800044 	addi	r2,r2,1
  8077f0:	2116fc84 	addi	r4,r4,23538
  8077f4:	41000015 	stw	r4,0(r8)
  8077f8:	44400115 	stw	r17,4(r8)
  8077fc:	d8c02015 	stw	r3,128(sp)
  807800:	d8801f15 	stw	r2,124(sp)
  807804:	90bff40e 	bge	r18,r2,8077d8 <__alt_mem_onchip_mem+0xff7ff7d8>
  807808:	d9801e04 	addi	r6,sp,120
  80780c:	b80b883a 	mov	r5,r23
  807810:	9809883a 	mov	r4,r19
  807814:	080d8e00 	call	80d8e0 <__sprint_r>
  807818:	103e6d1e 	bne	r2,zero,8071d0 <__alt_mem_onchip_mem+0xff7ff1d0>
  80781c:	843ffc04 	addi	r16,r16,-16
  807820:	d8c02017 	ldw	r3,128(sp)
  807824:	d8801f17 	ldw	r2,124(sp)
  807828:	da000404 	addi	r8,sp,16
  80782c:	8c3fed16 	blt	r17,r16,8077e4 <__alt_mem_onchip_mem+0xff7ff7e4>
  807830:	d9403517 	ldw	r5,212(sp)
  807834:	1c07883a 	add	r3,r3,r16
  807838:	10800044 	addi	r2,r2,1
  80783c:	41400015 	stw	r5,0(r8)
  807840:	44000115 	stw	r16,4(r8)
  807844:	d8c02015 	stw	r3,128(sp)
  807848:	d8801f15 	stw	r2,124(sp)
  80784c:	010001c4 	movi	r4,7
  807850:	2080060e 	bge	r4,r2,80786c <___vfprintf_internal_r+0xaa4>
  807854:	d9002c17 	ldw	r4,176(sp)
  807858:	d9801e04 	addi	r6,sp,120
  80785c:	b80b883a 	mov	r5,r23
  807860:	080d8e00 	call	80d8e0 <__sprint_r>
  807864:	103e5a1e 	bne	r2,zero,8071d0 <__alt_mem_onchip_mem+0xff7ff1d0>
  807868:	d8c02017 	ldw	r3,128(sp)
  80786c:	d8803117 	ldw	r2,196(sp)
  807870:	d9002a17 	ldw	r4,168(sp)
  807874:	1100010e 	bge	r2,r4,80787c <___vfprintf_internal_r+0xab4>
  807878:	2005883a 	mov	r2,r4
  80787c:	d9402f17 	ldw	r5,188(sp)
  807880:	288b883a 	add	r5,r5,r2
  807884:	d9402f15 	stw	r5,188(sp)
  807888:	18019e1e 	bne	r3,zero,807f04 <___vfprintf_internal_r+0x113c>
  80788c:	a8800007 	ldb	r2,0(r21)
  807890:	d8001f15 	stw	zero,124(sp)
  807894:	da000404 	addi	r8,sp,16
  807898:	103d851e 	bne	r2,zero,806eb0 <__alt_mem_onchip_mem+0xff7feeb0>
  80789c:	a821883a 	mov	r16,r21
  8078a0:	003d9b06 	br	806f10 <__alt_mem_onchip_mem+0xff7fef10>
  8078a4:	18c03fcc 	andi	r3,r3,255
  8078a8:	1805c11e 	bne	r3,zero,808fb0 <___vfprintf_internal_r+0x21e8>
  8078ac:	94800414 	ori	r18,r18,16
  8078b0:	9080080c 	andi	r2,r18,32
  8078b4:	10020c26 	beq	r2,zero,8080e8 <___vfprintf_internal_r+0x1320>
  8078b8:	d8802d17 	ldw	r2,180(sp)
  8078bc:	d9002917 	ldw	r4,164(sp)
  8078c0:	d8002785 	stb	zero,158(sp)
  8078c4:	10c00204 	addi	r3,r2,8
  8078c8:	14c00017 	ldw	r19,0(r2)
  8078cc:	15800117 	ldw	r22,4(r2)
  8078d0:	20040f16 	blt	r4,zero,808910 <___vfprintf_internal_r+0x1b48>
  8078d4:	013fdfc4 	movi	r4,-129
  8078d8:	9d84b03a 	or	r2,r19,r22
  8078dc:	d8c02d15 	stw	r3,180(sp)
  8078e0:	9124703a 	and	r18,r18,r4
  8078e4:	0039883a 	mov	fp,zero
  8078e8:	103e891e 	bne	r2,zero,807310 <__alt_mem_onchip_mem+0xff7ff310>
  8078ec:	d9002917 	ldw	r4,164(sp)
  8078f0:	2002c11e 	bne	r4,zero,8083f8 <___vfprintf_internal_r+0x1630>
  8078f4:	d8002915 	stw	zero,164(sp)
  8078f8:	d8002e15 	stw	zero,184(sp)
  8078fc:	dc001e04 	addi	r16,sp,120
  807900:	003ef806 	br	8074e4 <__alt_mem_onchip_mem+0xff7ff4e4>
  807904:	18c03fcc 	andi	r3,r3,255
  807908:	18059d1e 	bne	r3,zero,808f80 <___vfprintf_internal_r+0x21b8>
  80790c:	01402074 	movhi	r5,129
  807910:	2956ec04 	addi	r5,r5,23472
  807914:	d9403915 	stw	r5,228(sp)
  807918:	9080080c 	andi	r2,r18,32
  80791c:	10005226 	beq	r2,zero,807a68 <___vfprintf_internal_r+0xca0>
  807920:	d8802d17 	ldw	r2,180(sp)
  807924:	14c00017 	ldw	r19,0(r2)
  807928:	15800117 	ldw	r22,4(r2)
  80792c:	10800204 	addi	r2,r2,8
  807930:	d8802d15 	stw	r2,180(sp)
  807934:	9080004c 	andi	r2,r18,1
  807938:	10019026 	beq	r2,zero,807f7c <___vfprintf_internal_r+0x11b4>
  80793c:	9d84b03a 	or	r2,r19,r22
  807940:	10036926 	beq	r2,zero,8086e8 <___vfprintf_internal_r+0x1920>
  807944:	d8c02917 	ldw	r3,164(sp)
  807948:	00800c04 	movi	r2,48
  80794c:	d8802705 	stb	r2,156(sp)
  807950:	dc402745 	stb	r17,157(sp)
  807954:	d8002785 	stb	zero,158(sp)
  807958:	90800094 	ori	r2,r18,2
  80795c:	18045d16 	blt	r3,zero,808ad4 <___vfprintf_internal_r+0x1d0c>
  807960:	00bfdfc4 	movi	r2,-129
  807964:	90a4703a 	and	r18,r18,r2
  807968:	94800094 	ori	r18,r18,2
  80796c:	0039883a 	mov	fp,zero
  807970:	d9003917 	ldw	r4,228(sp)
  807974:	dc001e04 	addi	r16,sp,120
  807978:	988003cc 	andi	r2,r19,15
  80797c:	b006973a 	slli	r3,r22,28
  807980:	2085883a 	add	r2,r4,r2
  807984:	9826d13a 	srli	r19,r19,4
  807988:	10800003 	ldbu	r2,0(r2)
  80798c:	b02cd13a 	srli	r22,r22,4
  807990:	843fffc4 	addi	r16,r16,-1
  807994:	1ce6b03a 	or	r19,r3,r19
  807998:	80800005 	stb	r2,0(r16)
  80799c:	9d84b03a 	or	r2,r19,r22
  8079a0:	103ff51e 	bne	r2,zero,807978 <__alt_mem_onchip_mem+0xff7ff978>
  8079a4:	d8c02817 	ldw	r3,160(sp)
  8079a8:	1c07c83a 	sub	r3,r3,r16
  8079ac:	d8c02e15 	stw	r3,184(sp)
  8079b0:	003ecc06 	br	8074e4 <__alt_mem_onchip_mem+0xff7ff4e4>
  8079b4:	18c03fcc 	andi	r3,r3,255
  8079b8:	183e9f26 	beq	r3,zero,807438 <__alt_mem_onchip_mem+0xff7ff438>
  8079bc:	d9c02785 	stb	r7,158(sp)
  8079c0:	003e9d06 	br	807438 <__alt_mem_onchip_mem+0xff7ff438>
  8079c4:	00c00044 	movi	r3,1
  8079c8:	01c00ac4 	movi	r7,43
  8079cc:	ac400007 	ldb	r17,0(r21)
  8079d0:	003d5e06 	br	806f4c <__alt_mem_onchip_mem+0xff7fef4c>
  8079d4:	94800814 	ori	r18,r18,32
  8079d8:	ac400007 	ldb	r17,0(r21)
  8079dc:	003d5b06 	br	806f4c <__alt_mem_onchip_mem+0xff7fef4c>
  8079e0:	d8c02d17 	ldw	r3,180(sp)
  8079e4:	d8002785 	stb	zero,158(sp)
  8079e8:	1c000017 	ldw	r16,0(r3)
  8079ec:	1cc00104 	addi	r19,r3,4
  8079f0:	80041926 	beq	r16,zero,808a58 <___vfprintf_internal_r+0x1c90>
  8079f4:	d9002917 	ldw	r4,164(sp)
  8079f8:	2003d016 	blt	r4,zero,80893c <___vfprintf_internal_r+0x1b74>
  8079fc:	200d883a 	mov	r6,r4
  807a00:	000b883a 	mov	r5,zero
  807a04:	8009883a 	mov	r4,r16
  807a08:	da003d15 	stw	r8,244(sp)
  807a0c:	080c11c0 	call	80c11c <memchr>
  807a10:	da003d17 	ldw	r8,244(sp)
  807a14:	10045426 	beq	r2,zero,808b68 <___vfprintf_internal_r+0x1da0>
  807a18:	1405c83a 	sub	r2,r2,r16
  807a1c:	d8802e15 	stw	r2,184(sp)
  807a20:	1003cc16 	blt	r2,zero,808954 <___vfprintf_internal_r+0x1b8c>
  807a24:	df002783 	ldbu	fp,158(sp)
  807a28:	d8802a15 	stw	r2,168(sp)
  807a2c:	dcc02d15 	stw	r19,180(sp)
  807a30:	d8002915 	stw	zero,164(sp)
  807a34:	d8003215 	stw	zero,200(sp)
  807a38:	003eb006 	br	8074fc <__alt_mem_onchip_mem+0xff7ff4fc>
  807a3c:	18c03fcc 	andi	r3,r3,255
  807a40:	183f9b26 	beq	r3,zero,8078b0 <__alt_mem_onchip_mem+0xff7ff8b0>
  807a44:	d9c02785 	stb	r7,158(sp)
  807a48:	003f9906 	br	8078b0 <__alt_mem_onchip_mem+0xff7ff8b0>
  807a4c:	18c03fcc 	andi	r3,r3,255
  807a50:	1805551e 	bne	r3,zero,808fa8 <___vfprintf_internal_r+0x21e0>
  807a54:	01402074 	movhi	r5,129
  807a58:	2956f104 	addi	r5,r5,23492
  807a5c:	d9403915 	stw	r5,228(sp)
  807a60:	9080080c 	andi	r2,r18,32
  807a64:	103fae1e 	bne	r2,zero,807920 <__alt_mem_onchip_mem+0xff7ff920>
  807a68:	9080040c 	andi	r2,r18,16
  807a6c:	1002de26 	beq	r2,zero,8085e8 <___vfprintf_internal_r+0x1820>
  807a70:	d8c02d17 	ldw	r3,180(sp)
  807a74:	002d883a 	mov	r22,zero
  807a78:	1cc00017 	ldw	r19,0(r3)
  807a7c:	18c00104 	addi	r3,r3,4
  807a80:	d8c02d15 	stw	r3,180(sp)
  807a84:	003fab06 	br	807934 <__alt_mem_onchip_mem+0xff7ff934>
  807a88:	38803fcc 	andi	r2,r7,255
  807a8c:	1080201c 	xori	r2,r2,128
  807a90:	10bfe004 	addi	r2,r2,-128
  807a94:	1002d21e 	bne	r2,zero,8085e0 <___vfprintf_internal_r+0x1818>
  807a98:	00c00044 	movi	r3,1
  807a9c:	01c00804 	movi	r7,32
  807aa0:	ac400007 	ldb	r17,0(r21)
  807aa4:	003d2906 	br	806f4c <__alt_mem_onchip_mem+0xff7fef4c>
  807aa8:	94800054 	ori	r18,r18,1
  807aac:	ac400007 	ldb	r17,0(r21)
  807ab0:	003d2606 	br	806f4c <__alt_mem_onchip_mem+0xff7fef4c>
  807ab4:	18c03fcc 	andi	r3,r3,255
  807ab8:	183e0526 	beq	r3,zero,8072d0 <__alt_mem_onchip_mem+0xff7ff2d0>
  807abc:	d9c02785 	stb	r7,158(sp)
  807ac0:	003e0306 	br	8072d0 <__alt_mem_onchip_mem+0xff7ff2d0>
  807ac4:	94801014 	ori	r18,r18,64
  807ac8:	ac400007 	ldb	r17,0(r21)
  807acc:	003d1f06 	br	806f4c <__alt_mem_onchip_mem+0xff7fef4c>
  807ad0:	ac400007 	ldb	r17,0(r21)
  807ad4:	8a438726 	beq	r17,r9,8088f4 <___vfprintf_internal_r+0x1b2c>
  807ad8:	94800414 	ori	r18,r18,16
  807adc:	003d1b06 	br	806f4c <__alt_mem_onchip_mem+0xff7fef4c>
  807ae0:	18c03fcc 	andi	r3,r3,255
  807ae4:	1805341e 	bne	r3,zero,808fb8 <___vfprintf_internal_r+0x21f0>
  807ae8:	9080080c 	andi	r2,r18,32
  807aec:	1002cd26 	beq	r2,zero,808624 <___vfprintf_internal_r+0x185c>
  807af0:	d9402d17 	ldw	r5,180(sp)
  807af4:	d9002f17 	ldw	r4,188(sp)
  807af8:	28800017 	ldw	r2,0(r5)
  807afc:	2007d7fa 	srai	r3,r4,31
  807b00:	29400104 	addi	r5,r5,4
  807b04:	d9402d15 	stw	r5,180(sp)
  807b08:	11000015 	stw	r4,0(r2)
  807b0c:	10c00115 	stw	r3,4(r2)
  807b10:	003ce506 	br	806ea8 <__alt_mem_onchip_mem+0xff7feea8>
  807b14:	d8c02d17 	ldw	r3,180(sp)
  807b18:	d9002d17 	ldw	r4,180(sp)
  807b1c:	d8002785 	stb	zero,158(sp)
  807b20:	18800017 	ldw	r2,0(r3)
  807b24:	21000104 	addi	r4,r4,4
  807b28:	00c00044 	movi	r3,1
  807b2c:	d8c02a15 	stw	r3,168(sp)
  807b30:	d8801405 	stb	r2,80(sp)
  807b34:	d9002d15 	stw	r4,180(sp)
  807b38:	d8c02e15 	stw	r3,184(sp)
  807b3c:	d8002915 	stw	zero,164(sp)
  807b40:	d8003215 	stw	zero,200(sp)
  807b44:	dc001404 	addi	r16,sp,80
  807b48:	0039883a 	mov	fp,zero
  807b4c:	003e7206 	br	807518 <__alt_mem_onchip_mem+0xff7ff518>
  807b50:	01002074 	movhi	r4,129
  807b54:	2116f104 	addi	r4,r4,23492
  807b58:	0039883a 	mov	fp,zero
  807b5c:	d9003915 	stw	r4,228(sp)
  807b60:	04401e04 	movi	r17,120
  807b64:	003f8206 	br	807970 <__alt_mem_onchip_mem+0xff7ff970>
  807b68:	18c03fcc 	andi	r3,r3,255
  807b6c:	1805061e 	bne	r3,zero,808f88 <___vfprintf_internal_r+0x21c0>
  807b70:	883d9126 	beq	r17,zero,8071b8 <__alt_mem_onchip_mem+0xff7ff1b8>
  807b74:	00c00044 	movi	r3,1
  807b78:	d8c02a15 	stw	r3,168(sp)
  807b7c:	dc401405 	stb	r17,80(sp)
  807b80:	d8002785 	stb	zero,158(sp)
  807b84:	003fec06 	br	807b38 <__alt_mem_onchip_mem+0xff7ffb38>
  807b88:	01402074 	movhi	r5,129
  807b8c:	2956f104 	addi	r5,r5,23492
  807b90:	d9403915 	stw	r5,228(sp)
  807b94:	d8c02d15 	stw	r3,180(sp)
  807b98:	1025883a 	mov	r18,r2
  807b9c:	04401e04 	movi	r17,120
  807ba0:	9d84b03a 	or	r2,r19,r22
  807ba4:	1000fc1e 	bne	r2,zero,807f98 <___vfprintf_internal_r+0x11d0>
  807ba8:	0039883a 	mov	fp,zero
  807bac:	00800084 	movi	r2,2
  807bb0:	10803fcc 	andi	r2,r2,255
  807bb4:	00c00044 	movi	r3,1
  807bb8:	10c20f26 	beq	r2,r3,8083f8 <___vfprintf_internal_r+0x1630>
  807bbc:	00c00084 	movi	r3,2
  807bc0:	10fd6326 	beq	r2,r3,807150 <__alt_mem_onchip_mem+0xff7ff150>
  807bc4:	003e2d06 	br	80747c <__alt_mem_onchip_mem+0xff7ff47c>
  807bc8:	d8c02017 	ldw	r3,128(sp)
  807bcc:	003e9306 	br	80761c <__alt_mem_onchip_mem+0xff7ff61c>
  807bd0:	00801944 	movi	r2,101
  807bd4:	14407e0e 	bge	r2,r17,807dd0 <___vfprintf_internal_r+0x1008>
  807bd8:	d9003617 	ldw	r4,216(sp)
  807bdc:	d9403817 	ldw	r5,224(sp)
  807be0:	000d883a 	mov	r6,zero
  807be4:	000f883a 	mov	r7,zero
  807be8:	d8c03c15 	stw	r3,240(sp)
  807bec:	da003d15 	stw	r8,244(sp)
  807bf0:	08118280 	call	811828 <__eqdf2>
  807bf4:	d8c03c17 	ldw	r3,240(sp)
  807bf8:	da003d17 	ldw	r8,244(sp)
  807bfc:	1000f71e 	bne	r2,zero,807fdc <___vfprintf_internal_r+0x1214>
  807c00:	d8801f17 	ldw	r2,124(sp)
  807c04:	01002074 	movhi	r4,129
  807c08:	2116f804 	addi	r4,r4,23520
  807c0c:	18c00044 	addi	r3,r3,1
  807c10:	10800044 	addi	r2,r2,1
  807c14:	41000015 	stw	r4,0(r8)
  807c18:	01000044 	movi	r4,1
  807c1c:	41000115 	stw	r4,4(r8)
  807c20:	d8c02015 	stw	r3,128(sp)
  807c24:	d8801f15 	stw	r2,124(sp)
  807c28:	010001c4 	movi	r4,7
  807c2c:	2082b816 	blt	r4,r2,808710 <___vfprintf_internal_r+0x1948>
  807c30:	42000204 	addi	r8,r8,8
  807c34:	d8802617 	ldw	r2,152(sp)
  807c38:	d9403317 	ldw	r5,204(sp)
  807c3c:	11400216 	blt	r2,r5,807c48 <___vfprintf_internal_r+0xe80>
  807c40:	9080004c 	andi	r2,r18,1
  807c44:	103ed526 	beq	r2,zero,80779c <__alt_mem_onchip_mem+0xff7ff79c>
  807c48:	d8803717 	ldw	r2,220(sp)
  807c4c:	d9003417 	ldw	r4,208(sp)
  807c50:	d9403717 	ldw	r5,220(sp)
  807c54:	1887883a 	add	r3,r3,r2
  807c58:	d8801f17 	ldw	r2,124(sp)
  807c5c:	41000015 	stw	r4,0(r8)
  807c60:	41400115 	stw	r5,4(r8)
  807c64:	10800044 	addi	r2,r2,1
  807c68:	d8c02015 	stw	r3,128(sp)
  807c6c:	d8801f15 	stw	r2,124(sp)
  807c70:	010001c4 	movi	r4,7
  807c74:	20832916 	blt	r4,r2,80891c <___vfprintf_internal_r+0x1b54>
  807c78:	42000204 	addi	r8,r8,8
  807c7c:	d8803317 	ldw	r2,204(sp)
  807c80:	143fffc4 	addi	r16,r2,-1
  807c84:	043ec50e 	bge	zero,r16,80779c <__alt_mem_onchip_mem+0xff7ff79c>
  807c88:	04400404 	movi	r17,16
  807c8c:	d8801f17 	ldw	r2,124(sp)
  807c90:	8c00880e 	bge	r17,r16,807eb4 <___vfprintf_internal_r+0x10ec>
  807c94:	01402074 	movhi	r5,129
  807c98:	2956f884 	addi	r5,r5,23522
  807c9c:	d9402b15 	stw	r5,172(sp)
  807ca0:	058001c4 	movi	r22,7
  807ca4:	dcc02c17 	ldw	r19,176(sp)
  807ca8:	00000306 	br	807cb8 <___vfprintf_internal_r+0xef0>
  807cac:	42000204 	addi	r8,r8,8
  807cb0:	843ffc04 	addi	r16,r16,-16
  807cb4:	8c00820e 	bge	r17,r16,807ec0 <___vfprintf_internal_r+0x10f8>
  807cb8:	18c00404 	addi	r3,r3,16
  807cbc:	10800044 	addi	r2,r2,1
  807cc0:	45000015 	stw	r20,0(r8)
  807cc4:	44400115 	stw	r17,4(r8)
  807cc8:	d8c02015 	stw	r3,128(sp)
  807ccc:	d8801f15 	stw	r2,124(sp)
  807cd0:	b0bff60e 	bge	r22,r2,807cac <__alt_mem_onchip_mem+0xff7ffcac>
  807cd4:	d9801e04 	addi	r6,sp,120
  807cd8:	b80b883a 	mov	r5,r23
  807cdc:	9809883a 	mov	r4,r19
  807ce0:	080d8e00 	call	80d8e0 <__sprint_r>
  807ce4:	103d3a1e 	bne	r2,zero,8071d0 <__alt_mem_onchip_mem+0xff7ff1d0>
  807ce8:	d8c02017 	ldw	r3,128(sp)
  807cec:	d8801f17 	ldw	r2,124(sp)
  807cf0:	da000404 	addi	r8,sp,16
  807cf4:	003fee06 	br	807cb0 <__alt_mem_onchip_mem+0xff7ffcb0>
  807cf8:	d9403117 	ldw	r5,196(sp)
  807cfc:	d8802a17 	ldw	r2,168(sp)
  807d00:	28adc83a 	sub	r22,r5,r2
  807d04:	05be630e 	bge	zero,r22,807694 <__alt_mem_onchip_mem+0xff7ff694>
  807d08:	07000404 	movi	fp,16
  807d0c:	d8801f17 	ldw	r2,124(sp)
  807d10:	e5838f0e 	bge	fp,r22,808b50 <___vfprintf_internal_r+0x1d88>
  807d14:	01402074 	movhi	r5,129
  807d18:	2956f884 	addi	r5,r5,23522
  807d1c:	dc403015 	stw	r17,192(sp)
  807d20:	d9402b15 	stw	r5,172(sp)
  807d24:	b023883a 	mov	r17,r22
  807d28:	04c001c4 	movi	r19,7
  807d2c:	a82d883a 	mov	r22,r21
  807d30:	902b883a 	mov	r21,r18
  807d34:	8025883a 	mov	r18,r16
  807d38:	dc002c17 	ldw	r16,176(sp)
  807d3c:	00000306 	br	807d4c <___vfprintf_internal_r+0xf84>
  807d40:	8c7ffc04 	addi	r17,r17,-16
  807d44:	42000204 	addi	r8,r8,8
  807d48:	e440110e 	bge	fp,r17,807d90 <___vfprintf_internal_r+0xfc8>
  807d4c:	18c00404 	addi	r3,r3,16
  807d50:	10800044 	addi	r2,r2,1
  807d54:	45000015 	stw	r20,0(r8)
  807d58:	47000115 	stw	fp,4(r8)
  807d5c:	d8c02015 	stw	r3,128(sp)
  807d60:	d8801f15 	stw	r2,124(sp)
  807d64:	98bff60e 	bge	r19,r2,807d40 <__alt_mem_onchip_mem+0xff7ffd40>
  807d68:	d9801e04 	addi	r6,sp,120
  807d6c:	b80b883a 	mov	r5,r23
  807d70:	8009883a 	mov	r4,r16
  807d74:	080d8e00 	call	80d8e0 <__sprint_r>
  807d78:	103d151e 	bne	r2,zero,8071d0 <__alt_mem_onchip_mem+0xff7ff1d0>
  807d7c:	8c7ffc04 	addi	r17,r17,-16
  807d80:	d8c02017 	ldw	r3,128(sp)
  807d84:	d8801f17 	ldw	r2,124(sp)
  807d88:	da000404 	addi	r8,sp,16
  807d8c:	e47fef16 	blt	fp,r17,807d4c <__alt_mem_onchip_mem+0xff7ffd4c>
  807d90:	9021883a 	mov	r16,r18
  807d94:	a825883a 	mov	r18,r21
  807d98:	b02b883a 	mov	r21,r22
  807d9c:	882d883a 	mov	r22,r17
  807da0:	dc403017 	ldw	r17,192(sp)
  807da4:	d9002b17 	ldw	r4,172(sp)
  807da8:	1d87883a 	add	r3,r3,r22
  807dac:	10800044 	addi	r2,r2,1
  807db0:	41000015 	stw	r4,0(r8)
  807db4:	45800115 	stw	r22,4(r8)
  807db8:	d8c02015 	stw	r3,128(sp)
  807dbc:	d8801f15 	stw	r2,124(sp)
  807dc0:	010001c4 	movi	r4,7
  807dc4:	20818e16 	blt	r4,r2,808400 <___vfprintf_internal_r+0x1638>
  807dc8:	42000204 	addi	r8,r8,8
  807dcc:	003e3106 	br	807694 <__alt_mem_onchip_mem+0xff7ff694>
  807dd0:	d9403317 	ldw	r5,204(sp)
  807dd4:	00800044 	movi	r2,1
  807dd8:	18c00044 	addi	r3,r3,1
  807ddc:	1141530e 	bge	r2,r5,80832c <___vfprintf_internal_r+0x1564>
  807de0:	dc401f17 	ldw	r17,124(sp)
  807de4:	00800044 	movi	r2,1
  807de8:	40800115 	stw	r2,4(r8)
  807dec:	8c400044 	addi	r17,r17,1
  807df0:	44000015 	stw	r16,0(r8)
  807df4:	d8c02015 	stw	r3,128(sp)
  807df8:	dc401f15 	stw	r17,124(sp)
  807dfc:	008001c4 	movi	r2,7
  807e00:	14416b16 	blt	r2,r17,8083b0 <___vfprintf_internal_r+0x15e8>
  807e04:	42000204 	addi	r8,r8,8
  807e08:	d8803717 	ldw	r2,220(sp)
  807e0c:	d9003417 	ldw	r4,208(sp)
  807e10:	8c400044 	addi	r17,r17,1
  807e14:	10c7883a 	add	r3,r2,r3
  807e18:	40800115 	stw	r2,4(r8)
  807e1c:	41000015 	stw	r4,0(r8)
  807e20:	d8c02015 	stw	r3,128(sp)
  807e24:	dc401f15 	stw	r17,124(sp)
  807e28:	008001c4 	movi	r2,7
  807e2c:	14416916 	blt	r2,r17,8083d4 <___vfprintf_internal_r+0x160c>
  807e30:	45800204 	addi	r22,r8,8
  807e34:	d9003617 	ldw	r4,216(sp)
  807e38:	d9403817 	ldw	r5,224(sp)
  807e3c:	000d883a 	mov	r6,zero
  807e40:	000f883a 	mov	r7,zero
  807e44:	d8c03c15 	stw	r3,240(sp)
  807e48:	08118280 	call	811828 <__eqdf2>
  807e4c:	d8c03c17 	ldw	r3,240(sp)
  807e50:	1000bc26 	beq	r2,zero,808144 <___vfprintf_internal_r+0x137c>
  807e54:	d9403317 	ldw	r5,204(sp)
  807e58:	84000044 	addi	r16,r16,1
  807e5c:	8c400044 	addi	r17,r17,1
  807e60:	28bfffc4 	addi	r2,r5,-1
  807e64:	1887883a 	add	r3,r3,r2
  807e68:	b0800115 	stw	r2,4(r22)
  807e6c:	b4000015 	stw	r16,0(r22)
  807e70:	d8c02015 	stw	r3,128(sp)
  807e74:	dc401f15 	stw	r17,124(sp)
  807e78:	008001c4 	movi	r2,7
  807e7c:	14414316 	blt	r2,r17,80838c <___vfprintf_internal_r+0x15c4>
  807e80:	b5800204 	addi	r22,r22,8
  807e84:	d9003a17 	ldw	r4,232(sp)
  807e88:	df0022c4 	addi	fp,sp,139
  807e8c:	8c400044 	addi	r17,r17,1
  807e90:	20c7883a 	add	r3,r4,r3
  807e94:	b7000015 	stw	fp,0(r22)
  807e98:	b1000115 	stw	r4,4(r22)
  807e9c:	d8c02015 	stw	r3,128(sp)
  807ea0:	dc401f15 	stw	r17,124(sp)
  807ea4:	008001c4 	movi	r2,7
  807ea8:	14400e16 	blt	r2,r17,807ee4 <___vfprintf_internal_r+0x111c>
  807eac:	b2000204 	addi	r8,r22,8
  807eb0:	003e3a06 	br	80779c <__alt_mem_onchip_mem+0xff7ff79c>
  807eb4:	01002074 	movhi	r4,129
  807eb8:	2116f884 	addi	r4,r4,23522
  807ebc:	d9002b15 	stw	r4,172(sp)
  807ec0:	d9002b17 	ldw	r4,172(sp)
  807ec4:	1c07883a 	add	r3,r3,r16
  807ec8:	44000115 	stw	r16,4(r8)
  807ecc:	41000015 	stw	r4,0(r8)
  807ed0:	10800044 	addi	r2,r2,1
  807ed4:	d8c02015 	stw	r3,128(sp)
  807ed8:	d8801f15 	stw	r2,124(sp)
  807edc:	010001c4 	movi	r4,7
  807ee0:	20be2d0e 	bge	r4,r2,807798 <__alt_mem_onchip_mem+0xff7ff798>
  807ee4:	d9002c17 	ldw	r4,176(sp)
  807ee8:	d9801e04 	addi	r6,sp,120
  807eec:	b80b883a 	mov	r5,r23
  807ef0:	080d8e00 	call	80d8e0 <__sprint_r>
  807ef4:	103cb61e 	bne	r2,zero,8071d0 <__alt_mem_onchip_mem+0xff7ff1d0>
  807ef8:	d8c02017 	ldw	r3,128(sp)
  807efc:	da000404 	addi	r8,sp,16
  807f00:	003e2606 	br	80779c <__alt_mem_onchip_mem+0xff7ff79c>
  807f04:	d9002c17 	ldw	r4,176(sp)
  807f08:	d9801e04 	addi	r6,sp,120
  807f0c:	b80b883a 	mov	r5,r23
  807f10:	080d8e00 	call	80d8e0 <__sprint_r>
  807f14:	103e5d26 	beq	r2,zero,80788c <__alt_mem_onchip_mem+0xff7ff88c>
  807f18:	003cad06 	br	8071d0 <__alt_mem_onchip_mem+0xff7ff1d0>
  807f1c:	d9002c17 	ldw	r4,176(sp)
  807f20:	d9801e04 	addi	r6,sp,120
  807f24:	b80b883a 	mov	r5,r23
  807f28:	080d8e00 	call	80d8e0 <__sprint_r>
  807f2c:	103ca81e 	bne	r2,zero,8071d0 <__alt_mem_onchip_mem+0xff7ff1d0>
  807f30:	d8c02017 	ldw	r3,128(sp)
  807f34:	da000404 	addi	r8,sp,16
  807f38:	003e0b06 	br	807768 <__alt_mem_onchip_mem+0xff7ff768>
  807f3c:	d9002c17 	ldw	r4,176(sp)
  807f40:	d9801e04 	addi	r6,sp,120
  807f44:	b80b883a 	mov	r5,r23
  807f48:	080d8e00 	call	80d8e0 <__sprint_r>
  807f4c:	103ca01e 	bne	r2,zero,8071d0 <__alt_mem_onchip_mem+0xff7ff1d0>
  807f50:	d8c02017 	ldw	r3,128(sp)
  807f54:	da000404 	addi	r8,sp,16
  807f58:	003dbd06 	br	807650 <__alt_mem_onchip_mem+0xff7ff650>
  807f5c:	d9002c17 	ldw	r4,176(sp)
  807f60:	d9801e04 	addi	r6,sp,120
  807f64:	b80b883a 	mov	r5,r23
  807f68:	080d8e00 	call	80d8e0 <__sprint_r>
  807f6c:	103c981e 	bne	r2,zero,8071d0 <__alt_mem_onchip_mem+0xff7ff1d0>
  807f70:	d8c02017 	ldw	r3,128(sp)
  807f74:	da000404 	addi	r8,sp,16
  807f78:	003dc306 	br	807688 <__alt_mem_onchip_mem+0xff7ff688>
  807f7c:	d8802917 	ldw	r2,164(sp)
  807f80:	d8002785 	stb	zero,158(sp)
  807f84:	103f0616 	blt	r2,zero,807ba0 <__alt_mem_onchip_mem+0xff7ffba0>
  807f88:	00ffdfc4 	movi	r3,-129
  807f8c:	9d84b03a 	or	r2,r19,r22
  807f90:	90e4703a 	and	r18,r18,r3
  807f94:	103c6b26 	beq	r2,zero,807144 <__alt_mem_onchip_mem+0xff7ff144>
  807f98:	0039883a 	mov	fp,zero
  807f9c:	003e7406 	br	807970 <__alt_mem_onchip_mem+0xff7ff970>
  807fa0:	9080040c 	andi	r2,r18,16
  807fa4:	1001b326 	beq	r2,zero,808674 <___vfprintf_internal_r+0x18ac>
  807fa8:	d9002d17 	ldw	r4,180(sp)
  807fac:	d9402917 	ldw	r5,164(sp)
  807fb0:	d8002785 	stb	zero,158(sp)
  807fb4:	20800104 	addi	r2,r4,4
  807fb8:	24c00017 	ldw	r19,0(r4)
  807fbc:	002d883a 	mov	r22,zero
  807fc0:	2801b516 	blt	r5,zero,808698 <___vfprintf_internal_r+0x18d0>
  807fc4:	00ffdfc4 	movi	r3,-129
  807fc8:	d8802d15 	stw	r2,180(sp)
  807fcc:	90e4703a 	and	r18,r18,r3
  807fd0:	983d2726 	beq	r19,zero,807470 <__alt_mem_onchip_mem+0xff7ff470>
  807fd4:	0039883a 	mov	fp,zero
  807fd8:	003d2a06 	br	807484 <__alt_mem_onchip_mem+0xff7ff484>
  807fdc:	dc402617 	ldw	r17,152(sp)
  807fe0:	0441d30e 	bge	zero,r17,808730 <___vfprintf_internal_r+0x1968>
  807fe4:	dc403217 	ldw	r17,200(sp)
  807fe8:	d8803317 	ldw	r2,204(sp)
  807fec:	1440010e 	bge	r2,r17,807ff4 <___vfprintf_internal_r+0x122c>
  807ff0:	1023883a 	mov	r17,r2
  807ff4:	04400a0e 	bge	zero,r17,808020 <___vfprintf_internal_r+0x1258>
  807ff8:	d8801f17 	ldw	r2,124(sp)
  807ffc:	1c47883a 	add	r3,r3,r17
  808000:	44000015 	stw	r16,0(r8)
  808004:	10800044 	addi	r2,r2,1
  808008:	44400115 	stw	r17,4(r8)
  80800c:	d8c02015 	stw	r3,128(sp)
  808010:	d8801f15 	stw	r2,124(sp)
  808014:	010001c4 	movi	r4,7
  808018:	20826516 	blt	r4,r2,8089b0 <___vfprintf_internal_r+0x1be8>
  80801c:	42000204 	addi	r8,r8,8
  808020:	88026116 	blt	r17,zero,8089a8 <___vfprintf_internal_r+0x1be0>
  808024:	d9003217 	ldw	r4,200(sp)
  808028:	2463c83a 	sub	r17,r4,r17
  80802c:	04407b0e 	bge	zero,r17,80821c <___vfprintf_internal_r+0x1454>
  808030:	05800404 	movi	r22,16
  808034:	d8801f17 	ldw	r2,124(sp)
  808038:	b4419d0e 	bge	r22,r17,8086b0 <___vfprintf_internal_r+0x18e8>
  80803c:	01002074 	movhi	r4,129
  808040:	2116f884 	addi	r4,r4,23522
  808044:	d9002b15 	stw	r4,172(sp)
  808048:	070001c4 	movi	fp,7
  80804c:	dcc02c17 	ldw	r19,176(sp)
  808050:	00000306 	br	808060 <___vfprintf_internal_r+0x1298>
  808054:	42000204 	addi	r8,r8,8
  808058:	8c7ffc04 	addi	r17,r17,-16
  80805c:	b441970e 	bge	r22,r17,8086bc <___vfprintf_internal_r+0x18f4>
  808060:	18c00404 	addi	r3,r3,16
  808064:	10800044 	addi	r2,r2,1
  808068:	45000015 	stw	r20,0(r8)
  80806c:	45800115 	stw	r22,4(r8)
  808070:	d8c02015 	stw	r3,128(sp)
  808074:	d8801f15 	stw	r2,124(sp)
  808078:	e0bff60e 	bge	fp,r2,808054 <__alt_mem_onchip_mem+0xff800054>
  80807c:	d9801e04 	addi	r6,sp,120
  808080:	b80b883a 	mov	r5,r23
  808084:	9809883a 	mov	r4,r19
  808088:	080d8e00 	call	80d8e0 <__sprint_r>
  80808c:	103c501e 	bne	r2,zero,8071d0 <__alt_mem_onchip_mem+0xff7ff1d0>
  808090:	d8c02017 	ldw	r3,128(sp)
  808094:	d8801f17 	ldw	r2,124(sp)
  808098:	da000404 	addi	r8,sp,16
  80809c:	003fee06 	br	808058 <__alt_mem_onchip_mem+0xff800058>
  8080a0:	d9002c17 	ldw	r4,176(sp)
  8080a4:	d9801e04 	addi	r6,sp,120
  8080a8:	b80b883a 	mov	r5,r23
  8080ac:	080d8e00 	call	80d8e0 <__sprint_r>
  8080b0:	103c471e 	bne	r2,zero,8071d0 <__alt_mem_onchip_mem+0xff7ff1d0>
  8080b4:	d8c02017 	ldw	r3,128(sp)
  8080b8:	df002787 	ldb	fp,158(sp)
  8080bc:	da000404 	addi	r8,sp,16
  8080c0:	003d5606 	br	80761c <__alt_mem_onchip_mem+0xff7ff61c>
  8080c4:	9080040c 	andi	r2,r18,16
  8080c8:	10016126 	beq	r2,zero,808650 <___vfprintf_internal_r+0x1888>
  8080cc:	d8802d17 	ldw	r2,180(sp)
  8080d0:	14c00017 	ldw	r19,0(r2)
  8080d4:	10800104 	addi	r2,r2,4
  8080d8:	d8802d15 	stw	r2,180(sp)
  8080dc:	982dd7fa 	srai	r22,r19,31
  8080e0:	b005883a 	mov	r2,r22
  8080e4:	003c8206 	br	8072f0 <__alt_mem_onchip_mem+0xff7ff2f0>
  8080e8:	9080040c 	andi	r2,r18,16
  8080ec:	10003526 	beq	r2,zero,8081c4 <___vfprintf_internal_r+0x13fc>
  8080f0:	d9402d17 	ldw	r5,180(sp)
  8080f4:	d8c02917 	ldw	r3,164(sp)
  8080f8:	d8002785 	stb	zero,158(sp)
  8080fc:	28800104 	addi	r2,r5,4
  808100:	2cc00017 	ldw	r19,0(r5)
  808104:	002d883a 	mov	r22,zero
  808108:	18003716 	blt	r3,zero,8081e8 <___vfprintf_internal_r+0x1420>
  80810c:	00ffdfc4 	movi	r3,-129
  808110:	d8802d15 	stw	r2,180(sp)
  808114:	90e4703a 	and	r18,r18,r3
  808118:	0039883a 	mov	fp,zero
  80811c:	983df326 	beq	r19,zero,8078ec <__alt_mem_onchip_mem+0xff7ff8ec>
  808120:	00800244 	movi	r2,9
  808124:	14fc7b36 	bltu	r2,r19,807314 <__alt_mem_onchip_mem+0xff7ff314>
  808128:	d8c02817 	ldw	r3,160(sp)
  80812c:	dc001dc4 	addi	r16,sp,119
  808130:	9cc00c04 	addi	r19,r19,48
  808134:	1c07c83a 	sub	r3,r3,r16
  808138:	dcc01dc5 	stb	r19,119(sp)
  80813c:	d8c02e15 	stw	r3,184(sp)
  808140:	003ce806 	br	8074e4 <__alt_mem_onchip_mem+0xff7ff4e4>
  808144:	d8803317 	ldw	r2,204(sp)
  808148:	143fffc4 	addi	r16,r2,-1
  80814c:	043f4d0e 	bge	zero,r16,807e84 <__alt_mem_onchip_mem+0xff7ffe84>
  808150:	07000404 	movi	fp,16
  808154:	e400810e 	bge	fp,r16,80835c <___vfprintf_internal_r+0x1594>
  808158:	01402074 	movhi	r5,129
  80815c:	2956f884 	addi	r5,r5,23522
  808160:	d9402b15 	stw	r5,172(sp)
  808164:	01c001c4 	movi	r7,7
  808168:	dcc02c17 	ldw	r19,176(sp)
  80816c:	00000306 	br	80817c <___vfprintf_internal_r+0x13b4>
  808170:	b5800204 	addi	r22,r22,8
  808174:	843ffc04 	addi	r16,r16,-16
  808178:	e4007b0e 	bge	fp,r16,808368 <___vfprintf_internal_r+0x15a0>
  80817c:	18c00404 	addi	r3,r3,16
  808180:	8c400044 	addi	r17,r17,1
  808184:	b5000015 	stw	r20,0(r22)
  808188:	b7000115 	stw	fp,4(r22)
  80818c:	d8c02015 	stw	r3,128(sp)
  808190:	dc401f15 	stw	r17,124(sp)
  808194:	3c7ff60e 	bge	r7,r17,808170 <__alt_mem_onchip_mem+0xff800170>
  808198:	d9801e04 	addi	r6,sp,120
  80819c:	b80b883a 	mov	r5,r23
  8081a0:	9809883a 	mov	r4,r19
  8081a4:	d9c03c15 	stw	r7,240(sp)
  8081a8:	080d8e00 	call	80d8e0 <__sprint_r>
  8081ac:	d9c03c17 	ldw	r7,240(sp)
  8081b0:	103c071e 	bne	r2,zero,8071d0 <__alt_mem_onchip_mem+0xff7ff1d0>
  8081b4:	d8c02017 	ldw	r3,128(sp)
  8081b8:	dc401f17 	ldw	r17,124(sp)
  8081bc:	dd800404 	addi	r22,sp,16
  8081c0:	003fec06 	br	808174 <__alt_mem_onchip_mem+0xff800174>
  8081c4:	9080100c 	andi	r2,r18,64
  8081c8:	d8002785 	stb	zero,158(sp)
  8081cc:	10010e26 	beq	r2,zero,808608 <___vfprintf_internal_r+0x1840>
  8081d0:	d9002d17 	ldw	r4,180(sp)
  8081d4:	d9402917 	ldw	r5,164(sp)
  8081d8:	002d883a 	mov	r22,zero
  8081dc:	20800104 	addi	r2,r4,4
  8081e0:	24c0000b 	ldhu	r19,0(r4)
  8081e4:	283fc90e 	bge	r5,zero,80810c <__alt_mem_onchip_mem+0xff80010c>
  8081e8:	d8802d15 	stw	r2,180(sp)
  8081ec:	0039883a 	mov	fp,zero
  8081f0:	9d84b03a 	or	r2,r19,r22
  8081f4:	103c461e 	bne	r2,zero,807310 <__alt_mem_onchip_mem+0xff7ff310>
  8081f8:	00800044 	movi	r2,1
  8081fc:	003e6c06 	br	807bb0 <__alt_mem_onchip_mem+0xff7ffbb0>
  808200:	d9002c17 	ldw	r4,176(sp)
  808204:	d9801e04 	addi	r6,sp,120
  808208:	b80b883a 	mov	r5,r23
  80820c:	080d8e00 	call	80d8e0 <__sprint_r>
  808210:	103bef1e 	bne	r2,zero,8071d0 <__alt_mem_onchip_mem+0xff7ff1d0>
  808214:	d8c02017 	ldw	r3,128(sp)
  808218:	da000404 	addi	r8,sp,16
  80821c:	d9003217 	ldw	r4,200(sp)
  808220:	d8802617 	ldw	r2,152(sp)
  808224:	d9403317 	ldw	r5,204(sp)
  808228:	8123883a 	add	r17,r16,r4
  80822c:	11400216 	blt	r2,r5,808238 <___vfprintf_internal_r+0x1470>
  808230:	9100004c 	andi	r4,r18,1
  808234:	20000d26 	beq	r4,zero,80826c <___vfprintf_internal_r+0x14a4>
  808238:	d9003717 	ldw	r4,220(sp)
  80823c:	d9403417 	ldw	r5,208(sp)
  808240:	1907883a 	add	r3,r3,r4
  808244:	d9001f17 	ldw	r4,124(sp)
  808248:	41400015 	stw	r5,0(r8)
  80824c:	d9403717 	ldw	r5,220(sp)
  808250:	21000044 	addi	r4,r4,1
  808254:	d8c02015 	stw	r3,128(sp)
  808258:	41400115 	stw	r5,4(r8)
  80825c:	d9001f15 	stw	r4,124(sp)
  808260:	014001c4 	movi	r5,7
  808264:	2901e816 	blt	r5,r4,808a08 <___vfprintf_internal_r+0x1c40>
  808268:	42000204 	addi	r8,r8,8
  80826c:	d9003317 	ldw	r4,204(sp)
  808270:	8121883a 	add	r16,r16,r4
  808274:	2085c83a 	sub	r2,r4,r2
  808278:	8461c83a 	sub	r16,r16,r17
  80827c:	1400010e 	bge	r2,r16,808284 <___vfprintf_internal_r+0x14bc>
  808280:	1021883a 	mov	r16,r2
  808284:	04000a0e 	bge	zero,r16,8082b0 <___vfprintf_internal_r+0x14e8>
  808288:	d9001f17 	ldw	r4,124(sp)
  80828c:	1c07883a 	add	r3,r3,r16
  808290:	44400015 	stw	r17,0(r8)
  808294:	21000044 	addi	r4,r4,1
  808298:	44000115 	stw	r16,4(r8)
  80829c:	d8c02015 	stw	r3,128(sp)
  8082a0:	d9001f15 	stw	r4,124(sp)
  8082a4:	014001c4 	movi	r5,7
  8082a8:	2901fb16 	blt	r5,r4,808a98 <___vfprintf_internal_r+0x1cd0>
  8082ac:	42000204 	addi	r8,r8,8
  8082b0:	8001f716 	blt	r16,zero,808a90 <___vfprintf_internal_r+0x1cc8>
  8082b4:	1421c83a 	sub	r16,r2,r16
  8082b8:	043d380e 	bge	zero,r16,80779c <__alt_mem_onchip_mem+0xff7ff79c>
  8082bc:	04400404 	movi	r17,16
  8082c0:	d8801f17 	ldw	r2,124(sp)
  8082c4:	8c3efb0e 	bge	r17,r16,807eb4 <__alt_mem_onchip_mem+0xff7ffeb4>
  8082c8:	01402074 	movhi	r5,129
  8082cc:	2956f884 	addi	r5,r5,23522
  8082d0:	d9402b15 	stw	r5,172(sp)
  8082d4:	058001c4 	movi	r22,7
  8082d8:	dcc02c17 	ldw	r19,176(sp)
  8082dc:	00000306 	br	8082ec <___vfprintf_internal_r+0x1524>
  8082e0:	42000204 	addi	r8,r8,8
  8082e4:	843ffc04 	addi	r16,r16,-16
  8082e8:	8c3ef50e 	bge	r17,r16,807ec0 <__alt_mem_onchip_mem+0xff7ffec0>
  8082ec:	18c00404 	addi	r3,r3,16
  8082f0:	10800044 	addi	r2,r2,1
  8082f4:	45000015 	stw	r20,0(r8)
  8082f8:	44400115 	stw	r17,4(r8)
  8082fc:	d8c02015 	stw	r3,128(sp)
  808300:	d8801f15 	stw	r2,124(sp)
  808304:	b0bff60e 	bge	r22,r2,8082e0 <__alt_mem_onchip_mem+0xff8002e0>
  808308:	d9801e04 	addi	r6,sp,120
  80830c:	b80b883a 	mov	r5,r23
  808310:	9809883a 	mov	r4,r19
  808314:	080d8e00 	call	80d8e0 <__sprint_r>
  808318:	103bad1e 	bne	r2,zero,8071d0 <__alt_mem_onchip_mem+0xff7ff1d0>
  80831c:	d8c02017 	ldw	r3,128(sp)
  808320:	d8801f17 	ldw	r2,124(sp)
  808324:	da000404 	addi	r8,sp,16
  808328:	003fee06 	br	8082e4 <__alt_mem_onchip_mem+0xff8002e4>
  80832c:	9088703a 	and	r4,r18,r2
  808330:	203eab1e 	bne	r4,zero,807de0 <__alt_mem_onchip_mem+0xff7ffde0>
  808334:	dc401f17 	ldw	r17,124(sp)
  808338:	40800115 	stw	r2,4(r8)
  80833c:	44000015 	stw	r16,0(r8)
  808340:	8c400044 	addi	r17,r17,1
  808344:	d8c02015 	stw	r3,128(sp)
  808348:	dc401f15 	stw	r17,124(sp)
  80834c:	008001c4 	movi	r2,7
  808350:	14400e16 	blt	r2,r17,80838c <___vfprintf_internal_r+0x15c4>
  808354:	45800204 	addi	r22,r8,8
  808358:	003eca06 	br	807e84 <__alt_mem_onchip_mem+0xff7ffe84>
  80835c:	01002074 	movhi	r4,129
  808360:	2116f884 	addi	r4,r4,23522
  808364:	d9002b15 	stw	r4,172(sp)
  808368:	d8802b17 	ldw	r2,172(sp)
  80836c:	1c07883a 	add	r3,r3,r16
  808370:	8c400044 	addi	r17,r17,1
  808374:	b0800015 	stw	r2,0(r22)
  808378:	b4000115 	stw	r16,4(r22)
  80837c:	d8c02015 	stw	r3,128(sp)
  808380:	dc401f15 	stw	r17,124(sp)
  808384:	008001c4 	movi	r2,7
  808388:	147ebd0e 	bge	r2,r17,807e80 <__alt_mem_onchip_mem+0xff7ffe80>
  80838c:	d9002c17 	ldw	r4,176(sp)
  808390:	d9801e04 	addi	r6,sp,120
  808394:	b80b883a 	mov	r5,r23
  808398:	080d8e00 	call	80d8e0 <__sprint_r>
  80839c:	103b8c1e 	bne	r2,zero,8071d0 <__alt_mem_onchip_mem+0xff7ff1d0>
  8083a0:	d8c02017 	ldw	r3,128(sp)
  8083a4:	dc401f17 	ldw	r17,124(sp)
  8083a8:	dd800404 	addi	r22,sp,16
  8083ac:	003eb506 	br	807e84 <__alt_mem_onchip_mem+0xff7ffe84>
  8083b0:	d9002c17 	ldw	r4,176(sp)
  8083b4:	d9801e04 	addi	r6,sp,120
  8083b8:	b80b883a 	mov	r5,r23
  8083bc:	080d8e00 	call	80d8e0 <__sprint_r>
  8083c0:	103b831e 	bne	r2,zero,8071d0 <__alt_mem_onchip_mem+0xff7ff1d0>
  8083c4:	d8c02017 	ldw	r3,128(sp)
  8083c8:	dc401f17 	ldw	r17,124(sp)
  8083cc:	da000404 	addi	r8,sp,16
  8083d0:	003e8d06 	br	807e08 <__alt_mem_onchip_mem+0xff7ffe08>
  8083d4:	d9002c17 	ldw	r4,176(sp)
  8083d8:	d9801e04 	addi	r6,sp,120
  8083dc:	b80b883a 	mov	r5,r23
  8083e0:	080d8e00 	call	80d8e0 <__sprint_r>
  8083e4:	103b7a1e 	bne	r2,zero,8071d0 <__alt_mem_onchip_mem+0xff7ff1d0>
  8083e8:	d8c02017 	ldw	r3,128(sp)
  8083ec:	dc401f17 	ldw	r17,124(sp)
  8083f0:	dd800404 	addi	r22,sp,16
  8083f4:	003e8f06 	br	807e34 <__alt_mem_onchip_mem+0xff7ffe34>
  8083f8:	0027883a 	mov	r19,zero
  8083fc:	003f4a06 	br	808128 <__alt_mem_onchip_mem+0xff800128>
  808400:	d9002c17 	ldw	r4,176(sp)
  808404:	d9801e04 	addi	r6,sp,120
  808408:	b80b883a 	mov	r5,r23
  80840c:	080d8e00 	call	80d8e0 <__sprint_r>
  808410:	103b6f1e 	bne	r2,zero,8071d0 <__alt_mem_onchip_mem+0xff7ff1d0>
  808414:	d8c02017 	ldw	r3,128(sp)
  808418:	da000404 	addi	r8,sp,16
  80841c:	003c9d06 	br	807694 <__alt_mem_onchip_mem+0xff7ff694>
  808420:	04e7c83a 	sub	r19,zero,r19
  808424:	9804c03a 	cmpne	r2,r19,zero
  808428:	05adc83a 	sub	r22,zero,r22
  80842c:	b0adc83a 	sub	r22,r22,r2
  808430:	d8802917 	ldw	r2,164(sp)
  808434:	07000b44 	movi	fp,45
  808438:	df002785 	stb	fp,158(sp)
  80843c:	10017b16 	blt	r2,zero,808a2c <___vfprintf_internal_r+0x1c64>
  808440:	00bfdfc4 	movi	r2,-129
  808444:	90a4703a 	and	r18,r18,r2
  808448:	003bb106 	br	807310 <__alt_mem_onchip_mem+0xff7ff310>
  80844c:	d9003617 	ldw	r4,216(sp)
  808450:	d9403817 	ldw	r5,224(sp)
  808454:	da003d15 	stw	r8,244(sp)
  808458:	080d46c0 	call	80d46c <__fpclassifyd>
  80845c:	da003d17 	ldw	r8,244(sp)
  808460:	1000f026 	beq	r2,zero,808824 <___vfprintf_internal_r+0x1a5c>
  808464:	d9002917 	ldw	r4,164(sp)
  808468:	05bff7c4 	movi	r22,-33
  80846c:	00bfffc4 	movi	r2,-1
  808470:	8dac703a 	and	r22,r17,r22
  808474:	20820026 	beq	r4,r2,808c78 <___vfprintf_internal_r+0x1eb0>
  808478:	008011c4 	movi	r2,71
  80847c:	b081f726 	beq	r22,r2,808c5c <___vfprintf_internal_r+0x1e94>
  808480:	d9003817 	ldw	r4,224(sp)
  808484:	90c04014 	ori	r3,r18,256
  808488:	d8c02b15 	stw	r3,172(sp)
  80848c:	20021516 	blt	r4,zero,808ce4 <___vfprintf_internal_r+0x1f1c>
  808490:	dcc03817 	ldw	r19,224(sp)
  808494:	d8002a05 	stb	zero,168(sp)
  808498:	00801984 	movi	r2,102
  80849c:	8881f926 	beq	r17,r2,808c84 <___vfprintf_internal_r+0x1ebc>
  8084a0:	00801184 	movi	r2,70
  8084a4:	88821c26 	beq	r17,r2,808d18 <___vfprintf_internal_r+0x1f50>
  8084a8:	00801144 	movi	r2,69
  8084ac:	b081ef26 	beq	r22,r2,808c6c <___vfprintf_internal_r+0x1ea4>
  8084b0:	d8c02917 	ldw	r3,164(sp)
  8084b4:	d8802104 	addi	r2,sp,132
  8084b8:	d8800315 	stw	r2,12(sp)
  8084bc:	d9403617 	ldw	r5,216(sp)
  8084c0:	d8802504 	addi	r2,sp,148
  8084c4:	d9002c17 	ldw	r4,176(sp)
  8084c8:	d8800215 	stw	r2,8(sp)
  8084cc:	d8802604 	addi	r2,sp,152
  8084d0:	d8c00015 	stw	r3,0(sp)
  8084d4:	d8800115 	stw	r2,4(sp)
  8084d8:	01c00084 	movi	r7,2
  8084dc:	980d883a 	mov	r6,r19
  8084e0:	d8c03c15 	stw	r3,240(sp)
  8084e4:	da003d15 	stw	r8,244(sp)
  8084e8:	08093ec0 	call	8093ec <_dtoa_r>
  8084ec:	1021883a 	mov	r16,r2
  8084f0:	008019c4 	movi	r2,103
  8084f4:	d8c03c17 	ldw	r3,240(sp)
  8084f8:	da003d17 	ldw	r8,244(sp)
  8084fc:	88817126 	beq	r17,r2,808ac4 <___vfprintf_internal_r+0x1cfc>
  808500:	008011c4 	movi	r2,71
  808504:	88829226 	beq	r17,r2,808f50 <___vfprintf_internal_r+0x2188>
  808508:	80f9883a 	add	fp,r16,r3
  80850c:	d9003617 	ldw	r4,216(sp)
  808510:	000d883a 	mov	r6,zero
  808514:	000f883a 	mov	r7,zero
  808518:	980b883a 	mov	r5,r19
  80851c:	da003d15 	stw	r8,244(sp)
  808520:	08118280 	call	811828 <__eqdf2>
  808524:	da003d17 	ldw	r8,244(sp)
  808528:	10018d26 	beq	r2,zero,808b60 <___vfprintf_internal_r+0x1d98>
  80852c:	d8802117 	ldw	r2,132(sp)
  808530:	1700062e 	bgeu	r2,fp,80854c <___vfprintf_internal_r+0x1784>
  808534:	01000c04 	movi	r4,48
  808538:	10c00044 	addi	r3,r2,1
  80853c:	d8c02115 	stw	r3,132(sp)
  808540:	11000005 	stb	r4,0(r2)
  808544:	d8802117 	ldw	r2,132(sp)
  808548:	173ffb36 	bltu	r2,fp,808538 <__alt_mem_onchip_mem+0xff800538>
  80854c:	1405c83a 	sub	r2,r2,r16
  808550:	d8803315 	stw	r2,204(sp)
  808554:	008011c4 	movi	r2,71
  808558:	b0817626 	beq	r22,r2,808b34 <___vfprintf_internal_r+0x1d6c>
  80855c:	00801944 	movi	r2,101
  808560:	1442810e 	bge	r2,r17,808f68 <___vfprintf_internal_r+0x21a0>
  808564:	d8c02617 	ldw	r3,152(sp)
  808568:	00801984 	movi	r2,102
  80856c:	d8c03215 	stw	r3,200(sp)
  808570:	8881fe26 	beq	r17,r2,808d6c <___vfprintf_internal_r+0x1fa4>
  808574:	d8c03217 	ldw	r3,200(sp)
  808578:	d9003317 	ldw	r4,204(sp)
  80857c:	1901dd16 	blt	r3,r4,808cf4 <___vfprintf_internal_r+0x1f2c>
  808580:	9480004c 	andi	r18,r18,1
  808584:	90022b1e 	bne	r18,zero,808e34 <___vfprintf_internal_r+0x206c>
  808588:	1805883a 	mov	r2,r3
  80858c:	18028016 	blt	r3,zero,808f90 <___vfprintf_internal_r+0x21c8>
  808590:	d8c03217 	ldw	r3,200(sp)
  808594:	044019c4 	movi	r17,103
  808598:	d8c02e15 	stw	r3,184(sp)
  80859c:	df002a07 	ldb	fp,168(sp)
  8085a0:	e001531e 	bne	fp,zero,808af0 <___vfprintf_internal_r+0x1d28>
  8085a4:	df002783 	ldbu	fp,158(sp)
  8085a8:	d8802a15 	stw	r2,168(sp)
  8085ac:	dc802b17 	ldw	r18,172(sp)
  8085b0:	d8002915 	stw	zero,164(sp)
  8085b4:	003bd106 	br	8074fc <__alt_mem_onchip_mem+0xff7ff4fc>
  8085b8:	d8802d17 	ldw	r2,180(sp)
  8085bc:	d8c02d17 	ldw	r3,180(sp)
  8085c0:	d9002d17 	ldw	r4,180(sp)
  8085c4:	10800017 	ldw	r2,0(r2)
  8085c8:	18c00117 	ldw	r3,4(r3)
  8085cc:	21000204 	addi	r4,r4,8
  8085d0:	d8803615 	stw	r2,216(sp)
  8085d4:	d8c03815 	stw	r3,224(sp)
  8085d8:	d9002d15 	stw	r4,180(sp)
  8085dc:	003b7506 	br	8073b4 <__alt_mem_onchip_mem+0xff7ff3b4>
  8085e0:	ac400007 	ldb	r17,0(r21)
  8085e4:	003a5906 	br	806f4c <__alt_mem_onchip_mem+0xff7fef4c>
  8085e8:	9080100c 	andi	r2,r18,64
  8085ec:	1000a826 	beq	r2,zero,808890 <___vfprintf_internal_r+0x1ac8>
  8085f0:	d9002d17 	ldw	r4,180(sp)
  8085f4:	002d883a 	mov	r22,zero
  8085f8:	24c0000b 	ldhu	r19,0(r4)
  8085fc:	21000104 	addi	r4,r4,4
  808600:	d9002d15 	stw	r4,180(sp)
  808604:	003ccb06 	br	807934 <__alt_mem_onchip_mem+0xff7ff934>
  808608:	d8c02d17 	ldw	r3,180(sp)
  80860c:	d9002917 	ldw	r4,164(sp)
  808610:	002d883a 	mov	r22,zero
  808614:	18800104 	addi	r2,r3,4
  808618:	1cc00017 	ldw	r19,0(r3)
  80861c:	203ebb0e 	bge	r4,zero,80810c <__alt_mem_onchip_mem+0xff80010c>
  808620:	003ef106 	br	8081e8 <__alt_mem_onchip_mem+0xff8001e8>
  808624:	9080040c 	andi	r2,r18,16
  808628:	1000921e 	bne	r2,zero,808874 <___vfprintf_internal_r+0x1aac>
  80862c:	9480100c 	andi	r18,r18,64
  808630:	90013926 	beq	r18,zero,808b18 <___vfprintf_internal_r+0x1d50>
  808634:	d9002d17 	ldw	r4,180(sp)
  808638:	d9402f17 	ldw	r5,188(sp)
  80863c:	20800017 	ldw	r2,0(r4)
  808640:	21000104 	addi	r4,r4,4
  808644:	d9002d15 	stw	r4,180(sp)
  808648:	1140000d 	sth	r5,0(r2)
  80864c:	003a1606 	br	806ea8 <__alt_mem_onchip_mem+0xff7feea8>
  808650:	9080100c 	andi	r2,r18,64
  808654:	10008026 	beq	r2,zero,808858 <___vfprintf_internal_r+0x1a90>
  808658:	d8c02d17 	ldw	r3,180(sp)
  80865c:	1cc0000f 	ldh	r19,0(r3)
  808660:	18c00104 	addi	r3,r3,4
  808664:	d8c02d15 	stw	r3,180(sp)
  808668:	982dd7fa 	srai	r22,r19,31
  80866c:	b005883a 	mov	r2,r22
  808670:	003b1f06 	br	8072f0 <__alt_mem_onchip_mem+0xff7ff2f0>
  808674:	9080100c 	andi	r2,r18,64
  808678:	d8002785 	stb	zero,158(sp)
  80867c:	10008a1e 	bne	r2,zero,8088a8 <___vfprintf_internal_r+0x1ae0>
  808680:	d9402d17 	ldw	r5,180(sp)
  808684:	d8c02917 	ldw	r3,164(sp)
  808688:	002d883a 	mov	r22,zero
  80868c:	28800104 	addi	r2,r5,4
  808690:	2cc00017 	ldw	r19,0(r5)
  808694:	183e4b0e 	bge	r3,zero,807fc4 <__alt_mem_onchip_mem+0xff7fffc4>
  808698:	9d86b03a 	or	r3,r19,r22
  80869c:	d8802d15 	stw	r2,180(sp)
  8086a0:	183e4c1e 	bne	r3,zero,807fd4 <__alt_mem_onchip_mem+0xff7fffd4>
  8086a4:	0039883a 	mov	fp,zero
  8086a8:	0005883a 	mov	r2,zero
  8086ac:	003d4006 	br	807bb0 <__alt_mem_onchip_mem+0xff7ffbb0>
  8086b0:	01402074 	movhi	r5,129
  8086b4:	2956f884 	addi	r5,r5,23522
  8086b8:	d9402b15 	stw	r5,172(sp)
  8086bc:	d9402b17 	ldw	r5,172(sp)
  8086c0:	1c47883a 	add	r3,r3,r17
  8086c4:	10800044 	addi	r2,r2,1
  8086c8:	41400015 	stw	r5,0(r8)
  8086cc:	44400115 	stw	r17,4(r8)
  8086d0:	d8c02015 	stw	r3,128(sp)
  8086d4:	d8801f15 	stw	r2,124(sp)
  8086d8:	010001c4 	movi	r4,7
  8086dc:	20bec816 	blt	r4,r2,808200 <__alt_mem_onchip_mem+0xff800200>
  8086e0:	42000204 	addi	r8,r8,8
  8086e4:	003ecd06 	br	80821c <__alt_mem_onchip_mem+0xff80021c>
  8086e8:	d9002917 	ldw	r4,164(sp)
  8086ec:	d8002785 	stb	zero,158(sp)
  8086f0:	203d2d16 	blt	r4,zero,807ba8 <__alt_mem_onchip_mem+0xff7ffba8>
  8086f4:	00bfdfc4 	movi	r2,-129
  8086f8:	90a4703a 	and	r18,r18,r2
  8086fc:	003a9106 	br	807144 <__alt_mem_onchip_mem+0xff7ff144>
  808700:	01002074 	movhi	r4,129
  808704:	2116f884 	addi	r4,r4,23522
  808708:	d9002b15 	stw	r4,172(sp)
  80870c:	003c0c06 	br	807740 <__alt_mem_onchip_mem+0xff7ff740>
  808710:	d9002c17 	ldw	r4,176(sp)
  808714:	d9801e04 	addi	r6,sp,120
  808718:	b80b883a 	mov	r5,r23
  80871c:	080d8e00 	call	80d8e0 <__sprint_r>
  808720:	103aab1e 	bne	r2,zero,8071d0 <__alt_mem_onchip_mem+0xff7ff1d0>
  808724:	d8c02017 	ldw	r3,128(sp)
  808728:	da000404 	addi	r8,sp,16
  80872c:	003d4106 	br	807c34 <__alt_mem_onchip_mem+0xff7ffc34>
  808730:	d8801f17 	ldw	r2,124(sp)
  808734:	01402074 	movhi	r5,129
  808738:	01000044 	movi	r4,1
  80873c:	18c00044 	addi	r3,r3,1
  808740:	10800044 	addi	r2,r2,1
  808744:	2956f804 	addi	r5,r5,23520
  808748:	41000115 	stw	r4,4(r8)
  80874c:	41400015 	stw	r5,0(r8)
  808750:	d8c02015 	stw	r3,128(sp)
  808754:	d8801f15 	stw	r2,124(sp)
  808758:	010001c4 	movi	r4,7
  80875c:	20805c16 	blt	r4,r2,8088d0 <___vfprintf_internal_r+0x1b08>
  808760:	42000204 	addi	r8,r8,8
  808764:	8800041e 	bne	r17,zero,808778 <___vfprintf_internal_r+0x19b0>
  808768:	d8803317 	ldw	r2,204(sp)
  80876c:	1000021e 	bne	r2,zero,808778 <___vfprintf_internal_r+0x19b0>
  808770:	9080004c 	andi	r2,r18,1
  808774:	103c0926 	beq	r2,zero,80779c <__alt_mem_onchip_mem+0xff7ff79c>
  808778:	d9003717 	ldw	r4,220(sp)
  80877c:	d8801f17 	ldw	r2,124(sp)
  808780:	d9403417 	ldw	r5,208(sp)
  808784:	20c7883a 	add	r3,r4,r3
  808788:	10800044 	addi	r2,r2,1
  80878c:	41000115 	stw	r4,4(r8)
  808790:	41400015 	stw	r5,0(r8)
  808794:	d8c02015 	stw	r3,128(sp)
  808798:	d8801f15 	stw	r2,124(sp)
  80879c:	010001c4 	movi	r4,7
  8087a0:	20812116 	blt	r4,r2,808c28 <___vfprintf_internal_r+0x1e60>
  8087a4:	42000204 	addi	r8,r8,8
  8087a8:	0463c83a 	sub	r17,zero,r17
  8087ac:	0440730e 	bge	zero,r17,80897c <___vfprintf_internal_r+0x1bb4>
  8087b0:	05800404 	movi	r22,16
  8087b4:	b440860e 	bge	r22,r17,8089d0 <___vfprintf_internal_r+0x1c08>
  8087b8:	01402074 	movhi	r5,129
  8087bc:	2956f884 	addi	r5,r5,23522
  8087c0:	d9402b15 	stw	r5,172(sp)
  8087c4:	070001c4 	movi	fp,7
  8087c8:	dcc02c17 	ldw	r19,176(sp)
  8087cc:	00000306 	br	8087dc <___vfprintf_internal_r+0x1a14>
  8087d0:	42000204 	addi	r8,r8,8
  8087d4:	8c7ffc04 	addi	r17,r17,-16
  8087d8:	b440800e 	bge	r22,r17,8089dc <___vfprintf_internal_r+0x1c14>
  8087dc:	18c00404 	addi	r3,r3,16
  8087e0:	10800044 	addi	r2,r2,1
  8087e4:	45000015 	stw	r20,0(r8)
  8087e8:	45800115 	stw	r22,4(r8)
  8087ec:	d8c02015 	stw	r3,128(sp)
  8087f0:	d8801f15 	stw	r2,124(sp)
  8087f4:	e0bff60e 	bge	fp,r2,8087d0 <__alt_mem_onchip_mem+0xff8007d0>
  8087f8:	d9801e04 	addi	r6,sp,120
  8087fc:	b80b883a 	mov	r5,r23
  808800:	9809883a 	mov	r4,r19
  808804:	080d8e00 	call	80d8e0 <__sprint_r>
  808808:	103a711e 	bne	r2,zero,8071d0 <__alt_mem_onchip_mem+0xff7ff1d0>
  80880c:	d8c02017 	ldw	r3,128(sp)
  808810:	d8801f17 	ldw	r2,124(sp)
  808814:	da000404 	addi	r8,sp,16
  808818:	003fee06 	br	8087d4 <__alt_mem_onchip_mem+0xff8007d4>
  80881c:	00bfffc4 	movi	r2,-1
  808820:	003a6f06 	br	8071e0 <__alt_mem_onchip_mem+0xff7ff1e0>
  808824:	008011c4 	movi	r2,71
  808828:	1440b816 	blt	r2,r17,808b0c <___vfprintf_internal_r+0x1d44>
  80882c:	04002074 	movhi	r16,129
  808830:	8416ea04 	addi	r16,r16,23464
  808834:	00c000c4 	movi	r3,3
  808838:	00bfdfc4 	movi	r2,-129
  80883c:	d8c02a15 	stw	r3,168(sp)
  808840:	90a4703a 	and	r18,r18,r2
  808844:	df002783 	ldbu	fp,158(sp)
  808848:	d8c02e15 	stw	r3,184(sp)
  80884c:	d8002915 	stw	zero,164(sp)
  808850:	d8003215 	stw	zero,200(sp)
  808854:	003b2906 	br	8074fc <__alt_mem_onchip_mem+0xff7ff4fc>
  808858:	d9002d17 	ldw	r4,180(sp)
  80885c:	24c00017 	ldw	r19,0(r4)
  808860:	21000104 	addi	r4,r4,4
  808864:	d9002d15 	stw	r4,180(sp)
  808868:	982dd7fa 	srai	r22,r19,31
  80886c:	b005883a 	mov	r2,r22
  808870:	003a9f06 	br	8072f0 <__alt_mem_onchip_mem+0xff7ff2f0>
  808874:	d9402d17 	ldw	r5,180(sp)
  808878:	d8c02f17 	ldw	r3,188(sp)
  80887c:	28800017 	ldw	r2,0(r5)
  808880:	29400104 	addi	r5,r5,4
  808884:	d9402d15 	stw	r5,180(sp)
  808888:	10c00015 	stw	r3,0(r2)
  80888c:	00398606 	br	806ea8 <__alt_mem_onchip_mem+0xff7feea8>
  808890:	d9402d17 	ldw	r5,180(sp)
  808894:	002d883a 	mov	r22,zero
  808898:	2cc00017 	ldw	r19,0(r5)
  80889c:	29400104 	addi	r5,r5,4
  8088a0:	d9402d15 	stw	r5,180(sp)
  8088a4:	003c2306 	br	807934 <__alt_mem_onchip_mem+0xff7ff934>
  8088a8:	d8c02d17 	ldw	r3,180(sp)
  8088ac:	d9002917 	ldw	r4,164(sp)
  8088b0:	002d883a 	mov	r22,zero
  8088b4:	18800104 	addi	r2,r3,4
  8088b8:	1cc0000b 	ldhu	r19,0(r3)
  8088bc:	203dc10e 	bge	r4,zero,807fc4 <__alt_mem_onchip_mem+0xff7fffc4>
  8088c0:	003f7506 	br	808698 <__alt_mem_onchip_mem+0xff800698>
  8088c4:	04002074 	movhi	r16,129
  8088c8:	8416e804 	addi	r16,r16,23456
  8088cc:	003acc06 	br	807400 <__alt_mem_onchip_mem+0xff7ff400>
  8088d0:	d9002c17 	ldw	r4,176(sp)
  8088d4:	d9801e04 	addi	r6,sp,120
  8088d8:	b80b883a 	mov	r5,r23
  8088dc:	080d8e00 	call	80d8e0 <__sprint_r>
  8088e0:	103a3b1e 	bne	r2,zero,8071d0 <__alt_mem_onchip_mem+0xff7ff1d0>
  8088e4:	dc402617 	ldw	r17,152(sp)
  8088e8:	d8c02017 	ldw	r3,128(sp)
  8088ec:	da000404 	addi	r8,sp,16
  8088f0:	003f9c06 	br	808764 <__alt_mem_onchip_mem+0xff800764>
  8088f4:	ac400043 	ldbu	r17,1(r21)
  8088f8:	94800814 	ori	r18,r18,32
  8088fc:	ad400044 	addi	r21,r21,1
  808900:	8c403fcc 	andi	r17,r17,255
  808904:	8c40201c 	xori	r17,r17,128
  808908:	8c7fe004 	addi	r17,r17,-128
  80890c:	00398f06 	br	806f4c <__alt_mem_onchip_mem+0xff7fef4c>
  808910:	d8c02d15 	stw	r3,180(sp)
  808914:	0039883a 	mov	fp,zero
  808918:	003e3506 	br	8081f0 <__alt_mem_onchip_mem+0xff8001f0>
  80891c:	d9002c17 	ldw	r4,176(sp)
  808920:	d9801e04 	addi	r6,sp,120
  808924:	b80b883a 	mov	r5,r23
  808928:	080d8e00 	call	80d8e0 <__sprint_r>
  80892c:	103a281e 	bne	r2,zero,8071d0 <__alt_mem_onchip_mem+0xff7ff1d0>
  808930:	d8c02017 	ldw	r3,128(sp)
  808934:	da000404 	addi	r8,sp,16
  808938:	003cd006 	br	807c7c <__alt_mem_onchip_mem+0xff7ffc7c>
  80893c:	8009883a 	mov	r4,r16
  808940:	da003d15 	stw	r8,244(sp)
  808944:	080d74c0 	call	80d74c <strlen>
  808948:	d8802e15 	stw	r2,184(sp)
  80894c:	da003d17 	ldw	r8,244(sp)
  808950:	103c340e 	bge	r2,zero,807a24 <__alt_mem_onchip_mem+0xff7ffa24>
  808954:	0005883a 	mov	r2,zero
  808958:	003c3206 	br	807a24 <__alt_mem_onchip_mem+0xff7ffa24>
  80895c:	d9002c17 	ldw	r4,176(sp)
  808960:	d9801e04 	addi	r6,sp,120
  808964:	b80b883a 	mov	r5,r23
  808968:	080d8e00 	call	80d8e0 <__sprint_r>
  80896c:	103a181e 	bne	r2,zero,8071d0 <__alt_mem_onchip_mem+0xff7ff1d0>
  808970:	d8c02017 	ldw	r3,128(sp)
  808974:	d8801f17 	ldw	r2,124(sp)
  808978:	da000404 	addi	r8,sp,16
  80897c:	d9403317 	ldw	r5,204(sp)
  808980:	10800044 	addi	r2,r2,1
  808984:	44000015 	stw	r16,0(r8)
  808988:	28c7883a 	add	r3,r5,r3
  80898c:	003b7d06 	br	807784 <__alt_mem_onchip_mem+0xff7ff784>
  808990:	01002074 	movhi	r4,129
  808994:	2116fc84 	addi	r4,r4,23538
  808998:	d9003515 	stw	r4,212(sp)
  80899c:	003b1406 	br	8075f0 <__alt_mem_onchip_mem+0xff7ff5f0>
  8089a0:	013fffc4 	movi	r4,-1
  8089a4:	003a3506 	br	80727c <__alt_mem_onchip_mem+0xff7ff27c>
  8089a8:	0023883a 	mov	r17,zero
  8089ac:	003d9d06 	br	808024 <__alt_mem_onchip_mem+0xff800024>
  8089b0:	d9002c17 	ldw	r4,176(sp)
  8089b4:	d9801e04 	addi	r6,sp,120
  8089b8:	b80b883a 	mov	r5,r23
  8089bc:	080d8e00 	call	80d8e0 <__sprint_r>
  8089c0:	103a031e 	bne	r2,zero,8071d0 <__alt_mem_onchip_mem+0xff7ff1d0>
  8089c4:	d8c02017 	ldw	r3,128(sp)
  8089c8:	da000404 	addi	r8,sp,16
  8089cc:	003d9406 	br	808020 <__alt_mem_onchip_mem+0xff800020>
  8089d0:	01002074 	movhi	r4,129
  8089d4:	2116f884 	addi	r4,r4,23522
  8089d8:	d9002b15 	stw	r4,172(sp)
  8089dc:	d9002b17 	ldw	r4,172(sp)
  8089e0:	1c47883a 	add	r3,r3,r17
  8089e4:	10800044 	addi	r2,r2,1
  8089e8:	41000015 	stw	r4,0(r8)
  8089ec:	44400115 	stw	r17,4(r8)
  8089f0:	d8c02015 	stw	r3,128(sp)
  8089f4:	d8801f15 	stw	r2,124(sp)
  8089f8:	010001c4 	movi	r4,7
  8089fc:	20bfd716 	blt	r4,r2,80895c <__alt_mem_onchip_mem+0xff80095c>
  808a00:	42000204 	addi	r8,r8,8
  808a04:	003fdd06 	br	80897c <__alt_mem_onchip_mem+0xff80097c>
  808a08:	d9002c17 	ldw	r4,176(sp)
  808a0c:	d9801e04 	addi	r6,sp,120
  808a10:	b80b883a 	mov	r5,r23
  808a14:	080d8e00 	call	80d8e0 <__sprint_r>
  808a18:	1039ed1e 	bne	r2,zero,8071d0 <__alt_mem_onchip_mem+0xff7ff1d0>
  808a1c:	d8802617 	ldw	r2,152(sp)
  808a20:	d8c02017 	ldw	r3,128(sp)
  808a24:	da000404 	addi	r8,sp,16
  808a28:	003e1006 	br	80826c <__alt_mem_onchip_mem+0xff80026c>
  808a2c:	00800044 	movi	r2,1
  808a30:	10803fcc 	andi	r2,r2,255
  808a34:	00c00044 	movi	r3,1
  808a38:	10fa3526 	beq	r2,r3,807310 <__alt_mem_onchip_mem+0xff7ff310>
  808a3c:	00c00084 	movi	r3,2
  808a40:	10fbcb26 	beq	r2,r3,807970 <__alt_mem_onchip_mem+0xff7ff970>
  808a44:	003a8f06 	br	807484 <__alt_mem_onchip_mem+0xff7ff484>
  808a48:	01002074 	movhi	r4,129
  808a4c:	2116fc84 	addi	r4,r4,23538
  808a50:	d9003515 	stw	r4,212(sp)
  808a54:	003b7606 	br	807830 <__alt_mem_onchip_mem+0xff7ff830>
  808a58:	d8802917 	ldw	r2,164(sp)
  808a5c:	00c00184 	movi	r3,6
  808a60:	1880012e 	bgeu	r3,r2,808a68 <___vfprintf_internal_r+0x1ca0>
  808a64:	1805883a 	mov	r2,r3
  808a68:	d8802e15 	stw	r2,184(sp)
  808a6c:	1000ef16 	blt	r2,zero,808e2c <___vfprintf_internal_r+0x2064>
  808a70:	04002074 	movhi	r16,129
  808a74:	d8802a15 	stw	r2,168(sp)
  808a78:	dcc02d15 	stw	r19,180(sp)
  808a7c:	d8002915 	stw	zero,164(sp)
  808a80:	d8003215 	stw	zero,200(sp)
  808a84:	8416f604 	addi	r16,r16,23512
  808a88:	0039883a 	mov	fp,zero
  808a8c:	003aa206 	br	807518 <__alt_mem_onchip_mem+0xff7ff518>
  808a90:	0021883a 	mov	r16,zero
  808a94:	003e0706 	br	8082b4 <__alt_mem_onchip_mem+0xff8002b4>
  808a98:	d9002c17 	ldw	r4,176(sp)
  808a9c:	d9801e04 	addi	r6,sp,120
  808aa0:	b80b883a 	mov	r5,r23
  808aa4:	080d8e00 	call	80d8e0 <__sprint_r>
  808aa8:	1039c91e 	bne	r2,zero,8071d0 <__alt_mem_onchip_mem+0xff7ff1d0>
  808aac:	d8802617 	ldw	r2,152(sp)
  808ab0:	d9403317 	ldw	r5,204(sp)
  808ab4:	d8c02017 	ldw	r3,128(sp)
  808ab8:	da000404 	addi	r8,sp,16
  808abc:	2885c83a 	sub	r2,r5,r2
  808ac0:	003dfb06 	br	8082b0 <__alt_mem_onchip_mem+0xff8002b0>
  808ac4:	9080004c 	andi	r2,r18,1
  808ac8:	103e8f1e 	bne	r2,zero,808508 <__alt_mem_onchip_mem+0xff800508>
  808acc:	d8802117 	ldw	r2,132(sp)
  808ad0:	003e9e06 	br	80854c <__alt_mem_onchip_mem+0xff80054c>
  808ad4:	1025883a 	mov	r18,r2
  808ad8:	0039883a 	mov	fp,zero
  808adc:	00800084 	movi	r2,2
  808ae0:	003fd306 	br	808a30 <__alt_mem_onchip_mem+0xff800a30>
  808ae4:	07000b44 	movi	fp,45
  808ae8:	df002785 	stb	fp,158(sp)
  808aec:	003a4006 	br	8073f0 <__alt_mem_onchip_mem+0xff7ff3f0>
  808af0:	00c00b44 	movi	r3,45
  808af4:	d8c02785 	stb	r3,158(sp)
  808af8:	d8802a15 	stw	r2,168(sp)
  808afc:	dc802b17 	ldw	r18,172(sp)
  808b00:	d8002915 	stw	zero,164(sp)
  808b04:	07000b44 	movi	fp,45
  808b08:	003a8006 	br	80750c <__alt_mem_onchip_mem+0xff7ff50c>
  808b0c:	04002074 	movhi	r16,129
  808b10:	8416eb04 	addi	r16,r16,23468
  808b14:	003f4706 	br	808834 <__alt_mem_onchip_mem+0xff800834>
  808b18:	d8c02d17 	ldw	r3,180(sp)
  808b1c:	d9002f17 	ldw	r4,188(sp)
  808b20:	18800017 	ldw	r2,0(r3)
  808b24:	18c00104 	addi	r3,r3,4
  808b28:	d8c02d15 	stw	r3,180(sp)
  808b2c:	11000015 	stw	r4,0(r2)
  808b30:	0038dd06 	br	806ea8 <__alt_mem_onchip_mem+0xff7feea8>
  808b34:	dd802617 	ldw	r22,152(sp)
  808b38:	00bfff44 	movi	r2,-3
  808b3c:	b0801c16 	blt	r22,r2,808bb0 <___vfprintf_internal_r+0x1de8>
  808b40:	d9402917 	ldw	r5,164(sp)
  808b44:	2d801a16 	blt	r5,r22,808bb0 <___vfprintf_internal_r+0x1de8>
  808b48:	dd803215 	stw	r22,200(sp)
  808b4c:	003e8906 	br	808574 <__alt_mem_onchip_mem+0xff800574>
  808b50:	01002074 	movhi	r4,129
  808b54:	2116f884 	addi	r4,r4,23522
  808b58:	d9002b15 	stw	r4,172(sp)
  808b5c:	003c9106 	br	807da4 <__alt_mem_onchip_mem+0xff7ffda4>
  808b60:	e005883a 	mov	r2,fp
  808b64:	003e7906 	br	80854c <__alt_mem_onchip_mem+0xff80054c>
  808b68:	d9402917 	ldw	r5,164(sp)
  808b6c:	df002783 	ldbu	fp,158(sp)
  808b70:	dcc02d15 	stw	r19,180(sp)
  808b74:	d9402a15 	stw	r5,168(sp)
  808b78:	d9402e15 	stw	r5,184(sp)
  808b7c:	d8002915 	stw	zero,164(sp)
  808b80:	d8003215 	stw	zero,200(sp)
  808b84:	003a5d06 	br	8074fc <__alt_mem_onchip_mem+0xff7ff4fc>
  808b88:	9080004c 	andi	r2,r18,1
  808b8c:	0039883a 	mov	fp,zero
  808b90:	10000426 	beq	r2,zero,808ba4 <___vfprintf_internal_r+0x1ddc>
  808b94:	00800c04 	movi	r2,48
  808b98:	dc001dc4 	addi	r16,sp,119
  808b9c:	d8801dc5 	stb	r2,119(sp)
  808ba0:	003b8006 	br	8079a4 <__alt_mem_onchip_mem+0xff7ff9a4>
  808ba4:	d8002e15 	stw	zero,184(sp)
  808ba8:	dc001e04 	addi	r16,sp,120
  808bac:	003a4d06 	br	8074e4 <__alt_mem_onchip_mem+0xff7ff4e4>
  808bb0:	8c7fff84 	addi	r17,r17,-2
  808bb4:	b5bfffc4 	addi	r22,r22,-1
  808bb8:	dd802615 	stw	r22,152(sp)
  808bbc:	dc4022c5 	stb	r17,139(sp)
  808bc0:	b000bf16 	blt	r22,zero,808ec0 <___vfprintf_internal_r+0x20f8>
  808bc4:	00800ac4 	movi	r2,43
  808bc8:	d8802305 	stb	r2,140(sp)
  808bcc:	00800244 	movi	r2,9
  808bd0:	15807016 	blt	r2,r22,808d94 <___vfprintf_internal_r+0x1fcc>
  808bd4:	00800c04 	movi	r2,48
  808bd8:	b5800c04 	addi	r22,r22,48
  808bdc:	d8802345 	stb	r2,141(sp)
  808be0:	dd802385 	stb	r22,142(sp)
  808be4:	d88023c4 	addi	r2,sp,143
  808be8:	df0022c4 	addi	fp,sp,139
  808bec:	d8c03317 	ldw	r3,204(sp)
  808bf0:	1739c83a 	sub	fp,r2,fp
  808bf4:	d9003317 	ldw	r4,204(sp)
  808bf8:	e0c7883a 	add	r3,fp,r3
  808bfc:	df003a15 	stw	fp,232(sp)
  808c00:	d8c02e15 	stw	r3,184(sp)
  808c04:	00800044 	movi	r2,1
  808c08:	1100b30e 	bge	r2,r4,808ed8 <___vfprintf_internal_r+0x2110>
  808c0c:	d8c02e17 	ldw	r3,184(sp)
  808c10:	18c00044 	addi	r3,r3,1
  808c14:	d8c02e15 	stw	r3,184(sp)
  808c18:	1805883a 	mov	r2,r3
  808c1c:	1800ac16 	blt	r3,zero,808ed0 <___vfprintf_internal_r+0x2108>
  808c20:	d8003215 	stw	zero,200(sp)
  808c24:	003e5d06 	br	80859c <__alt_mem_onchip_mem+0xff80059c>
  808c28:	d9002c17 	ldw	r4,176(sp)
  808c2c:	d9801e04 	addi	r6,sp,120
  808c30:	b80b883a 	mov	r5,r23
  808c34:	080d8e00 	call	80d8e0 <__sprint_r>
  808c38:	1039651e 	bne	r2,zero,8071d0 <__alt_mem_onchip_mem+0xff7ff1d0>
  808c3c:	dc402617 	ldw	r17,152(sp)
  808c40:	d8c02017 	ldw	r3,128(sp)
  808c44:	d8801f17 	ldw	r2,124(sp)
  808c48:	da000404 	addi	r8,sp,16
  808c4c:	003ed606 	br	8087a8 <__alt_mem_onchip_mem+0xff8007a8>
  808c50:	582b883a 	mov	r21,r11
  808c54:	d8002915 	stw	zero,164(sp)
  808c58:	0038bd06 	br	806f50 <__alt_mem_onchip_mem+0xff7fef50>
  808c5c:	d8802917 	ldw	r2,164(sp)
  808c60:	103e071e 	bne	r2,zero,808480 <__alt_mem_onchip_mem+0xff800480>
  808c64:	dc002915 	stw	r16,164(sp)
  808c68:	003e0506 	br	808480 <__alt_mem_onchip_mem+0xff800480>
  808c6c:	d9002917 	ldw	r4,164(sp)
  808c70:	20c00044 	addi	r3,r4,1
  808c74:	003e0f06 	br	8084b4 <__alt_mem_onchip_mem+0xff8004b4>
  808c78:	01400184 	movi	r5,6
  808c7c:	d9402915 	stw	r5,164(sp)
  808c80:	003dff06 	br	808480 <__alt_mem_onchip_mem+0xff800480>
  808c84:	d8802104 	addi	r2,sp,132
  808c88:	d8800315 	stw	r2,12(sp)
  808c8c:	d8802504 	addi	r2,sp,148
  808c90:	d8800215 	stw	r2,8(sp)
  808c94:	d8802604 	addi	r2,sp,152
  808c98:	d8800115 	stw	r2,4(sp)
  808c9c:	d8802917 	ldw	r2,164(sp)
  808ca0:	d9403617 	ldw	r5,216(sp)
  808ca4:	d9002c17 	ldw	r4,176(sp)
  808ca8:	d8800015 	stw	r2,0(sp)
  808cac:	01c000c4 	movi	r7,3
  808cb0:	980d883a 	mov	r6,r19
  808cb4:	da003d15 	stw	r8,244(sp)
  808cb8:	08093ec0 	call	8093ec <_dtoa_r>
  808cbc:	d8c02917 	ldw	r3,164(sp)
  808cc0:	da003d17 	ldw	r8,244(sp)
  808cc4:	1021883a 	mov	r16,r2
  808cc8:	10f9883a 	add	fp,r2,r3
  808ccc:	81000007 	ldb	r4,0(r16)
  808cd0:	00800c04 	movi	r2,48
  808cd4:	20805e26 	beq	r4,r2,808e50 <___vfprintf_internal_r+0x2088>
  808cd8:	d8c02617 	ldw	r3,152(sp)
  808cdc:	e0f9883a 	add	fp,fp,r3
  808ce0:	003e0a06 	br	80850c <__alt_mem_onchip_mem+0xff80050c>
  808ce4:	00c00b44 	movi	r3,45
  808ce8:	24e0003c 	xorhi	r19,r4,32768
  808cec:	d8c02a05 	stb	r3,168(sp)
  808cf0:	003de906 	br	808498 <__alt_mem_onchip_mem+0xff800498>
  808cf4:	d8c03217 	ldw	r3,200(sp)
  808cf8:	00c07a0e 	bge	zero,r3,808ee4 <___vfprintf_internal_r+0x211c>
  808cfc:	00800044 	movi	r2,1
  808d00:	d9003317 	ldw	r4,204(sp)
  808d04:	1105883a 	add	r2,r2,r4
  808d08:	d8802e15 	stw	r2,184(sp)
  808d0c:	10004e16 	blt	r2,zero,808e48 <___vfprintf_internal_r+0x2080>
  808d10:	044019c4 	movi	r17,103
  808d14:	003e2106 	br	80859c <__alt_mem_onchip_mem+0xff80059c>
  808d18:	d9002917 	ldw	r4,164(sp)
  808d1c:	d8802104 	addi	r2,sp,132
  808d20:	d8800315 	stw	r2,12(sp)
  808d24:	d9000015 	stw	r4,0(sp)
  808d28:	d8802504 	addi	r2,sp,148
  808d2c:	d9403617 	ldw	r5,216(sp)
  808d30:	d9002c17 	ldw	r4,176(sp)
  808d34:	d8800215 	stw	r2,8(sp)
  808d38:	d8802604 	addi	r2,sp,152
  808d3c:	d8800115 	stw	r2,4(sp)
  808d40:	01c000c4 	movi	r7,3
  808d44:	980d883a 	mov	r6,r19
  808d48:	da003d15 	stw	r8,244(sp)
  808d4c:	08093ec0 	call	8093ec <_dtoa_r>
  808d50:	d8c02917 	ldw	r3,164(sp)
  808d54:	da003d17 	ldw	r8,244(sp)
  808d58:	1021883a 	mov	r16,r2
  808d5c:	00801184 	movi	r2,70
  808d60:	80f9883a 	add	fp,r16,r3
  808d64:	88bfd926 	beq	r17,r2,808ccc <__alt_mem_onchip_mem+0xff800ccc>
  808d68:	003de806 	br	80850c <__alt_mem_onchip_mem+0xff80050c>
  808d6c:	d9002917 	ldw	r4,164(sp)
  808d70:	00c04d0e 	bge	zero,r3,808ea8 <___vfprintf_internal_r+0x20e0>
  808d74:	2000441e 	bne	r4,zero,808e88 <___vfprintf_internal_r+0x20c0>
  808d78:	9480004c 	andi	r18,r18,1
  808d7c:	9000421e 	bne	r18,zero,808e88 <___vfprintf_internal_r+0x20c0>
  808d80:	1805883a 	mov	r2,r3
  808d84:	18007016 	blt	r3,zero,808f48 <___vfprintf_internal_r+0x2180>
  808d88:	d8c03217 	ldw	r3,200(sp)
  808d8c:	d8c02e15 	stw	r3,184(sp)
  808d90:	003e0206 	br	80859c <__alt_mem_onchip_mem+0xff80059c>
  808d94:	df0022c4 	addi	fp,sp,139
  808d98:	dc002915 	stw	r16,164(sp)
  808d9c:	4027883a 	mov	r19,r8
  808da0:	e021883a 	mov	r16,fp
  808da4:	b009883a 	mov	r4,r22
  808da8:	01400284 	movi	r5,10
  808dac:	0810e100 	call	810e10 <__modsi3>
  808db0:	10800c04 	addi	r2,r2,48
  808db4:	843fffc4 	addi	r16,r16,-1
  808db8:	b009883a 	mov	r4,r22
  808dbc:	01400284 	movi	r5,10
  808dc0:	80800005 	stb	r2,0(r16)
  808dc4:	0810d8c0 	call	810d8c <__divsi3>
  808dc8:	102d883a 	mov	r22,r2
  808dcc:	00800244 	movi	r2,9
  808dd0:	15bff416 	blt	r2,r22,808da4 <__alt_mem_onchip_mem+0xff800da4>
  808dd4:	9811883a 	mov	r8,r19
  808dd8:	b0800c04 	addi	r2,r22,48
  808ddc:	8027883a 	mov	r19,r16
  808de0:	997fffc4 	addi	r5,r19,-1
  808de4:	98bfffc5 	stb	r2,-1(r19)
  808de8:	dc002917 	ldw	r16,164(sp)
  808dec:	2f006a2e 	bgeu	r5,fp,808f98 <___vfprintf_internal_r+0x21d0>
  808df0:	d9c02384 	addi	r7,sp,142
  808df4:	3ccfc83a 	sub	r7,r7,r19
  808df8:	d9002344 	addi	r4,sp,141
  808dfc:	e1cf883a 	add	r7,fp,r7
  808e00:	00000106 	br	808e08 <___vfprintf_internal_r+0x2040>
  808e04:	28800003 	ldbu	r2,0(r5)
  808e08:	20800005 	stb	r2,0(r4)
  808e0c:	21000044 	addi	r4,r4,1
  808e10:	29400044 	addi	r5,r5,1
  808e14:	393ffb1e 	bne	r7,r4,808e04 <__alt_mem_onchip_mem+0xff800e04>
  808e18:	d8802304 	addi	r2,sp,140
  808e1c:	14c5c83a 	sub	r2,r2,r19
  808e20:	d8c02344 	addi	r3,sp,141
  808e24:	1885883a 	add	r2,r3,r2
  808e28:	003f7006 	br	808bec <__alt_mem_onchip_mem+0xff800bec>
  808e2c:	0005883a 	mov	r2,zero
  808e30:	003f0f06 	br	808a70 <__alt_mem_onchip_mem+0xff800a70>
  808e34:	d8c03217 	ldw	r3,200(sp)
  808e38:	18c00044 	addi	r3,r3,1
  808e3c:	d8c02e15 	stw	r3,184(sp)
  808e40:	1805883a 	mov	r2,r3
  808e44:	183fb20e 	bge	r3,zero,808d10 <__alt_mem_onchip_mem+0xff800d10>
  808e48:	0005883a 	mov	r2,zero
  808e4c:	003fb006 	br	808d10 <__alt_mem_onchip_mem+0xff800d10>
  808e50:	d9003617 	ldw	r4,216(sp)
  808e54:	000d883a 	mov	r6,zero
  808e58:	000f883a 	mov	r7,zero
  808e5c:	980b883a 	mov	r5,r19
  808e60:	d8c03c15 	stw	r3,240(sp)
  808e64:	da003d15 	stw	r8,244(sp)
  808e68:	08118280 	call	811828 <__eqdf2>
  808e6c:	d8c03c17 	ldw	r3,240(sp)
  808e70:	da003d17 	ldw	r8,244(sp)
  808e74:	103f9826 	beq	r2,zero,808cd8 <__alt_mem_onchip_mem+0xff800cd8>
  808e78:	00800044 	movi	r2,1
  808e7c:	10c7c83a 	sub	r3,r2,r3
  808e80:	d8c02615 	stw	r3,152(sp)
  808e84:	003f9506 	br	808cdc <__alt_mem_onchip_mem+0xff800cdc>
  808e88:	d9002917 	ldw	r4,164(sp)
  808e8c:	d8c03217 	ldw	r3,200(sp)
  808e90:	20800044 	addi	r2,r4,1
  808e94:	1885883a 	add	r2,r3,r2
  808e98:	d8802e15 	stw	r2,184(sp)
  808e9c:	103dbf0e 	bge	r2,zero,80859c <__alt_mem_onchip_mem+0xff80059c>
  808ea0:	0005883a 	mov	r2,zero
  808ea4:	003dbd06 	br	80859c <__alt_mem_onchip_mem+0xff80059c>
  808ea8:	2000211e 	bne	r4,zero,808f30 <___vfprintf_internal_r+0x2168>
  808eac:	9480004c 	andi	r18,r18,1
  808eb0:	90001f1e 	bne	r18,zero,808f30 <___vfprintf_internal_r+0x2168>
  808eb4:	00800044 	movi	r2,1
  808eb8:	d8802e15 	stw	r2,184(sp)
  808ebc:	003db706 	br	80859c <__alt_mem_onchip_mem+0xff80059c>
  808ec0:	00800b44 	movi	r2,45
  808ec4:	05adc83a 	sub	r22,zero,r22
  808ec8:	d8802305 	stb	r2,140(sp)
  808ecc:	003f3f06 	br	808bcc <__alt_mem_onchip_mem+0xff800bcc>
  808ed0:	0005883a 	mov	r2,zero
  808ed4:	003f5206 	br	808c20 <__alt_mem_onchip_mem+0xff800c20>
  808ed8:	90a4703a 	and	r18,r18,r2
  808edc:	903f4e26 	beq	r18,zero,808c18 <__alt_mem_onchip_mem+0xff800c18>
  808ee0:	003f4a06 	br	808c0c <__alt_mem_onchip_mem+0xff800c0c>
  808ee4:	00800084 	movi	r2,2
  808ee8:	10c5c83a 	sub	r2,r2,r3
  808eec:	003f8406 	br	808d00 <__alt_mem_onchip_mem+0xff800d00>
  808ef0:	d8802d17 	ldw	r2,180(sp)
  808ef4:	d9002d17 	ldw	r4,180(sp)
  808ef8:	ac400043 	ldbu	r17,1(r21)
  808efc:	10800017 	ldw	r2,0(r2)
  808f00:	582b883a 	mov	r21,r11
  808f04:	d8802915 	stw	r2,164(sp)
  808f08:	20800104 	addi	r2,r4,4
  808f0c:	d9002917 	ldw	r4,164(sp)
  808f10:	d8802d15 	stw	r2,180(sp)
  808f14:	203e7a0e 	bge	r4,zero,808900 <__alt_mem_onchip_mem+0xff800900>
  808f18:	8c403fcc 	andi	r17,r17,255
  808f1c:	00bfffc4 	movi	r2,-1
  808f20:	8c40201c 	xori	r17,r17,128
  808f24:	d8802915 	stw	r2,164(sp)
  808f28:	8c7fe004 	addi	r17,r17,-128
  808f2c:	00380706 	br	806f4c <__alt_mem_onchip_mem+0xff7fef4c>
  808f30:	d8c02917 	ldw	r3,164(sp)
  808f34:	18c00084 	addi	r3,r3,2
  808f38:	d8c02e15 	stw	r3,184(sp)
  808f3c:	1805883a 	mov	r2,r3
  808f40:	183d960e 	bge	r3,zero,80859c <__alt_mem_onchip_mem+0xff80059c>
  808f44:	003fd606 	br	808ea0 <__alt_mem_onchip_mem+0xff800ea0>
  808f48:	0005883a 	mov	r2,zero
  808f4c:	003f8e06 	br	808d88 <__alt_mem_onchip_mem+0xff800d88>
  808f50:	9080004c 	andi	r2,r18,1
  808f54:	103f811e 	bne	r2,zero,808d5c <__alt_mem_onchip_mem+0xff800d5c>
  808f58:	d8802117 	ldw	r2,132(sp)
  808f5c:	1405c83a 	sub	r2,r2,r16
  808f60:	d8803315 	stw	r2,204(sp)
  808f64:	b47ef326 	beq	r22,r17,808b34 <__alt_mem_onchip_mem+0xff800b34>
  808f68:	dd802617 	ldw	r22,152(sp)
  808f6c:	003f1106 	br	808bb4 <__alt_mem_onchip_mem+0xff800bb4>
  808f70:	d9c02785 	stb	r7,158(sp)
  808f74:	00390406 	br	807388 <__alt_mem_onchip_mem+0xff7ff388>
  808f78:	d9c02785 	stb	r7,158(sp)
  808f7c:	0038d306 	br	8072cc <__alt_mem_onchip_mem+0xff7ff2cc>
  808f80:	d9c02785 	stb	r7,158(sp)
  808f84:	003a6106 	br	80790c <__alt_mem_onchip_mem+0xff7ff90c>
  808f88:	d9c02785 	stb	r7,158(sp)
  808f8c:	003af806 	br	807b70 <__alt_mem_onchip_mem+0xff7ffb70>
  808f90:	0005883a 	mov	r2,zero
  808f94:	003d7e06 	br	808590 <__alt_mem_onchip_mem+0xff800590>
  808f98:	d8802344 	addi	r2,sp,141
  808f9c:	003f1306 	br	808bec <__alt_mem_onchip_mem+0xff800bec>
  808fa0:	d9c02785 	stb	r7,158(sp)
  808fa4:	00392306 	br	807434 <__alt_mem_onchip_mem+0xff7ff434>
  808fa8:	d9c02785 	stb	r7,158(sp)
  808fac:	003aa906 	br	807a54 <__alt_mem_onchip_mem+0xff7ffa54>
  808fb0:	d9c02785 	stb	r7,158(sp)
  808fb4:	003a3d06 	br	8078ac <__alt_mem_onchip_mem+0xff7ff8ac>
  808fb8:	d9c02785 	stb	r7,158(sp)
  808fbc:	003aca06 	br	807ae8 <__alt_mem_onchip_mem+0xff7ffae8>

00808fc0 <__vfprintf_internal>:
  808fc0:	00802074 	movhi	r2,129
  808fc4:	109f3004 	addi	r2,r2,31936
  808fc8:	300f883a 	mov	r7,r6
  808fcc:	280d883a 	mov	r6,r5
  808fd0:	200b883a 	mov	r5,r4
  808fd4:	11000017 	ldw	r4,0(r2)
  808fd8:	0806dc81 	jmpi	806dc8 <___vfprintf_internal_r>

00808fdc <__sbprintf>:
  808fdc:	2880030b 	ldhu	r2,12(r5)
  808fe0:	2ac01917 	ldw	r11,100(r5)
  808fe4:	2a80038b 	ldhu	r10,14(r5)
  808fe8:	2a400717 	ldw	r9,28(r5)
  808fec:	2a000917 	ldw	r8,36(r5)
  808ff0:	defee204 	addi	sp,sp,-1144
  808ff4:	00c10004 	movi	r3,1024
  808ff8:	dc011a15 	stw	r16,1128(sp)
  808ffc:	10bfff4c 	andi	r2,r2,65533
  809000:	2821883a 	mov	r16,r5
  809004:	d8cb883a 	add	r5,sp,r3
  809008:	dc811c15 	stw	r18,1136(sp)
  80900c:	dc411b15 	stw	r17,1132(sp)
  809010:	dfc11d15 	stw	ra,1140(sp)
  809014:	2025883a 	mov	r18,r4
  809018:	d881030d 	sth	r2,1036(sp)
  80901c:	dac11915 	stw	r11,1124(sp)
  809020:	da81038d 	sth	r10,1038(sp)
  809024:	da410715 	stw	r9,1052(sp)
  809028:	da010915 	stw	r8,1060(sp)
  80902c:	dec10015 	stw	sp,1024(sp)
  809030:	dec10415 	stw	sp,1040(sp)
  809034:	d8c10215 	stw	r3,1032(sp)
  809038:	d8c10515 	stw	r3,1044(sp)
  80903c:	d8010615 	stw	zero,1048(sp)
  809040:	0806dc80 	call	806dc8 <___vfprintf_internal_r>
  809044:	1023883a 	mov	r17,r2
  809048:	10000416 	blt	r2,zero,80905c <__sbprintf+0x80>
  80904c:	d9410004 	addi	r5,sp,1024
  809050:	9009883a 	mov	r4,r18
  809054:	080ac900 	call	80ac90 <_fflush_r>
  809058:	10000d1e 	bne	r2,zero,809090 <__sbprintf+0xb4>
  80905c:	d881030b 	ldhu	r2,1036(sp)
  809060:	1080100c 	andi	r2,r2,64
  809064:	10000326 	beq	r2,zero,809074 <__sbprintf+0x98>
  809068:	8080030b 	ldhu	r2,12(r16)
  80906c:	10801014 	ori	r2,r2,64
  809070:	8080030d 	sth	r2,12(r16)
  809074:	8805883a 	mov	r2,r17
  809078:	dfc11d17 	ldw	ra,1140(sp)
  80907c:	dc811c17 	ldw	r18,1136(sp)
  809080:	dc411b17 	ldw	r17,1132(sp)
  809084:	dc011a17 	ldw	r16,1128(sp)
  809088:	dec11e04 	addi	sp,sp,1144
  80908c:	f800283a 	ret
  809090:	047fffc4 	movi	r17,-1
  809094:	003ff106 	br	80905c <__alt_mem_onchip_mem+0xff80105c>

00809098 <__swsetup_r>:
  809098:	00802074 	movhi	r2,129
  80909c:	defffd04 	addi	sp,sp,-12
  8090a0:	109f3004 	addi	r2,r2,31936
  8090a4:	dc400115 	stw	r17,4(sp)
  8090a8:	2023883a 	mov	r17,r4
  8090ac:	11000017 	ldw	r4,0(r2)
  8090b0:	dc000015 	stw	r16,0(sp)
  8090b4:	dfc00215 	stw	ra,8(sp)
  8090b8:	2821883a 	mov	r16,r5
  8090bc:	20000226 	beq	r4,zero,8090c8 <__swsetup_r+0x30>
  8090c0:	20800e17 	ldw	r2,56(r4)
  8090c4:	10003126 	beq	r2,zero,80918c <__swsetup_r+0xf4>
  8090c8:	8080030b 	ldhu	r2,12(r16)
  8090cc:	10c0020c 	andi	r3,r2,8
  8090d0:	1009883a 	mov	r4,r2
  8090d4:	18000f26 	beq	r3,zero,809114 <__swsetup_r+0x7c>
  8090d8:	80c00417 	ldw	r3,16(r16)
  8090dc:	18001526 	beq	r3,zero,809134 <__swsetup_r+0x9c>
  8090e0:	1100004c 	andi	r4,r2,1
  8090e4:	20001c1e 	bne	r4,zero,809158 <__swsetup_r+0xc0>
  8090e8:	1080008c 	andi	r2,r2,2
  8090ec:	1000291e 	bne	r2,zero,809194 <__swsetup_r+0xfc>
  8090f0:	80800517 	ldw	r2,20(r16)
  8090f4:	80800215 	stw	r2,8(r16)
  8090f8:	18001c26 	beq	r3,zero,80916c <__swsetup_r+0xd4>
  8090fc:	0005883a 	mov	r2,zero
  809100:	dfc00217 	ldw	ra,8(sp)
  809104:	dc400117 	ldw	r17,4(sp)
  809108:	dc000017 	ldw	r16,0(sp)
  80910c:	dec00304 	addi	sp,sp,12
  809110:	f800283a 	ret
  809114:	2080040c 	andi	r2,r4,16
  809118:	10002e26 	beq	r2,zero,8091d4 <__swsetup_r+0x13c>
  80911c:	2080010c 	andi	r2,r4,4
  809120:	10001e1e 	bne	r2,zero,80919c <__swsetup_r+0x104>
  809124:	80c00417 	ldw	r3,16(r16)
  809128:	20800214 	ori	r2,r4,8
  80912c:	8080030d 	sth	r2,12(r16)
  809130:	183feb1e 	bne	r3,zero,8090e0 <__alt_mem_onchip_mem+0xff8010e0>
  809134:	1100a00c 	andi	r4,r2,640
  809138:	01408004 	movi	r5,512
  80913c:	217fe826 	beq	r4,r5,8090e0 <__alt_mem_onchip_mem+0xff8010e0>
  809140:	800b883a 	mov	r5,r16
  809144:	8809883a 	mov	r4,r17
  809148:	080b7540 	call	80b754 <__smakebuf_r>
  80914c:	8080030b 	ldhu	r2,12(r16)
  809150:	80c00417 	ldw	r3,16(r16)
  809154:	003fe206 	br	8090e0 <__alt_mem_onchip_mem+0xff8010e0>
  809158:	80800517 	ldw	r2,20(r16)
  80915c:	80000215 	stw	zero,8(r16)
  809160:	0085c83a 	sub	r2,zero,r2
  809164:	80800615 	stw	r2,24(r16)
  809168:	183fe41e 	bne	r3,zero,8090fc <__alt_mem_onchip_mem+0xff8010fc>
  80916c:	80c0030b 	ldhu	r3,12(r16)
  809170:	0005883a 	mov	r2,zero
  809174:	1900200c 	andi	r4,r3,128
  809178:	203fe126 	beq	r4,zero,809100 <__alt_mem_onchip_mem+0xff801100>
  80917c:	18c01014 	ori	r3,r3,64
  809180:	80c0030d 	sth	r3,12(r16)
  809184:	00bfffc4 	movi	r2,-1
  809188:	003fdd06 	br	809100 <__alt_mem_onchip_mem+0xff801100>
  80918c:	080b06c0 	call	80b06c <__sinit>
  809190:	003fcd06 	br	8090c8 <__alt_mem_onchip_mem+0xff8010c8>
  809194:	0005883a 	mov	r2,zero
  809198:	003fd606 	br	8090f4 <__alt_mem_onchip_mem+0xff8010f4>
  80919c:	81400c17 	ldw	r5,48(r16)
  8091a0:	28000626 	beq	r5,zero,8091bc <__swsetup_r+0x124>
  8091a4:	80801004 	addi	r2,r16,64
  8091a8:	28800326 	beq	r5,r2,8091b8 <__swsetup_r+0x120>
  8091ac:	8809883a 	mov	r4,r17
  8091b0:	080b1e00 	call	80b1e0 <_free_r>
  8091b4:	8100030b 	ldhu	r4,12(r16)
  8091b8:	80000c15 	stw	zero,48(r16)
  8091bc:	80c00417 	ldw	r3,16(r16)
  8091c0:	00bff6c4 	movi	r2,-37
  8091c4:	1108703a 	and	r4,r2,r4
  8091c8:	80000115 	stw	zero,4(r16)
  8091cc:	80c00015 	stw	r3,0(r16)
  8091d0:	003fd506 	br	809128 <__alt_mem_onchip_mem+0xff801128>
  8091d4:	00800244 	movi	r2,9
  8091d8:	88800015 	stw	r2,0(r17)
  8091dc:	20801014 	ori	r2,r4,64
  8091e0:	8080030d 	sth	r2,12(r16)
  8091e4:	00bfffc4 	movi	r2,-1
  8091e8:	003fc506 	br	809100 <__alt_mem_onchip_mem+0xff801100>

008091ec <quorem>:
  8091ec:	defff704 	addi	sp,sp,-36
  8091f0:	dc800215 	stw	r18,8(sp)
  8091f4:	20800417 	ldw	r2,16(r4)
  8091f8:	2c800417 	ldw	r18,16(r5)
  8091fc:	dfc00815 	stw	ra,32(sp)
  809200:	ddc00715 	stw	r23,28(sp)
  809204:	dd800615 	stw	r22,24(sp)
  809208:	dd400515 	stw	r21,20(sp)
  80920c:	dd000415 	stw	r20,16(sp)
  809210:	dcc00315 	stw	r19,12(sp)
  809214:	dc400115 	stw	r17,4(sp)
  809218:	dc000015 	stw	r16,0(sp)
  80921c:	14807116 	blt	r2,r18,8093e4 <quorem+0x1f8>
  809220:	94bfffc4 	addi	r18,r18,-1
  809224:	94ad883a 	add	r22,r18,r18
  809228:	b5ad883a 	add	r22,r22,r22
  80922c:	2c400504 	addi	r17,r5,20
  809230:	8da9883a 	add	r20,r17,r22
  809234:	25400504 	addi	r21,r4,20
  809238:	282f883a 	mov	r23,r5
  80923c:	adad883a 	add	r22,r21,r22
  809240:	a1400017 	ldw	r5,0(r20)
  809244:	2021883a 	mov	r16,r4
  809248:	b1000017 	ldw	r4,0(r22)
  80924c:	29400044 	addi	r5,r5,1
  809250:	0810e840 	call	810e84 <__udivsi3>
  809254:	1027883a 	mov	r19,r2
  809258:	10002c26 	beq	r2,zero,80930c <quorem+0x120>
  80925c:	a813883a 	mov	r9,r21
  809260:	880b883a 	mov	r5,r17
  809264:	0009883a 	mov	r4,zero
  809268:	000d883a 	mov	r6,zero
  80926c:	2a000017 	ldw	r8,0(r5)
  809270:	49c00017 	ldw	r7,0(r9)
  809274:	29400104 	addi	r5,r5,4
  809278:	40bfffcc 	andi	r2,r8,65535
  80927c:	14c5383a 	mul	r2,r2,r19
  809280:	4010d43a 	srli	r8,r8,16
  809284:	38ffffcc 	andi	r3,r7,65535
  809288:	1105883a 	add	r2,r2,r4
  80928c:	1008d43a 	srli	r4,r2,16
  809290:	44d1383a 	mul	r8,r8,r19
  809294:	198d883a 	add	r6,r3,r6
  809298:	10ffffcc 	andi	r3,r2,65535
  80929c:	30c7c83a 	sub	r3,r6,r3
  8092a0:	380ed43a 	srli	r7,r7,16
  8092a4:	4105883a 	add	r2,r8,r4
  8092a8:	180dd43a 	srai	r6,r3,16
  8092ac:	113fffcc 	andi	r4,r2,65535
  8092b0:	390fc83a 	sub	r7,r7,r4
  8092b4:	398d883a 	add	r6,r7,r6
  8092b8:	300e943a 	slli	r7,r6,16
  8092bc:	18ffffcc 	andi	r3,r3,65535
  8092c0:	1008d43a 	srli	r4,r2,16
  8092c4:	38ceb03a 	or	r7,r7,r3
  8092c8:	49c00015 	stw	r7,0(r9)
  8092cc:	300dd43a 	srai	r6,r6,16
  8092d0:	4a400104 	addi	r9,r9,4
  8092d4:	a17fe52e 	bgeu	r20,r5,80926c <__alt_mem_onchip_mem+0xff80126c>
  8092d8:	b0800017 	ldw	r2,0(r22)
  8092dc:	10000b1e 	bne	r2,zero,80930c <quorem+0x120>
  8092e0:	b0bfff04 	addi	r2,r22,-4
  8092e4:	a880082e 	bgeu	r21,r2,809308 <quorem+0x11c>
  8092e8:	b0ffff17 	ldw	r3,-4(r22)
  8092ec:	18000326 	beq	r3,zero,8092fc <quorem+0x110>
  8092f0:	00000506 	br	809308 <quorem+0x11c>
  8092f4:	10c00017 	ldw	r3,0(r2)
  8092f8:	1800031e 	bne	r3,zero,809308 <quorem+0x11c>
  8092fc:	10bfff04 	addi	r2,r2,-4
  809300:	94bfffc4 	addi	r18,r18,-1
  809304:	a8bffb36 	bltu	r21,r2,8092f4 <__alt_mem_onchip_mem+0xff8012f4>
  809308:	84800415 	stw	r18,16(r16)
  80930c:	b80b883a 	mov	r5,r23
  809310:	8009883a 	mov	r4,r16
  809314:	080cd380 	call	80cd38 <__mcmp>
  809318:	10002616 	blt	r2,zero,8093b4 <quorem+0x1c8>
  80931c:	9cc00044 	addi	r19,r19,1
  809320:	a805883a 	mov	r2,r21
  809324:	000b883a 	mov	r5,zero
  809328:	11000017 	ldw	r4,0(r2)
  80932c:	89800017 	ldw	r6,0(r17)
  809330:	10800104 	addi	r2,r2,4
  809334:	20ffffcc 	andi	r3,r4,65535
  809338:	194b883a 	add	r5,r3,r5
  80933c:	30ffffcc 	andi	r3,r6,65535
  809340:	28c7c83a 	sub	r3,r5,r3
  809344:	300cd43a 	srli	r6,r6,16
  809348:	2008d43a 	srli	r4,r4,16
  80934c:	180bd43a 	srai	r5,r3,16
  809350:	18ffffcc 	andi	r3,r3,65535
  809354:	2189c83a 	sub	r4,r4,r6
  809358:	2149883a 	add	r4,r4,r5
  80935c:	200c943a 	slli	r6,r4,16
  809360:	8c400104 	addi	r17,r17,4
  809364:	200bd43a 	srai	r5,r4,16
  809368:	30c6b03a 	or	r3,r6,r3
  80936c:	10ffff15 	stw	r3,-4(r2)
  809370:	a47fed2e 	bgeu	r20,r17,809328 <__alt_mem_onchip_mem+0xff801328>
  809374:	9485883a 	add	r2,r18,r18
  809378:	1085883a 	add	r2,r2,r2
  80937c:	a887883a 	add	r3,r21,r2
  809380:	18800017 	ldw	r2,0(r3)
  809384:	10000b1e 	bne	r2,zero,8093b4 <quorem+0x1c8>
  809388:	18bfff04 	addi	r2,r3,-4
  80938c:	a880082e 	bgeu	r21,r2,8093b0 <quorem+0x1c4>
  809390:	18ffff17 	ldw	r3,-4(r3)
  809394:	18000326 	beq	r3,zero,8093a4 <quorem+0x1b8>
  809398:	00000506 	br	8093b0 <quorem+0x1c4>
  80939c:	10c00017 	ldw	r3,0(r2)
  8093a0:	1800031e 	bne	r3,zero,8093b0 <quorem+0x1c4>
  8093a4:	10bfff04 	addi	r2,r2,-4
  8093a8:	94bfffc4 	addi	r18,r18,-1
  8093ac:	a8bffb36 	bltu	r21,r2,80939c <__alt_mem_onchip_mem+0xff80139c>
  8093b0:	84800415 	stw	r18,16(r16)
  8093b4:	9805883a 	mov	r2,r19
  8093b8:	dfc00817 	ldw	ra,32(sp)
  8093bc:	ddc00717 	ldw	r23,28(sp)
  8093c0:	dd800617 	ldw	r22,24(sp)
  8093c4:	dd400517 	ldw	r21,20(sp)
  8093c8:	dd000417 	ldw	r20,16(sp)
  8093cc:	dcc00317 	ldw	r19,12(sp)
  8093d0:	dc800217 	ldw	r18,8(sp)
  8093d4:	dc400117 	ldw	r17,4(sp)
  8093d8:	dc000017 	ldw	r16,0(sp)
  8093dc:	dec00904 	addi	sp,sp,36
  8093e0:	f800283a 	ret
  8093e4:	0005883a 	mov	r2,zero
  8093e8:	003ff306 	br	8093b8 <__alt_mem_onchip_mem+0xff8013b8>

008093ec <_dtoa_r>:
  8093ec:	20801017 	ldw	r2,64(r4)
  8093f0:	deffde04 	addi	sp,sp,-136
  8093f4:	df002015 	stw	fp,128(sp)
  8093f8:	dcc01b15 	stw	r19,108(sp)
  8093fc:	dc801a15 	stw	r18,104(sp)
  809400:	dc401915 	stw	r17,100(sp)
  809404:	dc001815 	stw	r16,96(sp)
  809408:	dfc02115 	stw	ra,132(sp)
  80940c:	ddc01f15 	stw	r23,124(sp)
  809410:	dd801e15 	stw	r22,120(sp)
  809414:	dd401d15 	stw	r21,116(sp)
  809418:	dd001c15 	stw	r20,112(sp)
  80941c:	d9c00315 	stw	r7,12(sp)
  809420:	2039883a 	mov	fp,r4
  809424:	3023883a 	mov	r17,r6
  809428:	2825883a 	mov	r18,r5
  80942c:	dc002417 	ldw	r16,144(sp)
  809430:	3027883a 	mov	r19,r6
  809434:	10000826 	beq	r2,zero,809458 <_dtoa_r+0x6c>
  809438:	21801117 	ldw	r6,68(r4)
  80943c:	00c00044 	movi	r3,1
  809440:	100b883a 	mov	r5,r2
  809444:	1986983a 	sll	r3,r3,r6
  809448:	11800115 	stw	r6,4(r2)
  80944c:	10c00215 	stw	r3,8(r2)
  809450:	080c5180 	call	80c518 <_Bfree>
  809454:	e0001015 	stw	zero,64(fp)
  809458:	88002e16 	blt	r17,zero,809514 <_dtoa_r+0x128>
  80945c:	80000015 	stw	zero,0(r16)
  809460:	889ffc2c 	andhi	r2,r17,32752
  809464:	00dffc34 	movhi	r3,32752
  809468:	10c01c26 	beq	r2,r3,8094dc <_dtoa_r+0xf0>
  80946c:	000d883a 	mov	r6,zero
  809470:	000f883a 	mov	r7,zero
  809474:	9009883a 	mov	r4,r18
  809478:	980b883a 	mov	r5,r19
  80947c:	08118280 	call	811828 <__eqdf2>
  809480:	10002b1e 	bne	r2,zero,809530 <_dtoa_r+0x144>
  809484:	d9c02317 	ldw	r7,140(sp)
  809488:	00800044 	movi	r2,1
  80948c:	38800015 	stw	r2,0(r7)
  809490:	d8802517 	ldw	r2,148(sp)
  809494:	10019e26 	beq	r2,zero,809b10 <_dtoa_r+0x724>
  809498:	d8c02517 	ldw	r3,148(sp)
  80949c:	00802074 	movhi	r2,129
  8094a0:	1096f844 	addi	r2,r2,23521
  8094a4:	18800015 	stw	r2,0(r3)
  8094a8:	10bfffc4 	addi	r2,r2,-1
  8094ac:	dfc02117 	ldw	ra,132(sp)
  8094b0:	df002017 	ldw	fp,128(sp)
  8094b4:	ddc01f17 	ldw	r23,124(sp)
  8094b8:	dd801e17 	ldw	r22,120(sp)
  8094bc:	dd401d17 	ldw	r21,116(sp)
  8094c0:	dd001c17 	ldw	r20,112(sp)
  8094c4:	dcc01b17 	ldw	r19,108(sp)
  8094c8:	dc801a17 	ldw	r18,104(sp)
  8094cc:	dc401917 	ldw	r17,100(sp)
  8094d0:	dc001817 	ldw	r16,96(sp)
  8094d4:	dec02204 	addi	sp,sp,136
  8094d8:	f800283a 	ret
  8094dc:	d8c02317 	ldw	r3,140(sp)
  8094e0:	0089c3c4 	movi	r2,9999
  8094e4:	18800015 	stw	r2,0(r3)
  8094e8:	90017726 	beq	r18,zero,809ac8 <_dtoa_r+0x6dc>
  8094ec:	00802074 	movhi	r2,129
  8094f0:	10970404 	addi	r2,r2,23568
  8094f4:	d9002517 	ldw	r4,148(sp)
  8094f8:	203fec26 	beq	r4,zero,8094ac <__alt_mem_onchip_mem+0xff8014ac>
  8094fc:	10c000c7 	ldb	r3,3(r2)
  809500:	1801781e 	bne	r3,zero,809ae4 <_dtoa_r+0x6f8>
  809504:	10c000c4 	addi	r3,r2,3
  809508:	d9802517 	ldw	r6,148(sp)
  80950c:	30c00015 	stw	r3,0(r6)
  809510:	003fe606 	br	8094ac <__alt_mem_onchip_mem+0xff8014ac>
  809514:	04e00034 	movhi	r19,32768
  809518:	9cffffc4 	addi	r19,r19,-1
  80951c:	00800044 	movi	r2,1
  809520:	8ce6703a 	and	r19,r17,r19
  809524:	80800015 	stw	r2,0(r16)
  809528:	9823883a 	mov	r17,r19
  80952c:	003fcc06 	br	809460 <__alt_mem_onchip_mem+0xff801460>
  809530:	d8800204 	addi	r2,sp,8
  809534:	d8800015 	stw	r2,0(sp)
  809538:	d9c00104 	addi	r7,sp,4
  80953c:	900b883a 	mov	r5,r18
  809540:	980d883a 	mov	r6,r19
  809544:	e009883a 	mov	r4,fp
  809548:	8820d53a 	srli	r16,r17,20
  80954c:	080d1040 	call	80d104 <__d2b>
  809550:	d8800915 	stw	r2,36(sp)
  809554:	8001651e 	bne	r16,zero,809aec <_dtoa_r+0x700>
  809558:	dd800217 	ldw	r22,8(sp)
  80955c:	dc000117 	ldw	r16,4(sp)
  809560:	00800804 	movi	r2,32
  809564:	b421883a 	add	r16,r22,r16
  809568:	80c10c84 	addi	r3,r16,1074
  80956c:	10c2d10e 	bge	r2,r3,80a0b4 <_dtoa_r+0xcc8>
  809570:	00801004 	movi	r2,64
  809574:	81010484 	addi	r4,r16,1042
  809578:	10c7c83a 	sub	r3,r2,r3
  80957c:	9108d83a 	srl	r4,r18,r4
  809580:	88e2983a 	sll	r17,r17,r3
  809584:	2448b03a 	or	r4,r4,r17
  809588:	0806c500 	call	806c50 <__floatunsidf>
  80958c:	017f8434 	movhi	r5,65040
  809590:	01800044 	movi	r6,1
  809594:	1009883a 	mov	r4,r2
  809598:	194b883a 	add	r5,r3,r5
  80959c:	843fffc4 	addi	r16,r16,-1
  8095a0:	d9801115 	stw	r6,68(sp)
  8095a4:	000d883a 	mov	r6,zero
  8095a8:	01cffe34 	movhi	r7,16376
  8095ac:	08062780 	call	806278 <__subdf3>
  8095b0:	0198dbf4 	movhi	r6,25455
  8095b4:	01cff4f4 	movhi	r7,16339
  8095b8:	3190d844 	addi	r6,r6,17249
  8095bc:	39e1e9c4 	addi	r7,r7,-30809
  8095c0:	1009883a 	mov	r4,r2
  8095c4:	180b883a 	mov	r5,r3
  8095c8:	0805b600 	call	805b60 <__muldf3>
  8095cc:	01a2d874 	movhi	r6,35681
  8095d0:	01cff1f4 	movhi	r7,16327
  8095d4:	31b22cc4 	addi	r6,r6,-14157
  8095d8:	39e28a04 	addi	r7,r7,-30168
  8095dc:	180b883a 	mov	r5,r3
  8095e0:	1009883a 	mov	r4,r2
  8095e4:	08050e40 	call	8050e4 <__adddf3>
  8095e8:	8009883a 	mov	r4,r16
  8095ec:	1029883a 	mov	r20,r2
  8095f0:	1823883a 	mov	r17,r3
  8095f4:	0806b740 	call	806b74 <__floatsidf>
  8095f8:	019427f4 	movhi	r6,20639
  8095fc:	01cff4f4 	movhi	r7,16339
  809600:	319e7ec4 	addi	r6,r6,31227
  809604:	39d104c4 	addi	r7,r7,17427
  809608:	1009883a 	mov	r4,r2
  80960c:	180b883a 	mov	r5,r3
  809610:	0805b600 	call	805b60 <__muldf3>
  809614:	100d883a 	mov	r6,r2
  809618:	180f883a 	mov	r7,r3
  80961c:	a009883a 	mov	r4,r20
  809620:	880b883a 	mov	r5,r17
  809624:	08050e40 	call	8050e4 <__adddf3>
  809628:	1009883a 	mov	r4,r2
  80962c:	180b883a 	mov	r5,r3
  809630:	1029883a 	mov	r20,r2
  809634:	1823883a 	mov	r17,r3
  809638:	08118b00 	call	8118b0 <__fixdfsi>
  80963c:	000d883a 	mov	r6,zero
  809640:	000f883a 	mov	r7,zero
  809644:	a009883a 	mov	r4,r20
  809648:	880b883a 	mov	r5,r17
  80964c:	d8800515 	stw	r2,20(sp)
  809650:	0805a6c0 	call	805a6c <__ledf2>
  809654:	10028716 	blt	r2,zero,80a074 <_dtoa_r+0xc88>
  809658:	d8c00517 	ldw	r3,20(sp)
  80965c:	00800584 	movi	r2,22
  809660:	10c27536 	bltu	r2,r3,80a038 <_dtoa_r+0xc4c>
  809664:	180490fa 	slli	r2,r3,3
  809668:	00c02074 	movhi	r3,129
  80966c:	18d72004 	addi	r3,r3,23680
  809670:	1885883a 	add	r2,r3,r2
  809674:	11000017 	ldw	r4,0(r2)
  809678:	11400117 	ldw	r5,4(r2)
  80967c:	900d883a 	mov	r6,r18
  809680:	980f883a 	mov	r7,r19
  809684:	08059900 	call	805990 <__gedf2>
  809688:	00828d0e 	bge	zero,r2,80a0c0 <_dtoa_r+0xcd4>
  80968c:	d9000517 	ldw	r4,20(sp)
  809690:	d8000e15 	stw	zero,56(sp)
  809694:	213fffc4 	addi	r4,r4,-1
  809698:	d9000515 	stw	r4,20(sp)
  80969c:	b42dc83a 	sub	r22,r22,r16
  8096a0:	b5bfffc4 	addi	r22,r22,-1
  8096a4:	b0026f16 	blt	r22,zero,80a064 <_dtoa_r+0xc78>
  8096a8:	d8000815 	stw	zero,32(sp)
  8096ac:	d9c00517 	ldw	r7,20(sp)
  8096b0:	38026416 	blt	r7,zero,80a044 <_dtoa_r+0xc58>
  8096b4:	b1ed883a 	add	r22,r22,r7
  8096b8:	d9c00d15 	stw	r7,52(sp)
  8096bc:	d8000a15 	stw	zero,40(sp)
  8096c0:	d9800317 	ldw	r6,12(sp)
  8096c4:	00800244 	movi	r2,9
  8096c8:	11811436 	bltu	r2,r6,809b1c <_dtoa_r+0x730>
  8096cc:	00800144 	movi	r2,5
  8096d0:	1184e10e 	bge	r2,r6,80aa58 <_dtoa_r+0x166c>
  8096d4:	31bfff04 	addi	r6,r6,-4
  8096d8:	d9800315 	stw	r6,12(sp)
  8096dc:	0023883a 	mov	r17,zero
  8096e0:	d9800317 	ldw	r6,12(sp)
  8096e4:	008000c4 	movi	r2,3
  8096e8:	30836726 	beq	r6,r2,80a488 <_dtoa_r+0x109c>
  8096ec:	1183410e 	bge	r2,r6,80a3f4 <_dtoa_r+0x1008>
  8096f0:	d9c00317 	ldw	r7,12(sp)
  8096f4:	00800104 	movi	r2,4
  8096f8:	38827c26 	beq	r7,r2,80a0ec <_dtoa_r+0xd00>
  8096fc:	00800144 	movi	r2,5
  809700:	3884c41e 	bne	r7,r2,80aa14 <_dtoa_r+0x1628>
  809704:	00800044 	movi	r2,1
  809708:	d8800b15 	stw	r2,44(sp)
  80970c:	d8c00517 	ldw	r3,20(sp)
  809710:	d9002217 	ldw	r4,136(sp)
  809714:	1907883a 	add	r3,r3,r4
  809718:	19800044 	addi	r6,r3,1
  80971c:	d8c00c15 	stw	r3,48(sp)
  809720:	d9800615 	stw	r6,24(sp)
  809724:	0183a40e 	bge	zero,r6,80a5b8 <_dtoa_r+0x11cc>
  809728:	d9800617 	ldw	r6,24(sp)
  80972c:	3021883a 	mov	r16,r6
  809730:	e0001115 	stw	zero,68(fp)
  809734:	008005c4 	movi	r2,23
  809738:	1184c92e 	bgeu	r2,r6,80aa60 <_dtoa_r+0x1674>
  80973c:	00c00044 	movi	r3,1
  809740:	00800104 	movi	r2,4
  809744:	1085883a 	add	r2,r2,r2
  809748:	11000504 	addi	r4,r2,20
  80974c:	180b883a 	mov	r5,r3
  809750:	18c00044 	addi	r3,r3,1
  809754:	313ffb2e 	bgeu	r6,r4,809744 <__alt_mem_onchip_mem+0xff801744>
  809758:	e1401115 	stw	r5,68(fp)
  80975c:	e009883a 	mov	r4,fp
  809760:	080c4700 	call	80c470 <_Balloc>
  809764:	d8800715 	stw	r2,28(sp)
  809768:	e0801015 	stw	r2,64(fp)
  80976c:	00800384 	movi	r2,14
  809770:	1400f736 	bltu	r2,r16,809b50 <_dtoa_r+0x764>
  809774:	8800f626 	beq	r17,zero,809b50 <_dtoa_r+0x764>
  809778:	d9c00517 	ldw	r7,20(sp)
  80977c:	01c39a0e 	bge	zero,r7,80a5e8 <_dtoa_r+0x11fc>
  809780:	388003cc 	andi	r2,r7,15
  809784:	100490fa 	slli	r2,r2,3
  809788:	382bd13a 	srai	r21,r7,4
  80978c:	00c02074 	movhi	r3,129
  809790:	18d72004 	addi	r3,r3,23680
  809794:	1885883a 	add	r2,r3,r2
  809798:	a8c0040c 	andi	r3,r21,16
  80979c:	12400017 	ldw	r9,0(r2)
  8097a0:	12000117 	ldw	r8,4(r2)
  8097a4:	18037926 	beq	r3,zero,80a58c <_dtoa_r+0x11a0>
  8097a8:	00802074 	movhi	r2,129
  8097ac:	10971604 	addi	r2,r2,23640
  8097b0:	11800817 	ldw	r6,32(r2)
  8097b4:	11c00917 	ldw	r7,36(r2)
  8097b8:	9009883a 	mov	r4,r18
  8097bc:	980b883a 	mov	r5,r19
  8097c0:	da001715 	stw	r8,92(sp)
  8097c4:	da401615 	stw	r9,88(sp)
  8097c8:	0810f400 	call	810f40 <__divdf3>
  8097cc:	da001717 	ldw	r8,92(sp)
  8097d0:	da401617 	ldw	r9,88(sp)
  8097d4:	ad4003cc 	andi	r21,r21,15
  8097d8:	040000c4 	movi	r16,3
  8097dc:	1023883a 	mov	r17,r2
  8097e0:	1829883a 	mov	r20,r3
  8097e4:	a8001126 	beq	r21,zero,80982c <_dtoa_r+0x440>
  8097e8:	05c02074 	movhi	r23,129
  8097ec:	bdd71604 	addi	r23,r23,23640
  8097f0:	4805883a 	mov	r2,r9
  8097f4:	4007883a 	mov	r3,r8
  8097f8:	a980004c 	andi	r6,r21,1
  8097fc:	1009883a 	mov	r4,r2
  809800:	a82bd07a 	srai	r21,r21,1
  809804:	180b883a 	mov	r5,r3
  809808:	30000426 	beq	r6,zero,80981c <_dtoa_r+0x430>
  80980c:	b9800017 	ldw	r6,0(r23)
  809810:	b9c00117 	ldw	r7,4(r23)
  809814:	84000044 	addi	r16,r16,1
  809818:	0805b600 	call	805b60 <__muldf3>
  80981c:	bdc00204 	addi	r23,r23,8
  809820:	a83ff51e 	bne	r21,zero,8097f8 <__alt_mem_onchip_mem+0xff8017f8>
  809824:	1013883a 	mov	r9,r2
  809828:	1811883a 	mov	r8,r3
  80982c:	480d883a 	mov	r6,r9
  809830:	400f883a 	mov	r7,r8
  809834:	8809883a 	mov	r4,r17
  809838:	a00b883a 	mov	r5,r20
  80983c:	0810f400 	call	810f40 <__divdf3>
  809840:	d8800f15 	stw	r2,60(sp)
  809844:	d8c01015 	stw	r3,64(sp)
  809848:	d8c00e17 	ldw	r3,56(sp)
  80984c:	18000626 	beq	r3,zero,809868 <_dtoa_r+0x47c>
  809850:	d9000f17 	ldw	r4,60(sp)
  809854:	d9401017 	ldw	r5,64(sp)
  809858:	000d883a 	mov	r6,zero
  80985c:	01cffc34 	movhi	r7,16368
  809860:	0805a6c0 	call	805a6c <__ledf2>
  809864:	10040b16 	blt	r2,zero,80a894 <_dtoa_r+0x14a8>
  809868:	8009883a 	mov	r4,r16
  80986c:	0806b740 	call	806b74 <__floatsidf>
  809870:	d9800f17 	ldw	r6,60(sp)
  809874:	d9c01017 	ldw	r7,64(sp)
  809878:	1009883a 	mov	r4,r2
  80987c:	180b883a 	mov	r5,r3
  809880:	0805b600 	call	805b60 <__muldf3>
  809884:	000d883a 	mov	r6,zero
  809888:	01d00734 	movhi	r7,16412
  80988c:	1009883a 	mov	r4,r2
  809890:	180b883a 	mov	r5,r3
  809894:	08050e40 	call	8050e4 <__adddf3>
  809898:	1021883a 	mov	r16,r2
  80989c:	d8800617 	ldw	r2,24(sp)
  8098a0:	047f3034 	movhi	r17,64704
  8098a4:	1c63883a 	add	r17,r3,r17
  8098a8:	10031826 	beq	r2,zero,80a50c <_dtoa_r+0x1120>
  8098ac:	d8c00517 	ldw	r3,20(sp)
  8098b0:	db000617 	ldw	r12,24(sp)
  8098b4:	d8c01315 	stw	r3,76(sp)
  8098b8:	d9000b17 	ldw	r4,44(sp)
  8098bc:	20038f26 	beq	r4,zero,80a6fc <_dtoa_r+0x1310>
  8098c0:	60bfffc4 	addi	r2,r12,-1
  8098c4:	100490fa 	slli	r2,r2,3
  8098c8:	00c02074 	movhi	r3,129
  8098cc:	18d72004 	addi	r3,r3,23680
  8098d0:	1885883a 	add	r2,r3,r2
  8098d4:	11800017 	ldw	r6,0(r2)
  8098d8:	11c00117 	ldw	r7,4(r2)
  8098dc:	d8800717 	ldw	r2,28(sp)
  8098e0:	0009883a 	mov	r4,zero
  8098e4:	014ff834 	movhi	r5,16352
  8098e8:	db001615 	stw	r12,88(sp)
  8098ec:	15c00044 	addi	r23,r2,1
  8098f0:	0810f400 	call	810f40 <__divdf3>
  8098f4:	800d883a 	mov	r6,r16
  8098f8:	880f883a 	mov	r7,r17
  8098fc:	1009883a 	mov	r4,r2
  809900:	180b883a 	mov	r5,r3
  809904:	08062780 	call	806278 <__subdf3>
  809908:	d9401017 	ldw	r5,64(sp)
  80990c:	d9000f17 	ldw	r4,60(sp)
  809910:	102b883a 	mov	r21,r2
  809914:	d8c01215 	stw	r3,72(sp)
  809918:	08118b00 	call	8118b0 <__fixdfsi>
  80991c:	1009883a 	mov	r4,r2
  809920:	1029883a 	mov	r20,r2
  809924:	0806b740 	call	806b74 <__floatsidf>
  809928:	d9000f17 	ldw	r4,60(sp)
  80992c:	d9401017 	ldw	r5,64(sp)
  809930:	100d883a 	mov	r6,r2
  809934:	180f883a 	mov	r7,r3
  809938:	08062780 	call	806278 <__subdf3>
  80993c:	1823883a 	mov	r17,r3
  809940:	d8c00717 	ldw	r3,28(sp)
  809944:	d9401217 	ldw	r5,72(sp)
  809948:	a2000c04 	addi	r8,r20,48
  80994c:	1021883a 	mov	r16,r2
  809950:	1a000005 	stb	r8,0(r3)
  809954:	800d883a 	mov	r6,r16
  809958:	880f883a 	mov	r7,r17
  80995c:	a809883a 	mov	r4,r21
  809960:	4029883a 	mov	r20,r8
  809964:	08059900 	call	805990 <__gedf2>
  809968:	00841d16 	blt	zero,r2,80a9e0 <_dtoa_r+0x15f4>
  80996c:	800d883a 	mov	r6,r16
  809970:	880f883a 	mov	r7,r17
  809974:	0009883a 	mov	r4,zero
  809978:	014ffc34 	movhi	r5,16368
  80997c:	08062780 	call	806278 <__subdf3>
  809980:	d9401217 	ldw	r5,72(sp)
  809984:	100d883a 	mov	r6,r2
  809988:	180f883a 	mov	r7,r3
  80998c:	a809883a 	mov	r4,r21
  809990:	08059900 	call	805990 <__gedf2>
  809994:	db001617 	ldw	r12,88(sp)
  809998:	00840e16 	blt	zero,r2,80a9d4 <_dtoa_r+0x15e8>
  80999c:	00800044 	movi	r2,1
  8099a0:	13006b0e 	bge	r2,r12,809b50 <_dtoa_r+0x764>
  8099a4:	d9000717 	ldw	r4,28(sp)
  8099a8:	dd800f15 	stw	r22,60(sp)
  8099ac:	dcc01015 	stw	r19,64(sp)
  8099b0:	2319883a 	add	r12,r4,r12
  8099b4:	dcc01217 	ldw	r19,72(sp)
  8099b8:	602d883a 	mov	r22,r12
  8099bc:	dc801215 	stw	r18,72(sp)
  8099c0:	b825883a 	mov	r18,r23
  8099c4:	00000906 	br	8099ec <_dtoa_r+0x600>
  8099c8:	08062780 	call	806278 <__subdf3>
  8099cc:	a80d883a 	mov	r6,r21
  8099d0:	980f883a 	mov	r7,r19
  8099d4:	1009883a 	mov	r4,r2
  8099d8:	180b883a 	mov	r5,r3
  8099dc:	0805a6c0 	call	805a6c <__ledf2>
  8099e0:	1003e816 	blt	r2,zero,80a984 <_dtoa_r+0x1598>
  8099e4:	b825883a 	mov	r18,r23
  8099e8:	bd83e926 	beq	r23,r22,80a990 <_dtoa_r+0x15a4>
  8099ec:	a809883a 	mov	r4,r21
  8099f0:	980b883a 	mov	r5,r19
  8099f4:	000d883a 	mov	r6,zero
  8099f8:	01d00934 	movhi	r7,16420
  8099fc:	0805b600 	call	805b60 <__muldf3>
  809a00:	000d883a 	mov	r6,zero
  809a04:	01d00934 	movhi	r7,16420
  809a08:	8009883a 	mov	r4,r16
  809a0c:	880b883a 	mov	r5,r17
  809a10:	102b883a 	mov	r21,r2
  809a14:	1827883a 	mov	r19,r3
  809a18:	0805b600 	call	805b60 <__muldf3>
  809a1c:	180b883a 	mov	r5,r3
  809a20:	1009883a 	mov	r4,r2
  809a24:	1821883a 	mov	r16,r3
  809a28:	1023883a 	mov	r17,r2
  809a2c:	08118b00 	call	8118b0 <__fixdfsi>
  809a30:	1009883a 	mov	r4,r2
  809a34:	1029883a 	mov	r20,r2
  809a38:	0806b740 	call	806b74 <__floatsidf>
  809a3c:	8809883a 	mov	r4,r17
  809a40:	800b883a 	mov	r5,r16
  809a44:	100d883a 	mov	r6,r2
  809a48:	180f883a 	mov	r7,r3
  809a4c:	08062780 	call	806278 <__subdf3>
  809a50:	a5000c04 	addi	r20,r20,48
  809a54:	a80d883a 	mov	r6,r21
  809a58:	980f883a 	mov	r7,r19
  809a5c:	1009883a 	mov	r4,r2
  809a60:	180b883a 	mov	r5,r3
  809a64:	95000005 	stb	r20,0(r18)
  809a68:	1021883a 	mov	r16,r2
  809a6c:	1823883a 	mov	r17,r3
  809a70:	0805a6c0 	call	805a6c <__ledf2>
  809a74:	bdc00044 	addi	r23,r23,1
  809a78:	800d883a 	mov	r6,r16
  809a7c:	880f883a 	mov	r7,r17
  809a80:	0009883a 	mov	r4,zero
  809a84:	014ffc34 	movhi	r5,16368
  809a88:	103fcf0e 	bge	r2,zero,8099c8 <__alt_mem_onchip_mem+0xff8019c8>
  809a8c:	d8c01317 	ldw	r3,76(sp)
  809a90:	d8c00515 	stw	r3,20(sp)
  809a94:	d9400917 	ldw	r5,36(sp)
  809a98:	e009883a 	mov	r4,fp
  809a9c:	080c5180 	call	80c518 <_Bfree>
  809aa0:	d9000517 	ldw	r4,20(sp)
  809aa4:	d9802317 	ldw	r6,140(sp)
  809aa8:	d9c02517 	ldw	r7,148(sp)
  809aac:	b8000005 	stb	zero,0(r23)
  809ab0:	20800044 	addi	r2,r4,1
  809ab4:	30800015 	stw	r2,0(r6)
  809ab8:	3802aa26 	beq	r7,zero,80a564 <_dtoa_r+0x1178>
  809abc:	3dc00015 	stw	r23,0(r7)
  809ac0:	d8800717 	ldw	r2,28(sp)
  809ac4:	003e7906 	br	8094ac <__alt_mem_onchip_mem+0xff8014ac>
  809ac8:	00800434 	movhi	r2,16
  809acc:	10bfffc4 	addi	r2,r2,-1
  809ad0:	88a2703a 	and	r17,r17,r2
  809ad4:	883e851e 	bne	r17,zero,8094ec <__alt_mem_onchip_mem+0xff8014ec>
  809ad8:	00802074 	movhi	r2,129
  809adc:	10970104 	addi	r2,r2,23556
  809ae0:	003e8406 	br	8094f4 <__alt_mem_onchip_mem+0xff8014f4>
  809ae4:	10c00204 	addi	r3,r2,8
  809ae8:	003e8706 	br	809508 <__alt_mem_onchip_mem+0xff801508>
  809aec:	01400434 	movhi	r5,16
  809af0:	297fffc4 	addi	r5,r5,-1
  809af4:	994a703a 	and	r5,r19,r5
  809af8:	9009883a 	mov	r4,r18
  809afc:	843f0044 	addi	r16,r16,-1023
  809b00:	294ffc34 	orhi	r5,r5,16368
  809b04:	dd800217 	ldw	r22,8(sp)
  809b08:	d8001115 	stw	zero,68(sp)
  809b0c:	003ea506 	br	8095a4 <__alt_mem_onchip_mem+0xff8015a4>
  809b10:	00802074 	movhi	r2,129
  809b14:	1096f804 	addi	r2,r2,23520
  809b18:	003e6406 	br	8094ac <__alt_mem_onchip_mem+0xff8014ac>
  809b1c:	e0001115 	stw	zero,68(fp)
  809b20:	000b883a 	mov	r5,zero
  809b24:	e009883a 	mov	r4,fp
  809b28:	080c4700 	call	80c470 <_Balloc>
  809b2c:	01bfffc4 	movi	r6,-1
  809b30:	01c00044 	movi	r7,1
  809b34:	d8800715 	stw	r2,28(sp)
  809b38:	d9800c15 	stw	r6,48(sp)
  809b3c:	e0801015 	stw	r2,64(fp)
  809b40:	d8000315 	stw	zero,12(sp)
  809b44:	d9c00b15 	stw	r7,44(sp)
  809b48:	d9800615 	stw	r6,24(sp)
  809b4c:	d8002215 	stw	zero,136(sp)
  809b50:	d8800117 	ldw	r2,4(sp)
  809b54:	10008916 	blt	r2,zero,809d7c <_dtoa_r+0x990>
  809b58:	d9000517 	ldw	r4,20(sp)
  809b5c:	00c00384 	movi	r3,14
  809b60:	19008616 	blt	r3,r4,809d7c <_dtoa_r+0x990>
  809b64:	200490fa 	slli	r2,r4,3
  809b68:	00c02074 	movhi	r3,129
  809b6c:	d9802217 	ldw	r6,136(sp)
  809b70:	18d72004 	addi	r3,r3,23680
  809b74:	1885883a 	add	r2,r3,r2
  809b78:	14000017 	ldw	r16,0(r2)
  809b7c:	14400117 	ldw	r17,4(r2)
  809b80:	30016316 	blt	r6,zero,80a110 <_dtoa_r+0xd24>
  809b84:	800d883a 	mov	r6,r16
  809b88:	880f883a 	mov	r7,r17
  809b8c:	9009883a 	mov	r4,r18
  809b90:	980b883a 	mov	r5,r19
  809b94:	0810f400 	call	810f40 <__divdf3>
  809b98:	180b883a 	mov	r5,r3
  809b9c:	1009883a 	mov	r4,r2
  809ba0:	08118b00 	call	8118b0 <__fixdfsi>
  809ba4:	1009883a 	mov	r4,r2
  809ba8:	102b883a 	mov	r21,r2
  809bac:	0806b740 	call	806b74 <__floatsidf>
  809bb0:	800d883a 	mov	r6,r16
  809bb4:	880f883a 	mov	r7,r17
  809bb8:	1009883a 	mov	r4,r2
  809bbc:	180b883a 	mov	r5,r3
  809bc0:	0805b600 	call	805b60 <__muldf3>
  809bc4:	100d883a 	mov	r6,r2
  809bc8:	180f883a 	mov	r7,r3
  809bcc:	9009883a 	mov	r4,r18
  809bd0:	980b883a 	mov	r5,r19
  809bd4:	08062780 	call	806278 <__subdf3>
  809bd8:	d9c00717 	ldw	r7,28(sp)
  809bdc:	1009883a 	mov	r4,r2
  809be0:	a8800c04 	addi	r2,r21,48
  809be4:	38800005 	stb	r2,0(r7)
  809be8:	3dc00044 	addi	r23,r7,1
  809bec:	d9c00617 	ldw	r7,24(sp)
  809bf0:	01800044 	movi	r6,1
  809bf4:	180b883a 	mov	r5,r3
  809bf8:	2005883a 	mov	r2,r4
  809bfc:	39803826 	beq	r7,r6,809ce0 <_dtoa_r+0x8f4>
  809c00:	000d883a 	mov	r6,zero
  809c04:	01d00934 	movhi	r7,16420
  809c08:	0805b600 	call	805b60 <__muldf3>
  809c0c:	000d883a 	mov	r6,zero
  809c10:	000f883a 	mov	r7,zero
  809c14:	1009883a 	mov	r4,r2
  809c18:	180b883a 	mov	r5,r3
  809c1c:	1025883a 	mov	r18,r2
  809c20:	1827883a 	mov	r19,r3
  809c24:	08118280 	call	811828 <__eqdf2>
  809c28:	103f9a26 	beq	r2,zero,809a94 <__alt_mem_onchip_mem+0xff801a94>
  809c2c:	d9c00617 	ldw	r7,24(sp)
  809c30:	d8c00717 	ldw	r3,28(sp)
  809c34:	b829883a 	mov	r20,r23
  809c38:	38bfffc4 	addi	r2,r7,-1
  809c3c:	18ad883a 	add	r22,r3,r2
  809c40:	00000a06 	br	809c6c <_dtoa_r+0x880>
  809c44:	0805b600 	call	805b60 <__muldf3>
  809c48:	000d883a 	mov	r6,zero
  809c4c:	000f883a 	mov	r7,zero
  809c50:	1009883a 	mov	r4,r2
  809c54:	180b883a 	mov	r5,r3
  809c58:	1025883a 	mov	r18,r2
  809c5c:	1827883a 	mov	r19,r3
  809c60:	b829883a 	mov	r20,r23
  809c64:	08118280 	call	811828 <__eqdf2>
  809c68:	103f8a26 	beq	r2,zero,809a94 <__alt_mem_onchip_mem+0xff801a94>
  809c6c:	800d883a 	mov	r6,r16
  809c70:	880f883a 	mov	r7,r17
  809c74:	9009883a 	mov	r4,r18
  809c78:	980b883a 	mov	r5,r19
  809c7c:	0810f400 	call	810f40 <__divdf3>
  809c80:	180b883a 	mov	r5,r3
  809c84:	1009883a 	mov	r4,r2
  809c88:	08118b00 	call	8118b0 <__fixdfsi>
  809c8c:	1009883a 	mov	r4,r2
  809c90:	102b883a 	mov	r21,r2
  809c94:	0806b740 	call	806b74 <__floatsidf>
  809c98:	800d883a 	mov	r6,r16
  809c9c:	880f883a 	mov	r7,r17
  809ca0:	1009883a 	mov	r4,r2
  809ca4:	180b883a 	mov	r5,r3
  809ca8:	0805b600 	call	805b60 <__muldf3>
  809cac:	100d883a 	mov	r6,r2
  809cb0:	180f883a 	mov	r7,r3
  809cb4:	9009883a 	mov	r4,r18
  809cb8:	980b883a 	mov	r5,r19
  809cbc:	08062780 	call	806278 <__subdf3>
  809cc0:	aa000c04 	addi	r8,r21,48
  809cc4:	a2000005 	stb	r8,0(r20)
  809cc8:	000d883a 	mov	r6,zero
  809ccc:	01d00934 	movhi	r7,16420
  809cd0:	1009883a 	mov	r4,r2
  809cd4:	180b883a 	mov	r5,r3
  809cd8:	a5c00044 	addi	r23,r20,1
  809cdc:	b53fd91e 	bne	r22,r20,809c44 <__alt_mem_onchip_mem+0xff801c44>
  809ce0:	100d883a 	mov	r6,r2
  809ce4:	180f883a 	mov	r7,r3
  809ce8:	1009883a 	mov	r4,r2
  809cec:	180b883a 	mov	r5,r3
  809cf0:	08050e40 	call	8050e4 <__adddf3>
  809cf4:	100d883a 	mov	r6,r2
  809cf8:	180f883a 	mov	r7,r3
  809cfc:	8009883a 	mov	r4,r16
  809d00:	880b883a 	mov	r5,r17
  809d04:	1027883a 	mov	r19,r2
  809d08:	1825883a 	mov	r18,r3
  809d0c:	0805a6c0 	call	805a6c <__ledf2>
  809d10:	10000816 	blt	r2,zero,809d34 <_dtoa_r+0x948>
  809d14:	980d883a 	mov	r6,r19
  809d18:	900f883a 	mov	r7,r18
  809d1c:	8009883a 	mov	r4,r16
  809d20:	880b883a 	mov	r5,r17
  809d24:	08118280 	call	811828 <__eqdf2>
  809d28:	103f5a1e 	bne	r2,zero,809a94 <__alt_mem_onchip_mem+0xff801a94>
  809d2c:	ad40004c 	andi	r21,r21,1
  809d30:	a83f5826 	beq	r21,zero,809a94 <__alt_mem_onchip_mem+0xff801a94>
  809d34:	bd3fffc3 	ldbu	r20,-1(r23)
  809d38:	b8bfffc4 	addi	r2,r23,-1
  809d3c:	1007883a 	mov	r3,r2
  809d40:	01400e44 	movi	r5,57
  809d44:	d9800717 	ldw	r6,28(sp)
  809d48:	00000506 	br	809d60 <_dtoa_r+0x974>
  809d4c:	18ffffc4 	addi	r3,r3,-1
  809d50:	11824726 	beq	r2,r6,80a670 <_dtoa_r+0x1284>
  809d54:	1d000003 	ldbu	r20,0(r3)
  809d58:	102f883a 	mov	r23,r2
  809d5c:	10bfffc4 	addi	r2,r2,-1
  809d60:	a1003fcc 	andi	r4,r20,255
  809d64:	2100201c 	xori	r4,r4,128
  809d68:	213fe004 	addi	r4,r4,-128
  809d6c:	217ff726 	beq	r4,r5,809d4c <__alt_mem_onchip_mem+0xff801d4c>
  809d70:	a2000044 	addi	r8,r20,1
  809d74:	12000005 	stb	r8,0(r2)
  809d78:	003f4606 	br	809a94 <__alt_mem_onchip_mem+0xff801a94>
  809d7c:	d9000b17 	ldw	r4,44(sp)
  809d80:	2000c826 	beq	r4,zero,80a0a4 <_dtoa_r+0xcb8>
  809d84:	d9800317 	ldw	r6,12(sp)
  809d88:	00c00044 	movi	r3,1
  809d8c:	1980f90e 	bge	r3,r6,80a174 <_dtoa_r+0xd88>
  809d90:	d8800617 	ldw	r2,24(sp)
  809d94:	d8c00a17 	ldw	r3,40(sp)
  809d98:	157fffc4 	addi	r21,r2,-1
  809d9c:	1d41f316 	blt	r3,r21,80a56c <_dtoa_r+0x1180>
  809da0:	1d6bc83a 	sub	r21,r3,r21
  809da4:	d9c00617 	ldw	r7,24(sp)
  809da8:	3802aa16 	blt	r7,zero,80a854 <_dtoa_r+0x1468>
  809dac:	dd000817 	ldw	r20,32(sp)
  809db0:	d8800617 	ldw	r2,24(sp)
  809db4:	d8c00817 	ldw	r3,32(sp)
  809db8:	01400044 	movi	r5,1
  809dbc:	e009883a 	mov	r4,fp
  809dc0:	1887883a 	add	r3,r3,r2
  809dc4:	d8c00815 	stw	r3,32(sp)
  809dc8:	b0ad883a 	add	r22,r22,r2
  809dcc:	080c87c0 	call	80c87c <__i2b>
  809dd0:	1023883a 	mov	r17,r2
  809dd4:	a0000826 	beq	r20,zero,809df8 <_dtoa_r+0xa0c>
  809dd8:	0580070e 	bge	zero,r22,809df8 <_dtoa_r+0xa0c>
  809ddc:	a005883a 	mov	r2,r20
  809de0:	b500b916 	blt	r22,r20,80a0c8 <_dtoa_r+0xcdc>
  809de4:	d9000817 	ldw	r4,32(sp)
  809de8:	a0a9c83a 	sub	r20,r20,r2
  809dec:	b0adc83a 	sub	r22,r22,r2
  809df0:	2089c83a 	sub	r4,r4,r2
  809df4:	d9000815 	stw	r4,32(sp)
  809df8:	d9800a17 	ldw	r6,40(sp)
  809dfc:	0181810e 	bge	zero,r6,80a404 <_dtoa_r+0x1018>
  809e00:	d9c00b17 	ldw	r7,44(sp)
  809e04:	3800b326 	beq	r7,zero,80a0d4 <_dtoa_r+0xce8>
  809e08:	a800b226 	beq	r21,zero,80a0d4 <_dtoa_r+0xce8>
  809e0c:	880b883a 	mov	r5,r17
  809e10:	a80d883a 	mov	r6,r21
  809e14:	e009883a 	mov	r4,fp
  809e18:	080cab00 	call	80cab0 <__pow5mult>
  809e1c:	d9800917 	ldw	r6,36(sp)
  809e20:	100b883a 	mov	r5,r2
  809e24:	e009883a 	mov	r4,fp
  809e28:	1023883a 	mov	r17,r2
  809e2c:	080c8b80 	call	80c8b8 <__multiply>
  809e30:	1021883a 	mov	r16,r2
  809e34:	d8800a17 	ldw	r2,40(sp)
  809e38:	d9400917 	ldw	r5,36(sp)
  809e3c:	e009883a 	mov	r4,fp
  809e40:	1545c83a 	sub	r2,r2,r21
  809e44:	d8800a15 	stw	r2,40(sp)
  809e48:	080c5180 	call	80c518 <_Bfree>
  809e4c:	d8c00a17 	ldw	r3,40(sp)
  809e50:	18009f1e 	bne	r3,zero,80a0d0 <_dtoa_r+0xce4>
  809e54:	05c00044 	movi	r23,1
  809e58:	e009883a 	mov	r4,fp
  809e5c:	b80b883a 	mov	r5,r23
  809e60:	080c87c0 	call	80c87c <__i2b>
  809e64:	d9000d17 	ldw	r4,52(sp)
  809e68:	102b883a 	mov	r21,r2
  809e6c:	2000ce26 	beq	r4,zero,80a1a8 <_dtoa_r+0xdbc>
  809e70:	200d883a 	mov	r6,r4
  809e74:	100b883a 	mov	r5,r2
  809e78:	e009883a 	mov	r4,fp
  809e7c:	080cab00 	call	80cab0 <__pow5mult>
  809e80:	d9800317 	ldw	r6,12(sp)
  809e84:	102b883a 	mov	r21,r2
  809e88:	b981810e 	bge	r23,r6,80a490 <_dtoa_r+0x10a4>
  809e8c:	0027883a 	mov	r19,zero
  809e90:	a8800417 	ldw	r2,16(r21)
  809e94:	05c00804 	movi	r23,32
  809e98:	10800104 	addi	r2,r2,4
  809e9c:	1085883a 	add	r2,r2,r2
  809ea0:	1085883a 	add	r2,r2,r2
  809ea4:	a885883a 	add	r2,r21,r2
  809ea8:	11000017 	ldw	r4,0(r2)
  809eac:	080c7640 	call	80c764 <__hi0bits>
  809eb0:	b885c83a 	sub	r2,r23,r2
  809eb4:	1585883a 	add	r2,r2,r22
  809eb8:	108007cc 	andi	r2,r2,31
  809ebc:	1000b326 	beq	r2,zero,80a18c <_dtoa_r+0xda0>
  809ec0:	00c00804 	movi	r3,32
  809ec4:	1887c83a 	sub	r3,r3,r2
  809ec8:	01000104 	movi	r4,4
  809ecc:	20c2cd0e 	bge	r4,r3,80aa04 <_dtoa_r+0x1618>
  809ed0:	00c00704 	movi	r3,28
  809ed4:	1885c83a 	sub	r2,r3,r2
  809ed8:	d8c00817 	ldw	r3,32(sp)
  809edc:	a0a9883a 	add	r20,r20,r2
  809ee0:	b0ad883a 	add	r22,r22,r2
  809ee4:	1887883a 	add	r3,r3,r2
  809ee8:	d8c00815 	stw	r3,32(sp)
  809eec:	d9800817 	ldw	r6,32(sp)
  809ef0:	0180040e 	bge	zero,r6,809f04 <_dtoa_r+0xb18>
  809ef4:	800b883a 	mov	r5,r16
  809ef8:	e009883a 	mov	r4,fp
  809efc:	080cbf00 	call	80cbf0 <__lshift>
  809f00:	1021883a 	mov	r16,r2
  809f04:	0580050e 	bge	zero,r22,809f1c <_dtoa_r+0xb30>
  809f08:	a80b883a 	mov	r5,r21
  809f0c:	b00d883a 	mov	r6,r22
  809f10:	e009883a 	mov	r4,fp
  809f14:	080cbf00 	call	80cbf0 <__lshift>
  809f18:	102b883a 	mov	r21,r2
  809f1c:	d9c00e17 	ldw	r7,56(sp)
  809f20:	3801211e 	bne	r7,zero,80a3a8 <_dtoa_r+0xfbc>
  809f24:	d9800617 	ldw	r6,24(sp)
  809f28:	0181380e 	bge	zero,r6,80a40c <_dtoa_r+0x1020>
  809f2c:	d8c00b17 	ldw	r3,44(sp)
  809f30:	1800ab1e 	bne	r3,zero,80a1e0 <_dtoa_r+0xdf4>
  809f34:	dc800717 	ldw	r18,28(sp)
  809f38:	dcc00617 	ldw	r19,24(sp)
  809f3c:	9029883a 	mov	r20,r18
  809f40:	00000206 	br	809f4c <_dtoa_r+0xb60>
  809f44:	080c5400 	call	80c540 <__multadd>
  809f48:	1021883a 	mov	r16,r2
  809f4c:	a80b883a 	mov	r5,r21
  809f50:	8009883a 	mov	r4,r16
  809f54:	08091ec0 	call	8091ec <quorem>
  809f58:	10800c04 	addi	r2,r2,48
  809f5c:	90800005 	stb	r2,0(r18)
  809f60:	94800044 	addi	r18,r18,1
  809f64:	9507c83a 	sub	r3,r18,r20
  809f68:	000f883a 	mov	r7,zero
  809f6c:	01800284 	movi	r6,10
  809f70:	800b883a 	mov	r5,r16
  809f74:	e009883a 	mov	r4,fp
  809f78:	1cfff216 	blt	r3,r19,809f44 <__alt_mem_onchip_mem+0xff801f44>
  809f7c:	1011883a 	mov	r8,r2
  809f80:	d8800617 	ldw	r2,24(sp)
  809f84:	0082370e 	bge	zero,r2,80a864 <_dtoa_r+0x1478>
  809f88:	d9000717 	ldw	r4,28(sp)
  809f8c:	0025883a 	mov	r18,zero
  809f90:	20af883a 	add	r23,r4,r2
  809f94:	01800044 	movi	r6,1
  809f98:	800b883a 	mov	r5,r16
  809f9c:	e009883a 	mov	r4,fp
  809fa0:	da001715 	stw	r8,92(sp)
  809fa4:	080cbf00 	call	80cbf0 <__lshift>
  809fa8:	a80b883a 	mov	r5,r21
  809fac:	1009883a 	mov	r4,r2
  809fb0:	d8800915 	stw	r2,36(sp)
  809fb4:	080cd380 	call	80cd38 <__mcmp>
  809fb8:	da001717 	ldw	r8,92(sp)
  809fbc:	0081800e 	bge	zero,r2,80a5c0 <_dtoa_r+0x11d4>
  809fc0:	b93fffc3 	ldbu	r4,-1(r23)
  809fc4:	b8bfffc4 	addi	r2,r23,-1
  809fc8:	1007883a 	mov	r3,r2
  809fcc:	01800e44 	movi	r6,57
  809fd0:	d9c00717 	ldw	r7,28(sp)
  809fd4:	00000506 	br	809fec <_dtoa_r+0xc00>
  809fd8:	18ffffc4 	addi	r3,r3,-1
  809fdc:	11c12326 	beq	r2,r7,80a46c <_dtoa_r+0x1080>
  809fe0:	19000003 	ldbu	r4,0(r3)
  809fe4:	102f883a 	mov	r23,r2
  809fe8:	10bfffc4 	addi	r2,r2,-1
  809fec:	21403fcc 	andi	r5,r4,255
  809ff0:	2940201c 	xori	r5,r5,128
  809ff4:	297fe004 	addi	r5,r5,-128
  809ff8:	29bff726 	beq	r5,r6,809fd8 <__alt_mem_onchip_mem+0xff801fd8>
  809ffc:	21000044 	addi	r4,r4,1
  80a000:	11000005 	stb	r4,0(r2)
  80a004:	a80b883a 	mov	r5,r21
  80a008:	e009883a 	mov	r4,fp
  80a00c:	080c5180 	call	80c518 <_Bfree>
  80a010:	883ea026 	beq	r17,zero,809a94 <__alt_mem_onchip_mem+0xff801a94>
  80a014:	90000426 	beq	r18,zero,80a028 <_dtoa_r+0xc3c>
  80a018:	94400326 	beq	r18,r17,80a028 <_dtoa_r+0xc3c>
  80a01c:	900b883a 	mov	r5,r18
  80a020:	e009883a 	mov	r4,fp
  80a024:	080c5180 	call	80c518 <_Bfree>
  80a028:	880b883a 	mov	r5,r17
  80a02c:	e009883a 	mov	r4,fp
  80a030:	080c5180 	call	80c518 <_Bfree>
  80a034:	003e9706 	br	809a94 <__alt_mem_onchip_mem+0xff801a94>
  80a038:	01800044 	movi	r6,1
  80a03c:	d9800e15 	stw	r6,56(sp)
  80a040:	003d9606 	br	80969c <__alt_mem_onchip_mem+0xff80169c>
  80a044:	d8800817 	ldw	r2,32(sp)
  80a048:	d8c00517 	ldw	r3,20(sp)
  80a04c:	d8000d15 	stw	zero,52(sp)
  80a050:	10c5c83a 	sub	r2,r2,r3
  80a054:	00c9c83a 	sub	r4,zero,r3
  80a058:	d8800815 	stw	r2,32(sp)
  80a05c:	d9000a15 	stw	r4,40(sp)
  80a060:	003d9706 	br	8096c0 <__alt_mem_onchip_mem+0xff8016c0>
  80a064:	05adc83a 	sub	r22,zero,r22
  80a068:	dd800815 	stw	r22,32(sp)
  80a06c:	002d883a 	mov	r22,zero
  80a070:	003d8e06 	br	8096ac <__alt_mem_onchip_mem+0xff8016ac>
  80a074:	d9000517 	ldw	r4,20(sp)
  80a078:	0806b740 	call	806b74 <__floatsidf>
  80a07c:	100d883a 	mov	r6,r2
  80a080:	180f883a 	mov	r7,r3
  80a084:	a009883a 	mov	r4,r20
  80a088:	880b883a 	mov	r5,r17
  80a08c:	08118280 	call	811828 <__eqdf2>
  80a090:	103d7126 	beq	r2,zero,809658 <__alt_mem_onchip_mem+0xff801658>
  80a094:	d9c00517 	ldw	r7,20(sp)
  80a098:	39ffffc4 	addi	r7,r7,-1
  80a09c:	d9c00515 	stw	r7,20(sp)
  80a0a0:	003d6d06 	br	809658 <__alt_mem_onchip_mem+0xff801658>
  80a0a4:	dd400a17 	ldw	r21,40(sp)
  80a0a8:	dd000817 	ldw	r20,32(sp)
  80a0ac:	0023883a 	mov	r17,zero
  80a0b0:	003f4806 	br	809dd4 <__alt_mem_onchip_mem+0xff801dd4>
  80a0b4:	10e3c83a 	sub	r17,r2,r3
  80a0b8:	9448983a 	sll	r4,r18,r17
  80a0bc:	003d3206 	br	809588 <__alt_mem_onchip_mem+0xff801588>
  80a0c0:	d8000e15 	stw	zero,56(sp)
  80a0c4:	003d7506 	br	80969c <__alt_mem_onchip_mem+0xff80169c>
  80a0c8:	b005883a 	mov	r2,r22
  80a0cc:	003f4506 	br	809de4 <__alt_mem_onchip_mem+0xff801de4>
  80a0d0:	dc000915 	stw	r16,36(sp)
  80a0d4:	d9800a17 	ldw	r6,40(sp)
  80a0d8:	d9400917 	ldw	r5,36(sp)
  80a0dc:	e009883a 	mov	r4,fp
  80a0e0:	080cab00 	call	80cab0 <__pow5mult>
  80a0e4:	1021883a 	mov	r16,r2
  80a0e8:	003f5a06 	br	809e54 <__alt_mem_onchip_mem+0xff801e54>
  80a0ec:	01c00044 	movi	r7,1
  80a0f0:	d9c00b15 	stw	r7,44(sp)
  80a0f4:	d8802217 	ldw	r2,136(sp)
  80a0f8:	0081280e 	bge	zero,r2,80a59c <_dtoa_r+0x11b0>
  80a0fc:	100d883a 	mov	r6,r2
  80a100:	1021883a 	mov	r16,r2
  80a104:	d8800c15 	stw	r2,48(sp)
  80a108:	d8800615 	stw	r2,24(sp)
  80a10c:	003d8806 	br	809730 <__alt_mem_onchip_mem+0xff801730>
  80a110:	d8800617 	ldw	r2,24(sp)
  80a114:	00be9b16 	blt	zero,r2,809b84 <__alt_mem_onchip_mem+0xff801b84>
  80a118:	10010f1e 	bne	r2,zero,80a558 <_dtoa_r+0x116c>
  80a11c:	880b883a 	mov	r5,r17
  80a120:	000d883a 	mov	r6,zero
  80a124:	01d00534 	movhi	r7,16404
  80a128:	8009883a 	mov	r4,r16
  80a12c:	0805b600 	call	805b60 <__muldf3>
  80a130:	900d883a 	mov	r6,r18
  80a134:	980f883a 	mov	r7,r19
  80a138:	1009883a 	mov	r4,r2
  80a13c:	180b883a 	mov	r5,r3
  80a140:	08059900 	call	805990 <__gedf2>
  80a144:	002b883a 	mov	r21,zero
  80a148:	0023883a 	mov	r17,zero
  80a14c:	1000bf16 	blt	r2,zero,80a44c <_dtoa_r+0x1060>
  80a150:	d9802217 	ldw	r6,136(sp)
  80a154:	ddc00717 	ldw	r23,28(sp)
  80a158:	018c303a 	nor	r6,zero,r6
  80a15c:	d9800515 	stw	r6,20(sp)
  80a160:	a80b883a 	mov	r5,r21
  80a164:	e009883a 	mov	r4,fp
  80a168:	080c5180 	call	80c518 <_Bfree>
  80a16c:	883e4926 	beq	r17,zero,809a94 <__alt_mem_onchip_mem+0xff801a94>
  80a170:	003fad06 	br	80a028 <__alt_mem_onchip_mem+0xff802028>
  80a174:	d9c01117 	ldw	r7,68(sp)
  80a178:	3801bc26 	beq	r7,zero,80a86c <_dtoa_r+0x1480>
  80a17c:	10810cc4 	addi	r2,r2,1075
  80a180:	dd400a17 	ldw	r21,40(sp)
  80a184:	dd000817 	ldw	r20,32(sp)
  80a188:	003f0a06 	br	809db4 <__alt_mem_onchip_mem+0xff801db4>
  80a18c:	00800704 	movi	r2,28
  80a190:	d9000817 	ldw	r4,32(sp)
  80a194:	a0a9883a 	add	r20,r20,r2
  80a198:	b0ad883a 	add	r22,r22,r2
  80a19c:	2089883a 	add	r4,r4,r2
  80a1a0:	d9000815 	stw	r4,32(sp)
  80a1a4:	003f5106 	br	809eec <__alt_mem_onchip_mem+0xff801eec>
  80a1a8:	d8c00317 	ldw	r3,12(sp)
  80a1ac:	b8c1fc0e 	bge	r23,r3,80a9a0 <_dtoa_r+0x15b4>
  80a1b0:	0027883a 	mov	r19,zero
  80a1b4:	b805883a 	mov	r2,r23
  80a1b8:	003f3e06 	br	809eb4 <__alt_mem_onchip_mem+0xff801eb4>
  80a1bc:	880b883a 	mov	r5,r17
  80a1c0:	e009883a 	mov	r4,fp
  80a1c4:	000f883a 	mov	r7,zero
  80a1c8:	01800284 	movi	r6,10
  80a1cc:	080c5400 	call	80c540 <__multadd>
  80a1d0:	d9000c17 	ldw	r4,48(sp)
  80a1d4:	1023883a 	mov	r17,r2
  80a1d8:	0102040e 	bge	zero,r4,80a9ec <_dtoa_r+0x1600>
  80a1dc:	d9000615 	stw	r4,24(sp)
  80a1e0:	0500050e 	bge	zero,r20,80a1f8 <_dtoa_r+0xe0c>
  80a1e4:	880b883a 	mov	r5,r17
  80a1e8:	a00d883a 	mov	r6,r20
  80a1ec:	e009883a 	mov	r4,fp
  80a1f0:	080cbf00 	call	80cbf0 <__lshift>
  80a1f4:	1023883a 	mov	r17,r2
  80a1f8:	9801241e 	bne	r19,zero,80a68c <_dtoa_r+0x12a0>
  80a1fc:	8829883a 	mov	r20,r17
  80a200:	d9000617 	ldw	r4,24(sp)
  80a204:	dcc00717 	ldw	r19,28(sp)
  80a208:	9480004c 	andi	r18,r18,1
  80a20c:	20bfffc4 	addi	r2,r4,-1
  80a210:	9885883a 	add	r2,r19,r2
  80a214:	d8800415 	stw	r2,16(sp)
  80a218:	dc800615 	stw	r18,24(sp)
  80a21c:	a80b883a 	mov	r5,r21
  80a220:	8009883a 	mov	r4,r16
  80a224:	08091ec0 	call	8091ec <quorem>
  80a228:	880b883a 	mov	r5,r17
  80a22c:	8009883a 	mov	r4,r16
  80a230:	102f883a 	mov	r23,r2
  80a234:	080cd380 	call	80cd38 <__mcmp>
  80a238:	a80b883a 	mov	r5,r21
  80a23c:	a00d883a 	mov	r6,r20
  80a240:	e009883a 	mov	r4,fp
  80a244:	102d883a 	mov	r22,r2
  80a248:	080cd980 	call	80cd98 <__mdiff>
  80a24c:	1007883a 	mov	r3,r2
  80a250:	10800317 	ldw	r2,12(r2)
  80a254:	bc800c04 	addi	r18,r23,48
  80a258:	180b883a 	mov	r5,r3
  80a25c:	10004e1e 	bne	r2,zero,80a398 <_dtoa_r+0xfac>
  80a260:	8009883a 	mov	r4,r16
  80a264:	d8c01615 	stw	r3,88(sp)
  80a268:	080cd380 	call	80cd38 <__mcmp>
  80a26c:	d8c01617 	ldw	r3,88(sp)
  80a270:	e009883a 	mov	r4,fp
  80a274:	d8801615 	stw	r2,88(sp)
  80a278:	180b883a 	mov	r5,r3
  80a27c:	080c5180 	call	80c518 <_Bfree>
  80a280:	d8801617 	ldw	r2,88(sp)
  80a284:	1000041e 	bne	r2,zero,80a298 <_dtoa_r+0xeac>
  80a288:	d9800317 	ldw	r6,12(sp)
  80a28c:	3000021e 	bne	r6,zero,80a298 <_dtoa_r+0xeac>
  80a290:	d8c00617 	ldw	r3,24(sp)
  80a294:	18003726 	beq	r3,zero,80a374 <_dtoa_r+0xf88>
  80a298:	b0002016 	blt	r22,zero,80a31c <_dtoa_r+0xf30>
  80a29c:	b000041e 	bne	r22,zero,80a2b0 <_dtoa_r+0xec4>
  80a2a0:	d9000317 	ldw	r4,12(sp)
  80a2a4:	2000021e 	bne	r4,zero,80a2b0 <_dtoa_r+0xec4>
  80a2a8:	d8c00617 	ldw	r3,24(sp)
  80a2ac:	18001b26 	beq	r3,zero,80a31c <_dtoa_r+0xf30>
  80a2b0:	00810716 	blt	zero,r2,80a6d0 <_dtoa_r+0x12e4>
  80a2b4:	d8c00417 	ldw	r3,16(sp)
  80a2b8:	9d800044 	addi	r22,r19,1
  80a2bc:	9c800005 	stb	r18,0(r19)
  80a2c0:	b02f883a 	mov	r23,r22
  80a2c4:	98c10626 	beq	r19,r3,80a6e0 <_dtoa_r+0x12f4>
  80a2c8:	800b883a 	mov	r5,r16
  80a2cc:	000f883a 	mov	r7,zero
  80a2d0:	01800284 	movi	r6,10
  80a2d4:	e009883a 	mov	r4,fp
  80a2d8:	080c5400 	call	80c540 <__multadd>
  80a2dc:	1021883a 	mov	r16,r2
  80a2e0:	000f883a 	mov	r7,zero
  80a2e4:	01800284 	movi	r6,10
  80a2e8:	880b883a 	mov	r5,r17
  80a2ec:	e009883a 	mov	r4,fp
  80a2f0:	8d002526 	beq	r17,r20,80a388 <_dtoa_r+0xf9c>
  80a2f4:	080c5400 	call	80c540 <__multadd>
  80a2f8:	a00b883a 	mov	r5,r20
  80a2fc:	000f883a 	mov	r7,zero
  80a300:	01800284 	movi	r6,10
  80a304:	e009883a 	mov	r4,fp
  80a308:	1023883a 	mov	r17,r2
  80a30c:	080c5400 	call	80c540 <__multadd>
  80a310:	1029883a 	mov	r20,r2
  80a314:	b027883a 	mov	r19,r22
  80a318:	003fc006 	br	80a21c <__alt_mem_onchip_mem+0xff80221c>
  80a31c:	9011883a 	mov	r8,r18
  80a320:	00800e0e 	bge	zero,r2,80a35c <_dtoa_r+0xf70>
  80a324:	800b883a 	mov	r5,r16
  80a328:	01800044 	movi	r6,1
  80a32c:	e009883a 	mov	r4,fp
  80a330:	da001715 	stw	r8,92(sp)
  80a334:	080cbf00 	call	80cbf0 <__lshift>
  80a338:	a80b883a 	mov	r5,r21
  80a33c:	1009883a 	mov	r4,r2
  80a340:	1021883a 	mov	r16,r2
  80a344:	080cd380 	call	80cd38 <__mcmp>
  80a348:	da001717 	ldw	r8,92(sp)
  80a34c:	0081960e 	bge	zero,r2,80a9a8 <_dtoa_r+0x15bc>
  80a350:	00800e44 	movi	r2,57
  80a354:	40817026 	beq	r8,r2,80a918 <_dtoa_r+0x152c>
  80a358:	ba000c44 	addi	r8,r23,49
  80a35c:	8825883a 	mov	r18,r17
  80a360:	9dc00044 	addi	r23,r19,1
  80a364:	9a000005 	stb	r8,0(r19)
  80a368:	a023883a 	mov	r17,r20
  80a36c:	dc000915 	stw	r16,36(sp)
  80a370:	003f2406 	br	80a004 <__alt_mem_onchip_mem+0xff802004>
  80a374:	00800e44 	movi	r2,57
  80a378:	9011883a 	mov	r8,r18
  80a37c:	90816626 	beq	r18,r2,80a918 <_dtoa_r+0x152c>
  80a380:	05bff516 	blt	zero,r22,80a358 <__alt_mem_onchip_mem+0xff802358>
  80a384:	003ff506 	br	80a35c <__alt_mem_onchip_mem+0xff80235c>
  80a388:	080c5400 	call	80c540 <__multadd>
  80a38c:	1023883a 	mov	r17,r2
  80a390:	1029883a 	mov	r20,r2
  80a394:	003fdf06 	br	80a314 <__alt_mem_onchip_mem+0xff802314>
  80a398:	e009883a 	mov	r4,fp
  80a39c:	080c5180 	call	80c518 <_Bfree>
  80a3a0:	00800044 	movi	r2,1
  80a3a4:	003fbc06 	br	80a298 <__alt_mem_onchip_mem+0xff802298>
  80a3a8:	a80b883a 	mov	r5,r21
  80a3ac:	8009883a 	mov	r4,r16
  80a3b0:	080cd380 	call	80cd38 <__mcmp>
  80a3b4:	103edb0e 	bge	r2,zero,809f24 <__alt_mem_onchip_mem+0xff801f24>
  80a3b8:	800b883a 	mov	r5,r16
  80a3bc:	000f883a 	mov	r7,zero
  80a3c0:	01800284 	movi	r6,10
  80a3c4:	e009883a 	mov	r4,fp
  80a3c8:	080c5400 	call	80c540 <__multadd>
  80a3cc:	1021883a 	mov	r16,r2
  80a3d0:	d8800517 	ldw	r2,20(sp)
  80a3d4:	d8c00b17 	ldw	r3,44(sp)
  80a3d8:	10bfffc4 	addi	r2,r2,-1
  80a3dc:	d8800515 	stw	r2,20(sp)
  80a3e0:	183f761e 	bne	r3,zero,80a1bc <__alt_mem_onchip_mem+0xff8021bc>
  80a3e4:	d9000c17 	ldw	r4,48(sp)
  80a3e8:	0101730e 	bge	zero,r4,80a9b8 <_dtoa_r+0x15cc>
  80a3ec:	d9000615 	stw	r4,24(sp)
  80a3f0:	003ed006 	br	809f34 <__alt_mem_onchip_mem+0xff801f34>
  80a3f4:	00800084 	movi	r2,2
  80a3f8:	3081861e 	bne	r6,r2,80aa14 <_dtoa_r+0x1628>
  80a3fc:	d8000b15 	stw	zero,44(sp)
  80a400:	003f3c06 	br	80a0f4 <__alt_mem_onchip_mem+0xff8020f4>
  80a404:	dc000917 	ldw	r16,36(sp)
  80a408:	003e9206 	br	809e54 <__alt_mem_onchip_mem+0xff801e54>
  80a40c:	d9c00317 	ldw	r7,12(sp)
  80a410:	00800084 	movi	r2,2
  80a414:	11fec50e 	bge	r2,r7,809f2c <__alt_mem_onchip_mem+0xff801f2c>
  80a418:	d9000617 	ldw	r4,24(sp)
  80a41c:	20013c1e 	bne	r4,zero,80a910 <_dtoa_r+0x1524>
  80a420:	a80b883a 	mov	r5,r21
  80a424:	000f883a 	mov	r7,zero
  80a428:	01800144 	movi	r6,5
  80a42c:	e009883a 	mov	r4,fp
  80a430:	080c5400 	call	80c540 <__multadd>
  80a434:	100b883a 	mov	r5,r2
  80a438:	8009883a 	mov	r4,r16
  80a43c:	102b883a 	mov	r21,r2
  80a440:	080cd380 	call	80cd38 <__mcmp>
  80a444:	dc000915 	stw	r16,36(sp)
  80a448:	00bf410e 	bge	zero,r2,80a150 <__alt_mem_onchip_mem+0xff802150>
  80a44c:	d9c00717 	ldw	r7,28(sp)
  80a450:	00800c44 	movi	r2,49
  80a454:	38800005 	stb	r2,0(r7)
  80a458:	d8800517 	ldw	r2,20(sp)
  80a45c:	3dc00044 	addi	r23,r7,1
  80a460:	10800044 	addi	r2,r2,1
  80a464:	d8800515 	stw	r2,20(sp)
  80a468:	003f3d06 	br	80a160 <__alt_mem_onchip_mem+0xff802160>
  80a46c:	d9800517 	ldw	r6,20(sp)
  80a470:	d9c00717 	ldw	r7,28(sp)
  80a474:	00800c44 	movi	r2,49
  80a478:	31800044 	addi	r6,r6,1
  80a47c:	d9800515 	stw	r6,20(sp)
  80a480:	38800005 	stb	r2,0(r7)
  80a484:	003edf06 	br	80a004 <__alt_mem_onchip_mem+0xff802004>
  80a488:	d8000b15 	stw	zero,44(sp)
  80a48c:	003c9f06 	br	80970c <__alt_mem_onchip_mem+0xff80170c>
  80a490:	903e7e1e 	bne	r18,zero,809e8c <__alt_mem_onchip_mem+0xff801e8c>
  80a494:	00800434 	movhi	r2,16
  80a498:	10bfffc4 	addi	r2,r2,-1
  80a49c:	9884703a 	and	r2,r19,r2
  80a4a0:	1000ea1e 	bne	r2,zero,80a84c <_dtoa_r+0x1460>
  80a4a4:	9cdffc2c 	andhi	r19,r19,32752
  80a4a8:	9800e826 	beq	r19,zero,80a84c <_dtoa_r+0x1460>
  80a4ac:	d9c00817 	ldw	r7,32(sp)
  80a4b0:	b5800044 	addi	r22,r22,1
  80a4b4:	04c00044 	movi	r19,1
  80a4b8:	39c00044 	addi	r7,r7,1
  80a4bc:	d9c00815 	stw	r7,32(sp)
  80a4c0:	d8800d17 	ldw	r2,52(sp)
  80a4c4:	103e721e 	bne	r2,zero,809e90 <__alt_mem_onchip_mem+0xff801e90>
  80a4c8:	00800044 	movi	r2,1
  80a4cc:	003e7906 	br	809eb4 <__alt_mem_onchip_mem+0xff801eb4>
  80a4d0:	8009883a 	mov	r4,r16
  80a4d4:	0806b740 	call	806b74 <__floatsidf>
  80a4d8:	d9800f17 	ldw	r6,60(sp)
  80a4dc:	d9c01017 	ldw	r7,64(sp)
  80a4e0:	1009883a 	mov	r4,r2
  80a4e4:	180b883a 	mov	r5,r3
  80a4e8:	0805b600 	call	805b60 <__muldf3>
  80a4ec:	000d883a 	mov	r6,zero
  80a4f0:	01d00734 	movhi	r7,16412
  80a4f4:	1009883a 	mov	r4,r2
  80a4f8:	180b883a 	mov	r5,r3
  80a4fc:	08050e40 	call	8050e4 <__adddf3>
  80a500:	047f3034 	movhi	r17,64704
  80a504:	1021883a 	mov	r16,r2
  80a508:	1c63883a 	add	r17,r3,r17
  80a50c:	d9000f17 	ldw	r4,60(sp)
  80a510:	d9401017 	ldw	r5,64(sp)
  80a514:	000d883a 	mov	r6,zero
  80a518:	01d00534 	movhi	r7,16404
  80a51c:	08062780 	call	806278 <__subdf3>
  80a520:	800d883a 	mov	r6,r16
  80a524:	880f883a 	mov	r7,r17
  80a528:	1009883a 	mov	r4,r2
  80a52c:	180b883a 	mov	r5,r3
  80a530:	102b883a 	mov	r21,r2
  80a534:	1829883a 	mov	r20,r3
  80a538:	08059900 	call	805990 <__gedf2>
  80a53c:	00806c16 	blt	zero,r2,80a6f0 <_dtoa_r+0x1304>
  80a540:	89e0003c 	xorhi	r7,r17,32768
  80a544:	800d883a 	mov	r6,r16
  80a548:	a809883a 	mov	r4,r21
  80a54c:	a00b883a 	mov	r5,r20
  80a550:	0805a6c0 	call	805a6c <__ledf2>
  80a554:	103d7e0e 	bge	r2,zero,809b50 <__alt_mem_onchip_mem+0xff801b50>
  80a558:	002b883a 	mov	r21,zero
  80a55c:	0023883a 	mov	r17,zero
  80a560:	003efb06 	br	80a150 <__alt_mem_onchip_mem+0xff802150>
  80a564:	d8800717 	ldw	r2,28(sp)
  80a568:	003bd006 	br	8094ac <__alt_mem_onchip_mem+0xff8014ac>
  80a56c:	d9000a17 	ldw	r4,40(sp)
  80a570:	d9800d17 	ldw	r6,52(sp)
  80a574:	dd400a15 	stw	r21,40(sp)
  80a578:	a905c83a 	sub	r2,r21,r4
  80a57c:	308d883a 	add	r6,r6,r2
  80a580:	d9800d15 	stw	r6,52(sp)
  80a584:	002b883a 	mov	r21,zero
  80a588:	003e0606 	br	809da4 <__alt_mem_onchip_mem+0xff801da4>
  80a58c:	9023883a 	mov	r17,r18
  80a590:	9829883a 	mov	r20,r19
  80a594:	04000084 	movi	r16,2
  80a598:	003c9206 	br	8097e4 <__alt_mem_onchip_mem+0xff8017e4>
  80a59c:	04000044 	movi	r16,1
  80a5a0:	dc000c15 	stw	r16,48(sp)
  80a5a4:	dc000615 	stw	r16,24(sp)
  80a5a8:	dc002215 	stw	r16,136(sp)
  80a5ac:	e0001115 	stw	zero,68(fp)
  80a5b0:	000b883a 	mov	r5,zero
  80a5b4:	003c6906 	br	80975c <__alt_mem_onchip_mem+0xff80175c>
  80a5b8:	3021883a 	mov	r16,r6
  80a5bc:	003ffb06 	br	80a5ac <__alt_mem_onchip_mem+0xff8025ac>
  80a5c0:	1000021e 	bne	r2,zero,80a5cc <_dtoa_r+0x11e0>
  80a5c4:	4200004c 	andi	r8,r8,1
  80a5c8:	403e7d1e 	bne	r8,zero,809fc0 <__alt_mem_onchip_mem+0xff801fc0>
  80a5cc:	01000c04 	movi	r4,48
  80a5d0:	00000106 	br	80a5d8 <_dtoa_r+0x11ec>
  80a5d4:	102f883a 	mov	r23,r2
  80a5d8:	b8bfffc4 	addi	r2,r23,-1
  80a5dc:	10c00007 	ldb	r3,0(r2)
  80a5e0:	193ffc26 	beq	r3,r4,80a5d4 <__alt_mem_onchip_mem+0xff8025d4>
  80a5e4:	003e8706 	br	80a004 <__alt_mem_onchip_mem+0xff802004>
  80a5e8:	d8800517 	ldw	r2,20(sp)
  80a5ec:	00a3c83a 	sub	r17,zero,r2
  80a5f0:	8800a426 	beq	r17,zero,80a884 <_dtoa_r+0x1498>
  80a5f4:	888003cc 	andi	r2,r17,15
  80a5f8:	100490fa 	slli	r2,r2,3
  80a5fc:	00c02074 	movhi	r3,129
  80a600:	18d72004 	addi	r3,r3,23680
  80a604:	1885883a 	add	r2,r3,r2
  80a608:	11800017 	ldw	r6,0(r2)
  80a60c:	11c00117 	ldw	r7,4(r2)
  80a610:	9009883a 	mov	r4,r18
  80a614:	980b883a 	mov	r5,r19
  80a618:	8823d13a 	srai	r17,r17,4
  80a61c:	0805b600 	call	805b60 <__muldf3>
  80a620:	d8800f15 	stw	r2,60(sp)
  80a624:	d8c01015 	stw	r3,64(sp)
  80a628:	8800e826 	beq	r17,zero,80a9cc <_dtoa_r+0x15e0>
  80a62c:	05002074 	movhi	r20,129
  80a630:	a5171604 	addi	r20,r20,23640
  80a634:	04000084 	movi	r16,2
  80a638:	8980004c 	andi	r6,r17,1
  80a63c:	1009883a 	mov	r4,r2
  80a640:	8823d07a 	srai	r17,r17,1
  80a644:	180b883a 	mov	r5,r3
  80a648:	30000426 	beq	r6,zero,80a65c <_dtoa_r+0x1270>
  80a64c:	a1800017 	ldw	r6,0(r20)
  80a650:	a1c00117 	ldw	r7,4(r20)
  80a654:	84000044 	addi	r16,r16,1
  80a658:	0805b600 	call	805b60 <__muldf3>
  80a65c:	a5000204 	addi	r20,r20,8
  80a660:	883ff51e 	bne	r17,zero,80a638 <__alt_mem_onchip_mem+0xff802638>
  80a664:	d8800f15 	stw	r2,60(sp)
  80a668:	d8c01015 	stw	r3,64(sp)
  80a66c:	003c7606 	br	809848 <__alt_mem_onchip_mem+0xff801848>
  80a670:	00c00c04 	movi	r3,48
  80a674:	10c00005 	stb	r3,0(r2)
  80a678:	d8c00517 	ldw	r3,20(sp)
  80a67c:	bd3fffc3 	ldbu	r20,-1(r23)
  80a680:	18c00044 	addi	r3,r3,1
  80a684:	d8c00515 	stw	r3,20(sp)
  80a688:	003db906 	br	809d70 <__alt_mem_onchip_mem+0xff801d70>
  80a68c:	89400117 	ldw	r5,4(r17)
  80a690:	e009883a 	mov	r4,fp
  80a694:	080c4700 	call	80c470 <_Balloc>
  80a698:	89800417 	ldw	r6,16(r17)
  80a69c:	89400304 	addi	r5,r17,12
  80a6a0:	11000304 	addi	r4,r2,12
  80a6a4:	31800084 	addi	r6,r6,2
  80a6a8:	318d883a 	add	r6,r6,r6
  80a6ac:	318d883a 	add	r6,r6,r6
  80a6b0:	1027883a 	mov	r19,r2
  80a6b4:	080c2000 	call	80c200 <memcpy>
  80a6b8:	01800044 	movi	r6,1
  80a6bc:	980b883a 	mov	r5,r19
  80a6c0:	e009883a 	mov	r4,fp
  80a6c4:	080cbf00 	call	80cbf0 <__lshift>
  80a6c8:	1029883a 	mov	r20,r2
  80a6cc:	003ecc06 	br	80a200 <__alt_mem_onchip_mem+0xff802200>
  80a6d0:	00800e44 	movi	r2,57
  80a6d4:	90809026 	beq	r18,r2,80a918 <_dtoa_r+0x152c>
  80a6d8:	92000044 	addi	r8,r18,1
  80a6dc:	003f1f06 	br	80a35c <__alt_mem_onchip_mem+0xff80235c>
  80a6e0:	9011883a 	mov	r8,r18
  80a6e4:	8825883a 	mov	r18,r17
  80a6e8:	a023883a 	mov	r17,r20
  80a6ec:	003e2906 	br	809f94 <__alt_mem_onchip_mem+0xff801f94>
  80a6f0:	002b883a 	mov	r21,zero
  80a6f4:	0023883a 	mov	r17,zero
  80a6f8:	003f5406 	br	80a44c <__alt_mem_onchip_mem+0xff80244c>
  80a6fc:	61bfffc4 	addi	r6,r12,-1
  80a700:	300490fa 	slli	r2,r6,3
  80a704:	00c02074 	movhi	r3,129
  80a708:	18d72004 	addi	r3,r3,23680
  80a70c:	1885883a 	add	r2,r3,r2
  80a710:	11000017 	ldw	r4,0(r2)
  80a714:	11400117 	ldw	r5,4(r2)
  80a718:	d8800717 	ldw	r2,28(sp)
  80a71c:	880f883a 	mov	r7,r17
  80a720:	d9801215 	stw	r6,72(sp)
  80a724:	800d883a 	mov	r6,r16
  80a728:	db001615 	stw	r12,88(sp)
  80a72c:	15c00044 	addi	r23,r2,1
  80a730:	0805b600 	call	805b60 <__muldf3>
  80a734:	d9401017 	ldw	r5,64(sp)
  80a738:	d9000f17 	ldw	r4,60(sp)
  80a73c:	d8c01515 	stw	r3,84(sp)
  80a740:	d8801415 	stw	r2,80(sp)
  80a744:	08118b00 	call	8118b0 <__fixdfsi>
  80a748:	1009883a 	mov	r4,r2
  80a74c:	1021883a 	mov	r16,r2
  80a750:	0806b740 	call	806b74 <__floatsidf>
  80a754:	d9000f17 	ldw	r4,60(sp)
  80a758:	d9401017 	ldw	r5,64(sp)
  80a75c:	100d883a 	mov	r6,r2
  80a760:	180f883a 	mov	r7,r3
  80a764:	08062780 	call	806278 <__subdf3>
  80a768:	1829883a 	mov	r20,r3
  80a76c:	d8c00717 	ldw	r3,28(sp)
  80a770:	84000c04 	addi	r16,r16,48
  80a774:	1023883a 	mov	r17,r2
  80a778:	1c000005 	stb	r16,0(r3)
  80a77c:	db001617 	ldw	r12,88(sp)
  80a780:	00800044 	movi	r2,1
  80a784:	60802226 	beq	r12,r2,80a810 <_dtoa_r+0x1424>
  80a788:	d9c00717 	ldw	r7,28(sp)
  80a78c:	8805883a 	mov	r2,r17
  80a790:	b82b883a 	mov	r21,r23
  80a794:	3b19883a 	add	r12,r7,r12
  80a798:	6023883a 	mov	r17,r12
  80a79c:	a007883a 	mov	r3,r20
  80a7a0:	dc800f15 	stw	r18,60(sp)
  80a7a4:	000d883a 	mov	r6,zero
  80a7a8:	01d00934 	movhi	r7,16420
  80a7ac:	1009883a 	mov	r4,r2
  80a7b0:	180b883a 	mov	r5,r3
  80a7b4:	0805b600 	call	805b60 <__muldf3>
  80a7b8:	180b883a 	mov	r5,r3
  80a7bc:	1009883a 	mov	r4,r2
  80a7c0:	1829883a 	mov	r20,r3
  80a7c4:	1025883a 	mov	r18,r2
  80a7c8:	08118b00 	call	8118b0 <__fixdfsi>
  80a7cc:	1009883a 	mov	r4,r2
  80a7d0:	1021883a 	mov	r16,r2
  80a7d4:	0806b740 	call	806b74 <__floatsidf>
  80a7d8:	100d883a 	mov	r6,r2
  80a7dc:	180f883a 	mov	r7,r3
  80a7e0:	9009883a 	mov	r4,r18
  80a7e4:	a00b883a 	mov	r5,r20
  80a7e8:	84000c04 	addi	r16,r16,48
  80a7ec:	08062780 	call	806278 <__subdf3>
  80a7f0:	ad400044 	addi	r21,r21,1
  80a7f4:	ac3fffc5 	stb	r16,-1(r21)
  80a7f8:	ac7fea1e 	bne	r21,r17,80a7a4 <__alt_mem_onchip_mem+0xff8027a4>
  80a7fc:	1023883a 	mov	r17,r2
  80a800:	d8801217 	ldw	r2,72(sp)
  80a804:	dc800f17 	ldw	r18,60(sp)
  80a808:	1829883a 	mov	r20,r3
  80a80c:	b8af883a 	add	r23,r23,r2
  80a810:	d9001417 	ldw	r4,80(sp)
  80a814:	d9401517 	ldw	r5,84(sp)
  80a818:	000d883a 	mov	r6,zero
  80a81c:	01cff834 	movhi	r7,16352
  80a820:	08050e40 	call	8050e4 <__adddf3>
  80a824:	880d883a 	mov	r6,r17
  80a828:	a00f883a 	mov	r7,r20
  80a82c:	1009883a 	mov	r4,r2
  80a830:	180b883a 	mov	r5,r3
  80a834:	0805a6c0 	call	805a6c <__ledf2>
  80a838:	10003e0e 	bge	r2,zero,80a934 <_dtoa_r+0x1548>
  80a83c:	d9001317 	ldw	r4,76(sp)
  80a840:	bd3fffc3 	ldbu	r20,-1(r23)
  80a844:	d9000515 	stw	r4,20(sp)
  80a848:	003d3b06 	br	809d38 <__alt_mem_onchip_mem+0xff801d38>
  80a84c:	0027883a 	mov	r19,zero
  80a850:	003f1b06 	br	80a4c0 <__alt_mem_onchip_mem+0xff8024c0>
  80a854:	d8800817 	ldw	r2,32(sp)
  80a858:	11e9c83a 	sub	r20,r2,r7
  80a85c:	0005883a 	mov	r2,zero
  80a860:	003d5406 	br	809db4 <__alt_mem_onchip_mem+0xff801db4>
  80a864:	00800044 	movi	r2,1
  80a868:	003dc706 	br	809f88 <__alt_mem_onchip_mem+0xff801f88>
  80a86c:	d8c00217 	ldw	r3,8(sp)
  80a870:	00800d84 	movi	r2,54
  80a874:	dd400a17 	ldw	r21,40(sp)
  80a878:	10c5c83a 	sub	r2,r2,r3
  80a87c:	dd000817 	ldw	r20,32(sp)
  80a880:	003d4c06 	br	809db4 <__alt_mem_onchip_mem+0xff801db4>
  80a884:	dc800f15 	stw	r18,60(sp)
  80a888:	dcc01015 	stw	r19,64(sp)
  80a88c:	04000084 	movi	r16,2
  80a890:	003bed06 	br	809848 <__alt_mem_onchip_mem+0xff801848>
  80a894:	d9000617 	ldw	r4,24(sp)
  80a898:	203f0d26 	beq	r4,zero,80a4d0 <__alt_mem_onchip_mem+0xff8024d0>
  80a89c:	d9800c17 	ldw	r6,48(sp)
  80a8a0:	01bcab0e 	bge	zero,r6,809b50 <__alt_mem_onchip_mem+0xff801b50>
  80a8a4:	d9401017 	ldw	r5,64(sp)
  80a8a8:	d9000f17 	ldw	r4,60(sp)
  80a8ac:	000d883a 	mov	r6,zero
  80a8b0:	01d00934 	movhi	r7,16420
  80a8b4:	0805b600 	call	805b60 <__muldf3>
  80a8b8:	81000044 	addi	r4,r16,1
  80a8bc:	d8800f15 	stw	r2,60(sp)
  80a8c0:	d8c01015 	stw	r3,64(sp)
  80a8c4:	0806b740 	call	806b74 <__floatsidf>
  80a8c8:	d9800f17 	ldw	r6,60(sp)
  80a8cc:	d9c01017 	ldw	r7,64(sp)
  80a8d0:	1009883a 	mov	r4,r2
  80a8d4:	180b883a 	mov	r5,r3
  80a8d8:	0805b600 	call	805b60 <__muldf3>
  80a8dc:	01d00734 	movhi	r7,16412
  80a8e0:	000d883a 	mov	r6,zero
  80a8e4:	1009883a 	mov	r4,r2
  80a8e8:	180b883a 	mov	r5,r3
  80a8ec:	08050e40 	call	8050e4 <__adddf3>
  80a8f0:	d9c00517 	ldw	r7,20(sp)
  80a8f4:	047f3034 	movhi	r17,64704
  80a8f8:	1021883a 	mov	r16,r2
  80a8fc:	39ffffc4 	addi	r7,r7,-1
  80a900:	d9c01315 	stw	r7,76(sp)
  80a904:	1c63883a 	add	r17,r3,r17
  80a908:	db000c17 	ldw	r12,48(sp)
  80a90c:	003bea06 	br	8098b8 <__alt_mem_onchip_mem+0xff8018b8>
  80a910:	dc000915 	stw	r16,36(sp)
  80a914:	003e0e06 	br	80a150 <__alt_mem_onchip_mem+0xff802150>
  80a918:	01000e44 	movi	r4,57
  80a91c:	8825883a 	mov	r18,r17
  80a920:	9dc00044 	addi	r23,r19,1
  80a924:	99000005 	stb	r4,0(r19)
  80a928:	a023883a 	mov	r17,r20
  80a92c:	dc000915 	stw	r16,36(sp)
  80a930:	003da406 	br	809fc4 <__alt_mem_onchip_mem+0xff801fc4>
  80a934:	d9801417 	ldw	r6,80(sp)
  80a938:	d9c01517 	ldw	r7,84(sp)
  80a93c:	0009883a 	mov	r4,zero
  80a940:	014ff834 	movhi	r5,16352
  80a944:	08062780 	call	806278 <__subdf3>
  80a948:	880d883a 	mov	r6,r17
  80a94c:	a00f883a 	mov	r7,r20
  80a950:	1009883a 	mov	r4,r2
  80a954:	180b883a 	mov	r5,r3
  80a958:	08059900 	call	805990 <__gedf2>
  80a95c:	00bc7c0e 	bge	zero,r2,809b50 <__alt_mem_onchip_mem+0xff801b50>
  80a960:	01000c04 	movi	r4,48
  80a964:	00000106 	br	80a96c <_dtoa_r+0x1580>
  80a968:	102f883a 	mov	r23,r2
  80a96c:	b8bfffc4 	addi	r2,r23,-1
  80a970:	10c00007 	ldb	r3,0(r2)
  80a974:	193ffc26 	beq	r3,r4,80a968 <__alt_mem_onchip_mem+0xff802968>
  80a978:	d9801317 	ldw	r6,76(sp)
  80a97c:	d9800515 	stw	r6,20(sp)
  80a980:	003c4406 	br	809a94 <__alt_mem_onchip_mem+0xff801a94>
  80a984:	d9801317 	ldw	r6,76(sp)
  80a988:	d9800515 	stw	r6,20(sp)
  80a98c:	003cea06 	br	809d38 <__alt_mem_onchip_mem+0xff801d38>
  80a990:	dd800f17 	ldw	r22,60(sp)
  80a994:	dcc01017 	ldw	r19,64(sp)
  80a998:	dc801217 	ldw	r18,72(sp)
  80a99c:	003c6c06 	br	809b50 <__alt_mem_onchip_mem+0xff801b50>
  80a9a0:	903e031e 	bne	r18,zero,80a1b0 <__alt_mem_onchip_mem+0xff8021b0>
  80a9a4:	003ebb06 	br	80a494 <__alt_mem_onchip_mem+0xff802494>
  80a9a8:	103e6c1e 	bne	r2,zero,80a35c <__alt_mem_onchip_mem+0xff80235c>
  80a9ac:	4080004c 	andi	r2,r8,1
  80a9b0:	103e6a26 	beq	r2,zero,80a35c <__alt_mem_onchip_mem+0xff80235c>
  80a9b4:	003e6606 	br	80a350 <__alt_mem_onchip_mem+0xff802350>
  80a9b8:	d8c00317 	ldw	r3,12(sp)
  80a9bc:	00800084 	movi	r2,2
  80a9c0:	10c02916 	blt	r2,r3,80aa68 <_dtoa_r+0x167c>
  80a9c4:	d9000c17 	ldw	r4,48(sp)
  80a9c8:	003e8806 	br	80a3ec <__alt_mem_onchip_mem+0xff8023ec>
  80a9cc:	04000084 	movi	r16,2
  80a9d0:	003b9d06 	br	809848 <__alt_mem_onchip_mem+0xff801848>
  80a9d4:	d9001317 	ldw	r4,76(sp)
  80a9d8:	d9000515 	stw	r4,20(sp)
  80a9dc:	003cd606 	br	809d38 <__alt_mem_onchip_mem+0xff801d38>
  80a9e0:	d8801317 	ldw	r2,76(sp)
  80a9e4:	d8800515 	stw	r2,20(sp)
  80a9e8:	003c2a06 	br	809a94 <__alt_mem_onchip_mem+0xff801a94>
  80a9ec:	d9800317 	ldw	r6,12(sp)
  80a9f0:	00800084 	movi	r2,2
  80a9f4:	11801516 	blt	r2,r6,80aa4c <_dtoa_r+0x1660>
  80a9f8:	d9c00c17 	ldw	r7,48(sp)
  80a9fc:	d9c00615 	stw	r7,24(sp)
  80aa00:	003df706 	br	80a1e0 <__alt_mem_onchip_mem+0xff8021e0>
  80aa04:	193d3926 	beq	r3,r4,809eec <__alt_mem_onchip_mem+0xff801eec>
  80aa08:	00c00f04 	movi	r3,60
  80aa0c:	1885c83a 	sub	r2,r3,r2
  80aa10:	003ddf06 	br	80a190 <__alt_mem_onchip_mem+0xff802190>
  80aa14:	e009883a 	mov	r4,fp
  80aa18:	e0001115 	stw	zero,68(fp)
  80aa1c:	000b883a 	mov	r5,zero
  80aa20:	080c4700 	call	80c470 <_Balloc>
  80aa24:	d8800715 	stw	r2,28(sp)
  80aa28:	d8c00717 	ldw	r3,28(sp)
  80aa2c:	00bfffc4 	movi	r2,-1
  80aa30:	01000044 	movi	r4,1
  80aa34:	d8800c15 	stw	r2,48(sp)
  80aa38:	e0c01015 	stw	r3,64(fp)
  80aa3c:	d9000b15 	stw	r4,44(sp)
  80aa40:	d8800615 	stw	r2,24(sp)
  80aa44:	d8002215 	stw	zero,136(sp)
  80aa48:	003c4106 	br	809b50 <__alt_mem_onchip_mem+0xff801b50>
  80aa4c:	d8c00c17 	ldw	r3,48(sp)
  80aa50:	d8c00615 	stw	r3,24(sp)
  80aa54:	003e7006 	br	80a418 <__alt_mem_onchip_mem+0xff802418>
  80aa58:	04400044 	movi	r17,1
  80aa5c:	003b2006 	br	8096e0 <__alt_mem_onchip_mem+0xff8016e0>
  80aa60:	000b883a 	mov	r5,zero
  80aa64:	003b3d06 	br	80975c <__alt_mem_onchip_mem+0xff80175c>
  80aa68:	d8800c17 	ldw	r2,48(sp)
  80aa6c:	d8800615 	stw	r2,24(sp)
  80aa70:	003e6906 	br	80a418 <__alt_mem_onchip_mem+0xff802418>

0080aa74 <__sflush_r>:
  80aa74:	2880030b 	ldhu	r2,12(r5)
  80aa78:	defffb04 	addi	sp,sp,-20
  80aa7c:	dcc00315 	stw	r19,12(sp)
  80aa80:	dc400115 	stw	r17,4(sp)
  80aa84:	dfc00415 	stw	ra,16(sp)
  80aa88:	dc800215 	stw	r18,8(sp)
  80aa8c:	dc000015 	stw	r16,0(sp)
  80aa90:	10c0020c 	andi	r3,r2,8
  80aa94:	2823883a 	mov	r17,r5
  80aa98:	2027883a 	mov	r19,r4
  80aa9c:	1800311e 	bne	r3,zero,80ab64 <__sflush_r+0xf0>
  80aaa0:	28c00117 	ldw	r3,4(r5)
  80aaa4:	10820014 	ori	r2,r2,2048
  80aaa8:	2880030d 	sth	r2,12(r5)
  80aaac:	00c04b0e 	bge	zero,r3,80abdc <__sflush_r+0x168>
  80aab0:	8a000a17 	ldw	r8,40(r17)
  80aab4:	40002326 	beq	r8,zero,80ab44 <__sflush_r+0xd0>
  80aab8:	9c000017 	ldw	r16,0(r19)
  80aabc:	10c4000c 	andi	r3,r2,4096
  80aac0:	98000015 	stw	zero,0(r19)
  80aac4:	18004826 	beq	r3,zero,80abe8 <__sflush_r+0x174>
  80aac8:	89801417 	ldw	r6,80(r17)
  80aacc:	10c0010c 	andi	r3,r2,4
  80aad0:	18000626 	beq	r3,zero,80aaec <__sflush_r+0x78>
  80aad4:	88c00117 	ldw	r3,4(r17)
  80aad8:	88800c17 	ldw	r2,48(r17)
  80aadc:	30cdc83a 	sub	r6,r6,r3
  80aae0:	10000226 	beq	r2,zero,80aaec <__sflush_r+0x78>
  80aae4:	88800f17 	ldw	r2,60(r17)
  80aae8:	308dc83a 	sub	r6,r6,r2
  80aaec:	89400717 	ldw	r5,28(r17)
  80aaf0:	000f883a 	mov	r7,zero
  80aaf4:	9809883a 	mov	r4,r19
  80aaf8:	403ee83a 	callr	r8
  80aafc:	00ffffc4 	movi	r3,-1
  80ab00:	10c04426 	beq	r2,r3,80ac14 <__sflush_r+0x1a0>
  80ab04:	88c0030b 	ldhu	r3,12(r17)
  80ab08:	89000417 	ldw	r4,16(r17)
  80ab0c:	88000115 	stw	zero,4(r17)
  80ab10:	197dffcc 	andi	r5,r3,63487
  80ab14:	8940030d 	sth	r5,12(r17)
  80ab18:	89000015 	stw	r4,0(r17)
  80ab1c:	18c4000c 	andi	r3,r3,4096
  80ab20:	18002c1e 	bne	r3,zero,80abd4 <__sflush_r+0x160>
  80ab24:	89400c17 	ldw	r5,48(r17)
  80ab28:	9c000015 	stw	r16,0(r19)
  80ab2c:	28000526 	beq	r5,zero,80ab44 <__sflush_r+0xd0>
  80ab30:	88801004 	addi	r2,r17,64
  80ab34:	28800226 	beq	r5,r2,80ab40 <__sflush_r+0xcc>
  80ab38:	9809883a 	mov	r4,r19
  80ab3c:	080b1e00 	call	80b1e0 <_free_r>
  80ab40:	88000c15 	stw	zero,48(r17)
  80ab44:	0005883a 	mov	r2,zero
  80ab48:	dfc00417 	ldw	ra,16(sp)
  80ab4c:	dcc00317 	ldw	r19,12(sp)
  80ab50:	dc800217 	ldw	r18,8(sp)
  80ab54:	dc400117 	ldw	r17,4(sp)
  80ab58:	dc000017 	ldw	r16,0(sp)
  80ab5c:	dec00504 	addi	sp,sp,20
  80ab60:	f800283a 	ret
  80ab64:	2c800417 	ldw	r18,16(r5)
  80ab68:	903ff626 	beq	r18,zero,80ab44 <__alt_mem_onchip_mem+0xff802b44>
  80ab6c:	2c000017 	ldw	r16,0(r5)
  80ab70:	108000cc 	andi	r2,r2,3
  80ab74:	2c800015 	stw	r18,0(r5)
  80ab78:	84a1c83a 	sub	r16,r16,r18
  80ab7c:	1000131e 	bne	r2,zero,80abcc <__sflush_r+0x158>
  80ab80:	28800517 	ldw	r2,20(r5)
  80ab84:	88800215 	stw	r2,8(r17)
  80ab88:	04000316 	blt	zero,r16,80ab98 <__sflush_r+0x124>
  80ab8c:	003fed06 	br	80ab44 <__alt_mem_onchip_mem+0xff802b44>
  80ab90:	90a5883a 	add	r18,r18,r2
  80ab94:	043feb0e 	bge	zero,r16,80ab44 <__alt_mem_onchip_mem+0xff802b44>
  80ab98:	88800917 	ldw	r2,36(r17)
  80ab9c:	89400717 	ldw	r5,28(r17)
  80aba0:	800f883a 	mov	r7,r16
  80aba4:	900d883a 	mov	r6,r18
  80aba8:	9809883a 	mov	r4,r19
  80abac:	103ee83a 	callr	r2
  80abb0:	80a1c83a 	sub	r16,r16,r2
  80abb4:	00bff616 	blt	zero,r2,80ab90 <__alt_mem_onchip_mem+0xff802b90>
  80abb8:	88c0030b 	ldhu	r3,12(r17)
  80abbc:	00bfffc4 	movi	r2,-1
  80abc0:	18c01014 	ori	r3,r3,64
  80abc4:	88c0030d 	sth	r3,12(r17)
  80abc8:	003fdf06 	br	80ab48 <__alt_mem_onchip_mem+0xff802b48>
  80abcc:	0005883a 	mov	r2,zero
  80abd0:	003fec06 	br	80ab84 <__alt_mem_onchip_mem+0xff802b84>
  80abd4:	88801415 	stw	r2,80(r17)
  80abd8:	003fd206 	br	80ab24 <__alt_mem_onchip_mem+0xff802b24>
  80abdc:	28c00f17 	ldw	r3,60(r5)
  80abe0:	00ffb316 	blt	zero,r3,80aab0 <__alt_mem_onchip_mem+0xff802ab0>
  80abe4:	003fd706 	br	80ab44 <__alt_mem_onchip_mem+0xff802b44>
  80abe8:	89400717 	ldw	r5,28(r17)
  80abec:	000d883a 	mov	r6,zero
  80abf0:	01c00044 	movi	r7,1
  80abf4:	9809883a 	mov	r4,r19
  80abf8:	403ee83a 	callr	r8
  80abfc:	100d883a 	mov	r6,r2
  80ac00:	00bfffc4 	movi	r2,-1
  80ac04:	30801426 	beq	r6,r2,80ac58 <__sflush_r+0x1e4>
  80ac08:	8880030b 	ldhu	r2,12(r17)
  80ac0c:	8a000a17 	ldw	r8,40(r17)
  80ac10:	003fae06 	br	80aacc <__alt_mem_onchip_mem+0xff802acc>
  80ac14:	98c00017 	ldw	r3,0(r19)
  80ac18:	183fba26 	beq	r3,zero,80ab04 <__alt_mem_onchip_mem+0xff802b04>
  80ac1c:	01000744 	movi	r4,29
  80ac20:	19000626 	beq	r3,r4,80ac3c <__sflush_r+0x1c8>
  80ac24:	01000584 	movi	r4,22
  80ac28:	19000426 	beq	r3,r4,80ac3c <__sflush_r+0x1c8>
  80ac2c:	88c0030b 	ldhu	r3,12(r17)
  80ac30:	18c01014 	ori	r3,r3,64
  80ac34:	88c0030d 	sth	r3,12(r17)
  80ac38:	003fc306 	br	80ab48 <__alt_mem_onchip_mem+0xff802b48>
  80ac3c:	8880030b 	ldhu	r2,12(r17)
  80ac40:	88c00417 	ldw	r3,16(r17)
  80ac44:	88000115 	stw	zero,4(r17)
  80ac48:	10bdffcc 	andi	r2,r2,63487
  80ac4c:	8880030d 	sth	r2,12(r17)
  80ac50:	88c00015 	stw	r3,0(r17)
  80ac54:	003fb306 	br	80ab24 <__alt_mem_onchip_mem+0xff802b24>
  80ac58:	98800017 	ldw	r2,0(r19)
  80ac5c:	103fea26 	beq	r2,zero,80ac08 <__alt_mem_onchip_mem+0xff802c08>
  80ac60:	00c00744 	movi	r3,29
  80ac64:	10c00226 	beq	r2,r3,80ac70 <__sflush_r+0x1fc>
  80ac68:	00c00584 	movi	r3,22
  80ac6c:	10c0031e 	bne	r2,r3,80ac7c <__sflush_r+0x208>
  80ac70:	9c000015 	stw	r16,0(r19)
  80ac74:	0005883a 	mov	r2,zero
  80ac78:	003fb306 	br	80ab48 <__alt_mem_onchip_mem+0xff802b48>
  80ac7c:	88c0030b 	ldhu	r3,12(r17)
  80ac80:	3005883a 	mov	r2,r6
  80ac84:	18c01014 	ori	r3,r3,64
  80ac88:	88c0030d 	sth	r3,12(r17)
  80ac8c:	003fae06 	br	80ab48 <__alt_mem_onchip_mem+0xff802b48>

0080ac90 <_fflush_r>:
  80ac90:	defffd04 	addi	sp,sp,-12
  80ac94:	dc000115 	stw	r16,4(sp)
  80ac98:	dfc00215 	stw	ra,8(sp)
  80ac9c:	2021883a 	mov	r16,r4
  80aca0:	20000226 	beq	r4,zero,80acac <_fflush_r+0x1c>
  80aca4:	20800e17 	ldw	r2,56(r4)
  80aca8:	10000c26 	beq	r2,zero,80acdc <_fflush_r+0x4c>
  80acac:	2880030f 	ldh	r2,12(r5)
  80acb0:	1000051e 	bne	r2,zero,80acc8 <_fflush_r+0x38>
  80acb4:	0005883a 	mov	r2,zero
  80acb8:	dfc00217 	ldw	ra,8(sp)
  80acbc:	dc000117 	ldw	r16,4(sp)
  80acc0:	dec00304 	addi	sp,sp,12
  80acc4:	f800283a 	ret
  80acc8:	8009883a 	mov	r4,r16
  80accc:	dfc00217 	ldw	ra,8(sp)
  80acd0:	dc000117 	ldw	r16,4(sp)
  80acd4:	dec00304 	addi	sp,sp,12
  80acd8:	080aa741 	jmpi	80aa74 <__sflush_r>
  80acdc:	d9400015 	stw	r5,0(sp)
  80ace0:	080b06c0 	call	80b06c <__sinit>
  80ace4:	d9400017 	ldw	r5,0(sp)
  80ace8:	003ff006 	br	80acac <__alt_mem_onchip_mem+0xff802cac>

0080acec <fflush>:
  80acec:	20000526 	beq	r4,zero,80ad04 <fflush+0x18>
  80acf0:	00802074 	movhi	r2,129
  80acf4:	109f3004 	addi	r2,r2,31936
  80acf8:	200b883a 	mov	r5,r4
  80acfc:	11000017 	ldw	r4,0(r2)
  80ad00:	080ac901 	jmpi	80ac90 <_fflush_r>
  80ad04:	00802074 	movhi	r2,129
  80ad08:	109f2f04 	addi	r2,r2,31932
  80ad0c:	11000017 	ldw	r4,0(r2)
  80ad10:	01402074 	movhi	r5,129
  80ad14:	296b2404 	addi	r5,r5,-21360
  80ad18:	080b5b41 	jmpi	80b5b4 <_fwalk_reent>

0080ad1c <__fp_unlock>:
  80ad1c:	0005883a 	mov	r2,zero
  80ad20:	f800283a 	ret

0080ad24 <_cleanup_r>:
  80ad24:	01402074 	movhi	r5,129
  80ad28:	297be904 	addi	r5,r5,-4188
  80ad2c:	080b5b41 	jmpi	80b5b4 <_fwalk_reent>

0080ad30 <__sinit.part.1>:
  80ad30:	defff704 	addi	sp,sp,-36
  80ad34:	00c02074 	movhi	r3,129
  80ad38:	dfc00815 	stw	ra,32(sp)
  80ad3c:	ddc00715 	stw	r23,28(sp)
  80ad40:	dd800615 	stw	r22,24(sp)
  80ad44:	dd400515 	stw	r21,20(sp)
  80ad48:	dd000415 	stw	r20,16(sp)
  80ad4c:	dcc00315 	stw	r19,12(sp)
  80ad50:	dc800215 	stw	r18,8(sp)
  80ad54:	dc400115 	stw	r17,4(sp)
  80ad58:	dc000015 	stw	r16,0(sp)
  80ad5c:	18eb4904 	addi	r3,r3,-21212
  80ad60:	24000117 	ldw	r16,4(r4)
  80ad64:	20c00f15 	stw	r3,60(r4)
  80ad68:	2080bb04 	addi	r2,r4,748
  80ad6c:	00c000c4 	movi	r3,3
  80ad70:	20c0b915 	stw	r3,740(r4)
  80ad74:	2080ba15 	stw	r2,744(r4)
  80ad78:	2000b815 	stw	zero,736(r4)
  80ad7c:	05c00204 	movi	r23,8
  80ad80:	00800104 	movi	r2,4
  80ad84:	2025883a 	mov	r18,r4
  80ad88:	b80d883a 	mov	r6,r23
  80ad8c:	81001704 	addi	r4,r16,92
  80ad90:	000b883a 	mov	r5,zero
  80ad94:	80000015 	stw	zero,0(r16)
  80ad98:	80000115 	stw	zero,4(r16)
  80ad9c:	80000215 	stw	zero,8(r16)
  80ada0:	8080030d 	sth	r2,12(r16)
  80ada4:	80001915 	stw	zero,100(r16)
  80ada8:	8000038d 	sth	zero,14(r16)
  80adac:	80000415 	stw	zero,16(r16)
  80adb0:	80000515 	stw	zero,20(r16)
  80adb4:	80000615 	stw	zero,24(r16)
  80adb8:	080c3480 	call	80c348 <memset>
  80adbc:	05802074 	movhi	r22,129
  80adc0:	94400217 	ldw	r17,8(r18)
  80adc4:	05402074 	movhi	r21,129
  80adc8:	05002074 	movhi	r20,129
  80adcc:	04c02074 	movhi	r19,129
  80add0:	b5b54d04 	addi	r22,r22,-10956
  80add4:	ad756404 	addi	r21,r21,-10864
  80add8:	a5358304 	addi	r20,r20,-10740
  80addc:	9cf59a04 	addi	r19,r19,-10648
  80ade0:	85800815 	stw	r22,32(r16)
  80ade4:	85400915 	stw	r21,36(r16)
  80ade8:	85000a15 	stw	r20,40(r16)
  80adec:	84c00b15 	stw	r19,44(r16)
  80adf0:	84000715 	stw	r16,28(r16)
  80adf4:	00800284 	movi	r2,10
  80adf8:	8880030d 	sth	r2,12(r17)
  80adfc:	00800044 	movi	r2,1
  80ae00:	b80d883a 	mov	r6,r23
  80ae04:	89001704 	addi	r4,r17,92
  80ae08:	000b883a 	mov	r5,zero
  80ae0c:	88000015 	stw	zero,0(r17)
  80ae10:	88000115 	stw	zero,4(r17)
  80ae14:	88000215 	stw	zero,8(r17)
  80ae18:	88001915 	stw	zero,100(r17)
  80ae1c:	8880038d 	sth	r2,14(r17)
  80ae20:	88000415 	stw	zero,16(r17)
  80ae24:	88000515 	stw	zero,20(r17)
  80ae28:	88000615 	stw	zero,24(r17)
  80ae2c:	080c3480 	call	80c348 <memset>
  80ae30:	94000317 	ldw	r16,12(r18)
  80ae34:	00800484 	movi	r2,18
  80ae38:	8c400715 	stw	r17,28(r17)
  80ae3c:	8d800815 	stw	r22,32(r17)
  80ae40:	8d400915 	stw	r21,36(r17)
  80ae44:	8d000a15 	stw	r20,40(r17)
  80ae48:	8cc00b15 	stw	r19,44(r17)
  80ae4c:	8080030d 	sth	r2,12(r16)
  80ae50:	00800084 	movi	r2,2
  80ae54:	80000015 	stw	zero,0(r16)
  80ae58:	80000115 	stw	zero,4(r16)
  80ae5c:	80000215 	stw	zero,8(r16)
  80ae60:	80001915 	stw	zero,100(r16)
  80ae64:	8080038d 	sth	r2,14(r16)
  80ae68:	80000415 	stw	zero,16(r16)
  80ae6c:	80000515 	stw	zero,20(r16)
  80ae70:	80000615 	stw	zero,24(r16)
  80ae74:	b80d883a 	mov	r6,r23
  80ae78:	000b883a 	mov	r5,zero
  80ae7c:	81001704 	addi	r4,r16,92
  80ae80:	080c3480 	call	80c348 <memset>
  80ae84:	00800044 	movi	r2,1
  80ae88:	84000715 	stw	r16,28(r16)
  80ae8c:	85800815 	stw	r22,32(r16)
  80ae90:	85400915 	stw	r21,36(r16)
  80ae94:	85000a15 	stw	r20,40(r16)
  80ae98:	84c00b15 	stw	r19,44(r16)
  80ae9c:	90800e15 	stw	r2,56(r18)
  80aea0:	dfc00817 	ldw	ra,32(sp)
  80aea4:	ddc00717 	ldw	r23,28(sp)
  80aea8:	dd800617 	ldw	r22,24(sp)
  80aeac:	dd400517 	ldw	r21,20(sp)
  80aeb0:	dd000417 	ldw	r20,16(sp)
  80aeb4:	dcc00317 	ldw	r19,12(sp)
  80aeb8:	dc800217 	ldw	r18,8(sp)
  80aebc:	dc400117 	ldw	r17,4(sp)
  80aec0:	dc000017 	ldw	r16,0(sp)
  80aec4:	dec00904 	addi	sp,sp,36
  80aec8:	f800283a 	ret

0080aecc <__fp_lock>:
  80aecc:	0005883a 	mov	r2,zero
  80aed0:	f800283a 	ret

0080aed4 <__sfmoreglue>:
  80aed4:	defffc04 	addi	sp,sp,-16
  80aed8:	dc400115 	stw	r17,4(sp)
  80aedc:	2c7fffc4 	addi	r17,r5,-1
  80aee0:	8c401a24 	muli	r17,r17,104
  80aee4:	dc800215 	stw	r18,8(sp)
  80aee8:	2825883a 	mov	r18,r5
  80aeec:	89401d04 	addi	r5,r17,116
  80aef0:	dc000015 	stw	r16,0(sp)
  80aef4:	dfc00315 	stw	ra,12(sp)
  80aef8:	080b9100 	call	80b910 <_malloc_r>
  80aefc:	1021883a 	mov	r16,r2
  80af00:	10000726 	beq	r2,zero,80af20 <__sfmoreglue+0x4c>
  80af04:	11000304 	addi	r4,r2,12
  80af08:	10000015 	stw	zero,0(r2)
  80af0c:	14800115 	stw	r18,4(r2)
  80af10:	11000215 	stw	r4,8(r2)
  80af14:	89801a04 	addi	r6,r17,104
  80af18:	000b883a 	mov	r5,zero
  80af1c:	080c3480 	call	80c348 <memset>
  80af20:	8005883a 	mov	r2,r16
  80af24:	dfc00317 	ldw	ra,12(sp)
  80af28:	dc800217 	ldw	r18,8(sp)
  80af2c:	dc400117 	ldw	r17,4(sp)
  80af30:	dc000017 	ldw	r16,0(sp)
  80af34:	dec00404 	addi	sp,sp,16
  80af38:	f800283a 	ret

0080af3c <__sfp>:
  80af3c:	defffb04 	addi	sp,sp,-20
  80af40:	dc000015 	stw	r16,0(sp)
  80af44:	04002074 	movhi	r16,129
  80af48:	841f2f04 	addi	r16,r16,31932
  80af4c:	dcc00315 	stw	r19,12(sp)
  80af50:	2027883a 	mov	r19,r4
  80af54:	81000017 	ldw	r4,0(r16)
  80af58:	dfc00415 	stw	ra,16(sp)
  80af5c:	dc800215 	stw	r18,8(sp)
  80af60:	20800e17 	ldw	r2,56(r4)
  80af64:	dc400115 	stw	r17,4(sp)
  80af68:	1000021e 	bne	r2,zero,80af74 <__sfp+0x38>
  80af6c:	080ad300 	call	80ad30 <__sinit.part.1>
  80af70:	81000017 	ldw	r4,0(r16)
  80af74:	2480b804 	addi	r18,r4,736
  80af78:	047fffc4 	movi	r17,-1
  80af7c:	91000117 	ldw	r4,4(r18)
  80af80:	94000217 	ldw	r16,8(r18)
  80af84:	213fffc4 	addi	r4,r4,-1
  80af88:	20000a16 	blt	r4,zero,80afb4 <__sfp+0x78>
  80af8c:	8080030f 	ldh	r2,12(r16)
  80af90:	10000c26 	beq	r2,zero,80afc4 <__sfp+0x88>
  80af94:	80c01d04 	addi	r3,r16,116
  80af98:	00000206 	br	80afa4 <__sfp+0x68>
  80af9c:	18bfe60f 	ldh	r2,-104(r3)
  80afa0:	10000826 	beq	r2,zero,80afc4 <__sfp+0x88>
  80afa4:	213fffc4 	addi	r4,r4,-1
  80afa8:	1c3ffd04 	addi	r16,r3,-12
  80afac:	18c01a04 	addi	r3,r3,104
  80afb0:	247ffa1e 	bne	r4,r17,80af9c <__alt_mem_onchip_mem+0xff802f9c>
  80afb4:	90800017 	ldw	r2,0(r18)
  80afb8:	10001d26 	beq	r2,zero,80b030 <__sfp+0xf4>
  80afbc:	1025883a 	mov	r18,r2
  80afc0:	003fee06 	br	80af7c <__alt_mem_onchip_mem+0xff802f7c>
  80afc4:	00bfffc4 	movi	r2,-1
  80afc8:	8080038d 	sth	r2,14(r16)
  80afcc:	00800044 	movi	r2,1
  80afd0:	8080030d 	sth	r2,12(r16)
  80afd4:	80001915 	stw	zero,100(r16)
  80afd8:	80000015 	stw	zero,0(r16)
  80afdc:	80000215 	stw	zero,8(r16)
  80afe0:	80000115 	stw	zero,4(r16)
  80afe4:	80000415 	stw	zero,16(r16)
  80afe8:	80000515 	stw	zero,20(r16)
  80afec:	80000615 	stw	zero,24(r16)
  80aff0:	01800204 	movi	r6,8
  80aff4:	000b883a 	mov	r5,zero
  80aff8:	81001704 	addi	r4,r16,92
  80affc:	080c3480 	call	80c348 <memset>
  80b000:	8005883a 	mov	r2,r16
  80b004:	80000c15 	stw	zero,48(r16)
  80b008:	80000d15 	stw	zero,52(r16)
  80b00c:	80001115 	stw	zero,68(r16)
  80b010:	80001215 	stw	zero,72(r16)
  80b014:	dfc00417 	ldw	ra,16(sp)
  80b018:	dcc00317 	ldw	r19,12(sp)
  80b01c:	dc800217 	ldw	r18,8(sp)
  80b020:	dc400117 	ldw	r17,4(sp)
  80b024:	dc000017 	ldw	r16,0(sp)
  80b028:	dec00504 	addi	sp,sp,20
  80b02c:	f800283a 	ret
  80b030:	01400104 	movi	r5,4
  80b034:	9809883a 	mov	r4,r19
  80b038:	080aed40 	call	80aed4 <__sfmoreglue>
  80b03c:	90800015 	stw	r2,0(r18)
  80b040:	103fde1e 	bne	r2,zero,80afbc <__alt_mem_onchip_mem+0xff802fbc>
  80b044:	00800304 	movi	r2,12
  80b048:	98800015 	stw	r2,0(r19)
  80b04c:	0005883a 	mov	r2,zero
  80b050:	003ff006 	br	80b014 <__alt_mem_onchip_mem+0xff803014>

0080b054 <_cleanup>:
  80b054:	00802074 	movhi	r2,129
  80b058:	109f2f04 	addi	r2,r2,31932
  80b05c:	11000017 	ldw	r4,0(r2)
  80b060:	01402074 	movhi	r5,129
  80b064:	297be904 	addi	r5,r5,-4188
  80b068:	080b5b41 	jmpi	80b5b4 <_fwalk_reent>

0080b06c <__sinit>:
  80b06c:	20800e17 	ldw	r2,56(r4)
  80b070:	10000126 	beq	r2,zero,80b078 <__sinit+0xc>
  80b074:	f800283a 	ret
  80b078:	080ad301 	jmpi	80ad30 <__sinit.part.1>

0080b07c <__sfp_lock_acquire>:
  80b07c:	f800283a 	ret

0080b080 <__sfp_lock_release>:
  80b080:	f800283a 	ret

0080b084 <__sinit_lock_acquire>:
  80b084:	f800283a 	ret

0080b088 <__sinit_lock_release>:
  80b088:	f800283a 	ret

0080b08c <__fp_lock_all>:
  80b08c:	00802074 	movhi	r2,129
  80b090:	109f3004 	addi	r2,r2,31936
  80b094:	11000017 	ldw	r4,0(r2)
  80b098:	01402074 	movhi	r5,129
  80b09c:	296bb304 	addi	r5,r5,-20788
  80b0a0:	080b4f01 	jmpi	80b4f0 <_fwalk>

0080b0a4 <__fp_unlock_all>:
  80b0a4:	00802074 	movhi	r2,129
  80b0a8:	109f3004 	addi	r2,r2,31936
  80b0ac:	11000017 	ldw	r4,0(r2)
  80b0b0:	01402074 	movhi	r5,129
  80b0b4:	296b4704 	addi	r5,r5,-21220
  80b0b8:	080b4f01 	jmpi	80b4f0 <_fwalk>

0080b0bc <_malloc_trim_r>:
  80b0bc:	defffb04 	addi	sp,sp,-20
  80b0c0:	dcc00315 	stw	r19,12(sp)
  80b0c4:	04c02074 	movhi	r19,129
  80b0c8:	dc800215 	stw	r18,8(sp)
  80b0cc:	dc400115 	stw	r17,4(sp)
  80b0d0:	dc000015 	stw	r16,0(sp)
  80b0d4:	dfc00415 	stw	ra,16(sp)
  80b0d8:	2821883a 	mov	r16,r5
  80b0dc:	9cd93204 	addi	r19,r19,25800
  80b0e0:	2025883a 	mov	r18,r4
  80b0e4:	08122780 	call	812278 <__malloc_lock>
  80b0e8:	98800217 	ldw	r2,8(r19)
  80b0ec:	14400117 	ldw	r17,4(r2)
  80b0f0:	00bfff04 	movi	r2,-4
  80b0f4:	88a2703a 	and	r17,r17,r2
  80b0f8:	8c21c83a 	sub	r16,r17,r16
  80b0fc:	8403fbc4 	addi	r16,r16,4079
  80b100:	8020d33a 	srli	r16,r16,12
  80b104:	0083ffc4 	movi	r2,4095
  80b108:	843fffc4 	addi	r16,r16,-1
  80b10c:	8020933a 	slli	r16,r16,12
  80b110:	1400060e 	bge	r2,r16,80b12c <_malloc_trim_r+0x70>
  80b114:	000b883a 	mov	r5,zero
  80b118:	9009883a 	mov	r4,r18
  80b11c:	080d4e00 	call	80d4e0 <_sbrk_r>
  80b120:	98c00217 	ldw	r3,8(r19)
  80b124:	1c47883a 	add	r3,r3,r17
  80b128:	10c00a26 	beq	r2,r3,80b154 <_malloc_trim_r+0x98>
  80b12c:	9009883a 	mov	r4,r18
  80b130:	081229c0 	call	81229c <__malloc_unlock>
  80b134:	0005883a 	mov	r2,zero
  80b138:	dfc00417 	ldw	ra,16(sp)
  80b13c:	dcc00317 	ldw	r19,12(sp)
  80b140:	dc800217 	ldw	r18,8(sp)
  80b144:	dc400117 	ldw	r17,4(sp)
  80b148:	dc000017 	ldw	r16,0(sp)
  80b14c:	dec00504 	addi	sp,sp,20
  80b150:	f800283a 	ret
  80b154:	040bc83a 	sub	r5,zero,r16
  80b158:	9009883a 	mov	r4,r18
  80b15c:	080d4e00 	call	80d4e0 <_sbrk_r>
  80b160:	00ffffc4 	movi	r3,-1
  80b164:	10c00d26 	beq	r2,r3,80b19c <_malloc_trim_r+0xe0>
  80b168:	00c020b4 	movhi	r3,130
  80b16c:	18e69204 	addi	r3,r3,-26040
  80b170:	18800017 	ldw	r2,0(r3)
  80b174:	99000217 	ldw	r4,8(r19)
  80b178:	8c23c83a 	sub	r17,r17,r16
  80b17c:	8c400054 	ori	r17,r17,1
  80b180:	1421c83a 	sub	r16,r2,r16
  80b184:	24400115 	stw	r17,4(r4)
  80b188:	9009883a 	mov	r4,r18
  80b18c:	1c000015 	stw	r16,0(r3)
  80b190:	081229c0 	call	81229c <__malloc_unlock>
  80b194:	00800044 	movi	r2,1
  80b198:	003fe706 	br	80b138 <__alt_mem_onchip_mem+0xff803138>
  80b19c:	000b883a 	mov	r5,zero
  80b1a0:	9009883a 	mov	r4,r18
  80b1a4:	080d4e00 	call	80d4e0 <_sbrk_r>
  80b1a8:	99000217 	ldw	r4,8(r19)
  80b1ac:	014003c4 	movi	r5,15
  80b1b0:	1107c83a 	sub	r3,r2,r4
  80b1b4:	28ffdd0e 	bge	r5,r3,80b12c <__alt_mem_onchip_mem+0xff80312c>
  80b1b8:	01402074 	movhi	r5,129
  80b1bc:	295f3204 	addi	r5,r5,31944
  80b1c0:	29400017 	ldw	r5,0(r5)
  80b1c4:	18c00054 	ori	r3,r3,1
  80b1c8:	20c00115 	stw	r3,4(r4)
  80b1cc:	00c020b4 	movhi	r3,130
  80b1d0:	1145c83a 	sub	r2,r2,r5
  80b1d4:	18e69204 	addi	r3,r3,-26040
  80b1d8:	18800015 	stw	r2,0(r3)
  80b1dc:	003fd306 	br	80b12c <__alt_mem_onchip_mem+0xff80312c>

0080b1e0 <_free_r>:
  80b1e0:	28004126 	beq	r5,zero,80b2e8 <_free_r+0x108>
  80b1e4:	defffd04 	addi	sp,sp,-12
  80b1e8:	dc400115 	stw	r17,4(sp)
  80b1ec:	dc000015 	stw	r16,0(sp)
  80b1f0:	2023883a 	mov	r17,r4
  80b1f4:	2821883a 	mov	r16,r5
  80b1f8:	dfc00215 	stw	ra,8(sp)
  80b1fc:	08122780 	call	812278 <__malloc_lock>
  80b200:	81ffff17 	ldw	r7,-4(r16)
  80b204:	00bfff84 	movi	r2,-2
  80b208:	01002074 	movhi	r4,129
  80b20c:	81bffe04 	addi	r6,r16,-8
  80b210:	3884703a 	and	r2,r7,r2
  80b214:	21193204 	addi	r4,r4,25800
  80b218:	308b883a 	add	r5,r6,r2
  80b21c:	2a400117 	ldw	r9,4(r5)
  80b220:	22000217 	ldw	r8,8(r4)
  80b224:	00ffff04 	movi	r3,-4
  80b228:	48c6703a 	and	r3,r9,r3
  80b22c:	2a005726 	beq	r5,r8,80b38c <_free_r+0x1ac>
  80b230:	28c00115 	stw	r3,4(r5)
  80b234:	39c0004c 	andi	r7,r7,1
  80b238:	3800091e 	bne	r7,zero,80b260 <_free_r+0x80>
  80b23c:	823ffe17 	ldw	r8,-8(r16)
  80b240:	22400204 	addi	r9,r4,8
  80b244:	320dc83a 	sub	r6,r6,r8
  80b248:	31c00217 	ldw	r7,8(r6)
  80b24c:	1205883a 	add	r2,r2,r8
  80b250:	3a406526 	beq	r7,r9,80b3e8 <_free_r+0x208>
  80b254:	32000317 	ldw	r8,12(r6)
  80b258:	3a000315 	stw	r8,12(r7)
  80b25c:	41c00215 	stw	r7,8(r8)
  80b260:	28cf883a 	add	r7,r5,r3
  80b264:	39c00117 	ldw	r7,4(r7)
  80b268:	39c0004c 	andi	r7,r7,1
  80b26c:	38003a26 	beq	r7,zero,80b358 <_free_r+0x178>
  80b270:	10c00054 	ori	r3,r2,1
  80b274:	30c00115 	stw	r3,4(r6)
  80b278:	3087883a 	add	r3,r6,r2
  80b27c:	18800015 	stw	r2,0(r3)
  80b280:	00c07fc4 	movi	r3,511
  80b284:	18801936 	bltu	r3,r2,80b2ec <_free_r+0x10c>
  80b288:	1004d0fa 	srli	r2,r2,3
  80b28c:	01c00044 	movi	r7,1
  80b290:	21400117 	ldw	r5,4(r4)
  80b294:	10c00044 	addi	r3,r2,1
  80b298:	18c7883a 	add	r3,r3,r3
  80b29c:	1005d0ba 	srai	r2,r2,2
  80b2a0:	18c7883a 	add	r3,r3,r3
  80b2a4:	18c7883a 	add	r3,r3,r3
  80b2a8:	1907883a 	add	r3,r3,r4
  80b2ac:	3884983a 	sll	r2,r7,r2
  80b2b0:	19c00017 	ldw	r7,0(r3)
  80b2b4:	1a3ffe04 	addi	r8,r3,-8
  80b2b8:	1144b03a 	or	r2,r2,r5
  80b2bc:	32000315 	stw	r8,12(r6)
  80b2c0:	31c00215 	stw	r7,8(r6)
  80b2c4:	20800115 	stw	r2,4(r4)
  80b2c8:	19800015 	stw	r6,0(r3)
  80b2cc:	39800315 	stw	r6,12(r7)
  80b2d0:	8809883a 	mov	r4,r17
  80b2d4:	dfc00217 	ldw	ra,8(sp)
  80b2d8:	dc400117 	ldw	r17,4(sp)
  80b2dc:	dc000017 	ldw	r16,0(sp)
  80b2e0:	dec00304 	addi	sp,sp,12
  80b2e4:	081229c1 	jmpi	81229c <__malloc_unlock>
  80b2e8:	f800283a 	ret
  80b2ec:	100ad27a 	srli	r5,r2,9
  80b2f0:	00c00104 	movi	r3,4
  80b2f4:	19404a36 	bltu	r3,r5,80b420 <_free_r+0x240>
  80b2f8:	100ad1ba 	srli	r5,r2,6
  80b2fc:	28c00e44 	addi	r3,r5,57
  80b300:	18c7883a 	add	r3,r3,r3
  80b304:	29400e04 	addi	r5,r5,56
  80b308:	18c7883a 	add	r3,r3,r3
  80b30c:	18c7883a 	add	r3,r3,r3
  80b310:	1909883a 	add	r4,r3,r4
  80b314:	20c00017 	ldw	r3,0(r4)
  80b318:	01c02074 	movhi	r7,129
  80b31c:	213ffe04 	addi	r4,r4,-8
  80b320:	39d93204 	addi	r7,r7,25800
  80b324:	20c04426 	beq	r4,r3,80b438 <_free_r+0x258>
  80b328:	01ffff04 	movi	r7,-4
  80b32c:	19400117 	ldw	r5,4(r3)
  80b330:	29ca703a 	and	r5,r5,r7
  80b334:	1140022e 	bgeu	r2,r5,80b340 <_free_r+0x160>
  80b338:	18c00217 	ldw	r3,8(r3)
  80b33c:	20fffb1e 	bne	r4,r3,80b32c <__alt_mem_onchip_mem+0xff80332c>
  80b340:	19000317 	ldw	r4,12(r3)
  80b344:	31000315 	stw	r4,12(r6)
  80b348:	30c00215 	stw	r3,8(r6)
  80b34c:	21800215 	stw	r6,8(r4)
  80b350:	19800315 	stw	r6,12(r3)
  80b354:	003fde06 	br	80b2d0 <__alt_mem_onchip_mem+0xff8032d0>
  80b358:	29c00217 	ldw	r7,8(r5)
  80b35c:	10c5883a 	add	r2,r2,r3
  80b360:	00c02074 	movhi	r3,129
  80b364:	18d93404 	addi	r3,r3,25808
  80b368:	38c03b26 	beq	r7,r3,80b458 <_free_r+0x278>
  80b36c:	2a000317 	ldw	r8,12(r5)
  80b370:	11400054 	ori	r5,r2,1
  80b374:	3087883a 	add	r3,r6,r2
  80b378:	3a000315 	stw	r8,12(r7)
  80b37c:	41c00215 	stw	r7,8(r8)
  80b380:	31400115 	stw	r5,4(r6)
  80b384:	18800015 	stw	r2,0(r3)
  80b388:	003fbd06 	br	80b280 <__alt_mem_onchip_mem+0xff803280>
  80b38c:	39c0004c 	andi	r7,r7,1
  80b390:	10c5883a 	add	r2,r2,r3
  80b394:	3800071e 	bne	r7,zero,80b3b4 <_free_r+0x1d4>
  80b398:	81fffe17 	ldw	r7,-8(r16)
  80b39c:	31cdc83a 	sub	r6,r6,r7
  80b3a0:	30c00317 	ldw	r3,12(r6)
  80b3a4:	31400217 	ldw	r5,8(r6)
  80b3a8:	11c5883a 	add	r2,r2,r7
  80b3ac:	28c00315 	stw	r3,12(r5)
  80b3b0:	19400215 	stw	r5,8(r3)
  80b3b4:	10c00054 	ori	r3,r2,1
  80b3b8:	30c00115 	stw	r3,4(r6)
  80b3bc:	00c02074 	movhi	r3,129
  80b3c0:	18df3304 	addi	r3,r3,31948
  80b3c4:	18c00017 	ldw	r3,0(r3)
  80b3c8:	21800215 	stw	r6,8(r4)
  80b3cc:	10ffc036 	bltu	r2,r3,80b2d0 <__alt_mem_onchip_mem+0xff8032d0>
  80b3d0:	008020b4 	movhi	r2,130
  80b3d4:	10a68904 	addi	r2,r2,-26076
  80b3d8:	11400017 	ldw	r5,0(r2)
  80b3dc:	8809883a 	mov	r4,r17
  80b3e0:	080b0bc0 	call	80b0bc <_malloc_trim_r>
  80b3e4:	003fba06 	br	80b2d0 <__alt_mem_onchip_mem+0xff8032d0>
  80b3e8:	28c9883a 	add	r4,r5,r3
  80b3ec:	21000117 	ldw	r4,4(r4)
  80b3f0:	2100004c 	andi	r4,r4,1
  80b3f4:	2000391e 	bne	r4,zero,80b4dc <_free_r+0x2fc>
  80b3f8:	29c00217 	ldw	r7,8(r5)
  80b3fc:	29000317 	ldw	r4,12(r5)
  80b400:	1885883a 	add	r2,r3,r2
  80b404:	10c00054 	ori	r3,r2,1
  80b408:	39000315 	stw	r4,12(r7)
  80b40c:	21c00215 	stw	r7,8(r4)
  80b410:	30c00115 	stw	r3,4(r6)
  80b414:	308d883a 	add	r6,r6,r2
  80b418:	30800015 	stw	r2,0(r6)
  80b41c:	003fac06 	br	80b2d0 <__alt_mem_onchip_mem+0xff8032d0>
  80b420:	00c00504 	movi	r3,20
  80b424:	19401536 	bltu	r3,r5,80b47c <_free_r+0x29c>
  80b428:	28c01704 	addi	r3,r5,92
  80b42c:	18c7883a 	add	r3,r3,r3
  80b430:	294016c4 	addi	r5,r5,91
  80b434:	003fb406 	br	80b308 <__alt_mem_onchip_mem+0xff803308>
  80b438:	280bd0ba 	srai	r5,r5,2
  80b43c:	00c00044 	movi	r3,1
  80b440:	38800117 	ldw	r2,4(r7)
  80b444:	194a983a 	sll	r5,r3,r5
  80b448:	2007883a 	mov	r3,r4
  80b44c:	2884b03a 	or	r2,r5,r2
  80b450:	38800115 	stw	r2,4(r7)
  80b454:	003fbb06 	br	80b344 <__alt_mem_onchip_mem+0xff803344>
  80b458:	21800515 	stw	r6,20(r4)
  80b45c:	21800415 	stw	r6,16(r4)
  80b460:	10c00054 	ori	r3,r2,1
  80b464:	31c00315 	stw	r7,12(r6)
  80b468:	31c00215 	stw	r7,8(r6)
  80b46c:	30c00115 	stw	r3,4(r6)
  80b470:	308d883a 	add	r6,r6,r2
  80b474:	30800015 	stw	r2,0(r6)
  80b478:	003f9506 	br	80b2d0 <__alt_mem_onchip_mem+0xff8032d0>
  80b47c:	00c01504 	movi	r3,84
  80b480:	19400536 	bltu	r3,r5,80b498 <_free_r+0x2b8>
  80b484:	100ad33a 	srli	r5,r2,12
  80b488:	28c01bc4 	addi	r3,r5,111
  80b48c:	18c7883a 	add	r3,r3,r3
  80b490:	29401b84 	addi	r5,r5,110
  80b494:	003f9c06 	br	80b308 <__alt_mem_onchip_mem+0xff803308>
  80b498:	00c05504 	movi	r3,340
  80b49c:	19400536 	bltu	r3,r5,80b4b4 <_free_r+0x2d4>
  80b4a0:	100ad3fa 	srli	r5,r2,15
  80b4a4:	28c01e04 	addi	r3,r5,120
  80b4a8:	18c7883a 	add	r3,r3,r3
  80b4ac:	29401dc4 	addi	r5,r5,119
  80b4b0:	003f9506 	br	80b308 <__alt_mem_onchip_mem+0xff803308>
  80b4b4:	00c15504 	movi	r3,1364
  80b4b8:	19400536 	bltu	r3,r5,80b4d0 <_free_r+0x2f0>
  80b4bc:	100ad4ba 	srli	r5,r2,18
  80b4c0:	28c01f44 	addi	r3,r5,125
  80b4c4:	18c7883a 	add	r3,r3,r3
  80b4c8:	29401f04 	addi	r5,r5,124
  80b4cc:	003f8e06 	br	80b308 <__alt_mem_onchip_mem+0xff803308>
  80b4d0:	00c03f84 	movi	r3,254
  80b4d4:	01401f84 	movi	r5,126
  80b4d8:	003f8b06 	br	80b308 <__alt_mem_onchip_mem+0xff803308>
  80b4dc:	10c00054 	ori	r3,r2,1
  80b4e0:	30c00115 	stw	r3,4(r6)
  80b4e4:	308d883a 	add	r6,r6,r2
  80b4e8:	30800015 	stw	r2,0(r6)
  80b4ec:	003f7806 	br	80b2d0 <__alt_mem_onchip_mem+0xff8032d0>

0080b4f0 <_fwalk>:
  80b4f0:	defff704 	addi	sp,sp,-36
  80b4f4:	dd000415 	stw	r20,16(sp)
  80b4f8:	dfc00815 	stw	ra,32(sp)
  80b4fc:	ddc00715 	stw	r23,28(sp)
  80b500:	dd800615 	stw	r22,24(sp)
  80b504:	dd400515 	stw	r21,20(sp)
  80b508:	dcc00315 	stw	r19,12(sp)
  80b50c:	dc800215 	stw	r18,8(sp)
  80b510:	dc400115 	stw	r17,4(sp)
  80b514:	dc000015 	stw	r16,0(sp)
  80b518:	2500b804 	addi	r20,r4,736
  80b51c:	a0002326 	beq	r20,zero,80b5ac <_fwalk+0xbc>
  80b520:	282b883a 	mov	r21,r5
  80b524:	002f883a 	mov	r23,zero
  80b528:	05800044 	movi	r22,1
  80b52c:	04ffffc4 	movi	r19,-1
  80b530:	a4400117 	ldw	r17,4(r20)
  80b534:	a4800217 	ldw	r18,8(r20)
  80b538:	8c7fffc4 	addi	r17,r17,-1
  80b53c:	88000d16 	blt	r17,zero,80b574 <_fwalk+0x84>
  80b540:	94000304 	addi	r16,r18,12
  80b544:	94800384 	addi	r18,r18,14
  80b548:	8080000b 	ldhu	r2,0(r16)
  80b54c:	8c7fffc4 	addi	r17,r17,-1
  80b550:	813ffd04 	addi	r4,r16,-12
  80b554:	b080042e 	bgeu	r22,r2,80b568 <_fwalk+0x78>
  80b558:	9080000f 	ldh	r2,0(r18)
  80b55c:	14c00226 	beq	r2,r19,80b568 <_fwalk+0x78>
  80b560:	a83ee83a 	callr	r21
  80b564:	b8aeb03a 	or	r23,r23,r2
  80b568:	84001a04 	addi	r16,r16,104
  80b56c:	94801a04 	addi	r18,r18,104
  80b570:	8cfff51e 	bne	r17,r19,80b548 <__alt_mem_onchip_mem+0xff803548>
  80b574:	a5000017 	ldw	r20,0(r20)
  80b578:	a03fed1e 	bne	r20,zero,80b530 <__alt_mem_onchip_mem+0xff803530>
  80b57c:	b805883a 	mov	r2,r23
  80b580:	dfc00817 	ldw	ra,32(sp)
  80b584:	ddc00717 	ldw	r23,28(sp)
  80b588:	dd800617 	ldw	r22,24(sp)
  80b58c:	dd400517 	ldw	r21,20(sp)
  80b590:	dd000417 	ldw	r20,16(sp)
  80b594:	dcc00317 	ldw	r19,12(sp)
  80b598:	dc800217 	ldw	r18,8(sp)
  80b59c:	dc400117 	ldw	r17,4(sp)
  80b5a0:	dc000017 	ldw	r16,0(sp)
  80b5a4:	dec00904 	addi	sp,sp,36
  80b5a8:	f800283a 	ret
  80b5ac:	002f883a 	mov	r23,zero
  80b5b0:	003ff206 	br	80b57c <__alt_mem_onchip_mem+0xff80357c>

0080b5b4 <_fwalk_reent>:
  80b5b4:	defff704 	addi	sp,sp,-36
  80b5b8:	dd000415 	stw	r20,16(sp)
  80b5bc:	dfc00815 	stw	ra,32(sp)
  80b5c0:	ddc00715 	stw	r23,28(sp)
  80b5c4:	dd800615 	stw	r22,24(sp)
  80b5c8:	dd400515 	stw	r21,20(sp)
  80b5cc:	dcc00315 	stw	r19,12(sp)
  80b5d0:	dc800215 	stw	r18,8(sp)
  80b5d4:	dc400115 	stw	r17,4(sp)
  80b5d8:	dc000015 	stw	r16,0(sp)
  80b5dc:	2500b804 	addi	r20,r4,736
  80b5e0:	a0002326 	beq	r20,zero,80b670 <_fwalk_reent+0xbc>
  80b5e4:	282b883a 	mov	r21,r5
  80b5e8:	2027883a 	mov	r19,r4
  80b5ec:	002f883a 	mov	r23,zero
  80b5f0:	05800044 	movi	r22,1
  80b5f4:	04bfffc4 	movi	r18,-1
  80b5f8:	a4400117 	ldw	r17,4(r20)
  80b5fc:	a4000217 	ldw	r16,8(r20)
  80b600:	8c7fffc4 	addi	r17,r17,-1
  80b604:	88000c16 	blt	r17,zero,80b638 <_fwalk_reent+0x84>
  80b608:	84000304 	addi	r16,r16,12
  80b60c:	8080000b 	ldhu	r2,0(r16)
  80b610:	8c7fffc4 	addi	r17,r17,-1
  80b614:	817ffd04 	addi	r5,r16,-12
  80b618:	b080052e 	bgeu	r22,r2,80b630 <_fwalk_reent+0x7c>
  80b61c:	8080008f 	ldh	r2,2(r16)
  80b620:	9809883a 	mov	r4,r19
  80b624:	14800226 	beq	r2,r18,80b630 <_fwalk_reent+0x7c>
  80b628:	a83ee83a 	callr	r21
  80b62c:	b8aeb03a 	or	r23,r23,r2
  80b630:	84001a04 	addi	r16,r16,104
  80b634:	8cbff51e 	bne	r17,r18,80b60c <__alt_mem_onchip_mem+0xff80360c>
  80b638:	a5000017 	ldw	r20,0(r20)
  80b63c:	a03fee1e 	bne	r20,zero,80b5f8 <__alt_mem_onchip_mem+0xff8035f8>
  80b640:	b805883a 	mov	r2,r23
  80b644:	dfc00817 	ldw	ra,32(sp)
  80b648:	ddc00717 	ldw	r23,28(sp)
  80b64c:	dd800617 	ldw	r22,24(sp)
  80b650:	dd400517 	ldw	r21,20(sp)
  80b654:	dd000417 	ldw	r20,16(sp)
  80b658:	dcc00317 	ldw	r19,12(sp)
  80b65c:	dc800217 	ldw	r18,8(sp)
  80b660:	dc400117 	ldw	r17,4(sp)
  80b664:	dc000017 	ldw	r16,0(sp)
  80b668:	dec00904 	addi	sp,sp,36
  80b66c:	f800283a 	ret
  80b670:	002f883a 	mov	r23,zero
  80b674:	003ff206 	br	80b640 <__alt_mem_onchip_mem+0xff803640>

0080b678 <_setlocale_r>:
  80b678:	30001b26 	beq	r6,zero,80b6e8 <_setlocale_r+0x70>
  80b67c:	01402074 	movhi	r5,129
  80b680:	defffe04 	addi	sp,sp,-8
  80b684:	29570604 	addi	r5,r5,23576
  80b688:	3009883a 	mov	r4,r6
  80b68c:	dc000015 	stw	r16,0(sp)
  80b690:	dfc00115 	stw	ra,4(sp)
  80b694:	3021883a 	mov	r16,r6
  80b698:	080d6700 	call	80d670 <strcmp>
  80b69c:	1000061e 	bne	r2,zero,80b6b8 <_setlocale_r+0x40>
  80b6a0:	00802074 	movhi	r2,129
  80b6a4:	10970504 	addi	r2,r2,23572
  80b6a8:	dfc00117 	ldw	ra,4(sp)
  80b6ac:	dc000017 	ldw	r16,0(sp)
  80b6b0:	dec00204 	addi	sp,sp,8
  80b6b4:	f800283a 	ret
  80b6b8:	01402074 	movhi	r5,129
  80b6bc:	29570504 	addi	r5,r5,23572
  80b6c0:	8009883a 	mov	r4,r16
  80b6c4:	080d6700 	call	80d670 <strcmp>
  80b6c8:	103ff526 	beq	r2,zero,80b6a0 <__alt_mem_onchip_mem+0xff8036a0>
  80b6cc:	01402074 	movhi	r5,129
  80b6d0:	2956f004 	addi	r5,r5,23488
  80b6d4:	8009883a 	mov	r4,r16
  80b6d8:	080d6700 	call	80d670 <strcmp>
  80b6dc:	103ff026 	beq	r2,zero,80b6a0 <__alt_mem_onchip_mem+0xff8036a0>
  80b6e0:	0005883a 	mov	r2,zero
  80b6e4:	003ff006 	br	80b6a8 <__alt_mem_onchip_mem+0xff8036a8>
  80b6e8:	00802074 	movhi	r2,129
  80b6ec:	10970504 	addi	r2,r2,23572
  80b6f0:	f800283a 	ret

0080b6f4 <__locale_charset>:
  80b6f4:	00802074 	movhi	r2,129
  80b6f8:	10991c04 	addi	r2,r2,25712
  80b6fc:	f800283a 	ret

0080b700 <__locale_mb_cur_max>:
  80b700:	00802074 	movhi	r2,129
  80b704:	109f3104 	addi	r2,r2,31940
  80b708:	10800017 	ldw	r2,0(r2)
  80b70c:	f800283a 	ret

0080b710 <__locale_msgcharset>:
  80b710:	00802074 	movhi	r2,129
  80b714:	10991404 	addi	r2,r2,25680
  80b718:	f800283a 	ret

0080b71c <__locale_cjk_lang>:
  80b71c:	0005883a 	mov	r2,zero
  80b720:	f800283a 	ret

0080b724 <_localeconv_r>:
  80b724:	00802074 	movhi	r2,129
  80b728:	10992404 	addi	r2,r2,25744
  80b72c:	f800283a 	ret

0080b730 <setlocale>:
  80b730:	00802074 	movhi	r2,129
  80b734:	109f3004 	addi	r2,r2,31936
  80b738:	280d883a 	mov	r6,r5
  80b73c:	200b883a 	mov	r5,r4
  80b740:	11000017 	ldw	r4,0(r2)
  80b744:	080b6781 	jmpi	80b678 <_setlocale_r>

0080b748 <localeconv>:
  80b748:	00802074 	movhi	r2,129
  80b74c:	10992404 	addi	r2,r2,25744
  80b750:	f800283a 	ret

0080b754 <__smakebuf_r>:
  80b754:	2880030b 	ldhu	r2,12(r5)
  80b758:	10c0008c 	andi	r3,r2,2
  80b75c:	1800411e 	bne	r3,zero,80b864 <__smakebuf_r+0x110>
  80b760:	deffec04 	addi	sp,sp,-80
  80b764:	dc000f15 	stw	r16,60(sp)
  80b768:	2821883a 	mov	r16,r5
  80b76c:	2940038f 	ldh	r5,14(r5)
  80b770:	dc401015 	stw	r17,64(sp)
  80b774:	dfc01315 	stw	ra,76(sp)
  80b778:	dcc01215 	stw	r19,72(sp)
  80b77c:	dc801115 	stw	r18,68(sp)
  80b780:	2023883a 	mov	r17,r4
  80b784:	28001c16 	blt	r5,zero,80b7f8 <__smakebuf_r+0xa4>
  80b788:	d80d883a 	mov	r6,sp
  80b78c:	080f2b00 	call	80f2b0 <_fstat_r>
  80b790:	10001816 	blt	r2,zero,80b7f4 <__smakebuf_r+0xa0>
  80b794:	d8800117 	ldw	r2,4(sp)
  80b798:	00e00014 	movui	r3,32768
  80b79c:	10bc000c 	andi	r2,r2,61440
  80b7a0:	14c80020 	cmpeqi	r19,r2,8192
  80b7a4:	10c03726 	beq	r2,r3,80b884 <__smakebuf_r+0x130>
  80b7a8:	80c0030b 	ldhu	r3,12(r16)
  80b7ac:	18c20014 	ori	r3,r3,2048
  80b7b0:	80c0030d 	sth	r3,12(r16)
  80b7b4:	00c80004 	movi	r3,8192
  80b7b8:	10c0521e 	bne	r2,r3,80b904 <__smakebuf_r+0x1b0>
  80b7bc:	8140038f 	ldh	r5,14(r16)
  80b7c0:	8809883a 	mov	r4,r17
  80b7c4:	080f7c80 	call	80f7c8 <_isatty_r>
  80b7c8:	10004c26 	beq	r2,zero,80b8fc <__smakebuf_r+0x1a8>
  80b7cc:	8080030b 	ldhu	r2,12(r16)
  80b7d0:	80c010c4 	addi	r3,r16,67
  80b7d4:	80c00015 	stw	r3,0(r16)
  80b7d8:	10800054 	ori	r2,r2,1
  80b7dc:	8080030d 	sth	r2,12(r16)
  80b7e0:	00800044 	movi	r2,1
  80b7e4:	80c00415 	stw	r3,16(r16)
  80b7e8:	80800515 	stw	r2,20(r16)
  80b7ec:	04810004 	movi	r18,1024
  80b7f0:	00000706 	br	80b810 <__smakebuf_r+0xbc>
  80b7f4:	8080030b 	ldhu	r2,12(r16)
  80b7f8:	10c0200c 	andi	r3,r2,128
  80b7fc:	18001f1e 	bne	r3,zero,80b87c <__smakebuf_r+0x128>
  80b800:	04810004 	movi	r18,1024
  80b804:	10820014 	ori	r2,r2,2048
  80b808:	8080030d 	sth	r2,12(r16)
  80b80c:	0027883a 	mov	r19,zero
  80b810:	900b883a 	mov	r5,r18
  80b814:	8809883a 	mov	r4,r17
  80b818:	080b9100 	call	80b910 <_malloc_r>
  80b81c:	10002c26 	beq	r2,zero,80b8d0 <__smakebuf_r+0x17c>
  80b820:	80c0030b 	ldhu	r3,12(r16)
  80b824:	01002074 	movhi	r4,129
  80b828:	212b4904 	addi	r4,r4,-21212
  80b82c:	89000f15 	stw	r4,60(r17)
  80b830:	18c02014 	ori	r3,r3,128
  80b834:	80c0030d 	sth	r3,12(r16)
  80b838:	80800015 	stw	r2,0(r16)
  80b83c:	80800415 	stw	r2,16(r16)
  80b840:	84800515 	stw	r18,20(r16)
  80b844:	98001a1e 	bne	r19,zero,80b8b0 <__smakebuf_r+0x15c>
  80b848:	dfc01317 	ldw	ra,76(sp)
  80b84c:	dcc01217 	ldw	r19,72(sp)
  80b850:	dc801117 	ldw	r18,68(sp)
  80b854:	dc401017 	ldw	r17,64(sp)
  80b858:	dc000f17 	ldw	r16,60(sp)
  80b85c:	dec01404 	addi	sp,sp,80
  80b860:	f800283a 	ret
  80b864:	288010c4 	addi	r2,r5,67
  80b868:	28800015 	stw	r2,0(r5)
  80b86c:	28800415 	stw	r2,16(r5)
  80b870:	00800044 	movi	r2,1
  80b874:	28800515 	stw	r2,20(r5)
  80b878:	f800283a 	ret
  80b87c:	04801004 	movi	r18,64
  80b880:	003fe006 	br	80b804 <__alt_mem_onchip_mem+0xff803804>
  80b884:	81000a17 	ldw	r4,40(r16)
  80b888:	00c02074 	movhi	r3,129
  80b88c:	18f58304 	addi	r3,r3,-10740
  80b890:	20ffc51e 	bne	r4,r3,80b7a8 <__alt_mem_onchip_mem+0xff8037a8>
  80b894:	8080030b 	ldhu	r2,12(r16)
  80b898:	04810004 	movi	r18,1024
  80b89c:	84801315 	stw	r18,76(r16)
  80b8a0:	1484b03a 	or	r2,r2,r18
  80b8a4:	8080030d 	sth	r2,12(r16)
  80b8a8:	0027883a 	mov	r19,zero
  80b8ac:	003fd806 	br	80b810 <__alt_mem_onchip_mem+0xff803810>
  80b8b0:	8140038f 	ldh	r5,14(r16)
  80b8b4:	8809883a 	mov	r4,r17
  80b8b8:	080f7c80 	call	80f7c8 <_isatty_r>
  80b8bc:	103fe226 	beq	r2,zero,80b848 <__alt_mem_onchip_mem+0xff803848>
  80b8c0:	8080030b 	ldhu	r2,12(r16)
  80b8c4:	10800054 	ori	r2,r2,1
  80b8c8:	8080030d 	sth	r2,12(r16)
  80b8cc:	003fde06 	br	80b848 <__alt_mem_onchip_mem+0xff803848>
  80b8d0:	8080030b 	ldhu	r2,12(r16)
  80b8d4:	10c0800c 	andi	r3,r2,512
  80b8d8:	183fdb1e 	bne	r3,zero,80b848 <__alt_mem_onchip_mem+0xff803848>
  80b8dc:	10800094 	ori	r2,r2,2
  80b8e0:	80c010c4 	addi	r3,r16,67
  80b8e4:	8080030d 	sth	r2,12(r16)
  80b8e8:	00800044 	movi	r2,1
  80b8ec:	80c00015 	stw	r3,0(r16)
  80b8f0:	80c00415 	stw	r3,16(r16)
  80b8f4:	80800515 	stw	r2,20(r16)
  80b8f8:	003fd306 	br	80b848 <__alt_mem_onchip_mem+0xff803848>
  80b8fc:	04810004 	movi	r18,1024
  80b900:	003fc306 	br	80b810 <__alt_mem_onchip_mem+0xff803810>
  80b904:	0027883a 	mov	r19,zero
  80b908:	04810004 	movi	r18,1024
  80b90c:	003fc006 	br	80b810 <__alt_mem_onchip_mem+0xff803810>

0080b910 <_malloc_r>:
  80b910:	defff504 	addi	sp,sp,-44
  80b914:	dc800315 	stw	r18,12(sp)
  80b918:	dfc00a15 	stw	ra,40(sp)
  80b91c:	df000915 	stw	fp,36(sp)
  80b920:	ddc00815 	stw	r23,32(sp)
  80b924:	dd800715 	stw	r22,28(sp)
  80b928:	dd400615 	stw	r21,24(sp)
  80b92c:	dd000515 	stw	r20,20(sp)
  80b930:	dcc00415 	stw	r19,16(sp)
  80b934:	dc400215 	stw	r17,8(sp)
  80b938:	dc000115 	stw	r16,4(sp)
  80b93c:	288002c4 	addi	r2,r5,11
  80b940:	00c00584 	movi	r3,22
  80b944:	2025883a 	mov	r18,r4
  80b948:	18807f2e 	bgeu	r3,r2,80bb48 <_malloc_r+0x238>
  80b94c:	047ffe04 	movi	r17,-8
  80b950:	1462703a 	and	r17,r2,r17
  80b954:	8800a316 	blt	r17,zero,80bbe4 <_malloc_r+0x2d4>
  80b958:	8940a236 	bltu	r17,r5,80bbe4 <_malloc_r+0x2d4>
  80b95c:	08122780 	call	812278 <__malloc_lock>
  80b960:	00807dc4 	movi	r2,503
  80b964:	1441e92e 	bgeu	r2,r17,80c10c <_malloc_r+0x7fc>
  80b968:	8804d27a 	srli	r2,r17,9
  80b96c:	1000a126 	beq	r2,zero,80bbf4 <_malloc_r+0x2e4>
  80b970:	00c00104 	movi	r3,4
  80b974:	18811e36 	bltu	r3,r2,80bdf0 <_malloc_r+0x4e0>
  80b978:	8804d1ba 	srli	r2,r17,6
  80b97c:	12000e44 	addi	r8,r2,57
  80b980:	11c00e04 	addi	r7,r2,56
  80b984:	4209883a 	add	r4,r8,r8
  80b988:	04c02074 	movhi	r19,129
  80b98c:	2109883a 	add	r4,r4,r4
  80b990:	9cd93204 	addi	r19,r19,25800
  80b994:	2109883a 	add	r4,r4,r4
  80b998:	9909883a 	add	r4,r19,r4
  80b99c:	24000117 	ldw	r16,4(r4)
  80b9a0:	213ffe04 	addi	r4,r4,-8
  80b9a4:	24009726 	beq	r4,r16,80bc04 <_malloc_r+0x2f4>
  80b9a8:	80800117 	ldw	r2,4(r16)
  80b9ac:	01bfff04 	movi	r6,-4
  80b9b0:	014003c4 	movi	r5,15
  80b9b4:	1184703a 	and	r2,r2,r6
  80b9b8:	1447c83a 	sub	r3,r2,r17
  80b9bc:	28c00716 	blt	r5,r3,80b9dc <_malloc_r+0xcc>
  80b9c0:	1800920e 	bge	r3,zero,80bc0c <_malloc_r+0x2fc>
  80b9c4:	84000317 	ldw	r16,12(r16)
  80b9c8:	24008e26 	beq	r4,r16,80bc04 <_malloc_r+0x2f4>
  80b9cc:	80800117 	ldw	r2,4(r16)
  80b9d0:	1184703a 	and	r2,r2,r6
  80b9d4:	1447c83a 	sub	r3,r2,r17
  80b9d8:	28fff90e 	bge	r5,r3,80b9c0 <__alt_mem_onchip_mem+0xff8039c0>
  80b9dc:	3809883a 	mov	r4,r7
  80b9e0:	01802074 	movhi	r6,129
  80b9e4:	9c000417 	ldw	r16,16(r19)
  80b9e8:	31993204 	addi	r6,r6,25800
  80b9ec:	32000204 	addi	r8,r6,8
  80b9f0:	82013426 	beq	r16,r8,80bec4 <_malloc_r+0x5b4>
  80b9f4:	80c00117 	ldw	r3,4(r16)
  80b9f8:	00bfff04 	movi	r2,-4
  80b9fc:	188e703a 	and	r7,r3,r2
  80ba00:	3c45c83a 	sub	r2,r7,r17
  80ba04:	00c003c4 	movi	r3,15
  80ba08:	18811f16 	blt	r3,r2,80be88 <_malloc_r+0x578>
  80ba0c:	32000515 	stw	r8,20(r6)
  80ba10:	32000415 	stw	r8,16(r6)
  80ba14:	10007f0e 	bge	r2,zero,80bc14 <_malloc_r+0x304>
  80ba18:	00807fc4 	movi	r2,511
  80ba1c:	11c0fd36 	bltu	r2,r7,80be14 <_malloc_r+0x504>
  80ba20:	3806d0fa 	srli	r3,r7,3
  80ba24:	01c00044 	movi	r7,1
  80ba28:	30800117 	ldw	r2,4(r6)
  80ba2c:	19400044 	addi	r5,r3,1
  80ba30:	294b883a 	add	r5,r5,r5
  80ba34:	1807d0ba 	srai	r3,r3,2
  80ba38:	294b883a 	add	r5,r5,r5
  80ba3c:	294b883a 	add	r5,r5,r5
  80ba40:	298b883a 	add	r5,r5,r6
  80ba44:	38c6983a 	sll	r3,r7,r3
  80ba48:	29c00017 	ldw	r7,0(r5)
  80ba4c:	2a7ffe04 	addi	r9,r5,-8
  80ba50:	1886b03a 	or	r3,r3,r2
  80ba54:	82400315 	stw	r9,12(r16)
  80ba58:	81c00215 	stw	r7,8(r16)
  80ba5c:	30c00115 	stw	r3,4(r6)
  80ba60:	2c000015 	stw	r16,0(r5)
  80ba64:	3c000315 	stw	r16,12(r7)
  80ba68:	2005d0ba 	srai	r2,r4,2
  80ba6c:	01400044 	movi	r5,1
  80ba70:	288a983a 	sll	r5,r5,r2
  80ba74:	19406f36 	bltu	r3,r5,80bc34 <_malloc_r+0x324>
  80ba78:	28c4703a 	and	r2,r5,r3
  80ba7c:	10000a1e 	bne	r2,zero,80baa8 <_malloc_r+0x198>
  80ba80:	00bfff04 	movi	r2,-4
  80ba84:	294b883a 	add	r5,r5,r5
  80ba88:	2088703a 	and	r4,r4,r2
  80ba8c:	28c4703a 	and	r2,r5,r3
  80ba90:	21000104 	addi	r4,r4,4
  80ba94:	1000041e 	bne	r2,zero,80baa8 <_malloc_r+0x198>
  80ba98:	294b883a 	add	r5,r5,r5
  80ba9c:	28c4703a 	and	r2,r5,r3
  80baa0:	21000104 	addi	r4,r4,4
  80baa4:	103ffc26 	beq	r2,zero,80ba98 <__alt_mem_onchip_mem+0xff803a98>
  80baa8:	02bfff04 	movi	r10,-4
  80baac:	024003c4 	movi	r9,15
  80bab0:	21800044 	addi	r6,r4,1
  80bab4:	318d883a 	add	r6,r6,r6
  80bab8:	318d883a 	add	r6,r6,r6
  80babc:	318d883a 	add	r6,r6,r6
  80bac0:	998d883a 	add	r6,r19,r6
  80bac4:	333ffe04 	addi	r12,r6,-8
  80bac8:	2017883a 	mov	r11,r4
  80bacc:	31800104 	addi	r6,r6,4
  80bad0:	34000017 	ldw	r16,0(r6)
  80bad4:	31fffd04 	addi	r7,r6,-12
  80bad8:	81c0041e 	bne	r16,r7,80baec <_malloc_r+0x1dc>
  80badc:	0000fb06 	br	80becc <_malloc_r+0x5bc>
  80bae0:	1801030e 	bge	r3,zero,80bef0 <_malloc_r+0x5e0>
  80bae4:	84000317 	ldw	r16,12(r16)
  80bae8:	81c0f826 	beq	r16,r7,80becc <_malloc_r+0x5bc>
  80baec:	80800117 	ldw	r2,4(r16)
  80baf0:	1284703a 	and	r2,r2,r10
  80baf4:	1447c83a 	sub	r3,r2,r17
  80baf8:	48fff90e 	bge	r9,r3,80bae0 <__alt_mem_onchip_mem+0xff803ae0>
  80bafc:	80800317 	ldw	r2,12(r16)
  80bb00:	81000217 	ldw	r4,8(r16)
  80bb04:	89400054 	ori	r5,r17,1
  80bb08:	81400115 	stw	r5,4(r16)
  80bb0c:	20800315 	stw	r2,12(r4)
  80bb10:	11000215 	stw	r4,8(r2)
  80bb14:	8463883a 	add	r17,r16,r17
  80bb18:	9c400515 	stw	r17,20(r19)
  80bb1c:	9c400415 	stw	r17,16(r19)
  80bb20:	18800054 	ori	r2,r3,1
  80bb24:	88800115 	stw	r2,4(r17)
  80bb28:	8a000315 	stw	r8,12(r17)
  80bb2c:	8a000215 	stw	r8,8(r17)
  80bb30:	88e3883a 	add	r17,r17,r3
  80bb34:	88c00015 	stw	r3,0(r17)
  80bb38:	9009883a 	mov	r4,r18
  80bb3c:	081229c0 	call	81229c <__malloc_unlock>
  80bb40:	80800204 	addi	r2,r16,8
  80bb44:	00001b06 	br	80bbb4 <_malloc_r+0x2a4>
  80bb48:	04400404 	movi	r17,16
  80bb4c:	89402536 	bltu	r17,r5,80bbe4 <_malloc_r+0x2d4>
  80bb50:	08122780 	call	812278 <__malloc_lock>
  80bb54:	00800184 	movi	r2,6
  80bb58:	01000084 	movi	r4,2
  80bb5c:	04c02074 	movhi	r19,129
  80bb60:	1085883a 	add	r2,r2,r2
  80bb64:	9cd93204 	addi	r19,r19,25800
  80bb68:	1085883a 	add	r2,r2,r2
  80bb6c:	9885883a 	add	r2,r19,r2
  80bb70:	14000117 	ldw	r16,4(r2)
  80bb74:	10fffe04 	addi	r3,r2,-8
  80bb78:	80c0d926 	beq	r16,r3,80bee0 <_malloc_r+0x5d0>
  80bb7c:	80c00117 	ldw	r3,4(r16)
  80bb80:	81000317 	ldw	r4,12(r16)
  80bb84:	00bfff04 	movi	r2,-4
  80bb88:	1884703a 	and	r2,r3,r2
  80bb8c:	81400217 	ldw	r5,8(r16)
  80bb90:	8085883a 	add	r2,r16,r2
  80bb94:	10c00117 	ldw	r3,4(r2)
  80bb98:	29000315 	stw	r4,12(r5)
  80bb9c:	21400215 	stw	r5,8(r4)
  80bba0:	18c00054 	ori	r3,r3,1
  80bba4:	10c00115 	stw	r3,4(r2)
  80bba8:	9009883a 	mov	r4,r18
  80bbac:	081229c0 	call	81229c <__malloc_unlock>
  80bbb0:	80800204 	addi	r2,r16,8
  80bbb4:	dfc00a17 	ldw	ra,40(sp)
  80bbb8:	df000917 	ldw	fp,36(sp)
  80bbbc:	ddc00817 	ldw	r23,32(sp)
  80bbc0:	dd800717 	ldw	r22,28(sp)
  80bbc4:	dd400617 	ldw	r21,24(sp)
  80bbc8:	dd000517 	ldw	r20,20(sp)
  80bbcc:	dcc00417 	ldw	r19,16(sp)
  80bbd0:	dc800317 	ldw	r18,12(sp)
  80bbd4:	dc400217 	ldw	r17,8(sp)
  80bbd8:	dc000117 	ldw	r16,4(sp)
  80bbdc:	dec00b04 	addi	sp,sp,44
  80bbe0:	f800283a 	ret
  80bbe4:	00800304 	movi	r2,12
  80bbe8:	90800015 	stw	r2,0(r18)
  80bbec:	0005883a 	mov	r2,zero
  80bbf0:	003ff006 	br	80bbb4 <__alt_mem_onchip_mem+0xff803bb4>
  80bbf4:	01002004 	movi	r4,128
  80bbf8:	02001004 	movi	r8,64
  80bbfc:	01c00fc4 	movi	r7,63
  80bc00:	003f6106 	br	80b988 <__alt_mem_onchip_mem+0xff803988>
  80bc04:	4009883a 	mov	r4,r8
  80bc08:	003f7506 	br	80b9e0 <__alt_mem_onchip_mem+0xff8039e0>
  80bc0c:	81000317 	ldw	r4,12(r16)
  80bc10:	003fde06 	br	80bb8c <__alt_mem_onchip_mem+0xff803b8c>
  80bc14:	81c5883a 	add	r2,r16,r7
  80bc18:	11400117 	ldw	r5,4(r2)
  80bc1c:	9009883a 	mov	r4,r18
  80bc20:	29400054 	ori	r5,r5,1
  80bc24:	11400115 	stw	r5,4(r2)
  80bc28:	081229c0 	call	81229c <__malloc_unlock>
  80bc2c:	80800204 	addi	r2,r16,8
  80bc30:	003fe006 	br	80bbb4 <__alt_mem_onchip_mem+0xff803bb4>
  80bc34:	9c000217 	ldw	r16,8(r19)
  80bc38:	00bfff04 	movi	r2,-4
  80bc3c:	85800117 	ldw	r22,4(r16)
  80bc40:	b0ac703a 	and	r22,r22,r2
  80bc44:	b4400336 	bltu	r22,r17,80bc54 <_malloc_r+0x344>
  80bc48:	b445c83a 	sub	r2,r22,r17
  80bc4c:	00c003c4 	movi	r3,15
  80bc50:	18805d16 	blt	r3,r2,80bdc8 <_malloc_r+0x4b8>
  80bc54:	05c02074 	movhi	r23,129
  80bc58:	008020b4 	movhi	r2,130
  80bc5c:	10a68904 	addi	r2,r2,-26076
  80bc60:	bddf3204 	addi	r23,r23,31944
  80bc64:	15400017 	ldw	r21,0(r2)
  80bc68:	b8c00017 	ldw	r3,0(r23)
  80bc6c:	00bfffc4 	movi	r2,-1
  80bc70:	858d883a 	add	r6,r16,r22
  80bc74:	8d6b883a 	add	r21,r17,r21
  80bc78:	1880ea26 	beq	r3,r2,80c024 <_malloc_r+0x714>
  80bc7c:	ad4403c4 	addi	r21,r21,4111
  80bc80:	00bc0004 	movi	r2,-4096
  80bc84:	a8aa703a 	and	r21,r21,r2
  80bc88:	a80b883a 	mov	r5,r21
  80bc8c:	9009883a 	mov	r4,r18
  80bc90:	d9800015 	stw	r6,0(sp)
  80bc94:	080d4e00 	call	80d4e0 <_sbrk_r>
  80bc98:	1029883a 	mov	r20,r2
  80bc9c:	00bfffc4 	movi	r2,-1
  80bca0:	d9800017 	ldw	r6,0(sp)
  80bca4:	a080e826 	beq	r20,r2,80c048 <_malloc_r+0x738>
  80bca8:	a180a636 	bltu	r20,r6,80bf44 <_malloc_r+0x634>
  80bcac:	070020b4 	movhi	fp,130
  80bcb0:	e7269204 	addi	fp,fp,-26040
  80bcb4:	e0800017 	ldw	r2,0(fp)
  80bcb8:	a887883a 	add	r3,r21,r2
  80bcbc:	e0c00015 	stw	r3,0(fp)
  80bcc0:	3500e626 	beq	r6,r20,80c05c <_malloc_r+0x74c>
  80bcc4:	b9000017 	ldw	r4,0(r23)
  80bcc8:	00bfffc4 	movi	r2,-1
  80bccc:	2080ee26 	beq	r4,r2,80c088 <_malloc_r+0x778>
  80bcd0:	a185c83a 	sub	r2,r20,r6
  80bcd4:	10c5883a 	add	r2,r2,r3
  80bcd8:	e0800015 	stw	r2,0(fp)
  80bcdc:	a0c001cc 	andi	r3,r20,7
  80bce0:	1800bc26 	beq	r3,zero,80bfd4 <_malloc_r+0x6c4>
  80bce4:	a0e9c83a 	sub	r20,r20,r3
  80bce8:	00840204 	movi	r2,4104
  80bcec:	a5000204 	addi	r20,r20,8
  80bcf0:	10c7c83a 	sub	r3,r2,r3
  80bcf4:	a545883a 	add	r2,r20,r21
  80bcf8:	1083ffcc 	andi	r2,r2,4095
  80bcfc:	18abc83a 	sub	r21,r3,r2
  80bd00:	a80b883a 	mov	r5,r21
  80bd04:	9009883a 	mov	r4,r18
  80bd08:	080d4e00 	call	80d4e0 <_sbrk_r>
  80bd0c:	00ffffc4 	movi	r3,-1
  80bd10:	10c0e126 	beq	r2,r3,80c098 <_malloc_r+0x788>
  80bd14:	1505c83a 	sub	r2,r2,r20
  80bd18:	1545883a 	add	r2,r2,r21
  80bd1c:	10800054 	ori	r2,r2,1
  80bd20:	e0c00017 	ldw	r3,0(fp)
  80bd24:	9d000215 	stw	r20,8(r19)
  80bd28:	a0800115 	stw	r2,4(r20)
  80bd2c:	a8c7883a 	add	r3,r21,r3
  80bd30:	e0c00015 	stw	r3,0(fp)
  80bd34:	84c00e26 	beq	r16,r19,80bd70 <_malloc_r+0x460>
  80bd38:	018003c4 	movi	r6,15
  80bd3c:	3580a72e 	bgeu	r6,r22,80bfdc <_malloc_r+0x6cc>
  80bd40:	81400117 	ldw	r5,4(r16)
  80bd44:	013ffe04 	movi	r4,-8
  80bd48:	b0bffd04 	addi	r2,r22,-12
  80bd4c:	1104703a 	and	r2,r2,r4
  80bd50:	2900004c 	andi	r4,r5,1
  80bd54:	2088b03a 	or	r4,r4,r2
  80bd58:	81000115 	stw	r4,4(r16)
  80bd5c:	01400144 	movi	r5,5
  80bd60:	8089883a 	add	r4,r16,r2
  80bd64:	21400115 	stw	r5,4(r4)
  80bd68:	21400215 	stw	r5,8(r4)
  80bd6c:	3080cd36 	bltu	r6,r2,80c0a4 <_malloc_r+0x794>
  80bd70:	008020b4 	movhi	r2,130
  80bd74:	10a68804 	addi	r2,r2,-26080
  80bd78:	11000017 	ldw	r4,0(r2)
  80bd7c:	20c0012e 	bgeu	r4,r3,80bd84 <_malloc_r+0x474>
  80bd80:	10c00015 	stw	r3,0(r2)
  80bd84:	008020b4 	movhi	r2,130
  80bd88:	10a68704 	addi	r2,r2,-26084
  80bd8c:	11000017 	ldw	r4,0(r2)
  80bd90:	9c000217 	ldw	r16,8(r19)
  80bd94:	20c0012e 	bgeu	r4,r3,80bd9c <_malloc_r+0x48c>
  80bd98:	10c00015 	stw	r3,0(r2)
  80bd9c:	80c00117 	ldw	r3,4(r16)
  80bda0:	00bfff04 	movi	r2,-4
  80bda4:	1886703a 	and	r3,r3,r2
  80bda8:	1c45c83a 	sub	r2,r3,r17
  80bdac:	1c400236 	bltu	r3,r17,80bdb8 <_malloc_r+0x4a8>
  80bdb0:	00c003c4 	movi	r3,15
  80bdb4:	18800416 	blt	r3,r2,80bdc8 <_malloc_r+0x4b8>
  80bdb8:	9009883a 	mov	r4,r18
  80bdbc:	081229c0 	call	81229c <__malloc_unlock>
  80bdc0:	0005883a 	mov	r2,zero
  80bdc4:	003f7b06 	br	80bbb4 <__alt_mem_onchip_mem+0xff803bb4>
  80bdc8:	88c00054 	ori	r3,r17,1
  80bdcc:	80c00115 	stw	r3,4(r16)
  80bdd0:	8463883a 	add	r17,r16,r17
  80bdd4:	10800054 	ori	r2,r2,1
  80bdd8:	9c400215 	stw	r17,8(r19)
  80bddc:	88800115 	stw	r2,4(r17)
  80bde0:	9009883a 	mov	r4,r18
  80bde4:	081229c0 	call	81229c <__malloc_unlock>
  80bde8:	80800204 	addi	r2,r16,8
  80bdec:	003f7106 	br	80bbb4 <__alt_mem_onchip_mem+0xff803bb4>
  80bdf0:	00c00504 	movi	r3,20
  80bdf4:	18804a2e 	bgeu	r3,r2,80bf20 <_malloc_r+0x610>
  80bdf8:	00c01504 	movi	r3,84
  80bdfc:	18806e36 	bltu	r3,r2,80bfb8 <_malloc_r+0x6a8>
  80be00:	8804d33a 	srli	r2,r17,12
  80be04:	12001bc4 	addi	r8,r2,111
  80be08:	11c01b84 	addi	r7,r2,110
  80be0c:	4209883a 	add	r4,r8,r8
  80be10:	003edd06 	br	80b988 <__alt_mem_onchip_mem+0xff803988>
  80be14:	3804d27a 	srli	r2,r7,9
  80be18:	00c00104 	movi	r3,4
  80be1c:	1880442e 	bgeu	r3,r2,80bf30 <_malloc_r+0x620>
  80be20:	00c00504 	movi	r3,20
  80be24:	18808136 	bltu	r3,r2,80c02c <_malloc_r+0x71c>
  80be28:	11401704 	addi	r5,r2,92
  80be2c:	10c016c4 	addi	r3,r2,91
  80be30:	294b883a 	add	r5,r5,r5
  80be34:	294b883a 	add	r5,r5,r5
  80be38:	294b883a 	add	r5,r5,r5
  80be3c:	994b883a 	add	r5,r19,r5
  80be40:	28800017 	ldw	r2,0(r5)
  80be44:	01802074 	movhi	r6,129
  80be48:	297ffe04 	addi	r5,r5,-8
  80be4c:	31993204 	addi	r6,r6,25800
  80be50:	28806526 	beq	r5,r2,80bfe8 <_malloc_r+0x6d8>
  80be54:	01bfff04 	movi	r6,-4
  80be58:	10c00117 	ldw	r3,4(r2)
  80be5c:	1986703a 	and	r3,r3,r6
  80be60:	38c0022e 	bgeu	r7,r3,80be6c <_malloc_r+0x55c>
  80be64:	10800217 	ldw	r2,8(r2)
  80be68:	28bffb1e 	bne	r5,r2,80be58 <__alt_mem_onchip_mem+0xff803e58>
  80be6c:	11400317 	ldw	r5,12(r2)
  80be70:	98c00117 	ldw	r3,4(r19)
  80be74:	81400315 	stw	r5,12(r16)
  80be78:	80800215 	stw	r2,8(r16)
  80be7c:	2c000215 	stw	r16,8(r5)
  80be80:	14000315 	stw	r16,12(r2)
  80be84:	003ef806 	br	80ba68 <__alt_mem_onchip_mem+0xff803a68>
  80be88:	88c00054 	ori	r3,r17,1
  80be8c:	80c00115 	stw	r3,4(r16)
  80be90:	8463883a 	add	r17,r16,r17
  80be94:	34400515 	stw	r17,20(r6)
  80be98:	34400415 	stw	r17,16(r6)
  80be9c:	10c00054 	ori	r3,r2,1
  80bea0:	8a000315 	stw	r8,12(r17)
  80bea4:	8a000215 	stw	r8,8(r17)
  80bea8:	88c00115 	stw	r3,4(r17)
  80beac:	88a3883a 	add	r17,r17,r2
  80beb0:	88800015 	stw	r2,0(r17)
  80beb4:	9009883a 	mov	r4,r18
  80beb8:	081229c0 	call	81229c <__malloc_unlock>
  80bebc:	80800204 	addi	r2,r16,8
  80bec0:	003f3c06 	br	80bbb4 <__alt_mem_onchip_mem+0xff803bb4>
  80bec4:	30c00117 	ldw	r3,4(r6)
  80bec8:	003ee706 	br	80ba68 <__alt_mem_onchip_mem+0xff803a68>
  80becc:	5ac00044 	addi	r11,r11,1
  80bed0:	588000cc 	andi	r2,r11,3
  80bed4:	31800204 	addi	r6,r6,8
  80bed8:	103efd1e 	bne	r2,zero,80bad0 <__alt_mem_onchip_mem+0xff803ad0>
  80bedc:	00002406 	br	80bf70 <_malloc_r+0x660>
  80bee0:	14000317 	ldw	r16,12(r2)
  80bee4:	143f251e 	bne	r2,r16,80bb7c <__alt_mem_onchip_mem+0xff803b7c>
  80bee8:	21000084 	addi	r4,r4,2
  80beec:	003ebc06 	br	80b9e0 <__alt_mem_onchip_mem+0xff8039e0>
  80bef0:	8085883a 	add	r2,r16,r2
  80bef4:	10c00117 	ldw	r3,4(r2)
  80bef8:	81000317 	ldw	r4,12(r16)
  80befc:	81400217 	ldw	r5,8(r16)
  80bf00:	18c00054 	ori	r3,r3,1
  80bf04:	10c00115 	stw	r3,4(r2)
  80bf08:	29000315 	stw	r4,12(r5)
  80bf0c:	21400215 	stw	r5,8(r4)
  80bf10:	9009883a 	mov	r4,r18
  80bf14:	081229c0 	call	81229c <__malloc_unlock>
  80bf18:	80800204 	addi	r2,r16,8
  80bf1c:	003f2506 	br	80bbb4 <__alt_mem_onchip_mem+0xff803bb4>
  80bf20:	12001704 	addi	r8,r2,92
  80bf24:	11c016c4 	addi	r7,r2,91
  80bf28:	4209883a 	add	r4,r8,r8
  80bf2c:	003e9606 	br	80b988 <__alt_mem_onchip_mem+0xff803988>
  80bf30:	3804d1ba 	srli	r2,r7,6
  80bf34:	11400e44 	addi	r5,r2,57
  80bf38:	10c00e04 	addi	r3,r2,56
  80bf3c:	294b883a 	add	r5,r5,r5
  80bf40:	003fbc06 	br	80be34 <__alt_mem_onchip_mem+0xff803e34>
  80bf44:	84ff5926 	beq	r16,r19,80bcac <__alt_mem_onchip_mem+0xff803cac>
  80bf48:	00802074 	movhi	r2,129
  80bf4c:	10993204 	addi	r2,r2,25800
  80bf50:	14000217 	ldw	r16,8(r2)
  80bf54:	00bfff04 	movi	r2,-4
  80bf58:	80c00117 	ldw	r3,4(r16)
  80bf5c:	1886703a 	and	r3,r3,r2
  80bf60:	003f9106 	br	80bda8 <__alt_mem_onchip_mem+0xff803da8>
  80bf64:	60800217 	ldw	r2,8(r12)
  80bf68:	213fffc4 	addi	r4,r4,-1
  80bf6c:	1300651e 	bne	r2,r12,80c104 <_malloc_r+0x7f4>
  80bf70:	208000cc 	andi	r2,r4,3
  80bf74:	633ffe04 	addi	r12,r12,-8
  80bf78:	103ffa1e 	bne	r2,zero,80bf64 <__alt_mem_onchip_mem+0xff803f64>
  80bf7c:	98800117 	ldw	r2,4(r19)
  80bf80:	0146303a 	nor	r3,zero,r5
  80bf84:	1884703a 	and	r2,r3,r2
  80bf88:	98800115 	stw	r2,4(r19)
  80bf8c:	294b883a 	add	r5,r5,r5
  80bf90:	117f2836 	bltu	r2,r5,80bc34 <__alt_mem_onchip_mem+0xff803c34>
  80bf94:	283f2726 	beq	r5,zero,80bc34 <__alt_mem_onchip_mem+0xff803c34>
  80bf98:	2886703a 	and	r3,r5,r2
  80bf9c:	5809883a 	mov	r4,r11
  80bfa0:	183ec31e 	bne	r3,zero,80bab0 <__alt_mem_onchip_mem+0xff803ab0>
  80bfa4:	294b883a 	add	r5,r5,r5
  80bfa8:	2886703a 	and	r3,r5,r2
  80bfac:	21000104 	addi	r4,r4,4
  80bfb0:	183ffc26 	beq	r3,zero,80bfa4 <__alt_mem_onchip_mem+0xff803fa4>
  80bfb4:	003ebe06 	br	80bab0 <__alt_mem_onchip_mem+0xff803ab0>
  80bfb8:	00c05504 	movi	r3,340
  80bfbc:	18801236 	bltu	r3,r2,80c008 <_malloc_r+0x6f8>
  80bfc0:	8804d3fa 	srli	r2,r17,15
  80bfc4:	12001e04 	addi	r8,r2,120
  80bfc8:	11c01dc4 	addi	r7,r2,119
  80bfcc:	4209883a 	add	r4,r8,r8
  80bfd0:	003e6d06 	br	80b988 <__alt_mem_onchip_mem+0xff803988>
  80bfd4:	00c40004 	movi	r3,4096
  80bfd8:	003f4606 	br	80bcf4 <__alt_mem_onchip_mem+0xff803cf4>
  80bfdc:	00800044 	movi	r2,1
  80bfe0:	a0800115 	stw	r2,4(r20)
  80bfe4:	003f7406 	br	80bdb8 <__alt_mem_onchip_mem+0xff803db8>
  80bfe8:	1805d0ba 	srai	r2,r3,2
  80bfec:	01c00044 	movi	r7,1
  80bff0:	30c00117 	ldw	r3,4(r6)
  80bff4:	388e983a 	sll	r7,r7,r2
  80bff8:	2805883a 	mov	r2,r5
  80bffc:	38c6b03a 	or	r3,r7,r3
  80c000:	30c00115 	stw	r3,4(r6)
  80c004:	003f9b06 	br	80be74 <__alt_mem_onchip_mem+0xff803e74>
  80c008:	00c15504 	movi	r3,1364
  80c00c:	18801a36 	bltu	r3,r2,80c078 <_malloc_r+0x768>
  80c010:	8804d4ba 	srli	r2,r17,18
  80c014:	12001f44 	addi	r8,r2,125
  80c018:	11c01f04 	addi	r7,r2,124
  80c01c:	4209883a 	add	r4,r8,r8
  80c020:	003e5906 	br	80b988 <__alt_mem_onchip_mem+0xff803988>
  80c024:	ad400404 	addi	r21,r21,16
  80c028:	003f1706 	br	80bc88 <__alt_mem_onchip_mem+0xff803c88>
  80c02c:	00c01504 	movi	r3,84
  80c030:	18802336 	bltu	r3,r2,80c0c0 <_malloc_r+0x7b0>
  80c034:	3804d33a 	srli	r2,r7,12
  80c038:	11401bc4 	addi	r5,r2,111
  80c03c:	10c01b84 	addi	r3,r2,110
  80c040:	294b883a 	add	r5,r5,r5
  80c044:	003f7b06 	br	80be34 <__alt_mem_onchip_mem+0xff803e34>
  80c048:	9c000217 	ldw	r16,8(r19)
  80c04c:	00bfff04 	movi	r2,-4
  80c050:	80c00117 	ldw	r3,4(r16)
  80c054:	1886703a 	and	r3,r3,r2
  80c058:	003f5306 	br	80bda8 <__alt_mem_onchip_mem+0xff803da8>
  80c05c:	3083ffcc 	andi	r2,r6,4095
  80c060:	103f181e 	bne	r2,zero,80bcc4 <__alt_mem_onchip_mem+0xff803cc4>
  80c064:	99000217 	ldw	r4,8(r19)
  80c068:	b545883a 	add	r2,r22,r21
  80c06c:	10800054 	ori	r2,r2,1
  80c070:	20800115 	stw	r2,4(r4)
  80c074:	003f3e06 	br	80bd70 <__alt_mem_onchip_mem+0xff803d70>
  80c078:	01003f84 	movi	r4,254
  80c07c:	02001fc4 	movi	r8,127
  80c080:	01c01f84 	movi	r7,126
  80c084:	003e4006 	br	80b988 <__alt_mem_onchip_mem+0xff803988>
  80c088:	00802074 	movhi	r2,129
  80c08c:	109f3204 	addi	r2,r2,31944
  80c090:	15000015 	stw	r20,0(r2)
  80c094:	003f1106 	br	80bcdc <__alt_mem_onchip_mem+0xff803cdc>
  80c098:	00800044 	movi	r2,1
  80c09c:	002b883a 	mov	r21,zero
  80c0a0:	003f1f06 	br	80bd20 <__alt_mem_onchip_mem+0xff803d20>
  80c0a4:	81400204 	addi	r5,r16,8
  80c0a8:	9009883a 	mov	r4,r18
  80c0ac:	080b1e00 	call	80b1e0 <_free_r>
  80c0b0:	008020b4 	movhi	r2,130
  80c0b4:	10a69204 	addi	r2,r2,-26040
  80c0b8:	10c00017 	ldw	r3,0(r2)
  80c0bc:	003f2c06 	br	80bd70 <__alt_mem_onchip_mem+0xff803d70>
  80c0c0:	00c05504 	movi	r3,340
  80c0c4:	18800536 	bltu	r3,r2,80c0dc <_malloc_r+0x7cc>
  80c0c8:	3804d3fa 	srli	r2,r7,15
  80c0cc:	11401e04 	addi	r5,r2,120
  80c0d0:	10c01dc4 	addi	r3,r2,119
  80c0d4:	294b883a 	add	r5,r5,r5
  80c0d8:	003f5606 	br	80be34 <__alt_mem_onchip_mem+0xff803e34>
  80c0dc:	00c15504 	movi	r3,1364
  80c0e0:	18800536 	bltu	r3,r2,80c0f8 <_malloc_r+0x7e8>
  80c0e4:	3804d4ba 	srli	r2,r7,18
  80c0e8:	11401f44 	addi	r5,r2,125
  80c0ec:	10c01f04 	addi	r3,r2,124
  80c0f0:	294b883a 	add	r5,r5,r5
  80c0f4:	003f4f06 	br	80be34 <__alt_mem_onchip_mem+0xff803e34>
  80c0f8:	01403f84 	movi	r5,254
  80c0fc:	00c01f84 	movi	r3,126
  80c100:	003f4c06 	br	80be34 <__alt_mem_onchip_mem+0xff803e34>
  80c104:	98800117 	ldw	r2,4(r19)
  80c108:	003fa006 	br	80bf8c <__alt_mem_onchip_mem+0xff803f8c>
  80c10c:	8808d0fa 	srli	r4,r17,3
  80c110:	20800044 	addi	r2,r4,1
  80c114:	1085883a 	add	r2,r2,r2
  80c118:	003e9006 	br	80bb5c <__alt_mem_onchip_mem+0xff803b5c>

0080c11c <memchr>:
  80c11c:	208000cc 	andi	r2,r4,3
  80c120:	280f883a 	mov	r7,r5
  80c124:	10003426 	beq	r2,zero,80c1f8 <memchr+0xdc>
  80c128:	30bfffc4 	addi	r2,r6,-1
  80c12c:	30001a26 	beq	r6,zero,80c198 <memchr+0x7c>
  80c130:	20c00003 	ldbu	r3,0(r4)
  80c134:	29803fcc 	andi	r6,r5,255
  80c138:	30c0051e 	bne	r6,r3,80c150 <memchr+0x34>
  80c13c:	00001806 	br	80c1a0 <memchr+0x84>
  80c140:	10001526 	beq	r2,zero,80c198 <memchr+0x7c>
  80c144:	20c00003 	ldbu	r3,0(r4)
  80c148:	10bfffc4 	addi	r2,r2,-1
  80c14c:	30c01426 	beq	r6,r3,80c1a0 <memchr+0x84>
  80c150:	21000044 	addi	r4,r4,1
  80c154:	20c000cc 	andi	r3,r4,3
  80c158:	183ff91e 	bne	r3,zero,80c140 <__alt_mem_onchip_mem+0xff804140>
  80c15c:	020000c4 	movi	r8,3
  80c160:	40801136 	bltu	r8,r2,80c1a8 <memchr+0x8c>
  80c164:	10000c26 	beq	r2,zero,80c198 <memchr+0x7c>
  80c168:	20c00003 	ldbu	r3,0(r4)
  80c16c:	29403fcc 	andi	r5,r5,255
  80c170:	28c00b26 	beq	r5,r3,80c1a0 <memchr+0x84>
  80c174:	20c00044 	addi	r3,r4,1
  80c178:	39803fcc 	andi	r6,r7,255
  80c17c:	2089883a 	add	r4,r4,r2
  80c180:	00000306 	br	80c190 <memchr+0x74>
  80c184:	18c00044 	addi	r3,r3,1
  80c188:	197fffc3 	ldbu	r5,-1(r3)
  80c18c:	31400526 	beq	r6,r5,80c1a4 <memchr+0x88>
  80c190:	1805883a 	mov	r2,r3
  80c194:	20fffb1e 	bne	r4,r3,80c184 <__alt_mem_onchip_mem+0xff804184>
  80c198:	0005883a 	mov	r2,zero
  80c19c:	f800283a 	ret
  80c1a0:	2005883a 	mov	r2,r4
  80c1a4:	f800283a 	ret
  80c1a8:	28c03fcc 	andi	r3,r5,255
  80c1ac:	1812923a 	slli	r9,r3,8
  80c1b0:	02ffbff4 	movhi	r11,65279
  80c1b4:	02a02074 	movhi	r10,32897
  80c1b8:	48d2b03a 	or	r9,r9,r3
  80c1bc:	4806943a 	slli	r3,r9,16
  80c1c0:	5affbfc4 	addi	r11,r11,-257
  80c1c4:	52a02004 	addi	r10,r10,-32640
  80c1c8:	48d2b03a 	or	r9,r9,r3
  80c1cc:	20c00017 	ldw	r3,0(r4)
  80c1d0:	48c6f03a 	xor	r3,r9,r3
  80c1d4:	1acd883a 	add	r6,r3,r11
  80c1d8:	00c6303a 	nor	r3,zero,r3
  80c1dc:	30c6703a 	and	r3,r6,r3
  80c1e0:	1a86703a 	and	r3,r3,r10
  80c1e4:	183fe01e 	bne	r3,zero,80c168 <__alt_mem_onchip_mem+0xff804168>
  80c1e8:	10bfff04 	addi	r2,r2,-4
  80c1ec:	21000104 	addi	r4,r4,4
  80c1f0:	40bff636 	bltu	r8,r2,80c1cc <__alt_mem_onchip_mem+0xff8041cc>
  80c1f4:	003fdb06 	br	80c164 <__alt_mem_onchip_mem+0xff804164>
  80c1f8:	3005883a 	mov	r2,r6
  80c1fc:	003fd706 	br	80c15c <__alt_mem_onchip_mem+0xff80415c>

0080c200 <memcpy>:
  80c200:	defffd04 	addi	sp,sp,-12
  80c204:	dfc00215 	stw	ra,8(sp)
  80c208:	dc400115 	stw	r17,4(sp)
  80c20c:	dc000015 	stw	r16,0(sp)
  80c210:	00c003c4 	movi	r3,15
  80c214:	2005883a 	mov	r2,r4
  80c218:	1980452e 	bgeu	r3,r6,80c330 <memcpy+0x130>
  80c21c:	2906b03a 	or	r3,r5,r4
  80c220:	18c000cc 	andi	r3,r3,3
  80c224:	1800441e 	bne	r3,zero,80c338 <memcpy+0x138>
  80c228:	347ffc04 	addi	r17,r6,-16
  80c22c:	8822d13a 	srli	r17,r17,4
  80c230:	28c00104 	addi	r3,r5,4
  80c234:	23400104 	addi	r13,r4,4
  80c238:	8820913a 	slli	r16,r17,4
  80c23c:	2b000204 	addi	r12,r5,8
  80c240:	22c00204 	addi	r11,r4,8
  80c244:	84000504 	addi	r16,r16,20
  80c248:	2a800304 	addi	r10,r5,12
  80c24c:	22400304 	addi	r9,r4,12
  80c250:	2c21883a 	add	r16,r5,r16
  80c254:	2811883a 	mov	r8,r5
  80c258:	200f883a 	mov	r7,r4
  80c25c:	41000017 	ldw	r4,0(r8)
  80c260:	1fc00017 	ldw	ra,0(r3)
  80c264:	63c00017 	ldw	r15,0(r12)
  80c268:	39000015 	stw	r4,0(r7)
  80c26c:	53800017 	ldw	r14,0(r10)
  80c270:	6fc00015 	stw	ra,0(r13)
  80c274:	5bc00015 	stw	r15,0(r11)
  80c278:	4b800015 	stw	r14,0(r9)
  80c27c:	18c00404 	addi	r3,r3,16
  80c280:	39c00404 	addi	r7,r7,16
  80c284:	42000404 	addi	r8,r8,16
  80c288:	6b400404 	addi	r13,r13,16
  80c28c:	63000404 	addi	r12,r12,16
  80c290:	5ac00404 	addi	r11,r11,16
  80c294:	52800404 	addi	r10,r10,16
  80c298:	4a400404 	addi	r9,r9,16
  80c29c:	1c3fef1e 	bne	r3,r16,80c25c <__alt_mem_onchip_mem+0xff80425c>
  80c2a0:	89c00044 	addi	r7,r17,1
  80c2a4:	380e913a 	slli	r7,r7,4
  80c2a8:	310003cc 	andi	r4,r6,15
  80c2ac:	02c000c4 	movi	r11,3
  80c2b0:	11c7883a 	add	r3,r2,r7
  80c2b4:	29cb883a 	add	r5,r5,r7
  80c2b8:	5900212e 	bgeu	r11,r4,80c340 <memcpy+0x140>
  80c2bc:	1813883a 	mov	r9,r3
  80c2c0:	2811883a 	mov	r8,r5
  80c2c4:	200f883a 	mov	r7,r4
  80c2c8:	42800017 	ldw	r10,0(r8)
  80c2cc:	4a400104 	addi	r9,r9,4
  80c2d0:	39ffff04 	addi	r7,r7,-4
  80c2d4:	4abfff15 	stw	r10,-4(r9)
  80c2d8:	42000104 	addi	r8,r8,4
  80c2dc:	59fffa36 	bltu	r11,r7,80c2c8 <__alt_mem_onchip_mem+0xff8042c8>
  80c2e0:	213fff04 	addi	r4,r4,-4
  80c2e4:	2008d0ba 	srli	r4,r4,2
  80c2e8:	318000cc 	andi	r6,r6,3
  80c2ec:	21000044 	addi	r4,r4,1
  80c2f0:	2109883a 	add	r4,r4,r4
  80c2f4:	2109883a 	add	r4,r4,r4
  80c2f8:	1907883a 	add	r3,r3,r4
  80c2fc:	290b883a 	add	r5,r5,r4
  80c300:	30000626 	beq	r6,zero,80c31c <memcpy+0x11c>
  80c304:	198d883a 	add	r6,r3,r6
  80c308:	29c00003 	ldbu	r7,0(r5)
  80c30c:	18c00044 	addi	r3,r3,1
  80c310:	29400044 	addi	r5,r5,1
  80c314:	19ffffc5 	stb	r7,-1(r3)
  80c318:	19bffb1e 	bne	r3,r6,80c308 <__alt_mem_onchip_mem+0xff804308>
  80c31c:	dfc00217 	ldw	ra,8(sp)
  80c320:	dc400117 	ldw	r17,4(sp)
  80c324:	dc000017 	ldw	r16,0(sp)
  80c328:	dec00304 	addi	sp,sp,12
  80c32c:	f800283a 	ret
  80c330:	2007883a 	mov	r3,r4
  80c334:	003ff206 	br	80c300 <__alt_mem_onchip_mem+0xff804300>
  80c338:	2007883a 	mov	r3,r4
  80c33c:	003ff106 	br	80c304 <__alt_mem_onchip_mem+0xff804304>
  80c340:	200d883a 	mov	r6,r4
  80c344:	003fee06 	br	80c300 <__alt_mem_onchip_mem+0xff804300>

0080c348 <memset>:
  80c348:	20c000cc 	andi	r3,r4,3
  80c34c:	2005883a 	mov	r2,r4
  80c350:	18004426 	beq	r3,zero,80c464 <memset+0x11c>
  80c354:	31ffffc4 	addi	r7,r6,-1
  80c358:	30004026 	beq	r6,zero,80c45c <memset+0x114>
  80c35c:	2813883a 	mov	r9,r5
  80c360:	200d883a 	mov	r6,r4
  80c364:	2007883a 	mov	r3,r4
  80c368:	00000406 	br	80c37c <memset+0x34>
  80c36c:	3a3fffc4 	addi	r8,r7,-1
  80c370:	31800044 	addi	r6,r6,1
  80c374:	38003926 	beq	r7,zero,80c45c <memset+0x114>
  80c378:	400f883a 	mov	r7,r8
  80c37c:	18c00044 	addi	r3,r3,1
  80c380:	32400005 	stb	r9,0(r6)
  80c384:	1a0000cc 	andi	r8,r3,3
  80c388:	403ff81e 	bne	r8,zero,80c36c <__alt_mem_onchip_mem+0xff80436c>
  80c38c:	010000c4 	movi	r4,3
  80c390:	21c02d2e 	bgeu	r4,r7,80c448 <memset+0x100>
  80c394:	29003fcc 	andi	r4,r5,255
  80c398:	200c923a 	slli	r6,r4,8
  80c39c:	3108b03a 	or	r4,r6,r4
  80c3a0:	200c943a 	slli	r6,r4,16
  80c3a4:	218cb03a 	or	r6,r4,r6
  80c3a8:	010003c4 	movi	r4,15
  80c3ac:	21c0182e 	bgeu	r4,r7,80c410 <memset+0xc8>
  80c3b0:	3b3ffc04 	addi	r12,r7,-16
  80c3b4:	6018d13a 	srli	r12,r12,4
  80c3b8:	1a000104 	addi	r8,r3,4
  80c3bc:	1ac00204 	addi	r11,r3,8
  80c3c0:	6008913a 	slli	r4,r12,4
  80c3c4:	1a800304 	addi	r10,r3,12
  80c3c8:	1813883a 	mov	r9,r3
  80c3cc:	21000504 	addi	r4,r4,20
  80c3d0:	1909883a 	add	r4,r3,r4
  80c3d4:	49800015 	stw	r6,0(r9)
  80c3d8:	41800015 	stw	r6,0(r8)
  80c3dc:	59800015 	stw	r6,0(r11)
  80c3e0:	51800015 	stw	r6,0(r10)
  80c3e4:	42000404 	addi	r8,r8,16
  80c3e8:	4a400404 	addi	r9,r9,16
  80c3ec:	5ac00404 	addi	r11,r11,16
  80c3f0:	52800404 	addi	r10,r10,16
  80c3f4:	413ff71e 	bne	r8,r4,80c3d4 <__alt_mem_onchip_mem+0xff8043d4>
  80c3f8:	63000044 	addi	r12,r12,1
  80c3fc:	6018913a 	slli	r12,r12,4
  80c400:	39c003cc 	andi	r7,r7,15
  80c404:	010000c4 	movi	r4,3
  80c408:	1b07883a 	add	r3,r3,r12
  80c40c:	21c00e2e 	bgeu	r4,r7,80c448 <memset+0x100>
  80c410:	1813883a 	mov	r9,r3
  80c414:	3811883a 	mov	r8,r7
  80c418:	010000c4 	movi	r4,3
  80c41c:	49800015 	stw	r6,0(r9)
  80c420:	423fff04 	addi	r8,r8,-4
  80c424:	4a400104 	addi	r9,r9,4
  80c428:	223ffc36 	bltu	r4,r8,80c41c <__alt_mem_onchip_mem+0xff80441c>
  80c42c:	393fff04 	addi	r4,r7,-4
  80c430:	2008d0ba 	srli	r4,r4,2
  80c434:	39c000cc 	andi	r7,r7,3
  80c438:	21000044 	addi	r4,r4,1
  80c43c:	2109883a 	add	r4,r4,r4
  80c440:	2109883a 	add	r4,r4,r4
  80c444:	1907883a 	add	r3,r3,r4
  80c448:	38000526 	beq	r7,zero,80c460 <memset+0x118>
  80c44c:	19cf883a 	add	r7,r3,r7
  80c450:	19400005 	stb	r5,0(r3)
  80c454:	18c00044 	addi	r3,r3,1
  80c458:	38fffd1e 	bne	r7,r3,80c450 <__alt_mem_onchip_mem+0xff804450>
  80c45c:	f800283a 	ret
  80c460:	f800283a 	ret
  80c464:	2007883a 	mov	r3,r4
  80c468:	300f883a 	mov	r7,r6
  80c46c:	003fc706 	br	80c38c <__alt_mem_onchip_mem+0xff80438c>

0080c470 <_Balloc>:
  80c470:	20801317 	ldw	r2,76(r4)
  80c474:	defffc04 	addi	sp,sp,-16
  80c478:	dc400115 	stw	r17,4(sp)
  80c47c:	dc000015 	stw	r16,0(sp)
  80c480:	dfc00315 	stw	ra,12(sp)
  80c484:	dc800215 	stw	r18,8(sp)
  80c488:	2023883a 	mov	r17,r4
  80c48c:	2821883a 	mov	r16,r5
  80c490:	10000f26 	beq	r2,zero,80c4d0 <_Balloc+0x60>
  80c494:	8407883a 	add	r3,r16,r16
  80c498:	18c7883a 	add	r3,r3,r3
  80c49c:	10c7883a 	add	r3,r2,r3
  80c4a0:	18800017 	ldw	r2,0(r3)
  80c4a4:	10001126 	beq	r2,zero,80c4ec <_Balloc+0x7c>
  80c4a8:	11000017 	ldw	r4,0(r2)
  80c4ac:	19000015 	stw	r4,0(r3)
  80c4b0:	10000415 	stw	zero,16(r2)
  80c4b4:	10000315 	stw	zero,12(r2)
  80c4b8:	dfc00317 	ldw	ra,12(sp)
  80c4bc:	dc800217 	ldw	r18,8(sp)
  80c4c0:	dc400117 	ldw	r17,4(sp)
  80c4c4:	dc000017 	ldw	r16,0(sp)
  80c4c8:	dec00404 	addi	sp,sp,16
  80c4cc:	f800283a 	ret
  80c4d0:	01800844 	movi	r6,33
  80c4d4:	01400104 	movi	r5,4
  80c4d8:	080eee00 	call	80eee0 <_calloc_r>
  80c4dc:	88801315 	stw	r2,76(r17)
  80c4e0:	103fec1e 	bne	r2,zero,80c494 <__alt_mem_onchip_mem+0xff804494>
  80c4e4:	0005883a 	mov	r2,zero
  80c4e8:	003ff306 	br	80c4b8 <__alt_mem_onchip_mem+0xff8044b8>
  80c4ec:	01400044 	movi	r5,1
  80c4f0:	2c24983a 	sll	r18,r5,r16
  80c4f4:	8809883a 	mov	r4,r17
  80c4f8:	91800144 	addi	r6,r18,5
  80c4fc:	318d883a 	add	r6,r6,r6
  80c500:	318d883a 	add	r6,r6,r6
  80c504:	080eee00 	call	80eee0 <_calloc_r>
  80c508:	103ff626 	beq	r2,zero,80c4e4 <__alt_mem_onchip_mem+0xff8044e4>
  80c50c:	14000115 	stw	r16,4(r2)
  80c510:	14800215 	stw	r18,8(r2)
  80c514:	003fe606 	br	80c4b0 <__alt_mem_onchip_mem+0xff8044b0>

0080c518 <_Bfree>:
  80c518:	28000826 	beq	r5,zero,80c53c <_Bfree+0x24>
  80c51c:	28c00117 	ldw	r3,4(r5)
  80c520:	20801317 	ldw	r2,76(r4)
  80c524:	18c7883a 	add	r3,r3,r3
  80c528:	18c7883a 	add	r3,r3,r3
  80c52c:	10c5883a 	add	r2,r2,r3
  80c530:	10c00017 	ldw	r3,0(r2)
  80c534:	28c00015 	stw	r3,0(r5)
  80c538:	11400015 	stw	r5,0(r2)
  80c53c:	f800283a 	ret

0080c540 <__multadd>:
  80c540:	defffa04 	addi	sp,sp,-24
  80c544:	dc800315 	stw	r18,12(sp)
  80c548:	dc400215 	stw	r17,8(sp)
  80c54c:	dc000115 	stw	r16,4(sp)
  80c550:	2823883a 	mov	r17,r5
  80c554:	2c000417 	ldw	r16,16(r5)
  80c558:	dfc00515 	stw	ra,20(sp)
  80c55c:	dcc00415 	stw	r19,16(sp)
  80c560:	2025883a 	mov	r18,r4
  80c564:	29400504 	addi	r5,r5,20
  80c568:	0011883a 	mov	r8,zero
  80c56c:	28c00017 	ldw	r3,0(r5)
  80c570:	29400104 	addi	r5,r5,4
  80c574:	42000044 	addi	r8,r8,1
  80c578:	18bfffcc 	andi	r2,r3,65535
  80c57c:	1185383a 	mul	r2,r2,r6
  80c580:	1806d43a 	srli	r3,r3,16
  80c584:	11cf883a 	add	r7,r2,r7
  80c588:	3808d43a 	srli	r4,r7,16
  80c58c:	1987383a 	mul	r3,r3,r6
  80c590:	38bfffcc 	andi	r2,r7,65535
  80c594:	1907883a 	add	r3,r3,r4
  80c598:	1808943a 	slli	r4,r3,16
  80c59c:	180ed43a 	srli	r7,r3,16
  80c5a0:	2085883a 	add	r2,r4,r2
  80c5a4:	28bfff15 	stw	r2,-4(r5)
  80c5a8:	443ff016 	blt	r8,r16,80c56c <__alt_mem_onchip_mem+0xff80456c>
  80c5ac:	38000926 	beq	r7,zero,80c5d4 <__multadd+0x94>
  80c5b0:	88800217 	ldw	r2,8(r17)
  80c5b4:	80800f0e 	bge	r16,r2,80c5f4 <__multadd+0xb4>
  80c5b8:	80800144 	addi	r2,r16,5
  80c5bc:	1085883a 	add	r2,r2,r2
  80c5c0:	1085883a 	add	r2,r2,r2
  80c5c4:	8885883a 	add	r2,r17,r2
  80c5c8:	11c00015 	stw	r7,0(r2)
  80c5cc:	84000044 	addi	r16,r16,1
  80c5d0:	8c000415 	stw	r16,16(r17)
  80c5d4:	8805883a 	mov	r2,r17
  80c5d8:	dfc00517 	ldw	ra,20(sp)
  80c5dc:	dcc00417 	ldw	r19,16(sp)
  80c5e0:	dc800317 	ldw	r18,12(sp)
  80c5e4:	dc400217 	ldw	r17,8(sp)
  80c5e8:	dc000117 	ldw	r16,4(sp)
  80c5ec:	dec00604 	addi	sp,sp,24
  80c5f0:	f800283a 	ret
  80c5f4:	89400117 	ldw	r5,4(r17)
  80c5f8:	9009883a 	mov	r4,r18
  80c5fc:	d9c00015 	stw	r7,0(sp)
  80c600:	29400044 	addi	r5,r5,1
  80c604:	080c4700 	call	80c470 <_Balloc>
  80c608:	89800417 	ldw	r6,16(r17)
  80c60c:	89400304 	addi	r5,r17,12
  80c610:	11000304 	addi	r4,r2,12
  80c614:	31800084 	addi	r6,r6,2
  80c618:	318d883a 	add	r6,r6,r6
  80c61c:	318d883a 	add	r6,r6,r6
  80c620:	1027883a 	mov	r19,r2
  80c624:	080c2000 	call	80c200 <memcpy>
  80c628:	d9c00017 	ldw	r7,0(sp)
  80c62c:	88000a26 	beq	r17,zero,80c658 <__multadd+0x118>
  80c630:	88c00117 	ldw	r3,4(r17)
  80c634:	90801317 	ldw	r2,76(r18)
  80c638:	18c7883a 	add	r3,r3,r3
  80c63c:	18c7883a 	add	r3,r3,r3
  80c640:	10c5883a 	add	r2,r2,r3
  80c644:	10c00017 	ldw	r3,0(r2)
  80c648:	88c00015 	stw	r3,0(r17)
  80c64c:	14400015 	stw	r17,0(r2)
  80c650:	9823883a 	mov	r17,r19
  80c654:	003fd806 	br	80c5b8 <__alt_mem_onchip_mem+0xff8045b8>
  80c658:	9823883a 	mov	r17,r19
  80c65c:	003fd606 	br	80c5b8 <__alt_mem_onchip_mem+0xff8045b8>

0080c660 <__s2b>:
  80c660:	defff904 	addi	sp,sp,-28
  80c664:	dc400115 	stw	r17,4(sp)
  80c668:	dc000015 	stw	r16,0(sp)
  80c66c:	2023883a 	mov	r17,r4
  80c670:	2821883a 	mov	r16,r5
  80c674:	39000204 	addi	r4,r7,8
  80c678:	01400244 	movi	r5,9
  80c67c:	dcc00315 	stw	r19,12(sp)
  80c680:	dc800215 	stw	r18,8(sp)
  80c684:	dfc00615 	stw	ra,24(sp)
  80c688:	dd400515 	stw	r21,20(sp)
  80c68c:	dd000415 	stw	r20,16(sp)
  80c690:	3825883a 	mov	r18,r7
  80c694:	3027883a 	mov	r19,r6
  80c698:	0810d8c0 	call	810d8c <__divsi3>
  80c69c:	00c00044 	movi	r3,1
  80c6a0:	000b883a 	mov	r5,zero
  80c6a4:	1880030e 	bge	r3,r2,80c6b4 <__s2b+0x54>
  80c6a8:	18c7883a 	add	r3,r3,r3
  80c6ac:	29400044 	addi	r5,r5,1
  80c6b0:	18bffd16 	blt	r3,r2,80c6a8 <__alt_mem_onchip_mem+0xff8046a8>
  80c6b4:	8809883a 	mov	r4,r17
  80c6b8:	080c4700 	call	80c470 <_Balloc>
  80c6bc:	d8c00717 	ldw	r3,28(sp)
  80c6c0:	10c00515 	stw	r3,20(r2)
  80c6c4:	00c00044 	movi	r3,1
  80c6c8:	10c00415 	stw	r3,16(r2)
  80c6cc:	00c00244 	movi	r3,9
  80c6d0:	1cc0210e 	bge	r3,r19,80c758 <__s2b+0xf8>
  80c6d4:	80eb883a 	add	r21,r16,r3
  80c6d8:	a829883a 	mov	r20,r21
  80c6dc:	84e1883a 	add	r16,r16,r19
  80c6e0:	a1c00007 	ldb	r7,0(r20)
  80c6e4:	01800284 	movi	r6,10
  80c6e8:	a5000044 	addi	r20,r20,1
  80c6ec:	100b883a 	mov	r5,r2
  80c6f0:	39fff404 	addi	r7,r7,-48
  80c6f4:	8809883a 	mov	r4,r17
  80c6f8:	080c5400 	call	80c540 <__multadd>
  80c6fc:	a43ff81e 	bne	r20,r16,80c6e0 <__alt_mem_onchip_mem+0xff8046e0>
  80c700:	ace1883a 	add	r16,r21,r19
  80c704:	843ffe04 	addi	r16,r16,-8
  80c708:	9c800a0e 	bge	r19,r18,80c734 <__s2b+0xd4>
  80c70c:	94e5c83a 	sub	r18,r18,r19
  80c710:	84a5883a 	add	r18,r16,r18
  80c714:	81c00007 	ldb	r7,0(r16)
  80c718:	01800284 	movi	r6,10
  80c71c:	84000044 	addi	r16,r16,1
  80c720:	100b883a 	mov	r5,r2
  80c724:	39fff404 	addi	r7,r7,-48
  80c728:	8809883a 	mov	r4,r17
  80c72c:	080c5400 	call	80c540 <__multadd>
  80c730:	84bff81e 	bne	r16,r18,80c714 <__alt_mem_onchip_mem+0xff804714>
  80c734:	dfc00617 	ldw	ra,24(sp)
  80c738:	dd400517 	ldw	r21,20(sp)
  80c73c:	dd000417 	ldw	r20,16(sp)
  80c740:	dcc00317 	ldw	r19,12(sp)
  80c744:	dc800217 	ldw	r18,8(sp)
  80c748:	dc400117 	ldw	r17,4(sp)
  80c74c:	dc000017 	ldw	r16,0(sp)
  80c750:	dec00704 	addi	sp,sp,28
  80c754:	f800283a 	ret
  80c758:	84000284 	addi	r16,r16,10
  80c75c:	1827883a 	mov	r19,r3
  80c760:	003fe906 	br	80c708 <__alt_mem_onchip_mem+0xff804708>

0080c764 <__hi0bits>:
  80c764:	20bfffec 	andhi	r2,r4,65535
  80c768:	1000141e 	bne	r2,zero,80c7bc <__hi0bits+0x58>
  80c76c:	2008943a 	slli	r4,r4,16
  80c770:	00800404 	movi	r2,16
  80c774:	20ffc02c 	andhi	r3,r4,65280
  80c778:	1800021e 	bne	r3,zero,80c784 <__hi0bits+0x20>
  80c77c:	2008923a 	slli	r4,r4,8
  80c780:	10800204 	addi	r2,r2,8
  80c784:	20fc002c 	andhi	r3,r4,61440
  80c788:	1800021e 	bne	r3,zero,80c794 <__hi0bits+0x30>
  80c78c:	2008913a 	slli	r4,r4,4
  80c790:	10800104 	addi	r2,r2,4
  80c794:	20f0002c 	andhi	r3,r4,49152
  80c798:	1800031e 	bne	r3,zero,80c7a8 <__hi0bits+0x44>
  80c79c:	2109883a 	add	r4,r4,r4
  80c7a0:	10800084 	addi	r2,r2,2
  80c7a4:	2109883a 	add	r4,r4,r4
  80c7a8:	20000316 	blt	r4,zero,80c7b8 <__hi0bits+0x54>
  80c7ac:	2110002c 	andhi	r4,r4,16384
  80c7b0:	2000041e 	bne	r4,zero,80c7c4 <__hi0bits+0x60>
  80c7b4:	00800804 	movi	r2,32
  80c7b8:	f800283a 	ret
  80c7bc:	0005883a 	mov	r2,zero
  80c7c0:	003fec06 	br	80c774 <__alt_mem_onchip_mem+0xff804774>
  80c7c4:	10800044 	addi	r2,r2,1
  80c7c8:	f800283a 	ret

0080c7cc <__lo0bits>:
  80c7cc:	20c00017 	ldw	r3,0(r4)
  80c7d0:	188001cc 	andi	r2,r3,7
  80c7d4:	10000826 	beq	r2,zero,80c7f8 <__lo0bits+0x2c>
  80c7d8:	1880004c 	andi	r2,r3,1
  80c7dc:	1000211e 	bne	r2,zero,80c864 <__lo0bits+0x98>
  80c7e0:	1880008c 	andi	r2,r3,2
  80c7e4:	1000211e 	bne	r2,zero,80c86c <__lo0bits+0xa0>
  80c7e8:	1806d0ba 	srli	r3,r3,2
  80c7ec:	00800084 	movi	r2,2
  80c7f0:	20c00015 	stw	r3,0(r4)
  80c7f4:	f800283a 	ret
  80c7f8:	18bfffcc 	andi	r2,r3,65535
  80c7fc:	10001326 	beq	r2,zero,80c84c <__lo0bits+0x80>
  80c800:	0005883a 	mov	r2,zero
  80c804:	19403fcc 	andi	r5,r3,255
  80c808:	2800021e 	bne	r5,zero,80c814 <__lo0bits+0x48>
  80c80c:	1806d23a 	srli	r3,r3,8
  80c810:	10800204 	addi	r2,r2,8
  80c814:	194003cc 	andi	r5,r3,15
  80c818:	2800021e 	bne	r5,zero,80c824 <__lo0bits+0x58>
  80c81c:	1806d13a 	srli	r3,r3,4
  80c820:	10800104 	addi	r2,r2,4
  80c824:	194000cc 	andi	r5,r3,3
  80c828:	2800021e 	bne	r5,zero,80c834 <__lo0bits+0x68>
  80c82c:	1806d0ba 	srli	r3,r3,2
  80c830:	10800084 	addi	r2,r2,2
  80c834:	1940004c 	andi	r5,r3,1
  80c838:	2800081e 	bne	r5,zero,80c85c <__lo0bits+0x90>
  80c83c:	1806d07a 	srli	r3,r3,1
  80c840:	1800051e 	bne	r3,zero,80c858 <__lo0bits+0x8c>
  80c844:	00800804 	movi	r2,32
  80c848:	f800283a 	ret
  80c84c:	1806d43a 	srli	r3,r3,16
  80c850:	00800404 	movi	r2,16
  80c854:	003feb06 	br	80c804 <__alt_mem_onchip_mem+0xff804804>
  80c858:	10800044 	addi	r2,r2,1
  80c85c:	20c00015 	stw	r3,0(r4)
  80c860:	f800283a 	ret
  80c864:	0005883a 	mov	r2,zero
  80c868:	f800283a 	ret
  80c86c:	1806d07a 	srli	r3,r3,1
  80c870:	00800044 	movi	r2,1
  80c874:	20c00015 	stw	r3,0(r4)
  80c878:	f800283a 	ret

0080c87c <__i2b>:
  80c87c:	defffd04 	addi	sp,sp,-12
  80c880:	dc000015 	stw	r16,0(sp)
  80c884:	04000044 	movi	r16,1
  80c888:	dc400115 	stw	r17,4(sp)
  80c88c:	2823883a 	mov	r17,r5
  80c890:	800b883a 	mov	r5,r16
  80c894:	dfc00215 	stw	ra,8(sp)
  80c898:	080c4700 	call	80c470 <_Balloc>
  80c89c:	14400515 	stw	r17,20(r2)
  80c8a0:	14000415 	stw	r16,16(r2)
  80c8a4:	dfc00217 	ldw	ra,8(sp)
  80c8a8:	dc400117 	ldw	r17,4(sp)
  80c8ac:	dc000017 	ldw	r16,0(sp)
  80c8b0:	dec00304 	addi	sp,sp,12
  80c8b4:	f800283a 	ret

0080c8b8 <__multiply>:
  80c8b8:	defffa04 	addi	sp,sp,-24
  80c8bc:	dcc00315 	stw	r19,12(sp)
  80c8c0:	dc800215 	stw	r18,8(sp)
  80c8c4:	34c00417 	ldw	r19,16(r6)
  80c8c8:	2c800417 	ldw	r18,16(r5)
  80c8cc:	dd000415 	stw	r20,16(sp)
  80c8d0:	dc400115 	stw	r17,4(sp)
  80c8d4:	dfc00515 	stw	ra,20(sp)
  80c8d8:	dc000015 	stw	r16,0(sp)
  80c8dc:	2829883a 	mov	r20,r5
  80c8e0:	3023883a 	mov	r17,r6
  80c8e4:	94c0050e 	bge	r18,r19,80c8fc <__multiply+0x44>
  80c8e8:	9007883a 	mov	r3,r18
  80c8ec:	3029883a 	mov	r20,r6
  80c8f0:	9825883a 	mov	r18,r19
  80c8f4:	2823883a 	mov	r17,r5
  80c8f8:	1827883a 	mov	r19,r3
  80c8fc:	a0800217 	ldw	r2,8(r20)
  80c900:	94e1883a 	add	r16,r18,r19
  80c904:	a1400117 	ldw	r5,4(r20)
  80c908:	1400010e 	bge	r2,r16,80c910 <__multiply+0x58>
  80c90c:	29400044 	addi	r5,r5,1
  80c910:	080c4700 	call	80c470 <_Balloc>
  80c914:	8415883a 	add	r10,r16,r16
  80c918:	12c00504 	addi	r11,r2,20
  80c91c:	5295883a 	add	r10,r10,r10
  80c920:	5a95883a 	add	r10,r11,r10
  80c924:	5807883a 	mov	r3,r11
  80c928:	5a80032e 	bgeu	r11,r10,80c938 <__multiply+0x80>
  80c92c:	18000015 	stw	zero,0(r3)
  80c930:	18c00104 	addi	r3,r3,4
  80c934:	1abffd36 	bltu	r3,r10,80c92c <__alt_mem_onchip_mem+0xff80492c>
  80c938:	9ce7883a 	add	r19,r19,r19
  80c93c:	94a5883a 	add	r18,r18,r18
  80c940:	89800504 	addi	r6,r17,20
  80c944:	9ce7883a 	add	r19,r19,r19
  80c948:	a3400504 	addi	r13,r20,20
  80c94c:	94a5883a 	add	r18,r18,r18
  80c950:	34d9883a 	add	r12,r6,r19
  80c954:	6c93883a 	add	r9,r13,r18
  80c958:	3300422e 	bgeu	r6,r12,80ca64 <__multiply+0x1ac>
  80c95c:	37c00017 	ldw	ra,0(r6)
  80c960:	fbffffcc 	andi	r15,ra,65535
  80c964:	78001b26 	beq	r15,zero,80c9d4 <__multiply+0x11c>
  80c968:	5811883a 	mov	r8,r11
  80c96c:	681d883a 	mov	r14,r13
  80c970:	000f883a 	mov	r7,zero
  80c974:	71000017 	ldw	r4,0(r14)
  80c978:	40c00017 	ldw	r3,0(r8)
  80c97c:	73800104 	addi	r14,r14,4
  80c980:	217fffcc 	andi	r5,r4,65535
  80c984:	2bcb383a 	mul	r5,r5,r15
  80c988:	2008d43a 	srli	r4,r4,16
  80c98c:	1c7fffcc 	andi	r17,r3,65535
  80c990:	2c4b883a 	add	r5,r5,r17
  80c994:	29cb883a 	add	r5,r5,r7
  80c998:	23c9383a 	mul	r4,r4,r15
  80c99c:	1806d43a 	srli	r3,r3,16
  80c9a0:	280ed43a 	srli	r7,r5,16
  80c9a4:	297fffcc 	andi	r5,r5,65535
  80c9a8:	20c7883a 	add	r3,r4,r3
  80c9ac:	19c7883a 	add	r3,r3,r7
  80c9b0:	1808943a 	slli	r4,r3,16
  80c9b4:	4023883a 	mov	r17,r8
  80c9b8:	180ed43a 	srli	r7,r3,16
  80c9bc:	214ab03a 	or	r5,r4,r5
  80c9c0:	41400015 	stw	r5,0(r8)
  80c9c4:	42000104 	addi	r8,r8,4
  80c9c8:	727fea36 	bltu	r14,r9,80c974 <__alt_mem_onchip_mem+0xff804974>
  80c9cc:	89c00115 	stw	r7,4(r17)
  80c9d0:	37c00017 	ldw	ra,0(r6)
  80c9d4:	f83ed43a 	srli	ra,ra,16
  80c9d8:	f8001f26 	beq	ra,zero,80ca58 <__multiply+0x1a0>
  80c9dc:	58c00017 	ldw	r3,0(r11)
  80c9e0:	681d883a 	mov	r14,r13
  80c9e4:	581f883a 	mov	r15,r11
  80c9e8:	1811883a 	mov	r8,r3
  80c9ec:	5825883a 	mov	r18,r11
  80c9f0:	000f883a 	mov	r7,zero
  80c9f4:	00000106 	br	80c9fc <__multiply+0x144>
  80c9f8:	8825883a 	mov	r18,r17
  80c9fc:	7140000b 	ldhu	r5,0(r14)
  80ca00:	4010d43a 	srli	r8,r8,16
  80ca04:	193fffcc 	andi	r4,r3,65535
  80ca08:	2fcb383a 	mul	r5,r5,ra
  80ca0c:	7bc00104 	addi	r15,r15,4
  80ca10:	73800104 	addi	r14,r14,4
  80ca14:	2a0b883a 	add	r5,r5,r8
  80ca18:	29cb883a 	add	r5,r5,r7
  80ca1c:	2806943a 	slli	r3,r5,16
  80ca20:	94400104 	addi	r17,r18,4
  80ca24:	280ad43a 	srli	r5,r5,16
  80ca28:	1908b03a 	or	r4,r3,r4
  80ca2c:	793fff15 	stw	r4,-4(r15)
  80ca30:	70ffff17 	ldw	r3,-4(r14)
  80ca34:	8a000017 	ldw	r8,0(r17)
  80ca38:	1806d43a 	srli	r3,r3,16
  80ca3c:	413fffcc 	andi	r4,r8,65535
  80ca40:	1fc7383a 	mul	r3,r3,ra
  80ca44:	1907883a 	add	r3,r3,r4
  80ca48:	1947883a 	add	r3,r3,r5
  80ca4c:	180ed43a 	srli	r7,r3,16
  80ca50:	727fe936 	bltu	r14,r9,80c9f8 <__alt_mem_onchip_mem+0xff8049f8>
  80ca54:	90c00115 	stw	r3,4(r18)
  80ca58:	31800104 	addi	r6,r6,4
  80ca5c:	5ac00104 	addi	r11,r11,4
  80ca60:	333fbe36 	bltu	r6,r12,80c95c <__alt_mem_onchip_mem+0xff80495c>
  80ca64:	0400090e 	bge	zero,r16,80ca8c <__multiply+0x1d4>
  80ca68:	50ffff17 	ldw	r3,-4(r10)
  80ca6c:	52bfff04 	addi	r10,r10,-4
  80ca70:	18000326 	beq	r3,zero,80ca80 <__multiply+0x1c8>
  80ca74:	00000506 	br	80ca8c <__multiply+0x1d4>
  80ca78:	50c00017 	ldw	r3,0(r10)
  80ca7c:	1800031e 	bne	r3,zero,80ca8c <__multiply+0x1d4>
  80ca80:	843fffc4 	addi	r16,r16,-1
  80ca84:	52bfff04 	addi	r10,r10,-4
  80ca88:	803ffb1e 	bne	r16,zero,80ca78 <__alt_mem_onchip_mem+0xff804a78>
  80ca8c:	14000415 	stw	r16,16(r2)
  80ca90:	dfc00517 	ldw	ra,20(sp)
  80ca94:	dd000417 	ldw	r20,16(sp)
  80ca98:	dcc00317 	ldw	r19,12(sp)
  80ca9c:	dc800217 	ldw	r18,8(sp)
  80caa0:	dc400117 	ldw	r17,4(sp)
  80caa4:	dc000017 	ldw	r16,0(sp)
  80caa8:	dec00604 	addi	sp,sp,24
  80caac:	f800283a 	ret

0080cab0 <__pow5mult>:
  80cab0:	defffa04 	addi	sp,sp,-24
  80cab4:	dcc00315 	stw	r19,12(sp)
  80cab8:	dc000015 	stw	r16,0(sp)
  80cabc:	dfc00515 	stw	ra,20(sp)
  80cac0:	dd000415 	stw	r20,16(sp)
  80cac4:	dc800215 	stw	r18,8(sp)
  80cac8:	dc400115 	stw	r17,4(sp)
  80cacc:	308000cc 	andi	r2,r6,3
  80cad0:	3021883a 	mov	r16,r6
  80cad4:	2027883a 	mov	r19,r4
  80cad8:	10002f1e 	bne	r2,zero,80cb98 <__pow5mult+0xe8>
  80cadc:	2825883a 	mov	r18,r5
  80cae0:	8021d0ba 	srai	r16,r16,2
  80cae4:	80001a26 	beq	r16,zero,80cb50 <__pow5mult+0xa0>
  80cae8:	9c401217 	ldw	r17,72(r19)
  80caec:	8800061e 	bne	r17,zero,80cb08 <__pow5mult+0x58>
  80caf0:	00003406 	br	80cbc4 <__pow5mult+0x114>
  80caf4:	8021d07a 	srai	r16,r16,1
  80caf8:	80001526 	beq	r16,zero,80cb50 <__pow5mult+0xa0>
  80cafc:	88800017 	ldw	r2,0(r17)
  80cb00:	10001c26 	beq	r2,zero,80cb74 <__pow5mult+0xc4>
  80cb04:	1023883a 	mov	r17,r2
  80cb08:	8080004c 	andi	r2,r16,1
  80cb0c:	103ff926 	beq	r2,zero,80caf4 <__alt_mem_onchip_mem+0xff804af4>
  80cb10:	880d883a 	mov	r6,r17
  80cb14:	900b883a 	mov	r5,r18
  80cb18:	9809883a 	mov	r4,r19
  80cb1c:	080c8b80 	call	80c8b8 <__multiply>
  80cb20:	90001b26 	beq	r18,zero,80cb90 <__pow5mult+0xe0>
  80cb24:	91000117 	ldw	r4,4(r18)
  80cb28:	98c01317 	ldw	r3,76(r19)
  80cb2c:	8021d07a 	srai	r16,r16,1
  80cb30:	2109883a 	add	r4,r4,r4
  80cb34:	2109883a 	add	r4,r4,r4
  80cb38:	1907883a 	add	r3,r3,r4
  80cb3c:	19000017 	ldw	r4,0(r3)
  80cb40:	91000015 	stw	r4,0(r18)
  80cb44:	1c800015 	stw	r18,0(r3)
  80cb48:	1025883a 	mov	r18,r2
  80cb4c:	803feb1e 	bne	r16,zero,80cafc <__alt_mem_onchip_mem+0xff804afc>
  80cb50:	9005883a 	mov	r2,r18
  80cb54:	dfc00517 	ldw	ra,20(sp)
  80cb58:	dd000417 	ldw	r20,16(sp)
  80cb5c:	dcc00317 	ldw	r19,12(sp)
  80cb60:	dc800217 	ldw	r18,8(sp)
  80cb64:	dc400117 	ldw	r17,4(sp)
  80cb68:	dc000017 	ldw	r16,0(sp)
  80cb6c:	dec00604 	addi	sp,sp,24
  80cb70:	f800283a 	ret
  80cb74:	880d883a 	mov	r6,r17
  80cb78:	880b883a 	mov	r5,r17
  80cb7c:	9809883a 	mov	r4,r19
  80cb80:	080c8b80 	call	80c8b8 <__multiply>
  80cb84:	88800015 	stw	r2,0(r17)
  80cb88:	10000015 	stw	zero,0(r2)
  80cb8c:	003fdd06 	br	80cb04 <__alt_mem_onchip_mem+0xff804b04>
  80cb90:	1025883a 	mov	r18,r2
  80cb94:	003fd706 	br	80caf4 <__alt_mem_onchip_mem+0xff804af4>
  80cb98:	10bfffc4 	addi	r2,r2,-1
  80cb9c:	1085883a 	add	r2,r2,r2
  80cba0:	00c02074 	movhi	r3,129
  80cba4:	18d70904 	addi	r3,r3,23588
  80cba8:	1085883a 	add	r2,r2,r2
  80cbac:	1885883a 	add	r2,r3,r2
  80cbb0:	11800017 	ldw	r6,0(r2)
  80cbb4:	000f883a 	mov	r7,zero
  80cbb8:	080c5400 	call	80c540 <__multadd>
  80cbbc:	1025883a 	mov	r18,r2
  80cbc0:	003fc706 	br	80cae0 <__alt_mem_onchip_mem+0xff804ae0>
  80cbc4:	05000044 	movi	r20,1
  80cbc8:	a00b883a 	mov	r5,r20
  80cbcc:	9809883a 	mov	r4,r19
  80cbd0:	080c4700 	call	80c470 <_Balloc>
  80cbd4:	1023883a 	mov	r17,r2
  80cbd8:	00809c44 	movi	r2,625
  80cbdc:	88800515 	stw	r2,20(r17)
  80cbe0:	8d000415 	stw	r20,16(r17)
  80cbe4:	9c401215 	stw	r17,72(r19)
  80cbe8:	88000015 	stw	zero,0(r17)
  80cbec:	003fc606 	br	80cb08 <__alt_mem_onchip_mem+0xff804b08>

0080cbf0 <__lshift>:
  80cbf0:	defff904 	addi	sp,sp,-28
  80cbf4:	dd400515 	stw	r21,20(sp)
  80cbf8:	dcc00315 	stw	r19,12(sp)
  80cbfc:	302bd17a 	srai	r21,r6,5
  80cc00:	2cc00417 	ldw	r19,16(r5)
  80cc04:	28800217 	ldw	r2,8(r5)
  80cc08:	dd000415 	stw	r20,16(sp)
  80cc0c:	ace7883a 	add	r19,r21,r19
  80cc10:	dc800215 	stw	r18,8(sp)
  80cc14:	dc400115 	stw	r17,4(sp)
  80cc18:	dc000015 	stw	r16,0(sp)
  80cc1c:	dfc00615 	stw	ra,24(sp)
  80cc20:	9c000044 	addi	r16,r19,1
  80cc24:	2823883a 	mov	r17,r5
  80cc28:	3029883a 	mov	r20,r6
  80cc2c:	2025883a 	mov	r18,r4
  80cc30:	29400117 	ldw	r5,4(r5)
  80cc34:	1400030e 	bge	r2,r16,80cc44 <__lshift+0x54>
  80cc38:	1085883a 	add	r2,r2,r2
  80cc3c:	29400044 	addi	r5,r5,1
  80cc40:	143ffd16 	blt	r2,r16,80cc38 <__alt_mem_onchip_mem+0xff804c38>
  80cc44:	9009883a 	mov	r4,r18
  80cc48:	080c4700 	call	80c470 <_Balloc>
  80cc4c:	10c00504 	addi	r3,r2,20
  80cc50:	0540070e 	bge	zero,r21,80cc70 <__lshift+0x80>
  80cc54:	ad6b883a 	add	r21,r21,r21
  80cc58:	ad6b883a 	add	r21,r21,r21
  80cc5c:	1809883a 	mov	r4,r3
  80cc60:	1d47883a 	add	r3,r3,r21
  80cc64:	20000015 	stw	zero,0(r4)
  80cc68:	21000104 	addi	r4,r4,4
  80cc6c:	193ffd1e 	bne	r3,r4,80cc64 <__alt_mem_onchip_mem+0xff804c64>
  80cc70:	8a000417 	ldw	r8,16(r17)
  80cc74:	89000504 	addi	r4,r17,20
  80cc78:	a18007cc 	andi	r6,r20,31
  80cc7c:	4211883a 	add	r8,r8,r8
  80cc80:	4211883a 	add	r8,r8,r8
  80cc84:	2211883a 	add	r8,r4,r8
  80cc88:	30002326 	beq	r6,zero,80cd18 <__lshift+0x128>
  80cc8c:	02400804 	movi	r9,32
  80cc90:	4993c83a 	sub	r9,r9,r6
  80cc94:	000b883a 	mov	r5,zero
  80cc98:	21c00017 	ldw	r7,0(r4)
  80cc9c:	1815883a 	mov	r10,r3
  80cca0:	18c00104 	addi	r3,r3,4
  80cca4:	398e983a 	sll	r7,r7,r6
  80cca8:	21000104 	addi	r4,r4,4
  80ccac:	394ab03a 	or	r5,r7,r5
  80ccb0:	197fff15 	stw	r5,-4(r3)
  80ccb4:	217fff17 	ldw	r5,-4(r4)
  80ccb8:	2a4ad83a 	srl	r5,r5,r9
  80ccbc:	223ff636 	bltu	r4,r8,80cc98 <__alt_mem_onchip_mem+0xff804c98>
  80ccc0:	51400115 	stw	r5,4(r10)
  80ccc4:	28001a1e 	bne	r5,zero,80cd30 <__lshift+0x140>
  80ccc8:	843fffc4 	addi	r16,r16,-1
  80cccc:	14000415 	stw	r16,16(r2)
  80ccd0:	88000826 	beq	r17,zero,80ccf4 <__lshift+0x104>
  80ccd4:	89000117 	ldw	r4,4(r17)
  80ccd8:	90c01317 	ldw	r3,76(r18)
  80ccdc:	2109883a 	add	r4,r4,r4
  80cce0:	2109883a 	add	r4,r4,r4
  80cce4:	1907883a 	add	r3,r3,r4
  80cce8:	19000017 	ldw	r4,0(r3)
  80ccec:	89000015 	stw	r4,0(r17)
  80ccf0:	1c400015 	stw	r17,0(r3)
  80ccf4:	dfc00617 	ldw	ra,24(sp)
  80ccf8:	dd400517 	ldw	r21,20(sp)
  80ccfc:	dd000417 	ldw	r20,16(sp)
  80cd00:	dcc00317 	ldw	r19,12(sp)
  80cd04:	dc800217 	ldw	r18,8(sp)
  80cd08:	dc400117 	ldw	r17,4(sp)
  80cd0c:	dc000017 	ldw	r16,0(sp)
  80cd10:	dec00704 	addi	sp,sp,28
  80cd14:	f800283a 	ret
  80cd18:	21400017 	ldw	r5,0(r4)
  80cd1c:	18c00104 	addi	r3,r3,4
  80cd20:	21000104 	addi	r4,r4,4
  80cd24:	197fff15 	stw	r5,-4(r3)
  80cd28:	223ffb36 	bltu	r4,r8,80cd18 <__alt_mem_onchip_mem+0xff804d18>
  80cd2c:	003fe606 	br	80ccc8 <__alt_mem_onchip_mem+0xff804cc8>
  80cd30:	9c000084 	addi	r16,r19,2
  80cd34:	003fe406 	br	80ccc8 <__alt_mem_onchip_mem+0xff804cc8>

0080cd38 <__mcmp>:
  80cd38:	20800417 	ldw	r2,16(r4)
  80cd3c:	28c00417 	ldw	r3,16(r5)
  80cd40:	10c5c83a 	sub	r2,r2,r3
  80cd44:	1000111e 	bne	r2,zero,80cd8c <__mcmp+0x54>
  80cd48:	18c7883a 	add	r3,r3,r3
  80cd4c:	18c7883a 	add	r3,r3,r3
  80cd50:	21000504 	addi	r4,r4,20
  80cd54:	29400504 	addi	r5,r5,20
  80cd58:	20c5883a 	add	r2,r4,r3
  80cd5c:	28cb883a 	add	r5,r5,r3
  80cd60:	00000106 	br	80cd68 <__mcmp+0x30>
  80cd64:	20800a2e 	bgeu	r4,r2,80cd90 <__mcmp+0x58>
  80cd68:	10bfff04 	addi	r2,r2,-4
  80cd6c:	297fff04 	addi	r5,r5,-4
  80cd70:	11800017 	ldw	r6,0(r2)
  80cd74:	28c00017 	ldw	r3,0(r5)
  80cd78:	30fffa26 	beq	r6,r3,80cd64 <__alt_mem_onchip_mem+0xff804d64>
  80cd7c:	30c00236 	bltu	r6,r3,80cd88 <__mcmp+0x50>
  80cd80:	00800044 	movi	r2,1
  80cd84:	f800283a 	ret
  80cd88:	00bfffc4 	movi	r2,-1
  80cd8c:	f800283a 	ret
  80cd90:	0005883a 	mov	r2,zero
  80cd94:	f800283a 	ret

0080cd98 <__mdiff>:
  80cd98:	28c00417 	ldw	r3,16(r5)
  80cd9c:	30800417 	ldw	r2,16(r6)
  80cda0:	defffa04 	addi	sp,sp,-24
  80cda4:	dcc00315 	stw	r19,12(sp)
  80cda8:	dc800215 	stw	r18,8(sp)
  80cdac:	dfc00515 	stw	ra,20(sp)
  80cdb0:	dd000415 	stw	r20,16(sp)
  80cdb4:	dc400115 	stw	r17,4(sp)
  80cdb8:	dc000015 	stw	r16,0(sp)
  80cdbc:	1887c83a 	sub	r3,r3,r2
  80cdc0:	2825883a 	mov	r18,r5
  80cdc4:	3027883a 	mov	r19,r6
  80cdc8:	1800141e 	bne	r3,zero,80ce1c <__mdiff+0x84>
  80cdcc:	1085883a 	add	r2,r2,r2
  80cdd0:	1085883a 	add	r2,r2,r2
  80cdd4:	2a000504 	addi	r8,r5,20
  80cdd8:	34000504 	addi	r16,r6,20
  80cddc:	4087883a 	add	r3,r8,r2
  80cde0:	8085883a 	add	r2,r16,r2
  80cde4:	00000106 	br	80cdec <__mdiff+0x54>
  80cde8:	40c0592e 	bgeu	r8,r3,80cf50 <__mdiff+0x1b8>
  80cdec:	18ffff04 	addi	r3,r3,-4
  80cdf0:	10bfff04 	addi	r2,r2,-4
  80cdf4:	19c00017 	ldw	r7,0(r3)
  80cdf8:	11400017 	ldw	r5,0(r2)
  80cdfc:	397ffa26 	beq	r7,r5,80cde8 <__alt_mem_onchip_mem+0xff804de8>
  80ce00:	3940592e 	bgeu	r7,r5,80cf68 <__mdiff+0x1d0>
  80ce04:	9005883a 	mov	r2,r18
  80ce08:	4023883a 	mov	r17,r8
  80ce0c:	9825883a 	mov	r18,r19
  80ce10:	05000044 	movi	r20,1
  80ce14:	1027883a 	mov	r19,r2
  80ce18:	00000406 	br	80ce2c <__mdiff+0x94>
  80ce1c:	18005616 	blt	r3,zero,80cf78 <__mdiff+0x1e0>
  80ce20:	34400504 	addi	r17,r6,20
  80ce24:	2c000504 	addi	r16,r5,20
  80ce28:	0029883a 	mov	r20,zero
  80ce2c:	91400117 	ldw	r5,4(r18)
  80ce30:	080c4700 	call	80c470 <_Balloc>
  80ce34:	92400417 	ldw	r9,16(r18)
  80ce38:	9b000417 	ldw	r12,16(r19)
  80ce3c:	12c00504 	addi	r11,r2,20
  80ce40:	4a51883a 	add	r8,r9,r9
  80ce44:	6319883a 	add	r12,r12,r12
  80ce48:	4211883a 	add	r8,r8,r8
  80ce4c:	6319883a 	add	r12,r12,r12
  80ce50:	15000315 	stw	r20,12(r2)
  80ce54:	8211883a 	add	r8,r16,r8
  80ce58:	8b19883a 	add	r12,r17,r12
  80ce5c:	0007883a 	mov	r3,zero
  80ce60:	81400017 	ldw	r5,0(r16)
  80ce64:	89c00017 	ldw	r7,0(r17)
  80ce68:	59800104 	addi	r6,r11,4
  80ce6c:	293fffcc 	andi	r4,r5,65535
  80ce70:	20c7883a 	add	r3,r4,r3
  80ce74:	393fffcc 	andi	r4,r7,65535
  80ce78:	1909c83a 	sub	r4,r3,r4
  80ce7c:	280ad43a 	srli	r5,r5,16
  80ce80:	380ed43a 	srli	r7,r7,16
  80ce84:	2007d43a 	srai	r3,r4,16
  80ce88:	213fffcc 	andi	r4,r4,65535
  80ce8c:	29cbc83a 	sub	r5,r5,r7
  80ce90:	28c7883a 	add	r3,r5,r3
  80ce94:	180a943a 	slli	r5,r3,16
  80ce98:	8c400104 	addi	r17,r17,4
  80ce9c:	84000104 	addi	r16,r16,4
  80cea0:	2908b03a 	or	r4,r5,r4
  80cea4:	59000015 	stw	r4,0(r11)
  80cea8:	1807d43a 	srai	r3,r3,16
  80ceac:	3015883a 	mov	r10,r6
  80ceb0:	3017883a 	mov	r11,r6
  80ceb4:	8b3fea36 	bltu	r17,r12,80ce60 <__alt_mem_onchip_mem+0xff804e60>
  80ceb8:	8200162e 	bgeu	r16,r8,80cf14 <__mdiff+0x17c>
  80cebc:	8017883a 	mov	r11,r16
  80cec0:	59400017 	ldw	r5,0(r11)
  80cec4:	31800104 	addi	r6,r6,4
  80cec8:	5ac00104 	addi	r11,r11,4
  80cecc:	293fffcc 	andi	r4,r5,65535
  80ced0:	20c7883a 	add	r3,r4,r3
  80ced4:	280ed43a 	srli	r7,r5,16
  80ced8:	180bd43a 	srai	r5,r3,16
  80cedc:	193fffcc 	andi	r4,r3,65535
  80cee0:	3947883a 	add	r3,r7,r5
  80cee4:	180a943a 	slli	r5,r3,16
  80cee8:	1807d43a 	srai	r3,r3,16
  80ceec:	2908b03a 	or	r4,r5,r4
  80cef0:	313fff15 	stw	r4,-4(r6)
  80cef4:	5a3ff236 	bltu	r11,r8,80cec0 <__alt_mem_onchip_mem+0xff804ec0>
  80cef8:	0406303a 	nor	r3,zero,r16
  80cefc:	1a07883a 	add	r3,r3,r8
  80cf00:	1806d0ba 	srli	r3,r3,2
  80cf04:	18c00044 	addi	r3,r3,1
  80cf08:	18c7883a 	add	r3,r3,r3
  80cf0c:	18c7883a 	add	r3,r3,r3
  80cf10:	50d5883a 	add	r10,r10,r3
  80cf14:	50ffff04 	addi	r3,r10,-4
  80cf18:	2000041e 	bne	r4,zero,80cf2c <__mdiff+0x194>
  80cf1c:	18ffff04 	addi	r3,r3,-4
  80cf20:	19000017 	ldw	r4,0(r3)
  80cf24:	4a7fffc4 	addi	r9,r9,-1
  80cf28:	203ffc26 	beq	r4,zero,80cf1c <__alt_mem_onchip_mem+0xff804f1c>
  80cf2c:	12400415 	stw	r9,16(r2)
  80cf30:	dfc00517 	ldw	ra,20(sp)
  80cf34:	dd000417 	ldw	r20,16(sp)
  80cf38:	dcc00317 	ldw	r19,12(sp)
  80cf3c:	dc800217 	ldw	r18,8(sp)
  80cf40:	dc400117 	ldw	r17,4(sp)
  80cf44:	dc000017 	ldw	r16,0(sp)
  80cf48:	dec00604 	addi	sp,sp,24
  80cf4c:	f800283a 	ret
  80cf50:	000b883a 	mov	r5,zero
  80cf54:	080c4700 	call	80c470 <_Balloc>
  80cf58:	00c00044 	movi	r3,1
  80cf5c:	10c00415 	stw	r3,16(r2)
  80cf60:	10000515 	stw	zero,20(r2)
  80cf64:	003ff206 	br	80cf30 <__alt_mem_onchip_mem+0xff804f30>
  80cf68:	8023883a 	mov	r17,r16
  80cf6c:	0029883a 	mov	r20,zero
  80cf70:	4021883a 	mov	r16,r8
  80cf74:	003fad06 	br	80ce2c <__alt_mem_onchip_mem+0xff804e2c>
  80cf78:	9005883a 	mov	r2,r18
  80cf7c:	94400504 	addi	r17,r18,20
  80cf80:	9c000504 	addi	r16,r19,20
  80cf84:	9825883a 	mov	r18,r19
  80cf88:	05000044 	movi	r20,1
  80cf8c:	1027883a 	mov	r19,r2
  80cf90:	003fa606 	br	80ce2c <__alt_mem_onchip_mem+0xff804e2c>

0080cf94 <__ulp>:
  80cf94:	295ffc2c 	andhi	r5,r5,32752
  80cf98:	00bf3034 	movhi	r2,64704
  80cf9c:	2887883a 	add	r3,r5,r2
  80cfa0:	00c0020e 	bge	zero,r3,80cfac <__ulp+0x18>
  80cfa4:	0005883a 	mov	r2,zero
  80cfa8:	f800283a 	ret
  80cfac:	00c7c83a 	sub	r3,zero,r3
  80cfb0:	1807d53a 	srai	r3,r3,20
  80cfb4:	008004c4 	movi	r2,19
  80cfb8:	10c00b0e 	bge	r2,r3,80cfe8 <__ulp+0x54>
  80cfbc:	18bffb04 	addi	r2,r3,-20
  80cfc0:	01000784 	movi	r4,30
  80cfc4:	0007883a 	mov	r3,zero
  80cfc8:	20800516 	blt	r4,r2,80cfe0 <__ulp+0x4c>
  80cfcc:	010007c4 	movi	r4,31
  80cfd0:	2089c83a 	sub	r4,r4,r2
  80cfd4:	00800044 	movi	r2,1
  80cfd8:	1104983a 	sll	r2,r2,r4
  80cfdc:	f800283a 	ret
  80cfe0:	00800044 	movi	r2,1
  80cfe4:	f800283a 	ret
  80cfe8:	01400234 	movhi	r5,8
  80cfec:	28c7d83a 	sra	r3,r5,r3
  80cff0:	0005883a 	mov	r2,zero
  80cff4:	f800283a 	ret

0080cff8 <__b2d>:
  80cff8:	defffa04 	addi	sp,sp,-24
  80cffc:	dc000015 	stw	r16,0(sp)
  80d000:	24000417 	ldw	r16,16(r4)
  80d004:	dc400115 	stw	r17,4(sp)
  80d008:	24400504 	addi	r17,r4,20
  80d00c:	8421883a 	add	r16,r16,r16
  80d010:	8421883a 	add	r16,r16,r16
  80d014:	8c21883a 	add	r16,r17,r16
  80d018:	dc800215 	stw	r18,8(sp)
  80d01c:	84bfff17 	ldw	r18,-4(r16)
  80d020:	dd000415 	stw	r20,16(sp)
  80d024:	dcc00315 	stw	r19,12(sp)
  80d028:	9009883a 	mov	r4,r18
  80d02c:	2829883a 	mov	r20,r5
  80d030:	dfc00515 	stw	ra,20(sp)
  80d034:	080c7640 	call	80c764 <__hi0bits>
  80d038:	00c00804 	movi	r3,32
  80d03c:	1889c83a 	sub	r4,r3,r2
  80d040:	a1000015 	stw	r4,0(r20)
  80d044:	01000284 	movi	r4,10
  80d048:	84ffff04 	addi	r19,r16,-4
  80d04c:	20801216 	blt	r4,r2,80d098 <__b2d+0xa0>
  80d050:	018002c4 	movi	r6,11
  80d054:	308dc83a 	sub	r6,r6,r2
  80d058:	9186d83a 	srl	r3,r18,r6
  80d05c:	18cffc34 	orhi	r3,r3,16368
  80d060:	8cc0212e 	bgeu	r17,r19,80d0e8 <__b2d+0xf0>
  80d064:	813ffe17 	ldw	r4,-8(r16)
  80d068:	218cd83a 	srl	r6,r4,r6
  80d06c:	10800544 	addi	r2,r2,21
  80d070:	9084983a 	sll	r2,r18,r2
  80d074:	1184b03a 	or	r2,r2,r6
  80d078:	dfc00517 	ldw	ra,20(sp)
  80d07c:	dd000417 	ldw	r20,16(sp)
  80d080:	dcc00317 	ldw	r19,12(sp)
  80d084:	dc800217 	ldw	r18,8(sp)
  80d088:	dc400117 	ldw	r17,4(sp)
  80d08c:	dc000017 	ldw	r16,0(sp)
  80d090:	dec00604 	addi	sp,sp,24
  80d094:	f800283a 	ret
  80d098:	8cc00f2e 	bgeu	r17,r19,80d0d8 <__b2d+0xe0>
  80d09c:	117ffd44 	addi	r5,r2,-11
  80d0a0:	80bffe17 	ldw	r2,-8(r16)
  80d0a4:	28000e26 	beq	r5,zero,80d0e0 <__b2d+0xe8>
  80d0a8:	1949c83a 	sub	r4,r3,r5
  80d0ac:	9164983a 	sll	r18,r18,r5
  80d0b0:	1106d83a 	srl	r3,r2,r4
  80d0b4:	81bffe04 	addi	r6,r16,-8
  80d0b8:	948ffc34 	orhi	r18,r18,16368
  80d0bc:	90c6b03a 	or	r3,r18,r3
  80d0c0:	89800e2e 	bgeu	r17,r6,80d0fc <__b2d+0x104>
  80d0c4:	81bffd17 	ldw	r6,-12(r16)
  80d0c8:	1144983a 	sll	r2,r2,r5
  80d0cc:	310ad83a 	srl	r5,r6,r4
  80d0d0:	2884b03a 	or	r2,r5,r2
  80d0d4:	003fe806 	br	80d078 <__alt_mem_onchip_mem+0xff805078>
  80d0d8:	10bffd44 	addi	r2,r2,-11
  80d0dc:	1000041e 	bne	r2,zero,80d0f0 <__b2d+0xf8>
  80d0e0:	90cffc34 	orhi	r3,r18,16368
  80d0e4:	003fe406 	br	80d078 <__alt_mem_onchip_mem+0xff805078>
  80d0e8:	000d883a 	mov	r6,zero
  80d0ec:	003fdf06 	br	80d06c <__alt_mem_onchip_mem+0xff80506c>
  80d0f0:	90a4983a 	sll	r18,r18,r2
  80d0f4:	0005883a 	mov	r2,zero
  80d0f8:	003ff906 	br	80d0e0 <__alt_mem_onchip_mem+0xff8050e0>
  80d0fc:	1144983a 	sll	r2,r2,r5
  80d100:	003fdd06 	br	80d078 <__alt_mem_onchip_mem+0xff805078>

0080d104 <__d2b>:
  80d104:	defff804 	addi	sp,sp,-32
  80d108:	dc000215 	stw	r16,8(sp)
  80d10c:	3021883a 	mov	r16,r6
  80d110:	dc400315 	stw	r17,12(sp)
  80d114:	8022907a 	slli	r17,r16,1
  80d118:	dd000615 	stw	r20,24(sp)
  80d11c:	2829883a 	mov	r20,r5
  80d120:	01400044 	movi	r5,1
  80d124:	dcc00515 	stw	r19,20(sp)
  80d128:	dc800415 	stw	r18,16(sp)
  80d12c:	dfc00715 	stw	ra,28(sp)
  80d130:	3825883a 	mov	r18,r7
  80d134:	8822d57a 	srli	r17,r17,21
  80d138:	080c4700 	call	80c470 <_Balloc>
  80d13c:	1027883a 	mov	r19,r2
  80d140:	00800434 	movhi	r2,16
  80d144:	10bfffc4 	addi	r2,r2,-1
  80d148:	808c703a 	and	r6,r16,r2
  80d14c:	88000126 	beq	r17,zero,80d154 <__d2b+0x50>
  80d150:	31800434 	orhi	r6,r6,16
  80d154:	d9800015 	stw	r6,0(sp)
  80d158:	a0002426 	beq	r20,zero,80d1ec <__d2b+0xe8>
  80d15c:	d9000104 	addi	r4,sp,4
  80d160:	dd000115 	stw	r20,4(sp)
  80d164:	080c7cc0 	call	80c7cc <__lo0bits>
  80d168:	d8c00017 	ldw	r3,0(sp)
  80d16c:	10002f1e 	bne	r2,zero,80d22c <__d2b+0x128>
  80d170:	d9000117 	ldw	r4,4(sp)
  80d174:	99000515 	stw	r4,20(r19)
  80d178:	1821003a 	cmpeq	r16,r3,zero
  80d17c:	01000084 	movi	r4,2
  80d180:	2421c83a 	sub	r16,r4,r16
  80d184:	98c00615 	stw	r3,24(r19)
  80d188:	9c000415 	stw	r16,16(r19)
  80d18c:	88001f1e 	bne	r17,zero,80d20c <__d2b+0x108>
  80d190:	10bef384 	addi	r2,r2,-1074
  80d194:	90800015 	stw	r2,0(r18)
  80d198:	00900034 	movhi	r2,16384
  80d19c:	10bfffc4 	addi	r2,r2,-1
  80d1a0:	8085883a 	add	r2,r16,r2
  80d1a4:	1085883a 	add	r2,r2,r2
  80d1a8:	1085883a 	add	r2,r2,r2
  80d1ac:	9885883a 	add	r2,r19,r2
  80d1b0:	11000517 	ldw	r4,20(r2)
  80d1b4:	8020917a 	slli	r16,r16,5
  80d1b8:	080c7640 	call	80c764 <__hi0bits>
  80d1bc:	d8c00817 	ldw	r3,32(sp)
  80d1c0:	8085c83a 	sub	r2,r16,r2
  80d1c4:	18800015 	stw	r2,0(r3)
  80d1c8:	9805883a 	mov	r2,r19
  80d1cc:	dfc00717 	ldw	ra,28(sp)
  80d1d0:	dd000617 	ldw	r20,24(sp)
  80d1d4:	dcc00517 	ldw	r19,20(sp)
  80d1d8:	dc800417 	ldw	r18,16(sp)
  80d1dc:	dc400317 	ldw	r17,12(sp)
  80d1e0:	dc000217 	ldw	r16,8(sp)
  80d1e4:	dec00804 	addi	sp,sp,32
  80d1e8:	f800283a 	ret
  80d1ec:	d809883a 	mov	r4,sp
  80d1f0:	080c7cc0 	call	80c7cc <__lo0bits>
  80d1f4:	d8c00017 	ldw	r3,0(sp)
  80d1f8:	04000044 	movi	r16,1
  80d1fc:	9c000415 	stw	r16,16(r19)
  80d200:	98c00515 	stw	r3,20(r19)
  80d204:	10800804 	addi	r2,r2,32
  80d208:	883fe126 	beq	r17,zero,80d190 <__alt_mem_onchip_mem+0xff805190>
  80d20c:	00c00d44 	movi	r3,53
  80d210:	8c7ef344 	addi	r17,r17,-1075
  80d214:	88a3883a 	add	r17,r17,r2
  80d218:	1885c83a 	sub	r2,r3,r2
  80d21c:	d8c00817 	ldw	r3,32(sp)
  80d220:	94400015 	stw	r17,0(r18)
  80d224:	18800015 	stw	r2,0(r3)
  80d228:	003fe706 	br	80d1c8 <__alt_mem_onchip_mem+0xff8051c8>
  80d22c:	01000804 	movi	r4,32
  80d230:	2089c83a 	sub	r4,r4,r2
  80d234:	1908983a 	sll	r4,r3,r4
  80d238:	d9400117 	ldw	r5,4(sp)
  80d23c:	1886d83a 	srl	r3,r3,r2
  80d240:	2148b03a 	or	r4,r4,r5
  80d244:	99000515 	stw	r4,20(r19)
  80d248:	d8c00015 	stw	r3,0(sp)
  80d24c:	003fca06 	br	80d178 <__alt_mem_onchip_mem+0xff805178>

0080d250 <__ratio>:
  80d250:	defff904 	addi	sp,sp,-28
  80d254:	dc400315 	stw	r17,12(sp)
  80d258:	2823883a 	mov	r17,r5
  80d25c:	d9400104 	addi	r5,sp,4
  80d260:	dfc00615 	stw	ra,24(sp)
  80d264:	dcc00515 	stw	r19,20(sp)
  80d268:	dc800415 	stw	r18,16(sp)
  80d26c:	2027883a 	mov	r19,r4
  80d270:	dc000215 	stw	r16,8(sp)
  80d274:	080cff80 	call	80cff8 <__b2d>
  80d278:	d80b883a 	mov	r5,sp
  80d27c:	8809883a 	mov	r4,r17
  80d280:	1025883a 	mov	r18,r2
  80d284:	1821883a 	mov	r16,r3
  80d288:	080cff80 	call	80cff8 <__b2d>
  80d28c:	8a000417 	ldw	r8,16(r17)
  80d290:	99000417 	ldw	r4,16(r19)
  80d294:	d9400117 	ldw	r5,4(sp)
  80d298:	2209c83a 	sub	r4,r4,r8
  80d29c:	2010917a 	slli	r8,r4,5
  80d2a0:	d9000017 	ldw	r4,0(sp)
  80d2a4:	2909c83a 	sub	r4,r5,r4
  80d2a8:	4109883a 	add	r4,r8,r4
  80d2ac:	01000e0e 	bge	zero,r4,80d2e8 <__ratio+0x98>
  80d2b0:	2008953a 	slli	r4,r4,20
  80d2b4:	2421883a 	add	r16,r4,r16
  80d2b8:	100d883a 	mov	r6,r2
  80d2bc:	180f883a 	mov	r7,r3
  80d2c0:	9009883a 	mov	r4,r18
  80d2c4:	800b883a 	mov	r5,r16
  80d2c8:	0810f400 	call	810f40 <__divdf3>
  80d2cc:	dfc00617 	ldw	ra,24(sp)
  80d2d0:	dcc00517 	ldw	r19,20(sp)
  80d2d4:	dc800417 	ldw	r18,16(sp)
  80d2d8:	dc400317 	ldw	r17,12(sp)
  80d2dc:	dc000217 	ldw	r16,8(sp)
  80d2e0:	dec00704 	addi	sp,sp,28
  80d2e4:	f800283a 	ret
  80d2e8:	2008953a 	slli	r4,r4,20
  80d2ec:	1907c83a 	sub	r3,r3,r4
  80d2f0:	003ff106 	br	80d2b8 <__alt_mem_onchip_mem+0xff8052b8>

0080d2f4 <_mprec_log10>:
  80d2f4:	defffe04 	addi	sp,sp,-8
  80d2f8:	dc000015 	stw	r16,0(sp)
  80d2fc:	dfc00115 	stw	ra,4(sp)
  80d300:	008005c4 	movi	r2,23
  80d304:	2021883a 	mov	r16,r4
  80d308:	11000d0e 	bge	r2,r4,80d340 <_mprec_log10+0x4c>
  80d30c:	0005883a 	mov	r2,zero
  80d310:	00cffc34 	movhi	r3,16368
  80d314:	843fffc4 	addi	r16,r16,-1
  80d318:	000d883a 	mov	r6,zero
  80d31c:	01d00934 	movhi	r7,16420
  80d320:	1009883a 	mov	r4,r2
  80d324:	180b883a 	mov	r5,r3
  80d328:	0805b600 	call	805b60 <__muldf3>
  80d32c:	803ff91e 	bne	r16,zero,80d314 <__alt_mem_onchip_mem+0xff805314>
  80d330:	dfc00117 	ldw	ra,4(sp)
  80d334:	dc000017 	ldw	r16,0(sp)
  80d338:	dec00204 	addi	sp,sp,8
  80d33c:	f800283a 	ret
  80d340:	202090fa 	slli	r16,r4,3
  80d344:	00802074 	movhi	r2,129
  80d348:	10972004 	addi	r2,r2,23680
  80d34c:	1421883a 	add	r16,r2,r16
  80d350:	80800017 	ldw	r2,0(r16)
  80d354:	80c00117 	ldw	r3,4(r16)
  80d358:	dfc00117 	ldw	ra,4(sp)
  80d35c:	dc000017 	ldw	r16,0(sp)
  80d360:	dec00204 	addi	sp,sp,8
  80d364:	f800283a 	ret

0080d368 <__copybits>:
  80d368:	297fffc4 	addi	r5,r5,-1
  80d36c:	280fd17a 	srai	r7,r5,5
  80d370:	30c00417 	ldw	r3,16(r6)
  80d374:	30800504 	addi	r2,r6,20
  80d378:	39c00044 	addi	r7,r7,1
  80d37c:	18c7883a 	add	r3,r3,r3
  80d380:	39cf883a 	add	r7,r7,r7
  80d384:	18c7883a 	add	r3,r3,r3
  80d388:	39cf883a 	add	r7,r7,r7
  80d38c:	10c7883a 	add	r3,r2,r3
  80d390:	21cf883a 	add	r7,r4,r7
  80d394:	10c00d2e 	bgeu	r2,r3,80d3cc <__copybits+0x64>
  80d398:	200b883a 	mov	r5,r4
  80d39c:	12000017 	ldw	r8,0(r2)
  80d3a0:	29400104 	addi	r5,r5,4
  80d3a4:	10800104 	addi	r2,r2,4
  80d3a8:	2a3fff15 	stw	r8,-4(r5)
  80d3ac:	10fffb36 	bltu	r2,r3,80d39c <__alt_mem_onchip_mem+0xff80539c>
  80d3b0:	1985c83a 	sub	r2,r3,r6
  80d3b4:	10bffac4 	addi	r2,r2,-21
  80d3b8:	1004d0ba 	srli	r2,r2,2
  80d3bc:	10800044 	addi	r2,r2,1
  80d3c0:	1085883a 	add	r2,r2,r2
  80d3c4:	1085883a 	add	r2,r2,r2
  80d3c8:	2089883a 	add	r4,r4,r2
  80d3cc:	21c0032e 	bgeu	r4,r7,80d3dc <__copybits+0x74>
  80d3d0:	20000015 	stw	zero,0(r4)
  80d3d4:	21000104 	addi	r4,r4,4
  80d3d8:	21fffd36 	bltu	r4,r7,80d3d0 <__alt_mem_onchip_mem+0xff8053d0>
  80d3dc:	f800283a 	ret

0080d3e0 <__any_on>:
  80d3e0:	20c00417 	ldw	r3,16(r4)
  80d3e4:	2805d17a 	srai	r2,r5,5
  80d3e8:	21000504 	addi	r4,r4,20
  80d3ec:	18800d0e 	bge	r3,r2,80d424 <__any_on+0x44>
  80d3f0:	18c7883a 	add	r3,r3,r3
  80d3f4:	18c7883a 	add	r3,r3,r3
  80d3f8:	20c7883a 	add	r3,r4,r3
  80d3fc:	20c0192e 	bgeu	r4,r3,80d464 <__any_on+0x84>
  80d400:	18bfff17 	ldw	r2,-4(r3)
  80d404:	18ffff04 	addi	r3,r3,-4
  80d408:	1000041e 	bne	r2,zero,80d41c <__any_on+0x3c>
  80d40c:	20c0142e 	bgeu	r4,r3,80d460 <__any_on+0x80>
  80d410:	18ffff04 	addi	r3,r3,-4
  80d414:	19400017 	ldw	r5,0(r3)
  80d418:	283ffc26 	beq	r5,zero,80d40c <__alt_mem_onchip_mem+0xff80540c>
  80d41c:	00800044 	movi	r2,1
  80d420:	f800283a 	ret
  80d424:	10c00a0e 	bge	r2,r3,80d450 <__any_on+0x70>
  80d428:	1085883a 	add	r2,r2,r2
  80d42c:	1085883a 	add	r2,r2,r2
  80d430:	294007cc 	andi	r5,r5,31
  80d434:	2087883a 	add	r3,r4,r2
  80d438:	283ff026 	beq	r5,zero,80d3fc <__alt_mem_onchip_mem+0xff8053fc>
  80d43c:	19800017 	ldw	r6,0(r3)
  80d440:	3144d83a 	srl	r2,r6,r5
  80d444:	114a983a 	sll	r5,r2,r5
  80d448:	317ff41e 	bne	r6,r5,80d41c <__alt_mem_onchip_mem+0xff80541c>
  80d44c:	003feb06 	br	80d3fc <__alt_mem_onchip_mem+0xff8053fc>
  80d450:	1085883a 	add	r2,r2,r2
  80d454:	1085883a 	add	r2,r2,r2
  80d458:	2087883a 	add	r3,r4,r2
  80d45c:	003fe706 	br	80d3fc <__alt_mem_onchip_mem+0xff8053fc>
  80d460:	f800283a 	ret
  80d464:	0005883a 	mov	r2,zero
  80d468:	f800283a 	ret

0080d46c <__fpclassifyd>:
  80d46c:	00a00034 	movhi	r2,32768
  80d470:	10bfffc4 	addi	r2,r2,-1
  80d474:	2884703a 	and	r2,r5,r2
  80d478:	10000726 	beq	r2,zero,80d498 <__fpclassifyd+0x2c>
  80d47c:	00fffc34 	movhi	r3,65520
  80d480:	019ff834 	movhi	r6,32736
  80d484:	28c7883a 	add	r3,r5,r3
  80d488:	31bfffc4 	addi	r6,r6,-1
  80d48c:	30c00536 	bltu	r6,r3,80d4a4 <__fpclassifyd+0x38>
  80d490:	00800104 	movi	r2,4
  80d494:	f800283a 	ret
  80d498:	2000021e 	bne	r4,zero,80d4a4 <__fpclassifyd+0x38>
  80d49c:	00800084 	movi	r2,2
  80d4a0:	f800283a 	ret
  80d4a4:	00dffc34 	movhi	r3,32752
  80d4a8:	019ff834 	movhi	r6,32736
  80d4ac:	28cb883a 	add	r5,r5,r3
  80d4b0:	31bfffc4 	addi	r6,r6,-1
  80d4b4:	317ff62e 	bgeu	r6,r5,80d490 <__alt_mem_onchip_mem+0xff805490>
  80d4b8:	01400434 	movhi	r5,16
  80d4bc:	297fffc4 	addi	r5,r5,-1
  80d4c0:	28800236 	bltu	r5,r2,80d4cc <__fpclassifyd+0x60>
  80d4c4:	008000c4 	movi	r2,3
  80d4c8:	f800283a 	ret
  80d4cc:	10c00226 	beq	r2,r3,80d4d8 <__fpclassifyd+0x6c>
  80d4d0:	0005883a 	mov	r2,zero
  80d4d4:	f800283a 	ret
  80d4d8:	2005003a 	cmpeq	r2,r4,zero
  80d4dc:	f800283a 	ret

0080d4e0 <_sbrk_r>:
  80d4e0:	defffd04 	addi	sp,sp,-12
  80d4e4:	dc000015 	stw	r16,0(sp)
  80d4e8:	040020b4 	movhi	r16,130
  80d4ec:	dc400115 	stw	r17,4(sp)
  80d4f0:	84268a04 	addi	r16,r16,-26072
  80d4f4:	2023883a 	mov	r17,r4
  80d4f8:	2809883a 	mov	r4,r5
  80d4fc:	dfc00215 	stw	ra,8(sp)
  80d500:	80000015 	stw	zero,0(r16)
  80d504:	081245c0 	call	81245c <sbrk>
  80d508:	00ffffc4 	movi	r3,-1
  80d50c:	10c00526 	beq	r2,r3,80d524 <_sbrk_r+0x44>
  80d510:	dfc00217 	ldw	ra,8(sp)
  80d514:	dc400117 	ldw	r17,4(sp)
  80d518:	dc000017 	ldw	r16,0(sp)
  80d51c:	dec00304 	addi	sp,sp,12
  80d520:	f800283a 	ret
  80d524:	80c00017 	ldw	r3,0(r16)
  80d528:	183ff926 	beq	r3,zero,80d510 <__alt_mem_onchip_mem+0xff805510>
  80d52c:	88c00015 	stw	r3,0(r17)
  80d530:	003ff706 	br	80d510 <__alt_mem_onchip_mem+0xff805510>

0080d534 <__sread>:
  80d534:	defffe04 	addi	sp,sp,-8
  80d538:	dc000015 	stw	r16,0(sp)
  80d53c:	2821883a 	mov	r16,r5
  80d540:	2940038f 	ldh	r5,14(r5)
  80d544:	dfc00115 	stw	ra,4(sp)
  80d548:	080f9d80 	call	80f9d8 <_read_r>
  80d54c:	10000716 	blt	r2,zero,80d56c <__sread+0x38>
  80d550:	80c01417 	ldw	r3,80(r16)
  80d554:	1887883a 	add	r3,r3,r2
  80d558:	80c01415 	stw	r3,80(r16)
  80d55c:	dfc00117 	ldw	ra,4(sp)
  80d560:	dc000017 	ldw	r16,0(sp)
  80d564:	dec00204 	addi	sp,sp,8
  80d568:	f800283a 	ret
  80d56c:	80c0030b 	ldhu	r3,12(r16)
  80d570:	18fbffcc 	andi	r3,r3,61439
  80d574:	80c0030d 	sth	r3,12(r16)
  80d578:	dfc00117 	ldw	ra,4(sp)
  80d57c:	dc000017 	ldw	r16,0(sp)
  80d580:	dec00204 	addi	sp,sp,8
  80d584:	f800283a 	ret

0080d588 <__seofread>:
  80d588:	0005883a 	mov	r2,zero
  80d58c:	f800283a 	ret

0080d590 <__swrite>:
  80d590:	2880030b 	ldhu	r2,12(r5)
  80d594:	defffb04 	addi	sp,sp,-20
  80d598:	dcc00315 	stw	r19,12(sp)
  80d59c:	dc800215 	stw	r18,8(sp)
  80d5a0:	dc400115 	stw	r17,4(sp)
  80d5a4:	dc000015 	stw	r16,0(sp)
  80d5a8:	dfc00415 	stw	ra,16(sp)
  80d5ac:	10c0400c 	andi	r3,r2,256
  80d5b0:	2821883a 	mov	r16,r5
  80d5b4:	2023883a 	mov	r17,r4
  80d5b8:	3025883a 	mov	r18,r6
  80d5bc:	3827883a 	mov	r19,r7
  80d5c0:	18000526 	beq	r3,zero,80d5d8 <__swrite+0x48>
  80d5c4:	2940038f 	ldh	r5,14(r5)
  80d5c8:	01c00084 	movi	r7,2
  80d5cc:	000d883a 	mov	r6,zero
  80d5d0:	080f81c0 	call	80f81c <_lseek_r>
  80d5d4:	8080030b 	ldhu	r2,12(r16)
  80d5d8:	8140038f 	ldh	r5,14(r16)
  80d5dc:	10bbffcc 	andi	r2,r2,61439
  80d5e0:	980f883a 	mov	r7,r19
  80d5e4:	900d883a 	mov	r6,r18
  80d5e8:	8809883a 	mov	r4,r17
  80d5ec:	8080030d 	sth	r2,12(r16)
  80d5f0:	dfc00417 	ldw	ra,16(sp)
  80d5f4:	dcc00317 	ldw	r19,12(sp)
  80d5f8:	dc800217 	ldw	r18,8(sp)
  80d5fc:	dc400117 	ldw	r17,4(sp)
  80d600:	dc000017 	ldw	r16,0(sp)
  80d604:	dec00504 	addi	sp,sp,20
  80d608:	080ee2c1 	jmpi	80ee2c <_write_r>

0080d60c <__sseek>:
  80d60c:	defffe04 	addi	sp,sp,-8
  80d610:	dc000015 	stw	r16,0(sp)
  80d614:	2821883a 	mov	r16,r5
  80d618:	2940038f 	ldh	r5,14(r5)
  80d61c:	dfc00115 	stw	ra,4(sp)
  80d620:	080f81c0 	call	80f81c <_lseek_r>
  80d624:	00ffffc4 	movi	r3,-1
  80d628:	10c00826 	beq	r2,r3,80d64c <__sseek+0x40>
  80d62c:	80c0030b 	ldhu	r3,12(r16)
  80d630:	80801415 	stw	r2,80(r16)
  80d634:	18c40014 	ori	r3,r3,4096
  80d638:	80c0030d 	sth	r3,12(r16)
  80d63c:	dfc00117 	ldw	ra,4(sp)
  80d640:	dc000017 	ldw	r16,0(sp)
  80d644:	dec00204 	addi	sp,sp,8
  80d648:	f800283a 	ret
  80d64c:	80c0030b 	ldhu	r3,12(r16)
  80d650:	18fbffcc 	andi	r3,r3,61439
  80d654:	80c0030d 	sth	r3,12(r16)
  80d658:	dfc00117 	ldw	ra,4(sp)
  80d65c:	dc000017 	ldw	r16,0(sp)
  80d660:	dec00204 	addi	sp,sp,8
  80d664:	f800283a 	ret

0080d668 <__sclose>:
  80d668:	2940038f 	ldh	r5,14(r5)
  80d66c:	080ee8c1 	jmpi	80ee8c <_close_r>

0080d670 <strcmp>:
  80d670:	2144b03a 	or	r2,r4,r5
  80d674:	108000cc 	andi	r2,r2,3
  80d678:	1000171e 	bne	r2,zero,80d6d8 <strcmp+0x68>
  80d67c:	20800017 	ldw	r2,0(r4)
  80d680:	28c00017 	ldw	r3,0(r5)
  80d684:	10c0141e 	bne	r2,r3,80d6d8 <strcmp+0x68>
  80d688:	027fbff4 	movhi	r9,65279
  80d68c:	4a7fbfc4 	addi	r9,r9,-257
  80d690:	0086303a 	nor	r3,zero,r2
  80d694:	02202074 	movhi	r8,32897
  80d698:	1245883a 	add	r2,r2,r9
  80d69c:	42202004 	addi	r8,r8,-32640
  80d6a0:	10c4703a 	and	r2,r2,r3
  80d6a4:	1204703a 	and	r2,r2,r8
  80d6a8:	10000226 	beq	r2,zero,80d6b4 <strcmp+0x44>
  80d6ac:	00002306 	br	80d73c <strcmp+0xcc>
  80d6b0:	1000221e 	bne	r2,zero,80d73c <strcmp+0xcc>
  80d6b4:	21000104 	addi	r4,r4,4
  80d6b8:	20c00017 	ldw	r3,0(r4)
  80d6bc:	29400104 	addi	r5,r5,4
  80d6c0:	29800017 	ldw	r6,0(r5)
  80d6c4:	1a4f883a 	add	r7,r3,r9
  80d6c8:	00c4303a 	nor	r2,zero,r3
  80d6cc:	3884703a 	and	r2,r7,r2
  80d6d0:	1204703a 	and	r2,r2,r8
  80d6d4:	19bff626 	beq	r3,r6,80d6b0 <__alt_mem_onchip_mem+0xff8056b0>
  80d6d8:	20800003 	ldbu	r2,0(r4)
  80d6dc:	10c03fcc 	andi	r3,r2,255
  80d6e0:	18c0201c 	xori	r3,r3,128
  80d6e4:	18ffe004 	addi	r3,r3,-128
  80d6e8:	18000c26 	beq	r3,zero,80d71c <strcmp+0xac>
  80d6ec:	29800007 	ldb	r6,0(r5)
  80d6f0:	19800326 	beq	r3,r6,80d700 <strcmp+0x90>
  80d6f4:	00001306 	br	80d744 <strcmp+0xd4>
  80d6f8:	29800007 	ldb	r6,0(r5)
  80d6fc:	11800b1e 	bne	r2,r6,80d72c <strcmp+0xbc>
  80d700:	21000044 	addi	r4,r4,1
  80d704:	20c00003 	ldbu	r3,0(r4)
  80d708:	29400044 	addi	r5,r5,1
  80d70c:	18803fcc 	andi	r2,r3,255
  80d710:	1080201c 	xori	r2,r2,128
  80d714:	10bfe004 	addi	r2,r2,-128
  80d718:	103ff71e 	bne	r2,zero,80d6f8 <__alt_mem_onchip_mem+0xff8056f8>
  80d71c:	0007883a 	mov	r3,zero
  80d720:	28800003 	ldbu	r2,0(r5)
  80d724:	1885c83a 	sub	r2,r3,r2
  80d728:	f800283a 	ret
  80d72c:	28800003 	ldbu	r2,0(r5)
  80d730:	18c03fcc 	andi	r3,r3,255
  80d734:	1885c83a 	sub	r2,r3,r2
  80d738:	f800283a 	ret
  80d73c:	0005883a 	mov	r2,zero
  80d740:	f800283a 	ret
  80d744:	10c03fcc 	andi	r3,r2,255
  80d748:	003ff506 	br	80d720 <__alt_mem_onchip_mem+0xff805720>

0080d74c <strlen>:
  80d74c:	208000cc 	andi	r2,r4,3
  80d750:	10002026 	beq	r2,zero,80d7d4 <strlen+0x88>
  80d754:	20800007 	ldb	r2,0(r4)
  80d758:	10002026 	beq	r2,zero,80d7dc <strlen+0x90>
  80d75c:	2005883a 	mov	r2,r4
  80d760:	00000206 	br	80d76c <strlen+0x20>
  80d764:	10c00007 	ldb	r3,0(r2)
  80d768:	18001826 	beq	r3,zero,80d7cc <strlen+0x80>
  80d76c:	10800044 	addi	r2,r2,1
  80d770:	10c000cc 	andi	r3,r2,3
  80d774:	183ffb1e 	bne	r3,zero,80d764 <__alt_mem_onchip_mem+0xff805764>
  80d778:	10c00017 	ldw	r3,0(r2)
  80d77c:	01ffbff4 	movhi	r7,65279
  80d780:	39ffbfc4 	addi	r7,r7,-257
  80d784:	00ca303a 	nor	r5,zero,r3
  80d788:	01a02074 	movhi	r6,32897
  80d78c:	19c7883a 	add	r3,r3,r7
  80d790:	31a02004 	addi	r6,r6,-32640
  80d794:	1946703a 	and	r3,r3,r5
  80d798:	1986703a 	and	r3,r3,r6
  80d79c:	1800091e 	bne	r3,zero,80d7c4 <strlen+0x78>
  80d7a0:	10800104 	addi	r2,r2,4
  80d7a4:	10c00017 	ldw	r3,0(r2)
  80d7a8:	19cb883a 	add	r5,r3,r7
  80d7ac:	00c6303a 	nor	r3,zero,r3
  80d7b0:	28c6703a 	and	r3,r5,r3
  80d7b4:	1986703a 	and	r3,r3,r6
  80d7b8:	183ff926 	beq	r3,zero,80d7a0 <__alt_mem_onchip_mem+0xff8057a0>
  80d7bc:	00000106 	br	80d7c4 <strlen+0x78>
  80d7c0:	10800044 	addi	r2,r2,1
  80d7c4:	10c00007 	ldb	r3,0(r2)
  80d7c8:	183ffd1e 	bne	r3,zero,80d7c0 <__alt_mem_onchip_mem+0xff8057c0>
  80d7cc:	1105c83a 	sub	r2,r2,r4
  80d7d0:	f800283a 	ret
  80d7d4:	2005883a 	mov	r2,r4
  80d7d8:	003fe706 	br	80d778 <__alt_mem_onchip_mem+0xff805778>
  80d7dc:	0005883a 	mov	r2,zero
  80d7e0:	f800283a 	ret

0080d7e4 <__sprint_r.part.0>:
  80d7e4:	28801917 	ldw	r2,100(r5)
  80d7e8:	defff604 	addi	sp,sp,-40
  80d7ec:	dd400515 	stw	r21,20(sp)
  80d7f0:	dfc00915 	stw	ra,36(sp)
  80d7f4:	df000815 	stw	fp,32(sp)
  80d7f8:	ddc00715 	stw	r23,28(sp)
  80d7fc:	dd800615 	stw	r22,24(sp)
  80d800:	dd000415 	stw	r20,16(sp)
  80d804:	dcc00315 	stw	r19,12(sp)
  80d808:	dc800215 	stw	r18,8(sp)
  80d80c:	dc400115 	stw	r17,4(sp)
  80d810:	dc000015 	stw	r16,0(sp)
  80d814:	1088000c 	andi	r2,r2,8192
  80d818:	302b883a 	mov	r21,r6
  80d81c:	10002e26 	beq	r2,zero,80d8d8 <__sprint_r.part.0+0xf4>
  80d820:	30800217 	ldw	r2,8(r6)
  80d824:	35800017 	ldw	r22,0(r6)
  80d828:	10002926 	beq	r2,zero,80d8d0 <__sprint_r.part.0+0xec>
  80d82c:	2827883a 	mov	r19,r5
  80d830:	2029883a 	mov	r20,r4
  80d834:	b5c00104 	addi	r23,r22,4
  80d838:	04bfffc4 	movi	r18,-1
  80d83c:	bc400017 	ldw	r17,0(r23)
  80d840:	b4000017 	ldw	r16,0(r22)
  80d844:	0039883a 	mov	fp,zero
  80d848:	8822d0ba 	srli	r17,r17,2
  80d84c:	8800031e 	bne	r17,zero,80d85c <__sprint_r.part.0+0x78>
  80d850:	00001806 	br	80d8b4 <__sprint_r.part.0+0xd0>
  80d854:	84000104 	addi	r16,r16,4
  80d858:	8f001526 	beq	r17,fp,80d8b0 <__sprint_r.part.0+0xcc>
  80d85c:	81400017 	ldw	r5,0(r16)
  80d860:	980d883a 	mov	r6,r19
  80d864:	a009883a 	mov	r4,r20
  80d868:	080f20c0 	call	80f20c <_fputwc_r>
  80d86c:	e7000044 	addi	fp,fp,1
  80d870:	14bff81e 	bne	r2,r18,80d854 <__alt_mem_onchip_mem+0xff805854>
  80d874:	9005883a 	mov	r2,r18
  80d878:	a8000215 	stw	zero,8(r21)
  80d87c:	a8000115 	stw	zero,4(r21)
  80d880:	dfc00917 	ldw	ra,36(sp)
  80d884:	df000817 	ldw	fp,32(sp)
  80d888:	ddc00717 	ldw	r23,28(sp)
  80d88c:	dd800617 	ldw	r22,24(sp)
  80d890:	dd400517 	ldw	r21,20(sp)
  80d894:	dd000417 	ldw	r20,16(sp)
  80d898:	dcc00317 	ldw	r19,12(sp)
  80d89c:	dc800217 	ldw	r18,8(sp)
  80d8a0:	dc400117 	ldw	r17,4(sp)
  80d8a4:	dc000017 	ldw	r16,0(sp)
  80d8a8:	dec00a04 	addi	sp,sp,40
  80d8ac:	f800283a 	ret
  80d8b0:	a8800217 	ldw	r2,8(r21)
  80d8b4:	8c63883a 	add	r17,r17,r17
  80d8b8:	8c63883a 	add	r17,r17,r17
  80d8bc:	1445c83a 	sub	r2,r2,r17
  80d8c0:	a8800215 	stw	r2,8(r21)
  80d8c4:	b5800204 	addi	r22,r22,8
  80d8c8:	bdc00204 	addi	r23,r23,8
  80d8cc:	103fdb1e 	bne	r2,zero,80d83c <__alt_mem_onchip_mem+0xff80583c>
  80d8d0:	0005883a 	mov	r2,zero
  80d8d4:	003fe806 	br	80d878 <__alt_mem_onchip_mem+0xff805878>
  80d8d8:	080f30c0 	call	80f30c <__sfvwrite_r>
  80d8dc:	003fe606 	br	80d878 <__alt_mem_onchip_mem+0xff805878>

0080d8e0 <__sprint_r>:
  80d8e0:	30c00217 	ldw	r3,8(r6)
  80d8e4:	18000126 	beq	r3,zero,80d8ec <__sprint_r+0xc>
  80d8e8:	080d7e41 	jmpi	80d7e4 <__sprint_r.part.0>
  80d8ec:	30000115 	stw	zero,4(r6)
  80d8f0:	0005883a 	mov	r2,zero
  80d8f4:	f800283a 	ret

0080d8f8 <___vfiprintf_internal_r>:
  80d8f8:	deffc904 	addi	sp,sp,-220
  80d8fc:	df003515 	stw	fp,212(sp)
  80d900:	dd003115 	stw	r20,196(sp)
  80d904:	dfc03615 	stw	ra,216(sp)
  80d908:	ddc03415 	stw	r23,208(sp)
  80d90c:	dd803315 	stw	r22,204(sp)
  80d910:	dd403215 	stw	r21,200(sp)
  80d914:	dcc03015 	stw	r19,192(sp)
  80d918:	dc802f15 	stw	r18,188(sp)
  80d91c:	dc402e15 	stw	r17,184(sp)
  80d920:	dc002d15 	stw	r16,180(sp)
  80d924:	d9002015 	stw	r4,128(sp)
  80d928:	d9c02215 	stw	r7,136(sp)
  80d92c:	2829883a 	mov	r20,r5
  80d930:	3039883a 	mov	fp,r6
  80d934:	20000226 	beq	r4,zero,80d940 <___vfiprintf_internal_r+0x48>
  80d938:	20800e17 	ldw	r2,56(r4)
  80d93c:	1000cf26 	beq	r2,zero,80dc7c <___vfiprintf_internal_r+0x384>
  80d940:	a080030b 	ldhu	r2,12(r20)
  80d944:	10c8000c 	andi	r3,r2,8192
  80d948:	1800061e 	bne	r3,zero,80d964 <___vfiprintf_internal_r+0x6c>
  80d94c:	a1001917 	ldw	r4,100(r20)
  80d950:	00f7ffc4 	movi	r3,-8193
  80d954:	10880014 	ori	r2,r2,8192
  80d958:	20c6703a 	and	r3,r4,r3
  80d95c:	a080030d 	sth	r2,12(r20)
  80d960:	a0c01915 	stw	r3,100(r20)
  80d964:	10c0020c 	andi	r3,r2,8
  80d968:	1800a926 	beq	r3,zero,80dc10 <___vfiprintf_internal_r+0x318>
  80d96c:	a0c00417 	ldw	r3,16(r20)
  80d970:	1800a726 	beq	r3,zero,80dc10 <___vfiprintf_internal_r+0x318>
  80d974:	1080068c 	andi	r2,r2,26
  80d978:	00c00284 	movi	r3,10
  80d97c:	10c0ac26 	beq	r2,r3,80dc30 <___vfiprintf_internal_r+0x338>
  80d980:	da801a04 	addi	r10,sp,104
  80d984:	da801e15 	stw	r10,120(sp)
  80d988:	d8801e17 	ldw	r2,120(sp)
  80d98c:	da8019c4 	addi	r10,sp,103
  80d990:	05802074 	movhi	r22,129
  80d994:	05c02074 	movhi	r23,129
  80d998:	da801f15 	stw	r10,124(sp)
  80d99c:	1295c83a 	sub	r10,r2,r10
  80d9a0:	b5975604 	addi	r22,r22,23896
  80d9a4:	bdd75204 	addi	r23,r23,23880
  80d9a8:	dec01a15 	stw	sp,104(sp)
  80d9ac:	d8001c15 	stw	zero,112(sp)
  80d9b0:	d8001b15 	stw	zero,108(sp)
  80d9b4:	d8002615 	stw	zero,152(sp)
  80d9b8:	d8002315 	stw	zero,140(sp)
  80d9bc:	da802715 	stw	r10,156(sp)
  80d9c0:	d811883a 	mov	r8,sp
  80d9c4:	dd002115 	stw	r20,132(sp)
  80d9c8:	e021883a 	mov	r16,fp
  80d9cc:	80800007 	ldb	r2,0(r16)
  80d9d0:	1003ea26 	beq	r2,zero,80e97c <___vfiprintf_internal_r+0x1084>
  80d9d4:	00c00944 	movi	r3,37
  80d9d8:	8025883a 	mov	r18,r16
  80d9dc:	10c0021e 	bne	r2,r3,80d9e8 <___vfiprintf_internal_r+0xf0>
  80d9e0:	00001606 	br	80da3c <___vfiprintf_internal_r+0x144>
  80d9e4:	10c00326 	beq	r2,r3,80d9f4 <___vfiprintf_internal_r+0xfc>
  80d9e8:	94800044 	addi	r18,r18,1
  80d9ec:	90800007 	ldb	r2,0(r18)
  80d9f0:	103ffc1e 	bne	r2,zero,80d9e4 <__alt_mem_onchip_mem+0xff8059e4>
  80d9f4:	9423c83a 	sub	r17,r18,r16
  80d9f8:	88001026 	beq	r17,zero,80da3c <___vfiprintf_internal_r+0x144>
  80d9fc:	d8c01c17 	ldw	r3,112(sp)
  80da00:	d8801b17 	ldw	r2,108(sp)
  80da04:	44000015 	stw	r16,0(r8)
  80da08:	88c7883a 	add	r3,r17,r3
  80da0c:	10800044 	addi	r2,r2,1
  80da10:	44400115 	stw	r17,4(r8)
  80da14:	d8c01c15 	stw	r3,112(sp)
  80da18:	d8801b15 	stw	r2,108(sp)
  80da1c:	010001c4 	movi	r4,7
  80da20:	2080760e 	bge	r4,r2,80dbfc <___vfiprintf_internal_r+0x304>
  80da24:	1803821e 	bne	r3,zero,80e830 <___vfiprintf_internal_r+0xf38>
  80da28:	da802317 	ldw	r10,140(sp)
  80da2c:	d8001b15 	stw	zero,108(sp)
  80da30:	d811883a 	mov	r8,sp
  80da34:	5455883a 	add	r10,r10,r17
  80da38:	da802315 	stw	r10,140(sp)
  80da3c:	90800007 	ldb	r2,0(r18)
  80da40:	10044626 	beq	r2,zero,80eb5c <___vfiprintf_internal_r+0x1264>
  80da44:	90c00047 	ldb	r3,1(r18)
  80da48:	94000044 	addi	r16,r18,1
  80da4c:	d8001d85 	stb	zero,118(sp)
  80da50:	0009883a 	mov	r4,zero
  80da54:	000f883a 	mov	r7,zero
  80da58:	027fffc4 	movi	r9,-1
  80da5c:	0023883a 	mov	r17,zero
  80da60:	0029883a 	mov	r20,zero
  80da64:	01401604 	movi	r5,88
  80da68:	01800244 	movi	r6,9
  80da6c:	03400a84 	movi	r13,42
  80da70:	03001b04 	movi	r12,108
  80da74:	84000044 	addi	r16,r16,1
  80da78:	18bff804 	addi	r2,r3,-32
  80da7c:	28827336 	bltu	r5,r2,80e44c <___vfiprintf_internal_r+0xb54>
  80da80:	100490ba 	slli	r2,r2,2
  80da84:	02802074 	movhi	r10,129
  80da88:	52b6a604 	addi	r10,r10,-9576
  80da8c:	1285883a 	add	r2,r2,r10
  80da90:	10800017 	ldw	r2,0(r2)
  80da94:	1000683a 	jmp	r2
  80da98:	0080e180 	call	80e18 <__alt_mem_sdram-0x77f1e8>
  80da9c:	0080e44c 	andi	r2,zero,913
  80daa0:	0080e44c 	andi	r2,zero,913
  80daa4:	0080e1a0 	cmpeqi	r2,zero,902
  80daa8:	0080e44c 	andi	r2,zero,913
  80daac:	0080e44c 	andi	r2,zero,913
  80dab0:	0080e44c 	andi	r2,zero,913
  80dab4:	0080e44c 	andi	r2,zero,913
  80dab8:	0080e44c 	andi	r2,zero,913
  80dabc:	0080e44c 	andi	r2,zero,913
  80dac0:	0080e388 	cmpgei	r2,zero,910
  80dac4:	0080e3a4 	muli	r2,zero,910
  80dac8:	0080e44c 	andi	r2,zero,913
  80dacc:	0080dc8c 	andi	r2,zero,882
  80dad0:	0080e3b4 	movhi	r2,910
  80dad4:	0080e44c 	andi	r2,zero,913
  80dad8:	0080e1ac 	andhi	r2,zero,902
  80dadc:	0080e1b8 	rdprs	r2,zero,902
  80dae0:	0080e1b8 	rdprs	r2,zero,902
  80dae4:	0080e1b8 	rdprs	r2,zero,902
  80dae8:	0080e1b8 	rdprs	r2,zero,902
  80daec:	0080e1b8 	rdprs	r2,zero,902
  80daf0:	0080e1b8 	rdprs	r2,zero,902
  80daf4:	0080e1b8 	rdprs	r2,zero,902
  80daf8:	0080e1b8 	rdprs	r2,zero,902
  80dafc:	0080e1b8 	rdprs	r2,zero,902
  80db00:	0080e44c 	andi	r2,zero,913
  80db04:	0080e44c 	andi	r2,zero,913
  80db08:	0080e44c 	andi	r2,zero,913
  80db0c:	0080e44c 	andi	r2,zero,913
  80db10:	0080e44c 	andi	r2,zero,913
  80db14:	0080e44c 	andi	r2,zero,913
  80db18:	0080e44c 	andi	r2,zero,913
  80db1c:	0080e44c 	andi	r2,zero,913
  80db20:	0080e44c 	andi	r2,zero,913
  80db24:	0080e44c 	andi	r2,zero,913
  80db28:	0080e1e4 	muli	r2,zero,903
  80db2c:	0080e44c 	andi	r2,zero,913
  80db30:	0080e44c 	andi	r2,zero,913
  80db34:	0080e44c 	andi	r2,zero,913
  80db38:	0080e44c 	andi	r2,zero,913
  80db3c:	0080e44c 	andi	r2,zero,913
  80db40:	0080e44c 	andi	r2,zero,913
  80db44:	0080e44c 	andi	r2,zero,913
  80db48:	0080e44c 	andi	r2,zero,913
  80db4c:	0080e44c 	andi	r2,zero,913
  80db50:	0080e44c 	andi	r2,zero,913
  80db54:	0080e21c 	xori	r2,zero,904
  80db58:	0080e44c 	andi	r2,zero,913
  80db5c:	0080e44c 	andi	r2,zero,913
  80db60:	0080e44c 	andi	r2,zero,913
  80db64:	0080e44c 	andi	r2,zero,913
  80db68:	0080e44c 	andi	r2,zero,913
  80db6c:	0080e274 	movhi	r2,905
  80db70:	0080e44c 	andi	r2,zero,913
  80db74:	0080e44c 	andi	r2,zero,913
  80db78:	0080e2e4 	muli	r2,zero,907
  80db7c:	0080e44c 	andi	r2,zero,913
  80db80:	0080e44c 	andi	r2,zero,913
  80db84:	0080e44c 	andi	r2,zero,913
  80db88:	0080e44c 	andi	r2,zero,913
  80db8c:	0080e44c 	andi	r2,zero,913
  80db90:	0080e44c 	andi	r2,zero,913
  80db94:	0080e44c 	andi	r2,zero,913
  80db98:	0080e44c 	andi	r2,zero,913
  80db9c:	0080e44c 	andi	r2,zero,913
  80dba0:	0080e44c 	andi	r2,zero,913
  80dba4:	0080e090 	cmplti	r2,zero,898
  80dba8:	0080e0bc 	xorhi	r2,zero,898
  80dbac:	0080e44c 	andi	r2,zero,913
  80dbb0:	0080e44c 	andi	r2,zero,913
  80dbb4:	0080e44c 	andi	r2,zero,913
  80dbb8:	0080e3f4 	movhi	r2,911
  80dbbc:	0080e0bc 	xorhi	r2,zero,898
  80dbc0:	0080e44c 	andi	r2,zero,913
  80dbc4:	0080e44c 	andi	r2,zero,913
  80dbc8:	0080df50 	cmplti	r2,zero,893
  80dbcc:	0080e44c 	andi	r2,zero,913
  80dbd0:	0080df60 	cmpeqi	r2,zero,893
  80dbd4:	0080df9c 	xori	r2,zero,894
  80dbd8:	0080dc98 	cmpnei	r2,zero,882
  80dbdc:	0080df44 	movi	r2,893
  80dbe0:	0080e44c 	andi	r2,zero,913
  80dbe4:	0080e320 	cmpeqi	r2,zero,908
  80dbe8:	0080e44c 	andi	r2,zero,913
  80dbec:	0080e378 	rdprs	r2,zero,909
  80dbf0:	0080e44c 	andi	r2,zero,913
  80dbf4:	0080e44c 	andi	r2,zero,913
  80dbf8:	0080e03c 	xorhi	r2,zero,896
  80dbfc:	42000204 	addi	r8,r8,8
  80dc00:	da802317 	ldw	r10,140(sp)
  80dc04:	5455883a 	add	r10,r10,r17
  80dc08:	da802315 	stw	r10,140(sp)
  80dc0c:	003f8b06 	br	80da3c <__alt_mem_onchip_mem+0xff805a3c>
  80dc10:	d9002017 	ldw	r4,128(sp)
  80dc14:	a00b883a 	mov	r5,r20
  80dc18:	08090980 	call	809098 <__swsetup_r>
  80dc1c:	1003b11e 	bne	r2,zero,80eae4 <___vfiprintf_internal_r+0x11ec>
  80dc20:	a080030b 	ldhu	r2,12(r20)
  80dc24:	00c00284 	movi	r3,10
  80dc28:	1080068c 	andi	r2,r2,26
  80dc2c:	10ff541e 	bne	r2,r3,80d980 <__alt_mem_onchip_mem+0xff805980>
  80dc30:	a080038f 	ldh	r2,14(r20)
  80dc34:	103f5216 	blt	r2,zero,80d980 <__alt_mem_onchip_mem+0xff805980>
  80dc38:	d9c02217 	ldw	r7,136(sp)
  80dc3c:	d9002017 	ldw	r4,128(sp)
  80dc40:	e00d883a 	mov	r6,fp
  80dc44:	a00b883a 	mov	r5,r20
  80dc48:	080ed700 	call	80ed70 <__sbprintf>
  80dc4c:	dfc03617 	ldw	ra,216(sp)
  80dc50:	df003517 	ldw	fp,212(sp)
  80dc54:	ddc03417 	ldw	r23,208(sp)
  80dc58:	dd803317 	ldw	r22,204(sp)
  80dc5c:	dd403217 	ldw	r21,200(sp)
  80dc60:	dd003117 	ldw	r20,196(sp)
  80dc64:	dcc03017 	ldw	r19,192(sp)
  80dc68:	dc802f17 	ldw	r18,188(sp)
  80dc6c:	dc402e17 	ldw	r17,184(sp)
  80dc70:	dc002d17 	ldw	r16,180(sp)
  80dc74:	dec03704 	addi	sp,sp,220
  80dc78:	f800283a 	ret
  80dc7c:	080b06c0 	call	80b06c <__sinit>
  80dc80:	003f2f06 	br	80d940 <__alt_mem_onchip_mem+0xff805940>
  80dc84:	0463c83a 	sub	r17,zero,r17
  80dc88:	d8802215 	stw	r2,136(sp)
  80dc8c:	a5000114 	ori	r20,r20,4
  80dc90:	80c00007 	ldb	r3,0(r16)
  80dc94:	003f7706 	br	80da74 <__alt_mem_onchip_mem+0xff805a74>
  80dc98:	00800c04 	movi	r2,48
  80dc9c:	da802217 	ldw	r10,136(sp)
  80dca0:	d8801d05 	stb	r2,116(sp)
  80dca4:	00801e04 	movi	r2,120
  80dca8:	d8801d45 	stb	r2,117(sp)
  80dcac:	d8001d85 	stb	zero,118(sp)
  80dcb0:	50c00104 	addi	r3,r10,4
  80dcb4:	54800017 	ldw	r18,0(r10)
  80dcb8:	0027883a 	mov	r19,zero
  80dcbc:	a0800094 	ori	r2,r20,2
  80dcc0:	48030b16 	blt	r9,zero,80e8f0 <___vfiprintf_internal_r+0xff8>
  80dcc4:	00bfdfc4 	movi	r2,-129
  80dcc8:	a096703a 	and	r11,r20,r2
  80dccc:	d8c02215 	stw	r3,136(sp)
  80dcd0:	5d000094 	ori	r20,r11,2
  80dcd4:	90032b1e 	bne	r18,zero,80e984 <___vfiprintf_internal_r+0x108c>
  80dcd8:	00802074 	movhi	r2,129
  80dcdc:	1096f104 	addi	r2,r2,23492
  80dce0:	d8802615 	stw	r2,152(sp)
  80dce4:	0039883a 	mov	fp,zero
  80dce8:	48017b1e 	bne	r9,zero,80e2d8 <___vfiprintf_internal_r+0x9e0>
  80dcec:	0013883a 	mov	r9,zero
  80dcf0:	0027883a 	mov	r19,zero
  80dcf4:	dd401a04 	addi	r21,sp,104
  80dcf8:	4825883a 	mov	r18,r9
  80dcfc:	4cc0010e 	bge	r9,r19,80dd04 <___vfiprintf_internal_r+0x40c>
  80dd00:	9825883a 	mov	r18,r19
  80dd04:	e7003fcc 	andi	fp,fp,255
  80dd08:	e700201c 	xori	fp,fp,128
  80dd0c:	e73fe004 	addi	fp,fp,-128
  80dd10:	e0000126 	beq	fp,zero,80dd18 <___vfiprintf_internal_r+0x420>
  80dd14:	94800044 	addi	r18,r18,1
  80dd18:	a380008c 	andi	r14,r20,2
  80dd1c:	70000126 	beq	r14,zero,80dd24 <___vfiprintf_internal_r+0x42c>
  80dd20:	94800084 	addi	r18,r18,2
  80dd24:	a700210c 	andi	fp,r20,132
  80dd28:	e001df1e 	bne	fp,zero,80e4a8 <___vfiprintf_internal_r+0xbb0>
  80dd2c:	8c87c83a 	sub	r3,r17,r18
  80dd30:	00c1dd0e 	bge	zero,r3,80e4a8 <___vfiprintf_internal_r+0xbb0>
  80dd34:	01c00404 	movi	r7,16
  80dd38:	d8801c17 	ldw	r2,112(sp)
  80dd3c:	38c3ad0e 	bge	r7,r3,80ebf4 <___vfiprintf_internal_r+0x12fc>
  80dd40:	02802074 	movhi	r10,129
  80dd44:	52975604 	addi	r10,r10,23896
  80dd48:	dc002915 	stw	r16,164(sp)
  80dd4c:	d9801b17 	ldw	r6,108(sp)
  80dd50:	da802415 	stw	r10,144(sp)
  80dd54:	03c001c4 	movi	r15,7
  80dd58:	da402515 	stw	r9,148(sp)
  80dd5c:	db802815 	stw	r14,160(sp)
  80dd60:	1821883a 	mov	r16,r3
  80dd64:	00000506 	br	80dd7c <___vfiprintf_internal_r+0x484>
  80dd68:	31400084 	addi	r5,r6,2
  80dd6c:	42000204 	addi	r8,r8,8
  80dd70:	200d883a 	mov	r6,r4
  80dd74:	843ffc04 	addi	r16,r16,-16
  80dd78:	3c000d0e 	bge	r7,r16,80ddb0 <___vfiprintf_internal_r+0x4b8>
  80dd7c:	10800404 	addi	r2,r2,16
  80dd80:	31000044 	addi	r4,r6,1
  80dd84:	45800015 	stw	r22,0(r8)
  80dd88:	41c00115 	stw	r7,4(r8)
  80dd8c:	d8801c15 	stw	r2,112(sp)
  80dd90:	d9001b15 	stw	r4,108(sp)
  80dd94:	793ff40e 	bge	r15,r4,80dd68 <__alt_mem_onchip_mem+0xff805d68>
  80dd98:	1001b51e 	bne	r2,zero,80e470 <___vfiprintf_internal_r+0xb78>
  80dd9c:	843ffc04 	addi	r16,r16,-16
  80dda0:	000d883a 	mov	r6,zero
  80dda4:	01400044 	movi	r5,1
  80dda8:	d811883a 	mov	r8,sp
  80ddac:	3c3ff316 	blt	r7,r16,80dd7c <__alt_mem_onchip_mem+0xff805d7c>
  80ddb0:	8007883a 	mov	r3,r16
  80ddb4:	da402517 	ldw	r9,148(sp)
  80ddb8:	db802817 	ldw	r14,160(sp)
  80ddbc:	dc002917 	ldw	r16,164(sp)
  80ddc0:	da802417 	ldw	r10,144(sp)
  80ddc4:	1885883a 	add	r2,r3,r2
  80ddc8:	40c00115 	stw	r3,4(r8)
  80ddcc:	42800015 	stw	r10,0(r8)
  80ddd0:	d8801c15 	stw	r2,112(sp)
  80ddd4:	d9401b15 	stw	r5,108(sp)
  80ddd8:	00c001c4 	movi	r3,7
  80dddc:	19426016 	blt	r3,r5,80e760 <___vfiprintf_internal_r+0xe68>
  80dde0:	d8c01d87 	ldb	r3,118(sp)
  80dde4:	42000204 	addi	r8,r8,8
  80dde8:	29000044 	addi	r4,r5,1
  80ddec:	1801b31e 	bne	r3,zero,80e4bc <___vfiprintf_internal_r+0xbc4>
  80ddf0:	7001c026 	beq	r14,zero,80e4f4 <___vfiprintf_internal_r+0xbfc>
  80ddf4:	d8c01d04 	addi	r3,sp,116
  80ddf8:	10800084 	addi	r2,r2,2
  80ddfc:	40c00015 	stw	r3,0(r8)
  80de00:	00c00084 	movi	r3,2
  80de04:	40c00115 	stw	r3,4(r8)
  80de08:	d8801c15 	stw	r2,112(sp)
  80de0c:	d9001b15 	stw	r4,108(sp)
  80de10:	00c001c4 	movi	r3,7
  80de14:	1902650e 	bge	r3,r4,80e7ac <___vfiprintf_internal_r+0xeb4>
  80de18:	10029a1e 	bne	r2,zero,80e884 <___vfiprintf_internal_r+0xf8c>
  80de1c:	00c02004 	movi	r3,128
  80de20:	01000044 	movi	r4,1
  80de24:	000b883a 	mov	r5,zero
  80de28:	d811883a 	mov	r8,sp
  80de2c:	e0c1b31e 	bne	fp,r3,80e4fc <___vfiprintf_internal_r+0xc04>
  80de30:	8cb9c83a 	sub	fp,r17,r18
  80de34:	0701b10e 	bge	zero,fp,80e4fc <___vfiprintf_internal_r+0xc04>
  80de38:	01c00404 	movi	r7,16
  80de3c:	3f03890e 	bge	r7,fp,80ec64 <___vfiprintf_internal_r+0x136c>
  80de40:	00c02074 	movhi	r3,129
  80de44:	18d75204 	addi	r3,r3,23880
  80de48:	d8c02415 	stw	r3,144(sp)
  80de4c:	8007883a 	mov	r3,r16
  80de50:	034001c4 	movi	r13,7
  80de54:	e021883a 	mov	r16,fp
  80de58:	da402515 	stw	r9,148(sp)
  80de5c:	1839883a 	mov	fp,r3
  80de60:	00000506 	br	80de78 <___vfiprintf_internal_r+0x580>
  80de64:	29800084 	addi	r6,r5,2
  80de68:	42000204 	addi	r8,r8,8
  80de6c:	180b883a 	mov	r5,r3
  80de70:	843ffc04 	addi	r16,r16,-16
  80de74:	3c000d0e 	bge	r7,r16,80deac <___vfiprintf_internal_r+0x5b4>
  80de78:	10800404 	addi	r2,r2,16
  80de7c:	28c00044 	addi	r3,r5,1
  80de80:	45c00015 	stw	r23,0(r8)
  80de84:	41c00115 	stw	r7,4(r8)
  80de88:	d8801c15 	stw	r2,112(sp)
  80de8c:	d8c01b15 	stw	r3,108(sp)
  80de90:	68fff40e 	bge	r13,r3,80de64 <__alt_mem_onchip_mem+0xff805e64>
  80de94:	1002241e 	bne	r2,zero,80e728 <___vfiprintf_internal_r+0xe30>
  80de98:	843ffc04 	addi	r16,r16,-16
  80de9c:	01800044 	movi	r6,1
  80dea0:	000b883a 	mov	r5,zero
  80dea4:	d811883a 	mov	r8,sp
  80dea8:	3c3ff316 	blt	r7,r16,80de78 <__alt_mem_onchip_mem+0xff805e78>
  80deac:	da402517 	ldw	r9,148(sp)
  80deb0:	e007883a 	mov	r3,fp
  80deb4:	8039883a 	mov	fp,r16
  80deb8:	1821883a 	mov	r16,r3
  80debc:	d8c02417 	ldw	r3,144(sp)
  80dec0:	1705883a 	add	r2,r2,fp
  80dec4:	47000115 	stw	fp,4(r8)
  80dec8:	40c00015 	stw	r3,0(r8)
  80decc:	d8801c15 	stw	r2,112(sp)
  80ded0:	d9801b15 	stw	r6,108(sp)
  80ded4:	00c001c4 	movi	r3,7
  80ded8:	19827616 	blt	r3,r6,80e8b4 <___vfiprintf_internal_r+0xfbc>
  80dedc:	4cf9c83a 	sub	fp,r9,r19
  80dee0:	42000204 	addi	r8,r8,8
  80dee4:	31000044 	addi	r4,r6,1
  80dee8:	300b883a 	mov	r5,r6
  80deec:	07018516 	blt	zero,fp,80e504 <___vfiprintf_internal_r+0xc0c>
  80def0:	9885883a 	add	r2,r19,r2
  80def4:	45400015 	stw	r21,0(r8)
  80def8:	44c00115 	stw	r19,4(r8)
  80defc:	d8801c15 	stw	r2,112(sp)
  80df00:	d9001b15 	stw	r4,108(sp)
  80df04:	00c001c4 	movi	r3,7
  80df08:	1901dd0e 	bge	r3,r4,80e680 <___vfiprintf_internal_r+0xd88>
  80df0c:	1002401e 	bne	r2,zero,80e810 <___vfiprintf_internal_r+0xf18>
  80df10:	d8001b15 	stw	zero,108(sp)
  80df14:	a2c0010c 	andi	r11,r20,4
  80df18:	58000226 	beq	r11,zero,80df24 <___vfiprintf_internal_r+0x62c>
  80df1c:	8ca7c83a 	sub	r19,r17,r18
  80df20:	04c2f216 	blt	zero,r19,80eaec <___vfiprintf_internal_r+0x11f4>
  80df24:	8c80010e 	bge	r17,r18,80df2c <___vfiprintf_internal_r+0x634>
  80df28:	9023883a 	mov	r17,r18
  80df2c:	da802317 	ldw	r10,140(sp)
  80df30:	5455883a 	add	r10,r10,r17
  80df34:	da802315 	stw	r10,140(sp)
  80df38:	d8001b15 	stw	zero,108(sp)
  80df3c:	d811883a 	mov	r8,sp
  80df40:	003ea206 	br	80d9cc <__alt_mem_onchip_mem+0xff8059cc>
  80df44:	a5000814 	ori	r20,r20,32
  80df48:	80c00007 	ldb	r3,0(r16)
  80df4c:	003ec906 	br	80da74 <__alt_mem_onchip_mem+0xff805a74>
  80df50:	80c00007 	ldb	r3,0(r16)
  80df54:	1b030926 	beq	r3,r12,80eb7c <___vfiprintf_internal_r+0x1284>
  80df58:	a5000414 	ori	r20,r20,16
  80df5c:	003ec506 	br	80da74 <__alt_mem_onchip_mem+0xff805a74>
  80df60:	21003fcc 	andi	r4,r4,255
  80df64:	20035e1e 	bne	r4,zero,80ece0 <___vfiprintf_internal_r+0x13e8>
  80df68:	a080080c 	andi	r2,r20,32
  80df6c:	1002a526 	beq	r2,zero,80ea04 <___vfiprintf_internal_r+0x110c>
  80df70:	da802217 	ldw	r10,136(sp)
  80df74:	50800017 	ldw	r2,0(r10)
  80df78:	da802317 	ldw	r10,140(sp)
  80df7c:	5007d7fa 	srai	r3,r10,31
  80df80:	da802217 	ldw	r10,136(sp)
  80df84:	10c00115 	stw	r3,4(r2)
  80df88:	52800104 	addi	r10,r10,4
  80df8c:	da802215 	stw	r10,136(sp)
  80df90:	da802317 	ldw	r10,140(sp)
  80df94:	12800015 	stw	r10,0(r2)
  80df98:	003e8c06 	br	80d9cc <__alt_mem_onchip_mem+0xff8059cc>
  80df9c:	21003fcc 	andi	r4,r4,255
  80dfa0:	2003511e 	bne	r4,zero,80ece8 <___vfiprintf_internal_r+0x13f0>
  80dfa4:	a080080c 	andi	r2,r20,32
  80dfa8:	1000a126 	beq	r2,zero,80e230 <___vfiprintf_internal_r+0x938>
  80dfac:	da802217 	ldw	r10,136(sp)
  80dfb0:	d8001d85 	stb	zero,118(sp)
  80dfb4:	50800204 	addi	r2,r10,8
  80dfb8:	54800017 	ldw	r18,0(r10)
  80dfbc:	54c00117 	ldw	r19,4(r10)
  80dfc0:	4802b416 	blt	r9,zero,80ea94 <___vfiprintf_internal_r+0x119c>
  80dfc4:	013fdfc4 	movi	r4,-129
  80dfc8:	94c6b03a 	or	r3,r18,r19
  80dfcc:	d8802215 	stw	r2,136(sp)
  80dfd0:	a128703a 	and	r20,r20,r4
  80dfd4:	1800a226 	beq	r3,zero,80e260 <___vfiprintf_internal_r+0x968>
  80dfd8:	0039883a 	mov	fp,zero
  80dfdc:	dd401a04 	addi	r21,sp,104
  80dfe0:	9006d0fa 	srli	r3,r18,3
  80dfe4:	9808977a 	slli	r4,r19,29
  80dfe8:	9826d0fa 	srli	r19,r19,3
  80dfec:	948001cc 	andi	r18,r18,7
  80dff0:	90800c04 	addi	r2,r18,48
  80dff4:	ad7fffc4 	addi	r21,r21,-1
  80dff8:	20e4b03a 	or	r18,r4,r3
  80dffc:	a8800005 	stb	r2,0(r21)
  80e000:	94c6b03a 	or	r3,r18,r19
  80e004:	183ff61e 	bne	r3,zero,80dfe0 <__alt_mem_onchip_mem+0xff805fe0>
  80e008:	a0c0004c 	andi	r3,r20,1
  80e00c:	18005926 	beq	r3,zero,80e174 <___vfiprintf_internal_r+0x87c>
  80e010:	10803fcc 	andi	r2,r2,255
  80e014:	1080201c 	xori	r2,r2,128
  80e018:	10bfe004 	addi	r2,r2,-128
  80e01c:	00c00c04 	movi	r3,48
  80e020:	10c05426 	beq	r2,r3,80e174 <___vfiprintf_internal_r+0x87c>
  80e024:	da801e17 	ldw	r10,120(sp)
  80e028:	a8bfffc4 	addi	r2,r21,-1
  80e02c:	a8ffffc5 	stb	r3,-1(r21)
  80e030:	50a7c83a 	sub	r19,r10,r2
  80e034:	102b883a 	mov	r21,r2
  80e038:	003f2f06 	br	80dcf8 <__alt_mem_onchip_mem+0xff805cf8>
  80e03c:	21003fcc 	andi	r4,r4,255
  80e040:	2003421e 	bne	r4,zero,80ed4c <___vfiprintf_internal_r+0x1454>
  80e044:	00802074 	movhi	r2,129
  80e048:	1096f104 	addi	r2,r2,23492
  80e04c:	d8802615 	stw	r2,152(sp)
  80e050:	a080080c 	andi	r2,r20,32
  80e054:	1000aa26 	beq	r2,zero,80e300 <___vfiprintf_internal_r+0xa08>
  80e058:	da802217 	ldw	r10,136(sp)
  80e05c:	54800017 	ldw	r18,0(r10)
  80e060:	54c00117 	ldw	r19,4(r10)
  80e064:	52800204 	addi	r10,r10,8
  80e068:	da802215 	stw	r10,136(sp)
  80e06c:	a080004c 	andi	r2,r20,1
  80e070:	1001d226 	beq	r2,zero,80e7bc <___vfiprintf_internal_r+0xec4>
  80e074:	94c4b03a 	or	r2,r18,r19
  80e078:	1002351e 	bne	r2,zero,80e950 <___vfiprintf_internal_r+0x1058>
  80e07c:	d8001d85 	stb	zero,118(sp)
  80e080:	48022216 	blt	r9,zero,80e90c <___vfiprintf_internal_r+0x1014>
  80e084:	00bfdfc4 	movi	r2,-129
  80e088:	a0a8703a 	and	r20,r20,r2
  80e08c:	003f1506 	br	80dce4 <__alt_mem_onchip_mem+0xff805ce4>
  80e090:	da802217 	ldw	r10,136(sp)
  80e094:	04800044 	movi	r18,1
  80e098:	d8001d85 	stb	zero,118(sp)
  80e09c:	50800017 	ldw	r2,0(r10)
  80e0a0:	52800104 	addi	r10,r10,4
  80e0a4:	da802215 	stw	r10,136(sp)
  80e0a8:	d8801005 	stb	r2,64(sp)
  80e0ac:	9027883a 	mov	r19,r18
  80e0b0:	dd401004 	addi	r21,sp,64
  80e0b4:	0013883a 	mov	r9,zero
  80e0b8:	003f1706 	br	80dd18 <__alt_mem_onchip_mem+0xff805d18>
  80e0bc:	21003fcc 	andi	r4,r4,255
  80e0c0:	2003201e 	bne	r4,zero,80ed44 <___vfiprintf_internal_r+0x144c>
  80e0c4:	a080080c 	andi	r2,r20,32
  80e0c8:	10004b26 	beq	r2,zero,80e1f8 <___vfiprintf_internal_r+0x900>
  80e0cc:	da802217 	ldw	r10,136(sp)
  80e0d0:	50800117 	ldw	r2,4(r10)
  80e0d4:	54800017 	ldw	r18,0(r10)
  80e0d8:	52800204 	addi	r10,r10,8
  80e0dc:	da802215 	stw	r10,136(sp)
  80e0e0:	1027883a 	mov	r19,r2
  80e0e4:	10022c16 	blt	r2,zero,80e998 <___vfiprintf_internal_r+0x10a0>
  80e0e8:	df001d83 	ldbu	fp,118(sp)
  80e0ec:	48007216 	blt	r9,zero,80e2b8 <___vfiprintf_internal_r+0x9c0>
  80e0f0:	00ffdfc4 	movi	r3,-129
  80e0f4:	94c4b03a 	or	r2,r18,r19
  80e0f8:	a0e8703a 	and	r20,r20,r3
  80e0fc:	1000cc26 	beq	r2,zero,80e430 <___vfiprintf_internal_r+0xb38>
  80e100:	98021026 	beq	r19,zero,80e944 <___vfiprintf_internal_r+0x104c>
  80e104:	dc402415 	stw	r17,144(sp)
  80e108:	dc002515 	stw	r16,148(sp)
  80e10c:	9823883a 	mov	r17,r19
  80e110:	9021883a 	mov	r16,r18
  80e114:	dd401a04 	addi	r21,sp,104
  80e118:	4825883a 	mov	r18,r9
  80e11c:	4027883a 	mov	r19,r8
  80e120:	8009883a 	mov	r4,r16
  80e124:	880b883a 	mov	r5,r17
  80e128:	01800284 	movi	r6,10
  80e12c:	000f883a 	mov	r7,zero
  80e130:	08108540 	call	810854 <__umoddi3>
  80e134:	10800c04 	addi	r2,r2,48
  80e138:	ad7fffc4 	addi	r21,r21,-1
  80e13c:	8009883a 	mov	r4,r16
  80e140:	880b883a 	mov	r5,r17
  80e144:	a8800005 	stb	r2,0(r21)
  80e148:	01800284 	movi	r6,10
  80e14c:	000f883a 	mov	r7,zero
  80e150:	08102dc0 	call	8102dc <__udivdi3>
  80e154:	1021883a 	mov	r16,r2
  80e158:	10c4b03a 	or	r2,r2,r3
  80e15c:	1823883a 	mov	r17,r3
  80e160:	103fef1e 	bne	r2,zero,80e120 <__alt_mem_onchip_mem+0xff806120>
  80e164:	dc402417 	ldw	r17,144(sp)
  80e168:	dc002517 	ldw	r16,148(sp)
  80e16c:	9013883a 	mov	r9,r18
  80e170:	9811883a 	mov	r8,r19
  80e174:	da801e17 	ldw	r10,120(sp)
  80e178:	5567c83a 	sub	r19,r10,r21
  80e17c:	003ede06 	br	80dcf8 <__alt_mem_onchip_mem+0xff805cf8>
  80e180:	38803fcc 	andi	r2,r7,255
  80e184:	1080201c 	xori	r2,r2,128
  80e188:	10bfe004 	addi	r2,r2,-128
  80e18c:	1002371e 	bne	r2,zero,80ea6c <___vfiprintf_internal_r+0x1174>
  80e190:	01000044 	movi	r4,1
  80e194:	01c00804 	movi	r7,32
  80e198:	80c00007 	ldb	r3,0(r16)
  80e19c:	003e3506 	br	80da74 <__alt_mem_onchip_mem+0xff805a74>
  80e1a0:	a5000054 	ori	r20,r20,1
  80e1a4:	80c00007 	ldb	r3,0(r16)
  80e1a8:	003e3206 	br	80da74 <__alt_mem_onchip_mem+0xff805a74>
  80e1ac:	a5002014 	ori	r20,r20,128
  80e1b0:	80c00007 	ldb	r3,0(r16)
  80e1b4:	003e2f06 	br	80da74 <__alt_mem_onchip_mem+0xff805a74>
  80e1b8:	8015883a 	mov	r10,r16
  80e1bc:	0023883a 	mov	r17,zero
  80e1c0:	18bff404 	addi	r2,r3,-48
  80e1c4:	50c00007 	ldb	r3,0(r10)
  80e1c8:	8c4002a4 	muli	r17,r17,10
  80e1cc:	84000044 	addi	r16,r16,1
  80e1d0:	8015883a 	mov	r10,r16
  80e1d4:	1463883a 	add	r17,r2,r17
  80e1d8:	18bff404 	addi	r2,r3,-48
  80e1dc:	30bff92e 	bgeu	r6,r2,80e1c4 <__alt_mem_onchip_mem+0xff8061c4>
  80e1e0:	003e2506 	br	80da78 <__alt_mem_onchip_mem+0xff805a78>
  80e1e4:	21003fcc 	andi	r4,r4,255
  80e1e8:	2002d41e 	bne	r4,zero,80ed3c <___vfiprintf_internal_r+0x1444>
  80e1ec:	a5000414 	ori	r20,r20,16
  80e1f0:	a080080c 	andi	r2,r20,32
  80e1f4:	103fb51e 	bne	r2,zero,80e0cc <__alt_mem_onchip_mem+0xff8060cc>
  80e1f8:	a080040c 	andi	r2,r20,16
  80e1fc:	1001f826 	beq	r2,zero,80e9e0 <___vfiprintf_internal_r+0x10e8>
  80e200:	da802217 	ldw	r10,136(sp)
  80e204:	54800017 	ldw	r18,0(r10)
  80e208:	52800104 	addi	r10,r10,4
  80e20c:	da802215 	stw	r10,136(sp)
  80e210:	9027d7fa 	srai	r19,r18,31
  80e214:	9805883a 	mov	r2,r19
  80e218:	003fb206 	br	80e0e4 <__alt_mem_onchip_mem+0xff8060e4>
  80e21c:	21003fcc 	andi	r4,r4,255
  80e220:	2002c41e 	bne	r4,zero,80ed34 <___vfiprintf_internal_r+0x143c>
  80e224:	a5000414 	ori	r20,r20,16
  80e228:	a080080c 	andi	r2,r20,32
  80e22c:	103f5f1e 	bne	r2,zero,80dfac <__alt_mem_onchip_mem+0xff805fac>
  80e230:	a080040c 	andi	r2,r20,16
  80e234:	10020f26 	beq	r2,zero,80ea74 <___vfiprintf_internal_r+0x117c>
  80e238:	da802217 	ldw	r10,136(sp)
  80e23c:	d8001d85 	stb	zero,118(sp)
  80e240:	0027883a 	mov	r19,zero
  80e244:	50800104 	addi	r2,r10,4
  80e248:	54800017 	ldw	r18,0(r10)
  80e24c:	48021116 	blt	r9,zero,80ea94 <___vfiprintf_internal_r+0x119c>
  80e250:	00ffdfc4 	movi	r3,-129
  80e254:	d8802215 	stw	r2,136(sp)
  80e258:	a0e8703a 	and	r20,r20,r3
  80e25c:	903f5e1e 	bne	r18,zero,80dfd8 <__alt_mem_onchip_mem+0xff805fd8>
  80e260:	0039883a 	mov	fp,zero
  80e264:	4802a626 	beq	r9,zero,80ed00 <___vfiprintf_internal_r+0x1408>
  80e268:	0025883a 	mov	r18,zero
  80e26c:	0027883a 	mov	r19,zero
  80e270:	003f5a06 	br	80dfdc <__alt_mem_onchip_mem+0xff805fdc>
  80e274:	21003fcc 	andi	r4,r4,255
  80e278:	20029f1e 	bne	r4,zero,80ecf8 <___vfiprintf_internal_r+0x1400>
  80e27c:	a5000414 	ori	r20,r20,16
  80e280:	a080080c 	andi	r2,r20,32
  80e284:	10005e1e 	bne	r2,zero,80e400 <___vfiprintf_internal_r+0xb08>
  80e288:	a080040c 	andi	r2,r20,16
  80e28c:	1001a21e 	bne	r2,zero,80e918 <___vfiprintf_internal_r+0x1020>
  80e290:	a080100c 	andi	r2,r20,64
  80e294:	d8001d85 	stb	zero,118(sp)
  80e298:	da802217 	ldw	r10,136(sp)
  80e29c:	1002231e 	bne	r2,zero,80eb2c <___vfiprintf_internal_r+0x1234>
  80e2a0:	50800104 	addi	r2,r10,4
  80e2a4:	54800017 	ldw	r18,0(r10)
  80e2a8:	0027883a 	mov	r19,zero
  80e2ac:	4801a00e 	bge	r9,zero,80e930 <___vfiprintf_internal_r+0x1038>
  80e2b0:	d8802215 	stw	r2,136(sp)
  80e2b4:	0039883a 	mov	fp,zero
  80e2b8:	94c4b03a 	or	r2,r18,r19
  80e2bc:	103f901e 	bne	r2,zero,80e100 <__alt_mem_onchip_mem+0xff806100>
  80e2c0:	00800044 	movi	r2,1
  80e2c4:	10803fcc 	andi	r2,r2,255
  80e2c8:	00c00044 	movi	r3,1
  80e2cc:	10c05926 	beq	r2,r3,80e434 <___vfiprintf_internal_r+0xb3c>
  80e2d0:	00c00084 	movi	r3,2
  80e2d4:	10ffe41e 	bne	r2,r3,80e268 <__alt_mem_onchip_mem+0xff806268>
  80e2d8:	0025883a 	mov	r18,zero
  80e2dc:	0027883a 	mov	r19,zero
  80e2e0:	00013d06 	br	80e7d8 <___vfiprintf_internal_r+0xee0>
  80e2e4:	21003fcc 	andi	r4,r4,255
  80e2e8:	2002811e 	bne	r4,zero,80ecf0 <___vfiprintf_internal_r+0x13f8>
  80e2ec:	00802074 	movhi	r2,129
  80e2f0:	1096ec04 	addi	r2,r2,23472
  80e2f4:	d8802615 	stw	r2,152(sp)
  80e2f8:	a080080c 	andi	r2,r20,32
  80e2fc:	103f561e 	bne	r2,zero,80e058 <__alt_mem_onchip_mem+0xff806058>
  80e300:	a080040c 	andi	r2,r20,16
  80e304:	1001d126 	beq	r2,zero,80ea4c <___vfiprintf_internal_r+0x1154>
  80e308:	da802217 	ldw	r10,136(sp)
  80e30c:	0027883a 	mov	r19,zero
  80e310:	54800017 	ldw	r18,0(r10)
  80e314:	52800104 	addi	r10,r10,4
  80e318:	da802215 	stw	r10,136(sp)
  80e31c:	003f5306 	br	80e06c <__alt_mem_onchip_mem+0xff80606c>
  80e320:	da802217 	ldw	r10,136(sp)
  80e324:	d8001d85 	stb	zero,118(sp)
  80e328:	55400017 	ldw	r21,0(r10)
  80e32c:	50c00104 	addi	r3,r10,4
  80e330:	a8024226 	beq	r21,zero,80ec3c <___vfiprintf_internal_r+0x1344>
  80e334:	48021816 	blt	r9,zero,80eb98 <___vfiprintf_internal_r+0x12a0>
  80e338:	480d883a 	mov	r6,r9
  80e33c:	000b883a 	mov	r5,zero
  80e340:	a809883a 	mov	r4,r21
  80e344:	d8c02a15 	stw	r3,168(sp)
  80e348:	da002b15 	stw	r8,172(sp)
  80e34c:	da402c15 	stw	r9,176(sp)
  80e350:	080c11c0 	call	80c11c <memchr>
  80e354:	d8c02a17 	ldw	r3,168(sp)
  80e358:	da002b17 	ldw	r8,172(sp)
  80e35c:	da402c17 	ldw	r9,176(sp)
  80e360:	10024826 	beq	r2,zero,80ec84 <___vfiprintf_internal_r+0x138c>
  80e364:	1567c83a 	sub	r19,r2,r21
  80e368:	df001d83 	ldbu	fp,118(sp)
  80e36c:	d8c02215 	stw	r3,136(sp)
  80e370:	0013883a 	mov	r9,zero
  80e374:	003e6006 	br	80dcf8 <__alt_mem_onchip_mem+0xff805cf8>
  80e378:	21003fcc 	andi	r4,r4,255
  80e37c:	203fc026 	beq	r4,zero,80e280 <__alt_mem_onchip_mem+0xff806280>
  80e380:	d9c01d85 	stb	r7,118(sp)
  80e384:	003fbe06 	br	80e280 <__alt_mem_onchip_mem+0xff806280>
  80e388:	da802217 	ldw	r10,136(sp)
  80e38c:	54400017 	ldw	r17,0(r10)
  80e390:	50800104 	addi	r2,r10,4
  80e394:	883e3b16 	blt	r17,zero,80dc84 <__alt_mem_onchip_mem+0xff805c84>
  80e398:	d8802215 	stw	r2,136(sp)
  80e39c:	80c00007 	ldb	r3,0(r16)
  80e3a0:	003db406 	br	80da74 <__alt_mem_onchip_mem+0xff805a74>
  80e3a4:	01000044 	movi	r4,1
  80e3a8:	01c00ac4 	movi	r7,43
  80e3ac:	80c00007 	ldb	r3,0(r16)
  80e3b0:	003db006 	br	80da74 <__alt_mem_onchip_mem+0xff805a74>
  80e3b4:	80c00007 	ldb	r3,0(r16)
  80e3b8:	82800044 	addi	r10,r16,1
  80e3bc:	1b423c26 	beq	r3,r13,80ecb0 <___vfiprintf_internal_r+0x13b8>
  80e3c0:	18bff404 	addi	r2,r3,-48
  80e3c4:	0013883a 	mov	r9,zero
  80e3c8:	30822b36 	bltu	r6,r2,80ec78 <___vfiprintf_internal_r+0x1380>
  80e3cc:	50c00007 	ldb	r3,0(r10)
  80e3d0:	4a4002a4 	muli	r9,r9,10
  80e3d4:	54000044 	addi	r16,r10,1
  80e3d8:	8015883a 	mov	r10,r16
  80e3dc:	4893883a 	add	r9,r9,r2
  80e3e0:	18bff404 	addi	r2,r3,-48
  80e3e4:	30bff92e 	bgeu	r6,r2,80e3cc <__alt_mem_onchip_mem+0xff8063cc>
  80e3e8:	483da30e 	bge	r9,zero,80da78 <__alt_mem_onchip_mem+0xff805a78>
  80e3ec:	027fffc4 	movi	r9,-1
  80e3f0:	003da106 	br	80da78 <__alt_mem_onchip_mem+0xff805a78>
  80e3f4:	a5001014 	ori	r20,r20,64
  80e3f8:	80c00007 	ldb	r3,0(r16)
  80e3fc:	003d9d06 	br	80da74 <__alt_mem_onchip_mem+0xff805a74>
  80e400:	da802217 	ldw	r10,136(sp)
  80e404:	d8001d85 	stb	zero,118(sp)
  80e408:	50c00204 	addi	r3,r10,8
  80e40c:	54800017 	ldw	r18,0(r10)
  80e410:	54c00117 	ldw	r19,4(r10)
  80e414:	4801ca16 	blt	r9,zero,80eb40 <___vfiprintf_internal_r+0x1248>
  80e418:	013fdfc4 	movi	r4,-129
  80e41c:	94c4b03a 	or	r2,r18,r19
  80e420:	d8c02215 	stw	r3,136(sp)
  80e424:	a128703a 	and	r20,r20,r4
  80e428:	0039883a 	mov	fp,zero
  80e42c:	103f341e 	bne	r2,zero,80e100 <__alt_mem_onchip_mem+0xff806100>
  80e430:	483e2e26 	beq	r9,zero,80dcec <__alt_mem_onchip_mem+0xff805cec>
  80e434:	0025883a 	mov	r18,zero
  80e438:	94800c04 	addi	r18,r18,48
  80e43c:	dc8019c5 	stb	r18,103(sp)
  80e440:	dcc02717 	ldw	r19,156(sp)
  80e444:	dd4019c4 	addi	r21,sp,103
  80e448:	003e2b06 	br	80dcf8 <__alt_mem_onchip_mem+0xff805cf8>
  80e44c:	21003fcc 	andi	r4,r4,255
  80e450:	2002361e 	bne	r4,zero,80ed2c <___vfiprintf_internal_r+0x1434>
  80e454:	1801c126 	beq	r3,zero,80eb5c <___vfiprintf_internal_r+0x1264>
  80e458:	04800044 	movi	r18,1
  80e45c:	d8c01005 	stb	r3,64(sp)
  80e460:	d8001d85 	stb	zero,118(sp)
  80e464:	9027883a 	mov	r19,r18
  80e468:	dd401004 	addi	r21,sp,64
  80e46c:	003f1106 	br	80e0b4 <__alt_mem_onchip_mem+0xff8060b4>
  80e470:	d9402117 	ldw	r5,132(sp)
  80e474:	d9002017 	ldw	r4,128(sp)
  80e478:	d9801a04 	addi	r6,sp,104
  80e47c:	d9c02b15 	stw	r7,172(sp)
  80e480:	dbc02a15 	stw	r15,168(sp)
  80e484:	080d7e40 	call	80d7e4 <__sprint_r.part.0>
  80e488:	d9c02b17 	ldw	r7,172(sp)
  80e48c:	dbc02a17 	ldw	r15,168(sp)
  80e490:	10006d1e 	bne	r2,zero,80e648 <___vfiprintf_internal_r+0xd50>
  80e494:	d9801b17 	ldw	r6,108(sp)
  80e498:	d8801c17 	ldw	r2,112(sp)
  80e49c:	d811883a 	mov	r8,sp
  80e4a0:	31400044 	addi	r5,r6,1
  80e4a4:	003e3306 	br	80dd74 <__alt_mem_onchip_mem+0xff805d74>
  80e4a8:	d9401b17 	ldw	r5,108(sp)
  80e4ac:	d8801c17 	ldw	r2,112(sp)
  80e4b0:	29000044 	addi	r4,r5,1
  80e4b4:	d8c01d87 	ldb	r3,118(sp)
  80e4b8:	183e4d26 	beq	r3,zero,80ddf0 <__alt_mem_onchip_mem+0xff805df0>
  80e4bc:	00c00044 	movi	r3,1
  80e4c0:	d9401d84 	addi	r5,sp,118
  80e4c4:	10c5883a 	add	r2,r2,r3
  80e4c8:	41400015 	stw	r5,0(r8)
  80e4cc:	40c00115 	stw	r3,4(r8)
  80e4d0:	d8801c15 	stw	r2,112(sp)
  80e4d4:	d9001b15 	stw	r4,108(sp)
  80e4d8:	014001c4 	movi	r5,7
  80e4dc:	2900a90e 	bge	r5,r4,80e784 <___vfiprintf_internal_r+0xe8c>
  80e4e0:	1000da1e 	bne	r2,zero,80e84c <___vfiprintf_internal_r+0xf54>
  80e4e4:	7000ab1e 	bne	r14,zero,80e794 <___vfiprintf_internal_r+0xe9c>
  80e4e8:	000b883a 	mov	r5,zero
  80e4ec:	1809883a 	mov	r4,r3
  80e4f0:	d811883a 	mov	r8,sp
  80e4f4:	00c02004 	movi	r3,128
  80e4f8:	e0fe4d26 	beq	fp,r3,80de30 <__alt_mem_onchip_mem+0xff805e30>
  80e4fc:	4cf9c83a 	sub	fp,r9,r19
  80e500:	073e7b0e 	bge	zero,fp,80def0 <__alt_mem_onchip_mem+0xff805ef0>
  80e504:	01c00404 	movi	r7,16
  80e508:	3f01900e 	bge	r7,fp,80eb4c <___vfiprintf_internal_r+0x1254>
  80e50c:	00c02074 	movhi	r3,129
  80e510:	18d75204 	addi	r3,r3,23880
  80e514:	d8c02415 	stw	r3,144(sp)
  80e518:	034001c4 	movi	r13,7
  80e51c:	00000506 	br	80e534 <___vfiprintf_internal_r+0xc3c>
  80e520:	29000084 	addi	r4,r5,2
  80e524:	42000204 	addi	r8,r8,8
  80e528:	180b883a 	mov	r5,r3
  80e52c:	e73ffc04 	addi	fp,fp,-16
  80e530:	3f000d0e 	bge	r7,fp,80e568 <___vfiprintf_internal_r+0xc70>
  80e534:	10800404 	addi	r2,r2,16
  80e538:	28c00044 	addi	r3,r5,1
  80e53c:	45c00015 	stw	r23,0(r8)
  80e540:	41c00115 	stw	r7,4(r8)
  80e544:	d8801c15 	stw	r2,112(sp)
  80e548:	d8c01b15 	stw	r3,108(sp)
  80e54c:	68fff40e 	bge	r13,r3,80e520 <__alt_mem_onchip_mem+0xff806520>
  80e550:	1000101e 	bne	r2,zero,80e594 <___vfiprintf_internal_r+0xc9c>
  80e554:	e73ffc04 	addi	fp,fp,-16
  80e558:	01000044 	movi	r4,1
  80e55c:	000b883a 	mov	r5,zero
  80e560:	d811883a 	mov	r8,sp
  80e564:	3f3ff316 	blt	r7,fp,80e534 <__alt_mem_onchip_mem+0xff806534>
  80e568:	da802417 	ldw	r10,144(sp)
  80e56c:	1705883a 	add	r2,r2,fp
  80e570:	47000115 	stw	fp,4(r8)
  80e574:	42800015 	stw	r10,0(r8)
  80e578:	d8801c15 	stw	r2,112(sp)
  80e57c:	d9001b15 	stw	r4,108(sp)
  80e580:	00c001c4 	movi	r3,7
  80e584:	19003616 	blt	r3,r4,80e660 <___vfiprintf_internal_r+0xd68>
  80e588:	42000204 	addi	r8,r8,8
  80e58c:	21000044 	addi	r4,r4,1
  80e590:	003e5706 	br	80def0 <__alt_mem_onchip_mem+0xff805ef0>
  80e594:	d9402117 	ldw	r5,132(sp)
  80e598:	d9002017 	ldw	r4,128(sp)
  80e59c:	d9801a04 	addi	r6,sp,104
  80e5a0:	d9c02b15 	stw	r7,172(sp)
  80e5a4:	db402a15 	stw	r13,168(sp)
  80e5a8:	080d7e40 	call	80d7e4 <__sprint_r.part.0>
  80e5ac:	d9c02b17 	ldw	r7,172(sp)
  80e5b0:	db402a17 	ldw	r13,168(sp)
  80e5b4:	1000241e 	bne	r2,zero,80e648 <___vfiprintf_internal_r+0xd50>
  80e5b8:	d9401b17 	ldw	r5,108(sp)
  80e5bc:	d8801c17 	ldw	r2,112(sp)
  80e5c0:	d811883a 	mov	r8,sp
  80e5c4:	29000044 	addi	r4,r5,1
  80e5c8:	003fd806 	br	80e52c <__alt_mem_onchip_mem+0xff80652c>
  80e5cc:	d9401b17 	ldw	r5,108(sp)
  80e5d0:	00c02074 	movhi	r3,129
  80e5d4:	18d75604 	addi	r3,r3,23896
  80e5d8:	d8c02415 	stw	r3,144(sp)
  80e5dc:	29400044 	addi	r5,r5,1
  80e5e0:	d8c02417 	ldw	r3,144(sp)
  80e5e4:	14c5883a 	add	r2,r2,r19
  80e5e8:	44c00115 	stw	r19,4(r8)
  80e5ec:	40c00015 	stw	r3,0(r8)
  80e5f0:	d8801c15 	stw	r2,112(sp)
  80e5f4:	d9401b15 	stw	r5,108(sp)
  80e5f8:	00c001c4 	movi	r3,7
  80e5fc:	1940070e 	bge	r3,r5,80e61c <___vfiprintf_internal_r+0xd24>
  80e600:	103e4826 	beq	r2,zero,80df24 <__alt_mem_onchip_mem+0xff805f24>
  80e604:	d9402117 	ldw	r5,132(sp)
  80e608:	d9002017 	ldw	r4,128(sp)
  80e60c:	d9801a04 	addi	r6,sp,104
  80e610:	080d7e40 	call	80d7e4 <__sprint_r.part.0>
  80e614:	10000c1e 	bne	r2,zero,80e648 <___vfiprintf_internal_r+0xd50>
  80e618:	d8801c17 	ldw	r2,112(sp)
  80e61c:	8c80010e 	bge	r17,r18,80e624 <___vfiprintf_internal_r+0xd2c>
  80e620:	9023883a 	mov	r17,r18
  80e624:	da802317 	ldw	r10,140(sp)
  80e628:	5455883a 	add	r10,r10,r17
  80e62c:	da802315 	stw	r10,140(sp)
  80e630:	103e4126 	beq	r2,zero,80df38 <__alt_mem_onchip_mem+0xff805f38>
  80e634:	d9402117 	ldw	r5,132(sp)
  80e638:	d9002017 	ldw	r4,128(sp)
  80e63c:	d9801a04 	addi	r6,sp,104
  80e640:	080d7e40 	call	80d7e4 <__sprint_r.part.0>
  80e644:	103e3c26 	beq	r2,zero,80df38 <__alt_mem_onchip_mem+0xff805f38>
  80e648:	dd002117 	ldw	r20,132(sp)
  80e64c:	a080030b 	ldhu	r2,12(r20)
  80e650:	1080100c 	andi	r2,r2,64
  80e654:	1001231e 	bne	r2,zero,80eae4 <___vfiprintf_internal_r+0x11ec>
  80e658:	d8802317 	ldw	r2,140(sp)
  80e65c:	003d7b06 	br	80dc4c <__alt_mem_onchip_mem+0xff805c4c>
  80e660:	1000991e 	bne	r2,zero,80e8c8 <___vfiprintf_internal_r+0xfd0>
  80e664:	00c00044 	movi	r3,1
  80e668:	9805883a 	mov	r2,r19
  80e66c:	dd400015 	stw	r21,0(sp)
  80e670:	dcc00115 	stw	r19,4(sp)
  80e674:	dcc01c15 	stw	r19,112(sp)
  80e678:	d8c01b15 	stw	r3,108(sp)
  80e67c:	d811883a 	mov	r8,sp
  80e680:	42000204 	addi	r8,r8,8
  80e684:	a2c0010c 	andi	r11,r20,4
  80e688:	583fe426 	beq	r11,zero,80e61c <__alt_mem_onchip_mem+0xff80661c>
  80e68c:	8ca7c83a 	sub	r19,r17,r18
  80e690:	04ffe20e 	bge	zero,r19,80e61c <__alt_mem_onchip_mem+0xff80661c>
  80e694:	01c00404 	movi	r7,16
  80e698:	3cffcc0e 	bge	r7,r19,80e5cc <__alt_mem_onchip_mem+0xff8065cc>
  80e69c:	02802074 	movhi	r10,129
  80e6a0:	52975604 	addi	r10,r10,23896
  80e6a4:	d9001b17 	ldw	r4,108(sp)
  80e6a8:	da802415 	stw	r10,144(sp)
  80e6ac:	382b883a 	mov	r21,r7
  80e6b0:	050001c4 	movi	r20,7
  80e6b4:	df002017 	ldw	fp,128(sp)
  80e6b8:	00000506 	br	80e6d0 <___vfiprintf_internal_r+0xdd8>
  80e6bc:	21400084 	addi	r5,r4,2
  80e6c0:	42000204 	addi	r8,r8,8
  80e6c4:	1809883a 	mov	r4,r3
  80e6c8:	9cfffc04 	addi	r19,r19,-16
  80e6cc:	acffc40e 	bge	r21,r19,80e5e0 <__alt_mem_onchip_mem+0xff8065e0>
  80e6d0:	10800404 	addi	r2,r2,16
  80e6d4:	20c00044 	addi	r3,r4,1
  80e6d8:	45800015 	stw	r22,0(r8)
  80e6dc:	45400115 	stw	r21,4(r8)
  80e6e0:	d8801c15 	stw	r2,112(sp)
  80e6e4:	d8c01b15 	stw	r3,108(sp)
  80e6e8:	a0fff40e 	bge	r20,r3,80e6bc <__alt_mem_onchip_mem+0xff8066bc>
  80e6ec:	1000041e 	bne	r2,zero,80e700 <___vfiprintf_internal_r+0xe08>
  80e6f0:	01400044 	movi	r5,1
  80e6f4:	0009883a 	mov	r4,zero
  80e6f8:	d811883a 	mov	r8,sp
  80e6fc:	003ff206 	br	80e6c8 <__alt_mem_onchip_mem+0xff8066c8>
  80e700:	d9402117 	ldw	r5,132(sp)
  80e704:	d9801a04 	addi	r6,sp,104
  80e708:	e009883a 	mov	r4,fp
  80e70c:	080d7e40 	call	80d7e4 <__sprint_r.part.0>
  80e710:	103fcd1e 	bne	r2,zero,80e648 <__alt_mem_onchip_mem+0xff806648>
  80e714:	d9001b17 	ldw	r4,108(sp)
  80e718:	d8801c17 	ldw	r2,112(sp)
  80e71c:	d811883a 	mov	r8,sp
  80e720:	21400044 	addi	r5,r4,1
  80e724:	003fe806 	br	80e6c8 <__alt_mem_onchip_mem+0xff8066c8>
  80e728:	d9402117 	ldw	r5,132(sp)
  80e72c:	d9002017 	ldw	r4,128(sp)
  80e730:	d9801a04 	addi	r6,sp,104
  80e734:	d9c02b15 	stw	r7,172(sp)
  80e738:	db402a15 	stw	r13,168(sp)
  80e73c:	080d7e40 	call	80d7e4 <__sprint_r.part.0>
  80e740:	d9c02b17 	ldw	r7,172(sp)
  80e744:	db402a17 	ldw	r13,168(sp)
  80e748:	103fbf1e 	bne	r2,zero,80e648 <__alt_mem_onchip_mem+0xff806648>
  80e74c:	d9401b17 	ldw	r5,108(sp)
  80e750:	d8801c17 	ldw	r2,112(sp)
  80e754:	d811883a 	mov	r8,sp
  80e758:	29800044 	addi	r6,r5,1
  80e75c:	003dc406 	br	80de70 <__alt_mem_onchip_mem+0xff805e70>
  80e760:	1000d21e 	bne	r2,zero,80eaac <___vfiprintf_internal_r+0x11b4>
  80e764:	d8c01d87 	ldb	r3,118(sp)
  80e768:	18009526 	beq	r3,zero,80e9c0 <___vfiprintf_internal_r+0x10c8>
  80e76c:	00800044 	movi	r2,1
  80e770:	d8c01d84 	addi	r3,sp,118
  80e774:	1009883a 	mov	r4,r2
  80e778:	d8c00015 	stw	r3,0(sp)
  80e77c:	d8800115 	stw	r2,4(sp)
  80e780:	d811883a 	mov	r8,sp
  80e784:	200b883a 	mov	r5,r4
  80e788:	42000204 	addi	r8,r8,8
  80e78c:	21000044 	addi	r4,r4,1
  80e790:	003d9706 	br	80ddf0 <__alt_mem_onchip_mem+0xff805df0>
  80e794:	d9001d04 	addi	r4,sp,116
  80e798:	00800084 	movi	r2,2
  80e79c:	d9000015 	stw	r4,0(sp)
  80e7a0:	d8800115 	stw	r2,4(sp)
  80e7a4:	1809883a 	mov	r4,r3
  80e7a8:	d811883a 	mov	r8,sp
  80e7ac:	200b883a 	mov	r5,r4
  80e7b0:	42000204 	addi	r8,r8,8
  80e7b4:	21000044 	addi	r4,r4,1
  80e7b8:	003f4e06 	br	80e4f4 <__alt_mem_onchip_mem+0xff8064f4>
  80e7bc:	d8001d85 	stb	zero,118(sp)
  80e7c0:	48005016 	blt	r9,zero,80e904 <___vfiprintf_internal_r+0x100c>
  80e7c4:	00ffdfc4 	movi	r3,-129
  80e7c8:	94c4b03a 	or	r2,r18,r19
  80e7cc:	a0e8703a 	and	r20,r20,r3
  80e7d0:	103d4426 	beq	r2,zero,80dce4 <__alt_mem_onchip_mem+0xff805ce4>
  80e7d4:	0039883a 	mov	fp,zero
  80e7d8:	d9002617 	ldw	r4,152(sp)
  80e7dc:	dd401a04 	addi	r21,sp,104
  80e7e0:	908003cc 	andi	r2,r18,15
  80e7e4:	9806973a 	slli	r3,r19,28
  80e7e8:	2085883a 	add	r2,r4,r2
  80e7ec:	9024d13a 	srli	r18,r18,4
  80e7f0:	10800003 	ldbu	r2,0(r2)
  80e7f4:	9826d13a 	srli	r19,r19,4
  80e7f8:	ad7fffc4 	addi	r21,r21,-1
  80e7fc:	1ca4b03a 	or	r18,r3,r18
  80e800:	a8800005 	stb	r2,0(r21)
  80e804:	94c4b03a 	or	r2,r18,r19
  80e808:	103ff51e 	bne	r2,zero,80e7e0 <__alt_mem_onchip_mem+0xff8067e0>
  80e80c:	003e5906 	br	80e174 <__alt_mem_onchip_mem+0xff806174>
  80e810:	d9402117 	ldw	r5,132(sp)
  80e814:	d9002017 	ldw	r4,128(sp)
  80e818:	d9801a04 	addi	r6,sp,104
  80e81c:	080d7e40 	call	80d7e4 <__sprint_r.part.0>
  80e820:	103f891e 	bne	r2,zero,80e648 <__alt_mem_onchip_mem+0xff806648>
  80e824:	d8801c17 	ldw	r2,112(sp)
  80e828:	d811883a 	mov	r8,sp
  80e82c:	003f9506 	br	80e684 <__alt_mem_onchip_mem+0xff806684>
  80e830:	d9402117 	ldw	r5,132(sp)
  80e834:	d9002017 	ldw	r4,128(sp)
  80e838:	d9801a04 	addi	r6,sp,104
  80e83c:	080d7e40 	call	80d7e4 <__sprint_r.part.0>
  80e840:	103f811e 	bne	r2,zero,80e648 <__alt_mem_onchip_mem+0xff806648>
  80e844:	d811883a 	mov	r8,sp
  80e848:	003ced06 	br	80dc00 <__alt_mem_onchip_mem+0xff805c00>
  80e84c:	d9402117 	ldw	r5,132(sp)
  80e850:	d9002017 	ldw	r4,128(sp)
  80e854:	d9801a04 	addi	r6,sp,104
  80e858:	da402c15 	stw	r9,176(sp)
  80e85c:	db802a15 	stw	r14,168(sp)
  80e860:	080d7e40 	call	80d7e4 <__sprint_r.part.0>
  80e864:	da402c17 	ldw	r9,176(sp)
  80e868:	db802a17 	ldw	r14,168(sp)
  80e86c:	103f761e 	bne	r2,zero,80e648 <__alt_mem_onchip_mem+0xff806648>
  80e870:	d9401b17 	ldw	r5,108(sp)
  80e874:	d8801c17 	ldw	r2,112(sp)
  80e878:	d811883a 	mov	r8,sp
  80e87c:	29000044 	addi	r4,r5,1
  80e880:	003d5b06 	br	80ddf0 <__alt_mem_onchip_mem+0xff805df0>
  80e884:	d9402117 	ldw	r5,132(sp)
  80e888:	d9002017 	ldw	r4,128(sp)
  80e88c:	d9801a04 	addi	r6,sp,104
  80e890:	da402c15 	stw	r9,176(sp)
  80e894:	080d7e40 	call	80d7e4 <__sprint_r.part.0>
  80e898:	da402c17 	ldw	r9,176(sp)
  80e89c:	103f6a1e 	bne	r2,zero,80e648 <__alt_mem_onchip_mem+0xff806648>
  80e8a0:	d9401b17 	ldw	r5,108(sp)
  80e8a4:	d8801c17 	ldw	r2,112(sp)
  80e8a8:	d811883a 	mov	r8,sp
  80e8ac:	29000044 	addi	r4,r5,1
  80e8b0:	003f1006 	br	80e4f4 <__alt_mem_onchip_mem+0xff8064f4>
  80e8b4:	1000c31e 	bne	r2,zero,80ebc4 <___vfiprintf_internal_r+0x12cc>
  80e8b8:	01000044 	movi	r4,1
  80e8bc:	000b883a 	mov	r5,zero
  80e8c0:	d811883a 	mov	r8,sp
  80e8c4:	003f0d06 	br	80e4fc <__alt_mem_onchip_mem+0xff8064fc>
  80e8c8:	d9402117 	ldw	r5,132(sp)
  80e8cc:	d9002017 	ldw	r4,128(sp)
  80e8d0:	d9801a04 	addi	r6,sp,104
  80e8d4:	080d7e40 	call	80d7e4 <__sprint_r.part.0>
  80e8d8:	103f5b1e 	bne	r2,zero,80e648 <__alt_mem_onchip_mem+0xff806648>
  80e8dc:	d9001b17 	ldw	r4,108(sp)
  80e8e0:	d8801c17 	ldw	r2,112(sp)
  80e8e4:	d811883a 	mov	r8,sp
  80e8e8:	21000044 	addi	r4,r4,1
  80e8ec:	003d8006 	br	80def0 <__alt_mem_onchip_mem+0xff805ef0>
  80e8f0:	01002074 	movhi	r4,129
  80e8f4:	2116f104 	addi	r4,r4,23492
  80e8f8:	d9002615 	stw	r4,152(sp)
  80e8fc:	d8c02215 	stw	r3,136(sp)
  80e900:	1029883a 	mov	r20,r2
  80e904:	94c4b03a 	or	r2,r18,r19
  80e908:	103fb21e 	bne	r2,zero,80e7d4 <__alt_mem_onchip_mem+0xff8067d4>
  80e90c:	0039883a 	mov	fp,zero
  80e910:	00800084 	movi	r2,2
  80e914:	003e6b06 	br	80e2c4 <__alt_mem_onchip_mem+0xff8062c4>
  80e918:	da802217 	ldw	r10,136(sp)
  80e91c:	d8001d85 	stb	zero,118(sp)
  80e920:	0027883a 	mov	r19,zero
  80e924:	50800104 	addi	r2,r10,4
  80e928:	54800017 	ldw	r18,0(r10)
  80e92c:	483e6016 	blt	r9,zero,80e2b0 <__alt_mem_onchip_mem+0xff8062b0>
  80e930:	00ffdfc4 	movi	r3,-129
  80e934:	d8802215 	stw	r2,136(sp)
  80e938:	a0e8703a 	and	r20,r20,r3
  80e93c:	0039883a 	mov	fp,zero
  80e940:	903ebb26 	beq	r18,zero,80e430 <__alt_mem_onchip_mem+0xff806430>
  80e944:	00800244 	movi	r2,9
  80e948:	14bdee36 	bltu	r2,r18,80e104 <__alt_mem_onchip_mem+0xff806104>
  80e94c:	003eba06 	br	80e438 <__alt_mem_onchip_mem+0xff806438>
  80e950:	00800c04 	movi	r2,48
  80e954:	d8c01d45 	stb	r3,117(sp)
  80e958:	d8801d05 	stb	r2,116(sp)
  80e95c:	d8001d85 	stb	zero,118(sp)
  80e960:	a0c00094 	ori	r3,r20,2
  80e964:	4800a916 	blt	r9,zero,80ec0c <___vfiprintf_internal_r+0x1314>
  80e968:	00bfdfc4 	movi	r2,-129
  80e96c:	a096703a 	and	r11,r20,r2
  80e970:	5d000094 	ori	r20,r11,2
  80e974:	0039883a 	mov	fp,zero
  80e978:	003f9706 	br	80e7d8 <__alt_mem_onchip_mem+0xff8067d8>
  80e97c:	8025883a 	mov	r18,r16
  80e980:	003c2e06 	br	80da3c <__alt_mem_onchip_mem+0xff805a3c>
  80e984:	00802074 	movhi	r2,129
  80e988:	1096f104 	addi	r2,r2,23492
  80e98c:	0039883a 	mov	fp,zero
  80e990:	d8802615 	stw	r2,152(sp)
  80e994:	003f9006 	br	80e7d8 <__alt_mem_onchip_mem+0xff8067d8>
  80e998:	04a5c83a 	sub	r18,zero,r18
  80e99c:	07000b44 	movi	fp,45
  80e9a0:	9004c03a 	cmpne	r2,r18,zero
  80e9a4:	04e7c83a 	sub	r19,zero,r19
  80e9a8:	df001d85 	stb	fp,118(sp)
  80e9ac:	98a7c83a 	sub	r19,r19,r2
  80e9b0:	48009f16 	blt	r9,zero,80ec30 <___vfiprintf_internal_r+0x1338>
  80e9b4:	00bfdfc4 	movi	r2,-129
  80e9b8:	a0a8703a 	and	r20,r20,r2
  80e9bc:	003dd006 	br	80e100 <__alt_mem_onchip_mem+0xff806100>
  80e9c0:	70004c26 	beq	r14,zero,80eaf4 <___vfiprintf_internal_r+0x11fc>
  80e9c4:	00800084 	movi	r2,2
  80e9c8:	d8c01d04 	addi	r3,sp,116
  80e9cc:	d8c00015 	stw	r3,0(sp)
  80e9d0:	d8800115 	stw	r2,4(sp)
  80e9d4:	01000044 	movi	r4,1
  80e9d8:	d811883a 	mov	r8,sp
  80e9dc:	003f7306 	br	80e7ac <__alt_mem_onchip_mem+0xff8067ac>
  80e9e0:	a080100c 	andi	r2,r20,64
  80e9e4:	da802217 	ldw	r10,136(sp)
  80e9e8:	103e0626 	beq	r2,zero,80e204 <__alt_mem_onchip_mem+0xff806204>
  80e9ec:	5480000f 	ldh	r18,0(r10)
  80e9f0:	52800104 	addi	r10,r10,4
  80e9f4:	da802215 	stw	r10,136(sp)
  80e9f8:	9027d7fa 	srai	r19,r18,31
  80e9fc:	9805883a 	mov	r2,r19
  80ea00:	003db806 	br	80e0e4 <__alt_mem_onchip_mem+0xff8060e4>
  80ea04:	a080040c 	andi	r2,r20,16
  80ea08:	1000091e 	bne	r2,zero,80ea30 <___vfiprintf_internal_r+0x1138>
  80ea0c:	a2c0100c 	andi	r11,r20,64
  80ea10:	58000726 	beq	r11,zero,80ea30 <___vfiprintf_internal_r+0x1138>
  80ea14:	da802217 	ldw	r10,136(sp)
  80ea18:	50800017 	ldw	r2,0(r10)
  80ea1c:	52800104 	addi	r10,r10,4
  80ea20:	da802215 	stw	r10,136(sp)
  80ea24:	da802317 	ldw	r10,140(sp)
  80ea28:	1280000d 	sth	r10,0(r2)
  80ea2c:	003be706 	br	80d9cc <__alt_mem_onchip_mem+0xff8059cc>
  80ea30:	da802217 	ldw	r10,136(sp)
  80ea34:	50800017 	ldw	r2,0(r10)
  80ea38:	52800104 	addi	r10,r10,4
  80ea3c:	da802215 	stw	r10,136(sp)
  80ea40:	da802317 	ldw	r10,140(sp)
  80ea44:	12800015 	stw	r10,0(r2)
  80ea48:	003be006 	br	80d9cc <__alt_mem_onchip_mem+0xff8059cc>
  80ea4c:	a080100c 	andi	r2,r20,64
  80ea50:	da802217 	ldw	r10,136(sp)
  80ea54:	10003026 	beq	r2,zero,80eb18 <___vfiprintf_internal_r+0x1220>
  80ea58:	5480000b 	ldhu	r18,0(r10)
  80ea5c:	52800104 	addi	r10,r10,4
  80ea60:	0027883a 	mov	r19,zero
  80ea64:	da802215 	stw	r10,136(sp)
  80ea68:	003d8006 	br	80e06c <__alt_mem_onchip_mem+0xff80606c>
  80ea6c:	80c00007 	ldb	r3,0(r16)
  80ea70:	003c0006 	br	80da74 <__alt_mem_onchip_mem+0xff805a74>
  80ea74:	a080100c 	andi	r2,r20,64
  80ea78:	d8001d85 	stb	zero,118(sp)
  80ea7c:	da802217 	ldw	r10,136(sp)
  80ea80:	1000201e 	bne	r2,zero,80eb04 <___vfiprintf_internal_r+0x120c>
  80ea84:	50800104 	addi	r2,r10,4
  80ea88:	54800017 	ldw	r18,0(r10)
  80ea8c:	0027883a 	mov	r19,zero
  80ea90:	483def0e 	bge	r9,zero,80e250 <__alt_mem_onchip_mem+0xff806250>
  80ea94:	94c6b03a 	or	r3,r18,r19
  80ea98:	d8802215 	stw	r2,136(sp)
  80ea9c:	183d4e1e 	bne	r3,zero,80dfd8 <__alt_mem_onchip_mem+0xff805fd8>
  80eaa0:	0039883a 	mov	fp,zero
  80eaa4:	0005883a 	mov	r2,zero
  80eaa8:	003e0606 	br	80e2c4 <__alt_mem_onchip_mem+0xff8062c4>
  80eaac:	d9402117 	ldw	r5,132(sp)
  80eab0:	d9002017 	ldw	r4,128(sp)
  80eab4:	d9801a04 	addi	r6,sp,104
  80eab8:	da402c15 	stw	r9,176(sp)
  80eabc:	db802a15 	stw	r14,168(sp)
  80eac0:	080d7e40 	call	80d7e4 <__sprint_r.part.0>
  80eac4:	da402c17 	ldw	r9,176(sp)
  80eac8:	db802a17 	ldw	r14,168(sp)
  80eacc:	103ede1e 	bne	r2,zero,80e648 <__alt_mem_onchip_mem+0xff806648>
  80ead0:	d9401b17 	ldw	r5,108(sp)
  80ead4:	d8801c17 	ldw	r2,112(sp)
  80ead8:	d811883a 	mov	r8,sp
  80eadc:	29000044 	addi	r4,r5,1
  80eae0:	003e7406 	br	80e4b4 <__alt_mem_onchip_mem+0xff8064b4>
  80eae4:	00bfffc4 	movi	r2,-1
  80eae8:	003c5806 	br	80dc4c <__alt_mem_onchip_mem+0xff805c4c>
  80eaec:	d811883a 	mov	r8,sp
  80eaf0:	003ee806 	br	80e694 <__alt_mem_onchip_mem+0xff806694>
  80eaf4:	000b883a 	mov	r5,zero
  80eaf8:	01000044 	movi	r4,1
  80eafc:	d811883a 	mov	r8,sp
  80eb00:	003e7c06 	br	80e4f4 <__alt_mem_onchip_mem+0xff8064f4>
  80eb04:	50800104 	addi	r2,r10,4
  80eb08:	5480000b 	ldhu	r18,0(r10)
  80eb0c:	0027883a 	mov	r19,zero
  80eb10:	483dcf0e 	bge	r9,zero,80e250 <__alt_mem_onchip_mem+0xff806250>
  80eb14:	003fdf06 	br	80ea94 <__alt_mem_onchip_mem+0xff806a94>
  80eb18:	54800017 	ldw	r18,0(r10)
  80eb1c:	52800104 	addi	r10,r10,4
  80eb20:	0027883a 	mov	r19,zero
  80eb24:	da802215 	stw	r10,136(sp)
  80eb28:	003d5006 	br	80e06c <__alt_mem_onchip_mem+0xff80606c>
  80eb2c:	50800104 	addi	r2,r10,4
  80eb30:	5480000b 	ldhu	r18,0(r10)
  80eb34:	0027883a 	mov	r19,zero
  80eb38:	483f7d0e 	bge	r9,zero,80e930 <__alt_mem_onchip_mem+0xff806930>
  80eb3c:	003ddc06 	br	80e2b0 <__alt_mem_onchip_mem+0xff8062b0>
  80eb40:	d8c02215 	stw	r3,136(sp)
  80eb44:	0039883a 	mov	fp,zero
  80eb48:	003ddb06 	br	80e2b8 <__alt_mem_onchip_mem+0xff8062b8>
  80eb4c:	02802074 	movhi	r10,129
  80eb50:	52975204 	addi	r10,r10,23880
  80eb54:	da802415 	stw	r10,144(sp)
  80eb58:	003e8306 	br	80e568 <__alt_mem_onchip_mem+0xff806568>
  80eb5c:	d8801c17 	ldw	r2,112(sp)
  80eb60:	dd002117 	ldw	r20,132(sp)
  80eb64:	103eb926 	beq	r2,zero,80e64c <__alt_mem_onchip_mem+0xff80664c>
  80eb68:	d9002017 	ldw	r4,128(sp)
  80eb6c:	d9801a04 	addi	r6,sp,104
  80eb70:	a00b883a 	mov	r5,r20
  80eb74:	080d7e40 	call	80d7e4 <__sprint_r.part.0>
  80eb78:	003eb406 	br	80e64c <__alt_mem_onchip_mem+0xff80664c>
  80eb7c:	80c00043 	ldbu	r3,1(r16)
  80eb80:	a5000814 	ori	r20,r20,32
  80eb84:	84000044 	addi	r16,r16,1
  80eb88:	18c03fcc 	andi	r3,r3,255
  80eb8c:	18c0201c 	xori	r3,r3,128
  80eb90:	18ffe004 	addi	r3,r3,-128
  80eb94:	003bb706 	br	80da74 <__alt_mem_onchip_mem+0xff805a74>
  80eb98:	a809883a 	mov	r4,r21
  80eb9c:	d8c02a15 	stw	r3,168(sp)
  80eba0:	da002b15 	stw	r8,172(sp)
  80eba4:	080d74c0 	call	80d74c <strlen>
  80eba8:	d8c02a17 	ldw	r3,168(sp)
  80ebac:	1027883a 	mov	r19,r2
  80ebb0:	df001d83 	ldbu	fp,118(sp)
  80ebb4:	d8c02215 	stw	r3,136(sp)
  80ebb8:	0013883a 	mov	r9,zero
  80ebbc:	da002b17 	ldw	r8,172(sp)
  80ebc0:	003c4d06 	br	80dcf8 <__alt_mem_onchip_mem+0xff805cf8>
  80ebc4:	d9402117 	ldw	r5,132(sp)
  80ebc8:	d9002017 	ldw	r4,128(sp)
  80ebcc:	d9801a04 	addi	r6,sp,104
  80ebd0:	da402c15 	stw	r9,176(sp)
  80ebd4:	080d7e40 	call	80d7e4 <__sprint_r.part.0>
  80ebd8:	da402c17 	ldw	r9,176(sp)
  80ebdc:	103e9a1e 	bne	r2,zero,80e648 <__alt_mem_onchip_mem+0xff806648>
  80ebe0:	d9401b17 	ldw	r5,108(sp)
  80ebe4:	d8801c17 	ldw	r2,112(sp)
  80ebe8:	d811883a 	mov	r8,sp
  80ebec:	29000044 	addi	r4,r5,1
  80ebf0:	003e4206 	br	80e4fc <__alt_mem_onchip_mem+0xff8064fc>
  80ebf4:	d9401b17 	ldw	r5,108(sp)
  80ebf8:	01002074 	movhi	r4,129
  80ebfc:	21175604 	addi	r4,r4,23896
  80ec00:	d9002415 	stw	r4,144(sp)
  80ec04:	29400044 	addi	r5,r5,1
  80ec08:	003c6d06 	br	80ddc0 <__alt_mem_onchip_mem+0xff805dc0>
  80ec0c:	0039883a 	mov	fp,zero
  80ec10:	00800084 	movi	r2,2
  80ec14:	10803fcc 	andi	r2,r2,255
  80ec18:	01000044 	movi	r4,1
  80ec1c:	11001e26 	beq	r2,r4,80ec98 <___vfiprintf_internal_r+0x13a0>
  80ec20:	01000084 	movi	r4,2
  80ec24:	11001e1e 	bne	r2,r4,80eca0 <___vfiprintf_internal_r+0x13a8>
  80ec28:	1829883a 	mov	r20,r3
  80ec2c:	003eea06 	br	80e7d8 <__alt_mem_onchip_mem+0xff8067d8>
  80ec30:	a007883a 	mov	r3,r20
  80ec34:	00800044 	movi	r2,1
  80ec38:	003ff606 	br	80ec14 <__alt_mem_onchip_mem+0xff806c14>
  80ec3c:	00800184 	movi	r2,6
  80ec40:	1240012e 	bgeu	r2,r9,80ec48 <___vfiprintf_internal_r+0x1350>
  80ec44:	1013883a 	mov	r9,r2
  80ec48:	4827883a 	mov	r19,r9
  80ec4c:	4825883a 	mov	r18,r9
  80ec50:	48001516 	blt	r9,zero,80eca8 <___vfiprintf_internal_r+0x13b0>
  80ec54:	05402074 	movhi	r21,129
  80ec58:	d8c02215 	stw	r3,136(sp)
  80ec5c:	ad56f604 	addi	r21,r21,23512
  80ec60:	003d1406 	br	80e0b4 <__alt_mem_onchip_mem+0xff8060b4>
  80ec64:	02802074 	movhi	r10,129
  80ec68:	52975204 	addi	r10,r10,23880
  80ec6c:	da802415 	stw	r10,144(sp)
  80ec70:	200d883a 	mov	r6,r4
  80ec74:	003c9106 	br	80debc <__alt_mem_onchip_mem+0xff805ebc>
  80ec78:	5021883a 	mov	r16,r10
  80ec7c:	0013883a 	mov	r9,zero
  80ec80:	003b7d06 	br	80da78 <__alt_mem_onchip_mem+0xff805a78>
  80ec84:	4827883a 	mov	r19,r9
  80ec88:	df001d83 	ldbu	fp,118(sp)
  80ec8c:	d8c02215 	stw	r3,136(sp)
  80ec90:	0013883a 	mov	r9,zero
  80ec94:	003c1806 	br	80dcf8 <__alt_mem_onchip_mem+0xff805cf8>
  80ec98:	1829883a 	mov	r20,r3
  80ec9c:	003d1806 	br	80e100 <__alt_mem_onchip_mem+0xff806100>
  80eca0:	1829883a 	mov	r20,r3
  80eca4:	003ccd06 	br	80dfdc <__alt_mem_onchip_mem+0xff805fdc>
  80eca8:	0025883a 	mov	r18,zero
  80ecac:	003fe906 	br	80ec54 <__alt_mem_onchip_mem+0xff806c54>
  80ecb0:	d8802217 	ldw	r2,136(sp)
  80ecb4:	80c00043 	ldbu	r3,1(r16)
  80ecb8:	5021883a 	mov	r16,r10
  80ecbc:	12400017 	ldw	r9,0(r2)
  80ecc0:	10800104 	addi	r2,r2,4
  80ecc4:	d8802215 	stw	r2,136(sp)
  80ecc8:	483faf0e 	bge	r9,zero,80eb88 <__alt_mem_onchip_mem+0xff806b88>
  80eccc:	18c03fcc 	andi	r3,r3,255
  80ecd0:	18c0201c 	xori	r3,r3,128
  80ecd4:	027fffc4 	movi	r9,-1
  80ecd8:	18ffe004 	addi	r3,r3,-128
  80ecdc:	003b6506 	br	80da74 <__alt_mem_onchip_mem+0xff805a74>
  80ece0:	d9c01d85 	stb	r7,118(sp)
  80ece4:	003ca006 	br	80df68 <__alt_mem_onchip_mem+0xff805f68>
  80ece8:	d9c01d85 	stb	r7,118(sp)
  80ecec:	003cad06 	br	80dfa4 <__alt_mem_onchip_mem+0xff805fa4>
  80ecf0:	d9c01d85 	stb	r7,118(sp)
  80ecf4:	003d7d06 	br	80e2ec <__alt_mem_onchip_mem+0xff8062ec>
  80ecf8:	d9c01d85 	stb	r7,118(sp)
  80ecfc:	003d5f06 	br	80e27c <__alt_mem_onchip_mem+0xff80627c>
  80ed00:	a080004c 	andi	r2,r20,1
  80ed04:	0039883a 	mov	fp,zero
  80ed08:	10000526 	beq	r2,zero,80ed20 <___vfiprintf_internal_r+0x1428>
  80ed0c:	00800c04 	movi	r2,48
  80ed10:	d88019c5 	stb	r2,103(sp)
  80ed14:	dcc02717 	ldw	r19,156(sp)
  80ed18:	dd4019c4 	addi	r21,sp,103
  80ed1c:	003bf606 	br	80dcf8 <__alt_mem_onchip_mem+0xff805cf8>
  80ed20:	0027883a 	mov	r19,zero
  80ed24:	dd401a04 	addi	r21,sp,104
  80ed28:	003bf306 	br	80dcf8 <__alt_mem_onchip_mem+0xff805cf8>
  80ed2c:	d9c01d85 	stb	r7,118(sp)
  80ed30:	003dc806 	br	80e454 <__alt_mem_onchip_mem+0xff806454>
  80ed34:	d9c01d85 	stb	r7,118(sp)
  80ed38:	003d3a06 	br	80e224 <__alt_mem_onchip_mem+0xff806224>
  80ed3c:	d9c01d85 	stb	r7,118(sp)
  80ed40:	003d2a06 	br	80e1ec <__alt_mem_onchip_mem+0xff8061ec>
  80ed44:	d9c01d85 	stb	r7,118(sp)
  80ed48:	003cde06 	br	80e0c4 <__alt_mem_onchip_mem+0xff8060c4>
  80ed4c:	d9c01d85 	stb	r7,118(sp)
  80ed50:	003cbc06 	br	80e044 <__alt_mem_onchip_mem+0xff806044>

0080ed54 <__vfiprintf_internal>:
  80ed54:	00802074 	movhi	r2,129
  80ed58:	109f3004 	addi	r2,r2,31936
  80ed5c:	300f883a 	mov	r7,r6
  80ed60:	280d883a 	mov	r6,r5
  80ed64:	200b883a 	mov	r5,r4
  80ed68:	11000017 	ldw	r4,0(r2)
  80ed6c:	080d8f81 	jmpi	80d8f8 <___vfiprintf_internal_r>

0080ed70 <__sbprintf>:
  80ed70:	2880030b 	ldhu	r2,12(r5)
  80ed74:	2ac01917 	ldw	r11,100(r5)
  80ed78:	2a80038b 	ldhu	r10,14(r5)
  80ed7c:	2a400717 	ldw	r9,28(r5)
  80ed80:	2a000917 	ldw	r8,36(r5)
  80ed84:	defee204 	addi	sp,sp,-1144
  80ed88:	00c10004 	movi	r3,1024
  80ed8c:	dc011a15 	stw	r16,1128(sp)
  80ed90:	10bfff4c 	andi	r2,r2,65533
  80ed94:	2821883a 	mov	r16,r5
  80ed98:	d8cb883a 	add	r5,sp,r3
  80ed9c:	dc811c15 	stw	r18,1136(sp)
  80eda0:	dc411b15 	stw	r17,1132(sp)
  80eda4:	dfc11d15 	stw	ra,1140(sp)
  80eda8:	2025883a 	mov	r18,r4
  80edac:	d881030d 	sth	r2,1036(sp)
  80edb0:	dac11915 	stw	r11,1124(sp)
  80edb4:	da81038d 	sth	r10,1038(sp)
  80edb8:	da410715 	stw	r9,1052(sp)
  80edbc:	da010915 	stw	r8,1060(sp)
  80edc0:	dec10015 	stw	sp,1024(sp)
  80edc4:	dec10415 	stw	sp,1040(sp)
  80edc8:	d8c10215 	stw	r3,1032(sp)
  80edcc:	d8c10515 	stw	r3,1044(sp)
  80edd0:	d8010615 	stw	zero,1048(sp)
  80edd4:	080d8f80 	call	80d8f8 <___vfiprintf_internal_r>
  80edd8:	1023883a 	mov	r17,r2
  80eddc:	10000416 	blt	r2,zero,80edf0 <__sbprintf+0x80>
  80ede0:	d9410004 	addi	r5,sp,1024
  80ede4:	9009883a 	mov	r4,r18
  80ede8:	080ac900 	call	80ac90 <_fflush_r>
  80edec:	10000d1e 	bne	r2,zero,80ee24 <__sbprintf+0xb4>
  80edf0:	d881030b 	ldhu	r2,1036(sp)
  80edf4:	1080100c 	andi	r2,r2,64
  80edf8:	10000326 	beq	r2,zero,80ee08 <__sbprintf+0x98>
  80edfc:	8080030b 	ldhu	r2,12(r16)
  80ee00:	10801014 	ori	r2,r2,64
  80ee04:	8080030d 	sth	r2,12(r16)
  80ee08:	8805883a 	mov	r2,r17
  80ee0c:	dfc11d17 	ldw	ra,1140(sp)
  80ee10:	dc811c17 	ldw	r18,1136(sp)
  80ee14:	dc411b17 	ldw	r17,1132(sp)
  80ee18:	dc011a17 	ldw	r16,1128(sp)
  80ee1c:	dec11e04 	addi	sp,sp,1144
  80ee20:	f800283a 	ret
  80ee24:	047fffc4 	movi	r17,-1
  80ee28:	003ff106 	br	80edf0 <__alt_mem_onchip_mem+0xff806df0>

0080ee2c <_write_r>:
  80ee2c:	defffd04 	addi	sp,sp,-12
  80ee30:	2805883a 	mov	r2,r5
  80ee34:	dc000015 	stw	r16,0(sp)
  80ee38:	040020b4 	movhi	r16,130
  80ee3c:	dc400115 	stw	r17,4(sp)
  80ee40:	300b883a 	mov	r5,r6
  80ee44:	84268a04 	addi	r16,r16,-26072
  80ee48:	2023883a 	mov	r17,r4
  80ee4c:	380d883a 	mov	r6,r7
  80ee50:	1009883a 	mov	r4,r2
  80ee54:	dfc00215 	stw	ra,8(sp)
  80ee58:	80000015 	stw	zero,0(r16)
  80ee5c:	08126ec0 	call	8126ec <write>
  80ee60:	00ffffc4 	movi	r3,-1
  80ee64:	10c00526 	beq	r2,r3,80ee7c <_write_r+0x50>
  80ee68:	dfc00217 	ldw	ra,8(sp)
  80ee6c:	dc400117 	ldw	r17,4(sp)
  80ee70:	dc000017 	ldw	r16,0(sp)
  80ee74:	dec00304 	addi	sp,sp,12
  80ee78:	f800283a 	ret
  80ee7c:	80c00017 	ldw	r3,0(r16)
  80ee80:	183ff926 	beq	r3,zero,80ee68 <__alt_mem_onchip_mem+0xff806e68>
  80ee84:	88c00015 	stw	r3,0(r17)
  80ee88:	003ff706 	br	80ee68 <__alt_mem_onchip_mem+0xff806e68>

0080ee8c <_close_r>:
  80ee8c:	defffd04 	addi	sp,sp,-12
  80ee90:	dc000015 	stw	r16,0(sp)
  80ee94:	040020b4 	movhi	r16,130
  80ee98:	dc400115 	stw	r17,4(sp)
  80ee9c:	84268a04 	addi	r16,r16,-26072
  80eea0:	2023883a 	mov	r17,r4
  80eea4:	2809883a 	mov	r4,r5
  80eea8:	dfc00215 	stw	ra,8(sp)
  80eeac:	80000015 	stw	zero,0(r16)
  80eeb0:	0811a980 	call	811a98 <close>
  80eeb4:	00ffffc4 	movi	r3,-1
  80eeb8:	10c00526 	beq	r2,r3,80eed0 <_close_r+0x44>
  80eebc:	dfc00217 	ldw	ra,8(sp)
  80eec0:	dc400117 	ldw	r17,4(sp)
  80eec4:	dc000017 	ldw	r16,0(sp)
  80eec8:	dec00304 	addi	sp,sp,12
  80eecc:	f800283a 	ret
  80eed0:	80c00017 	ldw	r3,0(r16)
  80eed4:	183ff926 	beq	r3,zero,80eebc <__alt_mem_onchip_mem+0xff806ebc>
  80eed8:	88c00015 	stw	r3,0(r17)
  80eedc:	003ff706 	br	80eebc <__alt_mem_onchip_mem+0xff806ebc>

0080eee0 <_calloc_r>:
  80eee0:	298b383a 	mul	r5,r5,r6
  80eee4:	defffe04 	addi	sp,sp,-8
  80eee8:	dfc00115 	stw	ra,4(sp)
  80eeec:	dc000015 	stw	r16,0(sp)
  80eef0:	080b9100 	call	80b910 <_malloc_r>
  80eef4:	10002926 	beq	r2,zero,80ef9c <_calloc_r+0xbc>
  80eef8:	11bfff17 	ldw	r6,-4(r2)
  80eefc:	1021883a 	mov	r16,r2
  80ef00:	00bfff04 	movi	r2,-4
  80ef04:	308c703a 	and	r6,r6,r2
  80ef08:	00c00904 	movi	r3,36
  80ef0c:	308d883a 	add	r6,r6,r2
  80ef10:	19801636 	bltu	r3,r6,80ef6c <_calloc_r+0x8c>
  80ef14:	008004c4 	movi	r2,19
  80ef18:	11800b2e 	bgeu	r2,r6,80ef48 <_calloc_r+0x68>
  80ef1c:	80000015 	stw	zero,0(r16)
  80ef20:	80000115 	stw	zero,4(r16)
  80ef24:	008006c4 	movi	r2,27
  80ef28:	11801a2e 	bgeu	r2,r6,80ef94 <_calloc_r+0xb4>
  80ef2c:	80000215 	stw	zero,8(r16)
  80ef30:	80000315 	stw	zero,12(r16)
  80ef34:	30c0151e 	bne	r6,r3,80ef8c <_calloc_r+0xac>
  80ef38:	80000415 	stw	zero,16(r16)
  80ef3c:	80800604 	addi	r2,r16,24
  80ef40:	80000515 	stw	zero,20(r16)
  80ef44:	00000106 	br	80ef4c <_calloc_r+0x6c>
  80ef48:	8005883a 	mov	r2,r16
  80ef4c:	10000015 	stw	zero,0(r2)
  80ef50:	10000115 	stw	zero,4(r2)
  80ef54:	10000215 	stw	zero,8(r2)
  80ef58:	8005883a 	mov	r2,r16
  80ef5c:	dfc00117 	ldw	ra,4(sp)
  80ef60:	dc000017 	ldw	r16,0(sp)
  80ef64:	dec00204 	addi	sp,sp,8
  80ef68:	f800283a 	ret
  80ef6c:	000b883a 	mov	r5,zero
  80ef70:	8009883a 	mov	r4,r16
  80ef74:	080c3480 	call	80c348 <memset>
  80ef78:	8005883a 	mov	r2,r16
  80ef7c:	dfc00117 	ldw	ra,4(sp)
  80ef80:	dc000017 	ldw	r16,0(sp)
  80ef84:	dec00204 	addi	sp,sp,8
  80ef88:	f800283a 	ret
  80ef8c:	80800404 	addi	r2,r16,16
  80ef90:	003fee06 	br	80ef4c <__alt_mem_onchip_mem+0xff806f4c>
  80ef94:	80800204 	addi	r2,r16,8
  80ef98:	003fec06 	br	80ef4c <__alt_mem_onchip_mem+0xff806f4c>
  80ef9c:	0005883a 	mov	r2,zero
  80efa0:	003fee06 	br	80ef5c <__alt_mem_onchip_mem+0xff806f5c>

0080efa4 <_fclose_r>:
  80efa4:	28003926 	beq	r5,zero,80f08c <_fclose_r+0xe8>
  80efa8:	defffc04 	addi	sp,sp,-16
  80efac:	dc400115 	stw	r17,4(sp)
  80efb0:	dc000015 	stw	r16,0(sp)
  80efb4:	dfc00315 	stw	ra,12(sp)
  80efb8:	dc800215 	stw	r18,8(sp)
  80efbc:	2023883a 	mov	r17,r4
  80efc0:	2821883a 	mov	r16,r5
  80efc4:	20000226 	beq	r4,zero,80efd0 <_fclose_r+0x2c>
  80efc8:	20800e17 	ldw	r2,56(r4)
  80efcc:	10002726 	beq	r2,zero,80f06c <_fclose_r+0xc8>
  80efd0:	8080030f 	ldh	r2,12(r16)
  80efd4:	1000071e 	bne	r2,zero,80eff4 <_fclose_r+0x50>
  80efd8:	0005883a 	mov	r2,zero
  80efdc:	dfc00317 	ldw	ra,12(sp)
  80efe0:	dc800217 	ldw	r18,8(sp)
  80efe4:	dc400117 	ldw	r17,4(sp)
  80efe8:	dc000017 	ldw	r16,0(sp)
  80efec:	dec00404 	addi	sp,sp,16
  80eff0:	f800283a 	ret
  80eff4:	800b883a 	mov	r5,r16
  80eff8:	8809883a 	mov	r4,r17
  80effc:	080aa740 	call	80aa74 <__sflush_r>
  80f000:	1025883a 	mov	r18,r2
  80f004:	80800b17 	ldw	r2,44(r16)
  80f008:	10000426 	beq	r2,zero,80f01c <_fclose_r+0x78>
  80f00c:	81400717 	ldw	r5,28(r16)
  80f010:	8809883a 	mov	r4,r17
  80f014:	103ee83a 	callr	r2
  80f018:	10001616 	blt	r2,zero,80f074 <_fclose_r+0xd0>
  80f01c:	8080030b 	ldhu	r2,12(r16)
  80f020:	1080200c 	andi	r2,r2,128
  80f024:	1000151e 	bne	r2,zero,80f07c <_fclose_r+0xd8>
  80f028:	81400c17 	ldw	r5,48(r16)
  80f02c:	28000526 	beq	r5,zero,80f044 <_fclose_r+0xa0>
  80f030:	80801004 	addi	r2,r16,64
  80f034:	28800226 	beq	r5,r2,80f040 <_fclose_r+0x9c>
  80f038:	8809883a 	mov	r4,r17
  80f03c:	080b1e00 	call	80b1e0 <_free_r>
  80f040:	80000c15 	stw	zero,48(r16)
  80f044:	81401117 	ldw	r5,68(r16)
  80f048:	28000326 	beq	r5,zero,80f058 <_fclose_r+0xb4>
  80f04c:	8809883a 	mov	r4,r17
  80f050:	080b1e00 	call	80b1e0 <_free_r>
  80f054:	80001115 	stw	zero,68(r16)
  80f058:	080b07c0 	call	80b07c <__sfp_lock_acquire>
  80f05c:	8000030d 	sth	zero,12(r16)
  80f060:	080b0800 	call	80b080 <__sfp_lock_release>
  80f064:	9005883a 	mov	r2,r18
  80f068:	003fdc06 	br	80efdc <__alt_mem_onchip_mem+0xff806fdc>
  80f06c:	080b06c0 	call	80b06c <__sinit>
  80f070:	003fd706 	br	80efd0 <__alt_mem_onchip_mem+0xff806fd0>
  80f074:	04bfffc4 	movi	r18,-1
  80f078:	003fe806 	br	80f01c <__alt_mem_onchip_mem+0xff80701c>
  80f07c:	81400417 	ldw	r5,16(r16)
  80f080:	8809883a 	mov	r4,r17
  80f084:	080b1e00 	call	80b1e0 <_free_r>
  80f088:	003fe706 	br	80f028 <__alt_mem_onchip_mem+0xff807028>
  80f08c:	0005883a 	mov	r2,zero
  80f090:	f800283a 	ret

0080f094 <fclose>:
  80f094:	00802074 	movhi	r2,129
  80f098:	109f3004 	addi	r2,r2,31936
  80f09c:	200b883a 	mov	r5,r4
  80f0a0:	11000017 	ldw	r4,0(r2)
  80f0a4:	080efa41 	jmpi	80efa4 <_fclose_r>

0080f0a8 <__fputwc>:
  80f0a8:	defff804 	addi	sp,sp,-32
  80f0ac:	dcc00415 	stw	r19,16(sp)
  80f0b0:	dc800315 	stw	r18,12(sp)
  80f0b4:	dc000115 	stw	r16,4(sp)
  80f0b8:	dfc00715 	stw	ra,28(sp)
  80f0bc:	dd400615 	stw	r21,24(sp)
  80f0c0:	dd000515 	stw	r20,20(sp)
  80f0c4:	dc400215 	stw	r17,8(sp)
  80f0c8:	2027883a 	mov	r19,r4
  80f0cc:	2825883a 	mov	r18,r5
  80f0d0:	3021883a 	mov	r16,r6
  80f0d4:	080b7000 	call	80b700 <__locale_mb_cur_max>
  80f0d8:	00c00044 	movi	r3,1
  80f0dc:	10c03e26 	beq	r2,r3,80f1d8 <__fputwc+0x130>
  80f0e0:	81c01704 	addi	r7,r16,92
  80f0e4:	900d883a 	mov	r6,r18
  80f0e8:	d80b883a 	mov	r5,sp
  80f0ec:	9809883a 	mov	r4,r19
  80f0f0:	08100f40 	call	8100f4 <_wcrtomb_r>
  80f0f4:	1029883a 	mov	r20,r2
  80f0f8:	00bfffc4 	movi	r2,-1
  80f0fc:	a0802026 	beq	r20,r2,80f180 <__fputwc+0xd8>
  80f100:	d9400003 	ldbu	r5,0(sp)
  80f104:	a0001c26 	beq	r20,zero,80f178 <__fputwc+0xd0>
  80f108:	0023883a 	mov	r17,zero
  80f10c:	05400284 	movi	r21,10
  80f110:	00000906 	br	80f138 <__fputwc+0x90>
  80f114:	80800017 	ldw	r2,0(r16)
  80f118:	11400005 	stb	r5,0(r2)
  80f11c:	80c00017 	ldw	r3,0(r16)
  80f120:	18c00044 	addi	r3,r3,1
  80f124:	80c00015 	stw	r3,0(r16)
  80f128:	8c400044 	addi	r17,r17,1
  80f12c:	dc45883a 	add	r2,sp,r17
  80f130:	8d00112e 	bgeu	r17,r20,80f178 <__fputwc+0xd0>
  80f134:	11400003 	ldbu	r5,0(r2)
  80f138:	80c00217 	ldw	r3,8(r16)
  80f13c:	18ffffc4 	addi	r3,r3,-1
  80f140:	80c00215 	stw	r3,8(r16)
  80f144:	183ff30e 	bge	r3,zero,80f114 <__alt_mem_onchip_mem+0xff807114>
  80f148:	80800617 	ldw	r2,24(r16)
  80f14c:	18801916 	blt	r3,r2,80f1b4 <__fputwc+0x10c>
  80f150:	80800017 	ldw	r2,0(r16)
  80f154:	11400005 	stb	r5,0(r2)
  80f158:	80800017 	ldw	r2,0(r16)
  80f15c:	10c00003 	ldbu	r3,0(r2)
  80f160:	10800044 	addi	r2,r2,1
  80f164:	1d402326 	beq	r3,r21,80f1f4 <__fputwc+0x14c>
  80f168:	80800015 	stw	r2,0(r16)
  80f16c:	8c400044 	addi	r17,r17,1
  80f170:	dc45883a 	add	r2,sp,r17
  80f174:	8d3fef36 	bltu	r17,r20,80f134 <__alt_mem_onchip_mem+0xff807134>
  80f178:	9005883a 	mov	r2,r18
  80f17c:	00000406 	br	80f190 <__fputwc+0xe8>
  80f180:	80c0030b 	ldhu	r3,12(r16)
  80f184:	a005883a 	mov	r2,r20
  80f188:	18c01014 	ori	r3,r3,64
  80f18c:	80c0030d 	sth	r3,12(r16)
  80f190:	dfc00717 	ldw	ra,28(sp)
  80f194:	dd400617 	ldw	r21,24(sp)
  80f198:	dd000517 	ldw	r20,20(sp)
  80f19c:	dcc00417 	ldw	r19,16(sp)
  80f1a0:	dc800317 	ldw	r18,12(sp)
  80f1a4:	dc400217 	ldw	r17,8(sp)
  80f1a8:	dc000117 	ldw	r16,4(sp)
  80f1ac:	dec00804 	addi	sp,sp,32
  80f1b0:	f800283a 	ret
  80f1b4:	800d883a 	mov	r6,r16
  80f1b8:	29403fcc 	andi	r5,r5,255
  80f1bc:	9809883a 	mov	r4,r19
  80f1c0:	080ff9c0 	call	80ff9c <__swbuf_r>
  80f1c4:	10bfffe0 	cmpeqi	r2,r2,-1
  80f1c8:	10803fcc 	andi	r2,r2,255
  80f1cc:	103fd626 	beq	r2,zero,80f128 <__alt_mem_onchip_mem+0xff807128>
  80f1d0:	00bfffc4 	movi	r2,-1
  80f1d4:	003fee06 	br	80f190 <__alt_mem_onchip_mem+0xff807190>
  80f1d8:	90ffffc4 	addi	r3,r18,-1
  80f1dc:	01003f84 	movi	r4,254
  80f1e0:	20ffbf36 	bltu	r4,r3,80f0e0 <__alt_mem_onchip_mem+0xff8070e0>
  80f1e4:	900b883a 	mov	r5,r18
  80f1e8:	dc800005 	stb	r18,0(sp)
  80f1ec:	1029883a 	mov	r20,r2
  80f1f0:	003fc506 	br	80f108 <__alt_mem_onchip_mem+0xff807108>
  80f1f4:	800d883a 	mov	r6,r16
  80f1f8:	a80b883a 	mov	r5,r21
  80f1fc:	9809883a 	mov	r4,r19
  80f200:	080ff9c0 	call	80ff9c <__swbuf_r>
  80f204:	10bfffe0 	cmpeqi	r2,r2,-1
  80f208:	003fef06 	br	80f1c8 <__alt_mem_onchip_mem+0xff8071c8>

0080f20c <_fputwc_r>:
  80f20c:	3080030b 	ldhu	r2,12(r6)
  80f210:	10c8000c 	andi	r3,r2,8192
  80f214:	1800051e 	bne	r3,zero,80f22c <_fputwc_r+0x20>
  80f218:	30c01917 	ldw	r3,100(r6)
  80f21c:	10880014 	ori	r2,r2,8192
  80f220:	3080030d 	sth	r2,12(r6)
  80f224:	18880014 	ori	r2,r3,8192
  80f228:	30801915 	stw	r2,100(r6)
  80f22c:	080f0a81 	jmpi	80f0a8 <__fputwc>

0080f230 <fputwc>:
  80f230:	00802074 	movhi	r2,129
  80f234:	defffc04 	addi	sp,sp,-16
  80f238:	109f3004 	addi	r2,r2,31936
  80f23c:	dc000115 	stw	r16,4(sp)
  80f240:	14000017 	ldw	r16,0(r2)
  80f244:	dc400215 	stw	r17,8(sp)
  80f248:	dfc00315 	stw	ra,12(sp)
  80f24c:	2023883a 	mov	r17,r4
  80f250:	80000226 	beq	r16,zero,80f25c <fputwc+0x2c>
  80f254:	80800e17 	ldw	r2,56(r16)
  80f258:	10001026 	beq	r2,zero,80f29c <fputwc+0x6c>
  80f25c:	2880030b 	ldhu	r2,12(r5)
  80f260:	10c8000c 	andi	r3,r2,8192
  80f264:	1800051e 	bne	r3,zero,80f27c <fputwc+0x4c>
  80f268:	28c01917 	ldw	r3,100(r5)
  80f26c:	10880014 	ori	r2,r2,8192
  80f270:	2880030d 	sth	r2,12(r5)
  80f274:	18880014 	ori	r2,r3,8192
  80f278:	28801915 	stw	r2,100(r5)
  80f27c:	280d883a 	mov	r6,r5
  80f280:	8009883a 	mov	r4,r16
  80f284:	880b883a 	mov	r5,r17
  80f288:	dfc00317 	ldw	ra,12(sp)
  80f28c:	dc400217 	ldw	r17,8(sp)
  80f290:	dc000117 	ldw	r16,4(sp)
  80f294:	dec00404 	addi	sp,sp,16
  80f298:	080f0a81 	jmpi	80f0a8 <__fputwc>
  80f29c:	8009883a 	mov	r4,r16
  80f2a0:	d9400015 	stw	r5,0(sp)
  80f2a4:	080b06c0 	call	80b06c <__sinit>
  80f2a8:	d9400017 	ldw	r5,0(sp)
  80f2ac:	003feb06 	br	80f25c <__alt_mem_onchip_mem+0xff80725c>

0080f2b0 <_fstat_r>:
  80f2b0:	defffd04 	addi	sp,sp,-12
  80f2b4:	2805883a 	mov	r2,r5
  80f2b8:	dc000015 	stw	r16,0(sp)
  80f2bc:	040020b4 	movhi	r16,130
  80f2c0:	dc400115 	stw	r17,4(sp)
  80f2c4:	84268a04 	addi	r16,r16,-26072
  80f2c8:	2023883a 	mov	r17,r4
  80f2cc:	300b883a 	mov	r5,r6
  80f2d0:	1009883a 	mov	r4,r2
  80f2d4:	dfc00215 	stw	ra,8(sp)
  80f2d8:	80000015 	stw	zero,0(r16)
  80f2dc:	0811bd00 	call	811bd0 <fstat>
  80f2e0:	00ffffc4 	movi	r3,-1
  80f2e4:	10c00526 	beq	r2,r3,80f2fc <_fstat_r+0x4c>
  80f2e8:	dfc00217 	ldw	ra,8(sp)
  80f2ec:	dc400117 	ldw	r17,4(sp)
  80f2f0:	dc000017 	ldw	r16,0(sp)
  80f2f4:	dec00304 	addi	sp,sp,12
  80f2f8:	f800283a 	ret
  80f2fc:	80c00017 	ldw	r3,0(r16)
  80f300:	183ff926 	beq	r3,zero,80f2e8 <__alt_mem_onchip_mem+0xff8072e8>
  80f304:	88c00015 	stw	r3,0(r17)
  80f308:	003ff706 	br	80f2e8 <__alt_mem_onchip_mem+0xff8072e8>

0080f30c <__sfvwrite_r>:
  80f30c:	30800217 	ldw	r2,8(r6)
  80f310:	10006726 	beq	r2,zero,80f4b0 <__sfvwrite_r+0x1a4>
  80f314:	28c0030b 	ldhu	r3,12(r5)
  80f318:	defff404 	addi	sp,sp,-48
  80f31c:	dd400715 	stw	r21,28(sp)
  80f320:	dd000615 	stw	r20,24(sp)
  80f324:	dc000215 	stw	r16,8(sp)
  80f328:	dfc00b15 	stw	ra,44(sp)
  80f32c:	df000a15 	stw	fp,40(sp)
  80f330:	ddc00915 	stw	r23,36(sp)
  80f334:	dd800815 	stw	r22,32(sp)
  80f338:	dcc00515 	stw	r19,20(sp)
  80f33c:	dc800415 	stw	r18,16(sp)
  80f340:	dc400315 	stw	r17,12(sp)
  80f344:	1880020c 	andi	r2,r3,8
  80f348:	2821883a 	mov	r16,r5
  80f34c:	202b883a 	mov	r21,r4
  80f350:	3029883a 	mov	r20,r6
  80f354:	10002726 	beq	r2,zero,80f3f4 <__sfvwrite_r+0xe8>
  80f358:	28800417 	ldw	r2,16(r5)
  80f35c:	10002526 	beq	r2,zero,80f3f4 <__sfvwrite_r+0xe8>
  80f360:	1880008c 	andi	r2,r3,2
  80f364:	a4400017 	ldw	r17,0(r20)
  80f368:	10002a26 	beq	r2,zero,80f414 <__sfvwrite_r+0x108>
  80f36c:	05a00034 	movhi	r22,32768
  80f370:	0027883a 	mov	r19,zero
  80f374:	0025883a 	mov	r18,zero
  80f378:	b5bf0004 	addi	r22,r22,-1024
  80f37c:	980d883a 	mov	r6,r19
  80f380:	a809883a 	mov	r4,r21
  80f384:	90004626 	beq	r18,zero,80f4a0 <__sfvwrite_r+0x194>
  80f388:	900f883a 	mov	r7,r18
  80f38c:	b480022e 	bgeu	r22,r18,80f398 <__sfvwrite_r+0x8c>
  80f390:	01e00034 	movhi	r7,32768
  80f394:	39ff0004 	addi	r7,r7,-1024
  80f398:	80800917 	ldw	r2,36(r16)
  80f39c:	81400717 	ldw	r5,28(r16)
  80f3a0:	103ee83a 	callr	r2
  80f3a4:	0080570e 	bge	zero,r2,80f504 <__sfvwrite_r+0x1f8>
  80f3a8:	a0c00217 	ldw	r3,8(r20)
  80f3ac:	98a7883a 	add	r19,r19,r2
  80f3b0:	90a5c83a 	sub	r18,r18,r2
  80f3b4:	1885c83a 	sub	r2,r3,r2
  80f3b8:	a0800215 	stw	r2,8(r20)
  80f3bc:	103fef1e 	bne	r2,zero,80f37c <__alt_mem_onchip_mem+0xff80737c>
  80f3c0:	0005883a 	mov	r2,zero
  80f3c4:	dfc00b17 	ldw	ra,44(sp)
  80f3c8:	df000a17 	ldw	fp,40(sp)
  80f3cc:	ddc00917 	ldw	r23,36(sp)
  80f3d0:	dd800817 	ldw	r22,32(sp)
  80f3d4:	dd400717 	ldw	r21,28(sp)
  80f3d8:	dd000617 	ldw	r20,24(sp)
  80f3dc:	dcc00517 	ldw	r19,20(sp)
  80f3e0:	dc800417 	ldw	r18,16(sp)
  80f3e4:	dc400317 	ldw	r17,12(sp)
  80f3e8:	dc000217 	ldw	r16,8(sp)
  80f3ec:	dec00c04 	addi	sp,sp,48
  80f3f0:	f800283a 	ret
  80f3f4:	800b883a 	mov	r5,r16
  80f3f8:	a809883a 	mov	r4,r21
  80f3fc:	08090980 	call	809098 <__swsetup_r>
  80f400:	1000eb1e 	bne	r2,zero,80f7b0 <__sfvwrite_r+0x4a4>
  80f404:	80c0030b 	ldhu	r3,12(r16)
  80f408:	a4400017 	ldw	r17,0(r20)
  80f40c:	1880008c 	andi	r2,r3,2
  80f410:	103fd61e 	bne	r2,zero,80f36c <__alt_mem_onchip_mem+0xff80736c>
  80f414:	1880004c 	andi	r2,r3,1
  80f418:	10003f1e 	bne	r2,zero,80f518 <__sfvwrite_r+0x20c>
  80f41c:	0039883a 	mov	fp,zero
  80f420:	0025883a 	mov	r18,zero
  80f424:	90001a26 	beq	r18,zero,80f490 <__sfvwrite_r+0x184>
  80f428:	1880800c 	andi	r2,r3,512
  80f42c:	84c00217 	ldw	r19,8(r16)
  80f430:	10002126 	beq	r2,zero,80f4b8 <__sfvwrite_r+0x1ac>
  80f434:	982f883a 	mov	r23,r19
  80f438:	94c09336 	bltu	r18,r19,80f688 <__sfvwrite_r+0x37c>
  80f43c:	1881200c 	andi	r2,r3,1152
  80f440:	10009e1e 	bne	r2,zero,80f6bc <__sfvwrite_r+0x3b0>
  80f444:	81000017 	ldw	r4,0(r16)
  80f448:	b80d883a 	mov	r6,r23
  80f44c:	e00b883a 	mov	r5,fp
  80f450:	080f87c0 	call	80f87c <memmove>
  80f454:	80c00217 	ldw	r3,8(r16)
  80f458:	81000017 	ldw	r4,0(r16)
  80f45c:	9005883a 	mov	r2,r18
  80f460:	1ce7c83a 	sub	r19,r3,r19
  80f464:	25cf883a 	add	r7,r4,r23
  80f468:	84c00215 	stw	r19,8(r16)
  80f46c:	81c00015 	stw	r7,0(r16)
  80f470:	a0c00217 	ldw	r3,8(r20)
  80f474:	e0b9883a 	add	fp,fp,r2
  80f478:	90a5c83a 	sub	r18,r18,r2
  80f47c:	18a7c83a 	sub	r19,r3,r2
  80f480:	a4c00215 	stw	r19,8(r20)
  80f484:	983fce26 	beq	r19,zero,80f3c0 <__alt_mem_onchip_mem+0xff8073c0>
  80f488:	80c0030b 	ldhu	r3,12(r16)
  80f48c:	903fe61e 	bne	r18,zero,80f428 <__alt_mem_onchip_mem+0xff807428>
  80f490:	8f000017 	ldw	fp,0(r17)
  80f494:	8c800117 	ldw	r18,4(r17)
  80f498:	8c400204 	addi	r17,r17,8
  80f49c:	003fe106 	br	80f424 <__alt_mem_onchip_mem+0xff807424>
  80f4a0:	8cc00017 	ldw	r19,0(r17)
  80f4a4:	8c800117 	ldw	r18,4(r17)
  80f4a8:	8c400204 	addi	r17,r17,8
  80f4ac:	003fb306 	br	80f37c <__alt_mem_onchip_mem+0xff80737c>
  80f4b0:	0005883a 	mov	r2,zero
  80f4b4:	f800283a 	ret
  80f4b8:	81000017 	ldw	r4,0(r16)
  80f4bc:	80800417 	ldw	r2,16(r16)
  80f4c0:	11005736 	bltu	r2,r4,80f620 <__sfvwrite_r+0x314>
  80f4c4:	85c00517 	ldw	r23,20(r16)
  80f4c8:	95c05536 	bltu	r18,r23,80f620 <__sfvwrite_r+0x314>
  80f4cc:	00a00034 	movhi	r2,32768
  80f4d0:	10bfffc4 	addi	r2,r2,-1
  80f4d4:	9009883a 	mov	r4,r18
  80f4d8:	1480012e 	bgeu	r2,r18,80f4e0 <__sfvwrite_r+0x1d4>
  80f4dc:	1009883a 	mov	r4,r2
  80f4e0:	b80b883a 	mov	r5,r23
  80f4e4:	0810d8c0 	call	810d8c <__divsi3>
  80f4e8:	15cf383a 	mul	r7,r2,r23
  80f4ec:	81400717 	ldw	r5,28(r16)
  80f4f0:	80800917 	ldw	r2,36(r16)
  80f4f4:	e00d883a 	mov	r6,fp
  80f4f8:	a809883a 	mov	r4,r21
  80f4fc:	103ee83a 	callr	r2
  80f500:	00bfdb16 	blt	zero,r2,80f470 <__alt_mem_onchip_mem+0xff807470>
  80f504:	8080030b 	ldhu	r2,12(r16)
  80f508:	10801014 	ori	r2,r2,64
  80f50c:	8080030d 	sth	r2,12(r16)
  80f510:	00bfffc4 	movi	r2,-1
  80f514:	003fab06 	br	80f3c4 <__alt_mem_onchip_mem+0xff8073c4>
  80f518:	0027883a 	mov	r19,zero
  80f51c:	0011883a 	mov	r8,zero
  80f520:	0039883a 	mov	fp,zero
  80f524:	0025883a 	mov	r18,zero
  80f528:	90001f26 	beq	r18,zero,80f5a8 <__sfvwrite_r+0x29c>
  80f52c:	40005a26 	beq	r8,zero,80f698 <__sfvwrite_r+0x38c>
  80f530:	982d883a 	mov	r22,r19
  80f534:	94c0012e 	bgeu	r18,r19,80f53c <__sfvwrite_r+0x230>
  80f538:	902d883a 	mov	r22,r18
  80f53c:	81000017 	ldw	r4,0(r16)
  80f540:	80800417 	ldw	r2,16(r16)
  80f544:	b02f883a 	mov	r23,r22
  80f548:	81c00517 	ldw	r7,20(r16)
  80f54c:	1100032e 	bgeu	r2,r4,80f55c <__sfvwrite_r+0x250>
  80f550:	80c00217 	ldw	r3,8(r16)
  80f554:	38c7883a 	add	r3,r7,r3
  80f558:	1d801816 	blt	r3,r22,80f5bc <__sfvwrite_r+0x2b0>
  80f55c:	b1c03e16 	blt	r22,r7,80f658 <__sfvwrite_r+0x34c>
  80f560:	80800917 	ldw	r2,36(r16)
  80f564:	81400717 	ldw	r5,28(r16)
  80f568:	e00d883a 	mov	r6,fp
  80f56c:	da000115 	stw	r8,4(sp)
  80f570:	a809883a 	mov	r4,r21
  80f574:	103ee83a 	callr	r2
  80f578:	102f883a 	mov	r23,r2
  80f57c:	da000117 	ldw	r8,4(sp)
  80f580:	00bfe00e 	bge	zero,r2,80f504 <__alt_mem_onchip_mem+0xff807504>
  80f584:	9de7c83a 	sub	r19,r19,r23
  80f588:	98001f26 	beq	r19,zero,80f608 <__sfvwrite_r+0x2fc>
  80f58c:	a0800217 	ldw	r2,8(r20)
  80f590:	e5f9883a 	add	fp,fp,r23
  80f594:	95e5c83a 	sub	r18,r18,r23
  80f598:	15efc83a 	sub	r23,r2,r23
  80f59c:	a5c00215 	stw	r23,8(r20)
  80f5a0:	b83f8726 	beq	r23,zero,80f3c0 <__alt_mem_onchip_mem+0xff8073c0>
  80f5a4:	903fe11e 	bne	r18,zero,80f52c <__alt_mem_onchip_mem+0xff80752c>
  80f5a8:	8f000017 	ldw	fp,0(r17)
  80f5ac:	8c800117 	ldw	r18,4(r17)
  80f5b0:	0011883a 	mov	r8,zero
  80f5b4:	8c400204 	addi	r17,r17,8
  80f5b8:	003fdb06 	br	80f528 <__alt_mem_onchip_mem+0xff807528>
  80f5bc:	180d883a 	mov	r6,r3
  80f5c0:	e00b883a 	mov	r5,fp
  80f5c4:	da000115 	stw	r8,4(sp)
  80f5c8:	d8c00015 	stw	r3,0(sp)
  80f5cc:	080f87c0 	call	80f87c <memmove>
  80f5d0:	d8c00017 	ldw	r3,0(sp)
  80f5d4:	80800017 	ldw	r2,0(r16)
  80f5d8:	800b883a 	mov	r5,r16
  80f5dc:	a809883a 	mov	r4,r21
  80f5e0:	10c5883a 	add	r2,r2,r3
  80f5e4:	80800015 	stw	r2,0(r16)
  80f5e8:	d8c00015 	stw	r3,0(sp)
  80f5ec:	080ac900 	call	80ac90 <_fflush_r>
  80f5f0:	d8c00017 	ldw	r3,0(sp)
  80f5f4:	da000117 	ldw	r8,4(sp)
  80f5f8:	103fc21e 	bne	r2,zero,80f504 <__alt_mem_onchip_mem+0xff807504>
  80f5fc:	182f883a 	mov	r23,r3
  80f600:	9de7c83a 	sub	r19,r19,r23
  80f604:	983fe11e 	bne	r19,zero,80f58c <__alt_mem_onchip_mem+0xff80758c>
  80f608:	800b883a 	mov	r5,r16
  80f60c:	a809883a 	mov	r4,r21
  80f610:	080ac900 	call	80ac90 <_fflush_r>
  80f614:	103fbb1e 	bne	r2,zero,80f504 <__alt_mem_onchip_mem+0xff807504>
  80f618:	0011883a 	mov	r8,zero
  80f61c:	003fdb06 	br	80f58c <__alt_mem_onchip_mem+0xff80758c>
  80f620:	94c0012e 	bgeu	r18,r19,80f628 <__sfvwrite_r+0x31c>
  80f624:	9027883a 	mov	r19,r18
  80f628:	980d883a 	mov	r6,r19
  80f62c:	e00b883a 	mov	r5,fp
  80f630:	080f87c0 	call	80f87c <memmove>
  80f634:	80800217 	ldw	r2,8(r16)
  80f638:	80c00017 	ldw	r3,0(r16)
  80f63c:	14c5c83a 	sub	r2,r2,r19
  80f640:	1cc7883a 	add	r3,r3,r19
  80f644:	80800215 	stw	r2,8(r16)
  80f648:	80c00015 	stw	r3,0(r16)
  80f64c:	10004326 	beq	r2,zero,80f75c <__sfvwrite_r+0x450>
  80f650:	9805883a 	mov	r2,r19
  80f654:	003f8606 	br	80f470 <__alt_mem_onchip_mem+0xff807470>
  80f658:	b00d883a 	mov	r6,r22
  80f65c:	e00b883a 	mov	r5,fp
  80f660:	da000115 	stw	r8,4(sp)
  80f664:	080f87c0 	call	80f87c <memmove>
  80f668:	80800217 	ldw	r2,8(r16)
  80f66c:	80c00017 	ldw	r3,0(r16)
  80f670:	da000117 	ldw	r8,4(sp)
  80f674:	1585c83a 	sub	r2,r2,r22
  80f678:	1dad883a 	add	r22,r3,r22
  80f67c:	80800215 	stw	r2,8(r16)
  80f680:	85800015 	stw	r22,0(r16)
  80f684:	003fbf06 	br	80f584 <__alt_mem_onchip_mem+0xff807584>
  80f688:	81000017 	ldw	r4,0(r16)
  80f68c:	9027883a 	mov	r19,r18
  80f690:	902f883a 	mov	r23,r18
  80f694:	003f6c06 	br	80f448 <__alt_mem_onchip_mem+0xff807448>
  80f698:	900d883a 	mov	r6,r18
  80f69c:	01400284 	movi	r5,10
  80f6a0:	e009883a 	mov	r4,fp
  80f6a4:	080c11c0 	call	80c11c <memchr>
  80f6a8:	10003e26 	beq	r2,zero,80f7a4 <__sfvwrite_r+0x498>
  80f6ac:	10800044 	addi	r2,r2,1
  80f6b0:	1727c83a 	sub	r19,r2,fp
  80f6b4:	02000044 	movi	r8,1
  80f6b8:	003f9d06 	br	80f530 <__alt_mem_onchip_mem+0xff807530>
  80f6bc:	80800517 	ldw	r2,20(r16)
  80f6c0:	81400417 	ldw	r5,16(r16)
  80f6c4:	81c00017 	ldw	r7,0(r16)
  80f6c8:	10a7883a 	add	r19,r2,r2
  80f6cc:	9885883a 	add	r2,r19,r2
  80f6d0:	1026d7fa 	srli	r19,r2,31
  80f6d4:	396dc83a 	sub	r22,r7,r5
  80f6d8:	b1000044 	addi	r4,r22,1
  80f6dc:	9885883a 	add	r2,r19,r2
  80f6e0:	1027d07a 	srai	r19,r2,1
  80f6e4:	2485883a 	add	r2,r4,r18
  80f6e8:	980d883a 	mov	r6,r19
  80f6ec:	9880022e 	bgeu	r19,r2,80f6f8 <__sfvwrite_r+0x3ec>
  80f6f0:	1027883a 	mov	r19,r2
  80f6f4:	100d883a 	mov	r6,r2
  80f6f8:	18c1000c 	andi	r3,r3,1024
  80f6fc:	18001c26 	beq	r3,zero,80f770 <__sfvwrite_r+0x464>
  80f700:	300b883a 	mov	r5,r6
  80f704:	a809883a 	mov	r4,r21
  80f708:	080b9100 	call	80b910 <_malloc_r>
  80f70c:	102f883a 	mov	r23,r2
  80f710:	10002926 	beq	r2,zero,80f7b8 <__sfvwrite_r+0x4ac>
  80f714:	81400417 	ldw	r5,16(r16)
  80f718:	b00d883a 	mov	r6,r22
  80f71c:	1009883a 	mov	r4,r2
  80f720:	080c2000 	call	80c200 <memcpy>
  80f724:	8080030b 	ldhu	r2,12(r16)
  80f728:	00fedfc4 	movi	r3,-1153
  80f72c:	10c4703a 	and	r2,r2,r3
  80f730:	10802014 	ori	r2,r2,128
  80f734:	8080030d 	sth	r2,12(r16)
  80f738:	bd89883a 	add	r4,r23,r22
  80f73c:	9d8fc83a 	sub	r7,r19,r22
  80f740:	85c00415 	stw	r23,16(r16)
  80f744:	84c00515 	stw	r19,20(r16)
  80f748:	81000015 	stw	r4,0(r16)
  80f74c:	9027883a 	mov	r19,r18
  80f750:	81c00215 	stw	r7,8(r16)
  80f754:	902f883a 	mov	r23,r18
  80f758:	003f3b06 	br	80f448 <__alt_mem_onchip_mem+0xff807448>
  80f75c:	800b883a 	mov	r5,r16
  80f760:	a809883a 	mov	r4,r21
  80f764:	080ac900 	call	80ac90 <_fflush_r>
  80f768:	103fb926 	beq	r2,zero,80f650 <__alt_mem_onchip_mem+0xff807650>
  80f76c:	003f6506 	br	80f504 <__alt_mem_onchip_mem+0xff807504>
  80f770:	a809883a 	mov	r4,r21
  80f774:	080fa380 	call	80fa38 <_realloc_r>
  80f778:	102f883a 	mov	r23,r2
  80f77c:	103fee1e 	bne	r2,zero,80f738 <__alt_mem_onchip_mem+0xff807738>
  80f780:	81400417 	ldw	r5,16(r16)
  80f784:	a809883a 	mov	r4,r21
  80f788:	080b1e00 	call	80b1e0 <_free_r>
  80f78c:	8080030b 	ldhu	r2,12(r16)
  80f790:	00ffdfc4 	movi	r3,-129
  80f794:	1884703a 	and	r2,r3,r2
  80f798:	00c00304 	movi	r3,12
  80f79c:	a8c00015 	stw	r3,0(r21)
  80f7a0:	003f5906 	br	80f508 <__alt_mem_onchip_mem+0xff807508>
  80f7a4:	94c00044 	addi	r19,r18,1
  80f7a8:	02000044 	movi	r8,1
  80f7ac:	003f6006 	br	80f530 <__alt_mem_onchip_mem+0xff807530>
  80f7b0:	00bfffc4 	movi	r2,-1
  80f7b4:	003f0306 	br	80f3c4 <__alt_mem_onchip_mem+0xff8073c4>
  80f7b8:	00800304 	movi	r2,12
  80f7bc:	a8800015 	stw	r2,0(r21)
  80f7c0:	8080030b 	ldhu	r2,12(r16)
  80f7c4:	003f5006 	br	80f508 <__alt_mem_onchip_mem+0xff807508>

0080f7c8 <_isatty_r>:
  80f7c8:	defffd04 	addi	sp,sp,-12
  80f7cc:	dc000015 	stw	r16,0(sp)
  80f7d0:	040020b4 	movhi	r16,130
  80f7d4:	dc400115 	stw	r17,4(sp)
  80f7d8:	84268a04 	addi	r16,r16,-26072
  80f7dc:	2023883a 	mov	r17,r4
  80f7e0:	2809883a 	mov	r4,r5
  80f7e4:	dfc00215 	stw	ra,8(sp)
  80f7e8:	80000015 	stw	zero,0(r16)
  80f7ec:	0811f5c0 	call	811f5c <isatty>
  80f7f0:	00ffffc4 	movi	r3,-1
  80f7f4:	10c00526 	beq	r2,r3,80f80c <_isatty_r+0x44>
  80f7f8:	dfc00217 	ldw	ra,8(sp)
  80f7fc:	dc400117 	ldw	r17,4(sp)
  80f800:	dc000017 	ldw	r16,0(sp)
  80f804:	dec00304 	addi	sp,sp,12
  80f808:	f800283a 	ret
  80f80c:	80c00017 	ldw	r3,0(r16)
  80f810:	183ff926 	beq	r3,zero,80f7f8 <__alt_mem_onchip_mem+0xff8077f8>
  80f814:	88c00015 	stw	r3,0(r17)
  80f818:	003ff706 	br	80f7f8 <__alt_mem_onchip_mem+0xff8077f8>

0080f81c <_lseek_r>:
  80f81c:	defffd04 	addi	sp,sp,-12
  80f820:	2805883a 	mov	r2,r5
  80f824:	dc000015 	stw	r16,0(sp)
  80f828:	040020b4 	movhi	r16,130
  80f82c:	dc400115 	stw	r17,4(sp)
  80f830:	300b883a 	mov	r5,r6
  80f834:	84268a04 	addi	r16,r16,-26072
  80f838:	2023883a 	mov	r17,r4
  80f83c:	380d883a 	mov	r6,r7
  80f840:	1009883a 	mov	r4,r2
  80f844:	dfc00215 	stw	ra,8(sp)
  80f848:	80000015 	stw	zero,0(r16)
  80f84c:	08121280 	call	812128 <lseek>
  80f850:	00ffffc4 	movi	r3,-1
  80f854:	10c00526 	beq	r2,r3,80f86c <_lseek_r+0x50>
  80f858:	dfc00217 	ldw	ra,8(sp)
  80f85c:	dc400117 	ldw	r17,4(sp)
  80f860:	dc000017 	ldw	r16,0(sp)
  80f864:	dec00304 	addi	sp,sp,12
  80f868:	f800283a 	ret
  80f86c:	80c00017 	ldw	r3,0(r16)
  80f870:	183ff926 	beq	r3,zero,80f858 <__alt_mem_onchip_mem+0xff807858>
  80f874:	88c00015 	stw	r3,0(r17)
  80f878:	003ff706 	br	80f858 <__alt_mem_onchip_mem+0xff807858>

0080f87c <memmove>:
  80f87c:	2005883a 	mov	r2,r4
  80f880:	29000b2e 	bgeu	r5,r4,80f8b0 <memmove+0x34>
  80f884:	298f883a 	add	r7,r5,r6
  80f888:	21c0092e 	bgeu	r4,r7,80f8b0 <memmove+0x34>
  80f88c:	2187883a 	add	r3,r4,r6
  80f890:	198bc83a 	sub	r5,r3,r6
  80f894:	30004826 	beq	r6,zero,80f9b8 <memmove+0x13c>
  80f898:	39ffffc4 	addi	r7,r7,-1
  80f89c:	39000003 	ldbu	r4,0(r7)
  80f8a0:	18ffffc4 	addi	r3,r3,-1
  80f8a4:	19000005 	stb	r4,0(r3)
  80f8a8:	28fffb1e 	bne	r5,r3,80f898 <__alt_mem_onchip_mem+0xff807898>
  80f8ac:	f800283a 	ret
  80f8b0:	00c003c4 	movi	r3,15
  80f8b4:	1980412e 	bgeu	r3,r6,80f9bc <memmove+0x140>
  80f8b8:	2886b03a 	or	r3,r5,r2
  80f8bc:	18c000cc 	andi	r3,r3,3
  80f8c0:	1800401e 	bne	r3,zero,80f9c4 <memmove+0x148>
  80f8c4:	33fffc04 	addi	r15,r6,-16
  80f8c8:	781ed13a 	srli	r15,r15,4
  80f8cc:	28c00104 	addi	r3,r5,4
  80f8d0:	13400104 	addi	r13,r2,4
  80f8d4:	781c913a 	slli	r14,r15,4
  80f8d8:	2b000204 	addi	r12,r5,8
  80f8dc:	12c00204 	addi	r11,r2,8
  80f8e0:	73800504 	addi	r14,r14,20
  80f8e4:	2a800304 	addi	r10,r5,12
  80f8e8:	12400304 	addi	r9,r2,12
  80f8ec:	2b9d883a 	add	r14,r5,r14
  80f8f0:	2811883a 	mov	r8,r5
  80f8f4:	100f883a 	mov	r7,r2
  80f8f8:	41000017 	ldw	r4,0(r8)
  80f8fc:	39c00404 	addi	r7,r7,16
  80f900:	18c00404 	addi	r3,r3,16
  80f904:	393ffc15 	stw	r4,-16(r7)
  80f908:	193ffc17 	ldw	r4,-16(r3)
  80f90c:	6b400404 	addi	r13,r13,16
  80f910:	5ac00404 	addi	r11,r11,16
  80f914:	693ffc15 	stw	r4,-16(r13)
  80f918:	61000017 	ldw	r4,0(r12)
  80f91c:	4a400404 	addi	r9,r9,16
  80f920:	42000404 	addi	r8,r8,16
  80f924:	593ffc15 	stw	r4,-16(r11)
  80f928:	51000017 	ldw	r4,0(r10)
  80f92c:	63000404 	addi	r12,r12,16
  80f930:	52800404 	addi	r10,r10,16
  80f934:	493ffc15 	stw	r4,-16(r9)
  80f938:	1bbfef1e 	bne	r3,r14,80f8f8 <__alt_mem_onchip_mem+0xff8078f8>
  80f93c:	79000044 	addi	r4,r15,1
  80f940:	2008913a 	slli	r4,r4,4
  80f944:	328003cc 	andi	r10,r6,15
  80f948:	02c000c4 	movi	r11,3
  80f94c:	1107883a 	add	r3,r2,r4
  80f950:	290b883a 	add	r5,r5,r4
  80f954:	5a801e2e 	bgeu	r11,r10,80f9d0 <memmove+0x154>
  80f958:	1813883a 	mov	r9,r3
  80f95c:	2811883a 	mov	r8,r5
  80f960:	500f883a 	mov	r7,r10
  80f964:	41000017 	ldw	r4,0(r8)
  80f968:	4a400104 	addi	r9,r9,4
  80f96c:	39ffff04 	addi	r7,r7,-4
  80f970:	493fff15 	stw	r4,-4(r9)
  80f974:	42000104 	addi	r8,r8,4
  80f978:	59fffa36 	bltu	r11,r7,80f964 <__alt_mem_onchip_mem+0xff807964>
  80f97c:	513fff04 	addi	r4,r10,-4
  80f980:	2008d0ba 	srli	r4,r4,2
  80f984:	318000cc 	andi	r6,r6,3
  80f988:	21000044 	addi	r4,r4,1
  80f98c:	2109883a 	add	r4,r4,r4
  80f990:	2109883a 	add	r4,r4,r4
  80f994:	1907883a 	add	r3,r3,r4
  80f998:	290b883a 	add	r5,r5,r4
  80f99c:	30000b26 	beq	r6,zero,80f9cc <memmove+0x150>
  80f9a0:	198d883a 	add	r6,r3,r6
  80f9a4:	29c00003 	ldbu	r7,0(r5)
  80f9a8:	18c00044 	addi	r3,r3,1
  80f9ac:	29400044 	addi	r5,r5,1
  80f9b0:	19ffffc5 	stb	r7,-1(r3)
  80f9b4:	19bffb1e 	bne	r3,r6,80f9a4 <__alt_mem_onchip_mem+0xff8079a4>
  80f9b8:	f800283a 	ret
  80f9bc:	1007883a 	mov	r3,r2
  80f9c0:	003ff606 	br	80f99c <__alt_mem_onchip_mem+0xff80799c>
  80f9c4:	1007883a 	mov	r3,r2
  80f9c8:	003ff506 	br	80f9a0 <__alt_mem_onchip_mem+0xff8079a0>
  80f9cc:	f800283a 	ret
  80f9d0:	500d883a 	mov	r6,r10
  80f9d4:	003ff106 	br	80f99c <__alt_mem_onchip_mem+0xff80799c>

0080f9d8 <_read_r>:
  80f9d8:	defffd04 	addi	sp,sp,-12
  80f9dc:	2805883a 	mov	r2,r5
  80f9e0:	dc000015 	stw	r16,0(sp)
  80f9e4:	040020b4 	movhi	r16,130
  80f9e8:	dc400115 	stw	r17,4(sp)
  80f9ec:	300b883a 	mov	r5,r6
  80f9f0:	84268a04 	addi	r16,r16,-26072
  80f9f4:	2023883a 	mov	r17,r4
  80f9f8:	380d883a 	mov	r6,r7
  80f9fc:	1009883a 	mov	r4,r2
  80fa00:	dfc00215 	stw	ra,8(sp)
  80fa04:	80000015 	stw	zero,0(r16)
  80fa08:	08122fc0 	call	8122fc <read>
  80fa0c:	00ffffc4 	movi	r3,-1
  80fa10:	10c00526 	beq	r2,r3,80fa28 <_read_r+0x50>
  80fa14:	dfc00217 	ldw	ra,8(sp)
  80fa18:	dc400117 	ldw	r17,4(sp)
  80fa1c:	dc000017 	ldw	r16,0(sp)
  80fa20:	dec00304 	addi	sp,sp,12
  80fa24:	f800283a 	ret
  80fa28:	80c00017 	ldw	r3,0(r16)
  80fa2c:	183ff926 	beq	r3,zero,80fa14 <__alt_mem_onchip_mem+0xff807a14>
  80fa30:	88c00015 	stw	r3,0(r17)
  80fa34:	003ff706 	br	80fa14 <__alt_mem_onchip_mem+0xff807a14>

0080fa38 <_realloc_r>:
  80fa38:	defff604 	addi	sp,sp,-40
  80fa3c:	dc800215 	stw	r18,8(sp)
  80fa40:	dfc00915 	stw	ra,36(sp)
  80fa44:	df000815 	stw	fp,32(sp)
  80fa48:	ddc00715 	stw	r23,28(sp)
  80fa4c:	dd800615 	stw	r22,24(sp)
  80fa50:	dd400515 	stw	r21,20(sp)
  80fa54:	dd000415 	stw	r20,16(sp)
  80fa58:	dcc00315 	stw	r19,12(sp)
  80fa5c:	dc400115 	stw	r17,4(sp)
  80fa60:	dc000015 	stw	r16,0(sp)
  80fa64:	3025883a 	mov	r18,r6
  80fa68:	2800b726 	beq	r5,zero,80fd48 <_realloc_r+0x310>
  80fa6c:	282b883a 	mov	r21,r5
  80fa70:	2029883a 	mov	r20,r4
  80fa74:	08122780 	call	812278 <__malloc_lock>
  80fa78:	a8bfff17 	ldw	r2,-4(r21)
  80fa7c:	043fff04 	movi	r16,-4
  80fa80:	90c002c4 	addi	r3,r18,11
  80fa84:	01000584 	movi	r4,22
  80fa88:	acfffe04 	addi	r19,r21,-8
  80fa8c:	1420703a 	and	r16,r2,r16
  80fa90:	20c0332e 	bgeu	r4,r3,80fb60 <_realloc_r+0x128>
  80fa94:	047ffe04 	movi	r17,-8
  80fa98:	1c62703a 	and	r17,r3,r17
  80fa9c:	8807883a 	mov	r3,r17
  80faa0:	88005816 	blt	r17,zero,80fc04 <_realloc_r+0x1cc>
  80faa4:	8c805736 	bltu	r17,r18,80fc04 <_realloc_r+0x1cc>
  80faa8:	80c0300e 	bge	r16,r3,80fb6c <_realloc_r+0x134>
  80faac:	07002074 	movhi	fp,129
  80fab0:	e7193204 	addi	fp,fp,25800
  80fab4:	e1c00217 	ldw	r7,8(fp)
  80fab8:	9c09883a 	add	r4,r19,r16
  80fabc:	22000117 	ldw	r8,4(r4)
  80fac0:	21c06326 	beq	r4,r7,80fc50 <_realloc_r+0x218>
  80fac4:	017fff84 	movi	r5,-2
  80fac8:	414a703a 	and	r5,r8,r5
  80facc:	214b883a 	add	r5,r4,r5
  80fad0:	29800117 	ldw	r6,4(r5)
  80fad4:	3180004c 	andi	r6,r6,1
  80fad8:	30003f26 	beq	r6,zero,80fbd8 <_realloc_r+0x1a0>
  80fadc:	1080004c 	andi	r2,r2,1
  80fae0:	10008326 	beq	r2,zero,80fcf0 <_realloc_r+0x2b8>
  80fae4:	900b883a 	mov	r5,r18
  80fae8:	a009883a 	mov	r4,r20
  80faec:	080b9100 	call	80b910 <_malloc_r>
  80faf0:	1025883a 	mov	r18,r2
  80faf4:	10011e26 	beq	r2,zero,80ff70 <_realloc_r+0x538>
  80faf8:	a93fff17 	ldw	r4,-4(r21)
  80fafc:	10fffe04 	addi	r3,r2,-8
  80fb00:	00bfff84 	movi	r2,-2
  80fb04:	2084703a 	and	r2,r4,r2
  80fb08:	9885883a 	add	r2,r19,r2
  80fb0c:	1880ee26 	beq	r3,r2,80fec8 <_realloc_r+0x490>
  80fb10:	81bfff04 	addi	r6,r16,-4
  80fb14:	00800904 	movi	r2,36
  80fb18:	1180b836 	bltu	r2,r6,80fdfc <_realloc_r+0x3c4>
  80fb1c:	00c004c4 	movi	r3,19
  80fb20:	19809636 	bltu	r3,r6,80fd7c <_realloc_r+0x344>
  80fb24:	9005883a 	mov	r2,r18
  80fb28:	a807883a 	mov	r3,r21
  80fb2c:	19000017 	ldw	r4,0(r3)
  80fb30:	11000015 	stw	r4,0(r2)
  80fb34:	19000117 	ldw	r4,4(r3)
  80fb38:	11000115 	stw	r4,4(r2)
  80fb3c:	18c00217 	ldw	r3,8(r3)
  80fb40:	10c00215 	stw	r3,8(r2)
  80fb44:	a80b883a 	mov	r5,r21
  80fb48:	a009883a 	mov	r4,r20
  80fb4c:	080b1e00 	call	80b1e0 <_free_r>
  80fb50:	a009883a 	mov	r4,r20
  80fb54:	081229c0 	call	81229c <__malloc_unlock>
  80fb58:	9005883a 	mov	r2,r18
  80fb5c:	00001206 	br	80fba8 <_realloc_r+0x170>
  80fb60:	00c00404 	movi	r3,16
  80fb64:	1823883a 	mov	r17,r3
  80fb68:	003fce06 	br	80faa4 <__alt_mem_onchip_mem+0xff807aa4>
  80fb6c:	a825883a 	mov	r18,r21
  80fb70:	8445c83a 	sub	r2,r16,r17
  80fb74:	00c003c4 	movi	r3,15
  80fb78:	18802636 	bltu	r3,r2,80fc14 <_realloc_r+0x1dc>
  80fb7c:	99800117 	ldw	r6,4(r19)
  80fb80:	9c07883a 	add	r3,r19,r16
  80fb84:	3180004c 	andi	r6,r6,1
  80fb88:	3420b03a 	or	r16,r6,r16
  80fb8c:	9c000115 	stw	r16,4(r19)
  80fb90:	18800117 	ldw	r2,4(r3)
  80fb94:	10800054 	ori	r2,r2,1
  80fb98:	18800115 	stw	r2,4(r3)
  80fb9c:	a009883a 	mov	r4,r20
  80fba0:	081229c0 	call	81229c <__malloc_unlock>
  80fba4:	9005883a 	mov	r2,r18
  80fba8:	dfc00917 	ldw	ra,36(sp)
  80fbac:	df000817 	ldw	fp,32(sp)
  80fbb0:	ddc00717 	ldw	r23,28(sp)
  80fbb4:	dd800617 	ldw	r22,24(sp)
  80fbb8:	dd400517 	ldw	r21,20(sp)
  80fbbc:	dd000417 	ldw	r20,16(sp)
  80fbc0:	dcc00317 	ldw	r19,12(sp)
  80fbc4:	dc800217 	ldw	r18,8(sp)
  80fbc8:	dc400117 	ldw	r17,4(sp)
  80fbcc:	dc000017 	ldw	r16,0(sp)
  80fbd0:	dec00a04 	addi	sp,sp,40
  80fbd4:	f800283a 	ret
  80fbd8:	017fff04 	movi	r5,-4
  80fbdc:	414a703a 	and	r5,r8,r5
  80fbe0:	814d883a 	add	r6,r16,r5
  80fbe4:	30c01f16 	blt	r6,r3,80fc64 <_realloc_r+0x22c>
  80fbe8:	20800317 	ldw	r2,12(r4)
  80fbec:	20c00217 	ldw	r3,8(r4)
  80fbf0:	a825883a 	mov	r18,r21
  80fbf4:	3021883a 	mov	r16,r6
  80fbf8:	18800315 	stw	r2,12(r3)
  80fbfc:	10c00215 	stw	r3,8(r2)
  80fc00:	003fdb06 	br	80fb70 <__alt_mem_onchip_mem+0xff807b70>
  80fc04:	00800304 	movi	r2,12
  80fc08:	a0800015 	stw	r2,0(r20)
  80fc0c:	0005883a 	mov	r2,zero
  80fc10:	003fe506 	br	80fba8 <__alt_mem_onchip_mem+0xff807ba8>
  80fc14:	98c00117 	ldw	r3,4(r19)
  80fc18:	9c4b883a 	add	r5,r19,r17
  80fc1c:	11000054 	ori	r4,r2,1
  80fc20:	18c0004c 	andi	r3,r3,1
  80fc24:	1c62b03a 	or	r17,r3,r17
  80fc28:	9c400115 	stw	r17,4(r19)
  80fc2c:	29000115 	stw	r4,4(r5)
  80fc30:	2885883a 	add	r2,r5,r2
  80fc34:	10c00117 	ldw	r3,4(r2)
  80fc38:	29400204 	addi	r5,r5,8
  80fc3c:	a009883a 	mov	r4,r20
  80fc40:	18c00054 	ori	r3,r3,1
  80fc44:	10c00115 	stw	r3,4(r2)
  80fc48:	080b1e00 	call	80b1e0 <_free_r>
  80fc4c:	003fd306 	br	80fb9c <__alt_mem_onchip_mem+0xff807b9c>
  80fc50:	017fff04 	movi	r5,-4
  80fc54:	414a703a 	and	r5,r8,r5
  80fc58:	89800404 	addi	r6,r17,16
  80fc5c:	8151883a 	add	r8,r16,r5
  80fc60:	4180590e 	bge	r8,r6,80fdc8 <_realloc_r+0x390>
  80fc64:	1080004c 	andi	r2,r2,1
  80fc68:	103f9e1e 	bne	r2,zero,80fae4 <__alt_mem_onchip_mem+0xff807ae4>
  80fc6c:	adbffe17 	ldw	r22,-8(r21)
  80fc70:	00bfff04 	movi	r2,-4
  80fc74:	9dadc83a 	sub	r22,r19,r22
  80fc78:	b1800117 	ldw	r6,4(r22)
  80fc7c:	3084703a 	and	r2,r6,r2
  80fc80:	20002026 	beq	r4,zero,80fd04 <_realloc_r+0x2cc>
  80fc84:	80af883a 	add	r23,r16,r2
  80fc88:	b96f883a 	add	r23,r23,r5
  80fc8c:	21c05f26 	beq	r4,r7,80fe0c <_realloc_r+0x3d4>
  80fc90:	b8c01c16 	blt	r23,r3,80fd04 <_realloc_r+0x2cc>
  80fc94:	20800317 	ldw	r2,12(r4)
  80fc98:	20c00217 	ldw	r3,8(r4)
  80fc9c:	81bfff04 	addi	r6,r16,-4
  80fca0:	01000904 	movi	r4,36
  80fca4:	18800315 	stw	r2,12(r3)
  80fca8:	10c00215 	stw	r3,8(r2)
  80fcac:	b0c00217 	ldw	r3,8(r22)
  80fcb0:	b0800317 	ldw	r2,12(r22)
  80fcb4:	b4800204 	addi	r18,r22,8
  80fcb8:	18800315 	stw	r2,12(r3)
  80fcbc:	10c00215 	stw	r3,8(r2)
  80fcc0:	21801b36 	bltu	r4,r6,80fd30 <_realloc_r+0x2f8>
  80fcc4:	008004c4 	movi	r2,19
  80fcc8:	1180352e 	bgeu	r2,r6,80fda0 <_realloc_r+0x368>
  80fccc:	a8800017 	ldw	r2,0(r21)
  80fcd0:	b0800215 	stw	r2,8(r22)
  80fcd4:	a8800117 	ldw	r2,4(r21)
  80fcd8:	b0800315 	stw	r2,12(r22)
  80fcdc:	008006c4 	movi	r2,27
  80fce0:	11807f36 	bltu	r2,r6,80fee0 <_realloc_r+0x4a8>
  80fce4:	b0800404 	addi	r2,r22,16
  80fce8:	ad400204 	addi	r21,r21,8
  80fcec:	00002d06 	br	80fda4 <_realloc_r+0x36c>
  80fcf0:	adbffe17 	ldw	r22,-8(r21)
  80fcf4:	00bfff04 	movi	r2,-4
  80fcf8:	9dadc83a 	sub	r22,r19,r22
  80fcfc:	b1000117 	ldw	r4,4(r22)
  80fd00:	2084703a 	and	r2,r4,r2
  80fd04:	b03f7726 	beq	r22,zero,80fae4 <__alt_mem_onchip_mem+0xff807ae4>
  80fd08:	80af883a 	add	r23,r16,r2
  80fd0c:	b8ff7516 	blt	r23,r3,80fae4 <__alt_mem_onchip_mem+0xff807ae4>
  80fd10:	b0800317 	ldw	r2,12(r22)
  80fd14:	b0c00217 	ldw	r3,8(r22)
  80fd18:	81bfff04 	addi	r6,r16,-4
  80fd1c:	01000904 	movi	r4,36
  80fd20:	18800315 	stw	r2,12(r3)
  80fd24:	10c00215 	stw	r3,8(r2)
  80fd28:	b4800204 	addi	r18,r22,8
  80fd2c:	21bfe52e 	bgeu	r4,r6,80fcc4 <__alt_mem_onchip_mem+0xff807cc4>
  80fd30:	a80b883a 	mov	r5,r21
  80fd34:	9009883a 	mov	r4,r18
  80fd38:	080f87c0 	call	80f87c <memmove>
  80fd3c:	b821883a 	mov	r16,r23
  80fd40:	b027883a 	mov	r19,r22
  80fd44:	003f8a06 	br	80fb70 <__alt_mem_onchip_mem+0xff807b70>
  80fd48:	300b883a 	mov	r5,r6
  80fd4c:	dfc00917 	ldw	ra,36(sp)
  80fd50:	df000817 	ldw	fp,32(sp)
  80fd54:	ddc00717 	ldw	r23,28(sp)
  80fd58:	dd800617 	ldw	r22,24(sp)
  80fd5c:	dd400517 	ldw	r21,20(sp)
  80fd60:	dd000417 	ldw	r20,16(sp)
  80fd64:	dcc00317 	ldw	r19,12(sp)
  80fd68:	dc800217 	ldw	r18,8(sp)
  80fd6c:	dc400117 	ldw	r17,4(sp)
  80fd70:	dc000017 	ldw	r16,0(sp)
  80fd74:	dec00a04 	addi	sp,sp,40
  80fd78:	080b9101 	jmpi	80b910 <_malloc_r>
  80fd7c:	a8c00017 	ldw	r3,0(r21)
  80fd80:	90c00015 	stw	r3,0(r18)
  80fd84:	a8c00117 	ldw	r3,4(r21)
  80fd88:	90c00115 	stw	r3,4(r18)
  80fd8c:	00c006c4 	movi	r3,27
  80fd90:	19804536 	bltu	r3,r6,80fea8 <_realloc_r+0x470>
  80fd94:	90800204 	addi	r2,r18,8
  80fd98:	a8c00204 	addi	r3,r21,8
  80fd9c:	003f6306 	br	80fb2c <__alt_mem_onchip_mem+0xff807b2c>
  80fda0:	9005883a 	mov	r2,r18
  80fda4:	a8c00017 	ldw	r3,0(r21)
  80fda8:	b821883a 	mov	r16,r23
  80fdac:	b027883a 	mov	r19,r22
  80fdb0:	10c00015 	stw	r3,0(r2)
  80fdb4:	a8c00117 	ldw	r3,4(r21)
  80fdb8:	10c00115 	stw	r3,4(r2)
  80fdbc:	a8c00217 	ldw	r3,8(r21)
  80fdc0:	10c00215 	stw	r3,8(r2)
  80fdc4:	003f6a06 	br	80fb70 <__alt_mem_onchip_mem+0xff807b70>
  80fdc8:	9c67883a 	add	r19,r19,r17
  80fdcc:	4445c83a 	sub	r2,r8,r17
  80fdd0:	e4c00215 	stw	r19,8(fp)
  80fdd4:	10800054 	ori	r2,r2,1
  80fdd8:	98800115 	stw	r2,4(r19)
  80fddc:	a8bfff17 	ldw	r2,-4(r21)
  80fde0:	a009883a 	mov	r4,r20
  80fde4:	1080004c 	andi	r2,r2,1
  80fde8:	1462b03a 	or	r17,r2,r17
  80fdec:	ac7fff15 	stw	r17,-4(r21)
  80fdf0:	081229c0 	call	81229c <__malloc_unlock>
  80fdf4:	a805883a 	mov	r2,r21
  80fdf8:	003f6b06 	br	80fba8 <__alt_mem_onchip_mem+0xff807ba8>
  80fdfc:	a80b883a 	mov	r5,r21
  80fe00:	9009883a 	mov	r4,r18
  80fe04:	080f87c0 	call	80f87c <memmove>
  80fe08:	003f4e06 	br	80fb44 <__alt_mem_onchip_mem+0xff807b44>
  80fe0c:	89000404 	addi	r4,r17,16
  80fe10:	b93fbc16 	blt	r23,r4,80fd04 <__alt_mem_onchip_mem+0xff807d04>
  80fe14:	b0800317 	ldw	r2,12(r22)
  80fe18:	b0c00217 	ldw	r3,8(r22)
  80fe1c:	81bfff04 	addi	r6,r16,-4
  80fe20:	01000904 	movi	r4,36
  80fe24:	18800315 	stw	r2,12(r3)
  80fe28:	10c00215 	stw	r3,8(r2)
  80fe2c:	b4800204 	addi	r18,r22,8
  80fe30:	21804336 	bltu	r4,r6,80ff40 <_realloc_r+0x508>
  80fe34:	008004c4 	movi	r2,19
  80fe38:	11803f2e 	bgeu	r2,r6,80ff38 <_realloc_r+0x500>
  80fe3c:	a8800017 	ldw	r2,0(r21)
  80fe40:	b0800215 	stw	r2,8(r22)
  80fe44:	a8800117 	ldw	r2,4(r21)
  80fe48:	b0800315 	stw	r2,12(r22)
  80fe4c:	008006c4 	movi	r2,27
  80fe50:	11803f36 	bltu	r2,r6,80ff50 <_realloc_r+0x518>
  80fe54:	b0800404 	addi	r2,r22,16
  80fe58:	ad400204 	addi	r21,r21,8
  80fe5c:	a8c00017 	ldw	r3,0(r21)
  80fe60:	10c00015 	stw	r3,0(r2)
  80fe64:	a8c00117 	ldw	r3,4(r21)
  80fe68:	10c00115 	stw	r3,4(r2)
  80fe6c:	a8c00217 	ldw	r3,8(r21)
  80fe70:	10c00215 	stw	r3,8(r2)
  80fe74:	b447883a 	add	r3,r22,r17
  80fe78:	bc45c83a 	sub	r2,r23,r17
  80fe7c:	e0c00215 	stw	r3,8(fp)
  80fe80:	10800054 	ori	r2,r2,1
  80fe84:	18800115 	stw	r2,4(r3)
  80fe88:	b0800117 	ldw	r2,4(r22)
  80fe8c:	a009883a 	mov	r4,r20
  80fe90:	1080004c 	andi	r2,r2,1
  80fe94:	1462b03a 	or	r17,r2,r17
  80fe98:	b4400115 	stw	r17,4(r22)
  80fe9c:	081229c0 	call	81229c <__malloc_unlock>
  80fea0:	9005883a 	mov	r2,r18
  80fea4:	003f4006 	br	80fba8 <__alt_mem_onchip_mem+0xff807ba8>
  80fea8:	a8c00217 	ldw	r3,8(r21)
  80feac:	90c00215 	stw	r3,8(r18)
  80feb0:	a8c00317 	ldw	r3,12(r21)
  80feb4:	90c00315 	stw	r3,12(r18)
  80feb8:	30801126 	beq	r6,r2,80ff00 <_realloc_r+0x4c8>
  80febc:	90800404 	addi	r2,r18,16
  80fec0:	a8c00404 	addi	r3,r21,16
  80fec4:	003f1906 	br	80fb2c <__alt_mem_onchip_mem+0xff807b2c>
  80fec8:	90ffff17 	ldw	r3,-4(r18)
  80fecc:	00bfff04 	movi	r2,-4
  80fed0:	a825883a 	mov	r18,r21
  80fed4:	1884703a 	and	r2,r3,r2
  80fed8:	80a1883a 	add	r16,r16,r2
  80fedc:	003f2406 	br	80fb70 <__alt_mem_onchip_mem+0xff807b70>
  80fee0:	a8800217 	ldw	r2,8(r21)
  80fee4:	b0800415 	stw	r2,16(r22)
  80fee8:	a8800317 	ldw	r2,12(r21)
  80feec:	b0800515 	stw	r2,20(r22)
  80fef0:	31000a26 	beq	r6,r4,80ff1c <_realloc_r+0x4e4>
  80fef4:	b0800604 	addi	r2,r22,24
  80fef8:	ad400404 	addi	r21,r21,16
  80fefc:	003fa906 	br	80fda4 <__alt_mem_onchip_mem+0xff807da4>
  80ff00:	a9000417 	ldw	r4,16(r21)
  80ff04:	90800604 	addi	r2,r18,24
  80ff08:	a8c00604 	addi	r3,r21,24
  80ff0c:	91000415 	stw	r4,16(r18)
  80ff10:	a9000517 	ldw	r4,20(r21)
  80ff14:	91000515 	stw	r4,20(r18)
  80ff18:	003f0406 	br	80fb2c <__alt_mem_onchip_mem+0xff807b2c>
  80ff1c:	a8c00417 	ldw	r3,16(r21)
  80ff20:	ad400604 	addi	r21,r21,24
  80ff24:	b0800804 	addi	r2,r22,32
  80ff28:	b0c00615 	stw	r3,24(r22)
  80ff2c:	a8ffff17 	ldw	r3,-4(r21)
  80ff30:	b0c00715 	stw	r3,28(r22)
  80ff34:	003f9b06 	br	80fda4 <__alt_mem_onchip_mem+0xff807da4>
  80ff38:	9005883a 	mov	r2,r18
  80ff3c:	003fc706 	br	80fe5c <__alt_mem_onchip_mem+0xff807e5c>
  80ff40:	a80b883a 	mov	r5,r21
  80ff44:	9009883a 	mov	r4,r18
  80ff48:	080f87c0 	call	80f87c <memmove>
  80ff4c:	003fc906 	br	80fe74 <__alt_mem_onchip_mem+0xff807e74>
  80ff50:	a8800217 	ldw	r2,8(r21)
  80ff54:	b0800415 	stw	r2,16(r22)
  80ff58:	a8800317 	ldw	r2,12(r21)
  80ff5c:	b0800515 	stw	r2,20(r22)
  80ff60:	31000726 	beq	r6,r4,80ff80 <_realloc_r+0x548>
  80ff64:	b0800604 	addi	r2,r22,24
  80ff68:	ad400404 	addi	r21,r21,16
  80ff6c:	003fbb06 	br	80fe5c <__alt_mem_onchip_mem+0xff807e5c>
  80ff70:	a009883a 	mov	r4,r20
  80ff74:	081229c0 	call	81229c <__malloc_unlock>
  80ff78:	0005883a 	mov	r2,zero
  80ff7c:	003f0a06 	br	80fba8 <__alt_mem_onchip_mem+0xff807ba8>
  80ff80:	a8c00417 	ldw	r3,16(r21)
  80ff84:	ad400604 	addi	r21,r21,24
  80ff88:	b0800804 	addi	r2,r22,32
  80ff8c:	b0c00615 	stw	r3,24(r22)
  80ff90:	a8ffff17 	ldw	r3,-4(r21)
  80ff94:	b0c00715 	stw	r3,28(r22)
  80ff98:	003fb006 	br	80fe5c <__alt_mem_onchip_mem+0xff807e5c>

0080ff9c <__swbuf_r>:
  80ff9c:	defffb04 	addi	sp,sp,-20
  80ffa0:	dcc00315 	stw	r19,12(sp)
  80ffa4:	dc800215 	stw	r18,8(sp)
  80ffa8:	dc000015 	stw	r16,0(sp)
  80ffac:	dfc00415 	stw	ra,16(sp)
  80ffb0:	dc400115 	stw	r17,4(sp)
  80ffb4:	2025883a 	mov	r18,r4
  80ffb8:	2827883a 	mov	r19,r5
  80ffbc:	3021883a 	mov	r16,r6
  80ffc0:	20000226 	beq	r4,zero,80ffcc <__swbuf_r+0x30>
  80ffc4:	20800e17 	ldw	r2,56(r4)
  80ffc8:	10004226 	beq	r2,zero,8100d4 <__swbuf_r+0x138>
  80ffcc:	80800617 	ldw	r2,24(r16)
  80ffd0:	8100030b 	ldhu	r4,12(r16)
  80ffd4:	80800215 	stw	r2,8(r16)
  80ffd8:	2080020c 	andi	r2,r4,8
  80ffdc:	10003626 	beq	r2,zero,8100b8 <__swbuf_r+0x11c>
  80ffe0:	80c00417 	ldw	r3,16(r16)
  80ffe4:	18003426 	beq	r3,zero,8100b8 <__swbuf_r+0x11c>
  80ffe8:	2088000c 	andi	r2,r4,8192
  80ffec:	9c403fcc 	andi	r17,r19,255
  80fff0:	10001a26 	beq	r2,zero,81005c <__swbuf_r+0xc0>
  80fff4:	80800017 	ldw	r2,0(r16)
  80fff8:	81000517 	ldw	r4,20(r16)
  80fffc:	10c7c83a 	sub	r3,r2,r3
  810000:	1900200e 	bge	r3,r4,810084 <__swbuf_r+0xe8>
  810004:	18c00044 	addi	r3,r3,1
  810008:	81000217 	ldw	r4,8(r16)
  81000c:	11400044 	addi	r5,r2,1
  810010:	81400015 	stw	r5,0(r16)
  810014:	213fffc4 	addi	r4,r4,-1
  810018:	81000215 	stw	r4,8(r16)
  81001c:	14c00005 	stb	r19,0(r2)
  810020:	80800517 	ldw	r2,20(r16)
  810024:	10c01e26 	beq	r2,r3,8100a0 <__swbuf_r+0x104>
  810028:	8080030b 	ldhu	r2,12(r16)
  81002c:	1080004c 	andi	r2,r2,1
  810030:	10000226 	beq	r2,zero,81003c <__swbuf_r+0xa0>
  810034:	00800284 	movi	r2,10
  810038:	88801926 	beq	r17,r2,8100a0 <__swbuf_r+0x104>
  81003c:	8805883a 	mov	r2,r17
  810040:	dfc00417 	ldw	ra,16(sp)
  810044:	dcc00317 	ldw	r19,12(sp)
  810048:	dc800217 	ldw	r18,8(sp)
  81004c:	dc400117 	ldw	r17,4(sp)
  810050:	dc000017 	ldw	r16,0(sp)
  810054:	dec00504 	addi	sp,sp,20
  810058:	f800283a 	ret
  81005c:	81401917 	ldw	r5,100(r16)
  810060:	00b7ffc4 	movi	r2,-8193
  810064:	21080014 	ori	r4,r4,8192
  810068:	2884703a 	and	r2,r5,r2
  81006c:	80801915 	stw	r2,100(r16)
  810070:	80800017 	ldw	r2,0(r16)
  810074:	8100030d 	sth	r4,12(r16)
  810078:	81000517 	ldw	r4,20(r16)
  81007c:	10c7c83a 	sub	r3,r2,r3
  810080:	193fe016 	blt	r3,r4,810004 <__alt_mem_onchip_mem+0xff808004>
  810084:	800b883a 	mov	r5,r16
  810088:	9009883a 	mov	r4,r18
  81008c:	080ac900 	call	80ac90 <_fflush_r>
  810090:	1000071e 	bne	r2,zero,8100b0 <__swbuf_r+0x114>
  810094:	80800017 	ldw	r2,0(r16)
  810098:	00c00044 	movi	r3,1
  81009c:	003fda06 	br	810008 <__alt_mem_onchip_mem+0xff808008>
  8100a0:	800b883a 	mov	r5,r16
  8100a4:	9009883a 	mov	r4,r18
  8100a8:	080ac900 	call	80ac90 <_fflush_r>
  8100ac:	103fe326 	beq	r2,zero,81003c <__alt_mem_onchip_mem+0xff80803c>
  8100b0:	00bfffc4 	movi	r2,-1
  8100b4:	003fe206 	br	810040 <__alt_mem_onchip_mem+0xff808040>
  8100b8:	800b883a 	mov	r5,r16
  8100bc:	9009883a 	mov	r4,r18
  8100c0:	08090980 	call	809098 <__swsetup_r>
  8100c4:	103ffa1e 	bne	r2,zero,8100b0 <__alt_mem_onchip_mem+0xff8080b0>
  8100c8:	8100030b 	ldhu	r4,12(r16)
  8100cc:	80c00417 	ldw	r3,16(r16)
  8100d0:	003fc506 	br	80ffe8 <__alt_mem_onchip_mem+0xff807fe8>
  8100d4:	080b06c0 	call	80b06c <__sinit>
  8100d8:	003fbc06 	br	80ffcc <__alt_mem_onchip_mem+0xff807fcc>

008100dc <__swbuf>:
  8100dc:	00802074 	movhi	r2,129
  8100e0:	109f3004 	addi	r2,r2,31936
  8100e4:	280d883a 	mov	r6,r5
  8100e8:	200b883a 	mov	r5,r4
  8100ec:	11000017 	ldw	r4,0(r2)
  8100f0:	080ff9c1 	jmpi	80ff9c <__swbuf_r>

008100f4 <_wcrtomb_r>:
  8100f4:	defff604 	addi	sp,sp,-40
  8100f8:	00802074 	movhi	r2,129
  8100fc:	dc800815 	stw	r18,32(sp)
  810100:	dc400715 	stw	r17,28(sp)
  810104:	dc000615 	stw	r16,24(sp)
  810108:	109f3404 	addi	r2,r2,31952
  81010c:	dfc00915 	stw	ra,36(sp)
  810110:	2021883a 	mov	r16,r4
  810114:	3823883a 	mov	r17,r7
  810118:	14800017 	ldw	r18,0(r2)
  81011c:	28001426 	beq	r5,zero,810170 <_wcrtomb_r+0x7c>
  810120:	d9400415 	stw	r5,16(sp)
  810124:	d9800515 	stw	r6,20(sp)
  810128:	080b6f40 	call	80b6f4 <__locale_charset>
  81012c:	d9800517 	ldw	r6,20(sp)
  810130:	d9400417 	ldw	r5,16(sp)
  810134:	100f883a 	mov	r7,r2
  810138:	dc400015 	stw	r17,0(sp)
  81013c:	8009883a 	mov	r4,r16
  810140:	903ee83a 	callr	r18
  810144:	00ffffc4 	movi	r3,-1
  810148:	10c0031e 	bne	r2,r3,810158 <_wcrtomb_r+0x64>
  81014c:	88000015 	stw	zero,0(r17)
  810150:	00c02284 	movi	r3,138
  810154:	80c00015 	stw	r3,0(r16)
  810158:	dfc00917 	ldw	ra,36(sp)
  81015c:	dc800817 	ldw	r18,32(sp)
  810160:	dc400717 	ldw	r17,28(sp)
  810164:	dc000617 	ldw	r16,24(sp)
  810168:	dec00a04 	addi	sp,sp,40
  81016c:	f800283a 	ret
  810170:	080b6f40 	call	80b6f4 <__locale_charset>
  810174:	100f883a 	mov	r7,r2
  810178:	dc400015 	stw	r17,0(sp)
  81017c:	000d883a 	mov	r6,zero
  810180:	d9400104 	addi	r5,sp,4
  810184:	8009883a 	mov	r4,r16
  810188:	903ee83a 	callr	r18
  81018c:	003fed06 	br	810144 <__alt_mem_onchip_mem+0xff808144>

00810190 <wcrtomb>:
  810190:	defff604 	addi	sp,sp,-40
  810194:	00802074 	movhi	r2,129
  810198:	dc800615 	stw	r18,24(sp)
  81019c:	dc400515 	stw	r17,20(sp)
  8101a0:	109f3004 	addi	r2,r2,31936
  8101a4:	dfc00915 	stw	ra,36(sp)
  8101a8:	dd000815 	stw	r20,32(sp)
  8101ac:	dcc00715 	stw	r19,28(sp)
  8101b0:	dc000415 	stw	r16,16(sp)
  8101b4:	3025883a 	mov	r18,r6
  8101b8:	14400017 	ldw	r17,0(r2)
  8101bc:	20001926 	beq	r4,zero,810224 <wcrtomb+0x94>
  8101c0:	00802074 	movhi	r2,129
  8101c4:	109f3404 	addi	r2,r2,31952
  8101c8:	15000017 	ldw	r20,0(r2)
  8101cc:	2021883a 	mov	r16,r4
  8101d0:	2827883a 	mov	r19,r5
  8101d4:	080b6f40 	call	80b6f4 <__locale_charset>
  8101d8:	100f883a 	mov	r7,r2
  8101dc:	dc800015 	stw	r18,0(sp)
  8101e0:	980d883a 	mov	r6,r19
  8101e4:	800b883a 	mov	r5,r16
  8101e8:	8809883a 	mov	r4,r17
  8101ec:	a03ee83a 	callr	r20
  8101f0:	00ffffc4 	movi	r3,-1
  8101f4:	10c0031e 	bne	r2,r3,810204 <wcrtomb+0x74>
  8101f8:	90000015 	stw	zero,0(r18)
  8101fc:	00c02284 	movi	r3,138
  810200:	88c00015 	stw	r3,0(r17)
  810204:	dfc00917 	ldw	ra,36(sp)
  810208:	dd000817 	ldw	r20,32(sp)
  81020c:	dcc00717 	ldw	r19,28(sp)
  810210:	dc800617 	ldw	r18,24(sp)
  810214:	dc400517 	ldw	r17,20(sp)
  810218:	dc000417 	ldw	r16,16(sp)
  81021c:	dec00a04 	addi	sp,sp,40
  810220:	f800283a 	ret
  810224:	00802074 	movhi	r2,129
  810228:	109f3404 	addi	r2,r2,31952
  81022c:	14000017 	ldw	r16,0(r2)
  810230:	080b6f40 	call	80b6f4 <__locale_charset>
  810234:	100f883a 	mov	r7,r2
  810238:	dc800015 	stw	r18,0(sp)
  81023c:	000d883a 	mov	r6,zero
  810240:	d9400104 	addi	r5,sp,4
  810244:	8809883a 	mov	r4,r17
  810248:	803ee83a 	callr	r16
  81024c:	003fe806 	br	8101f0 <__alt_mem_onchip_mem+0xff8081f0>

00810250 <__ascii_wctomb>:
  810250:	28000526 	beq	r5,zero,810268 <__ascii_wctomb+0x18>
  810254:	00803fc4 	movi	r2,255
  810258:	11800536 	bltu	r2,r6,810270 <__ascii_wctomb+0x20>
  81025c:	29800005 	stb	r6,0(r5)
  810260:	00800044 	movi	r2,1
  810264:	f800283a 	ret
  810268:	0005883a 	mov	r2,zero
  81026c:	f800283a 	ret
  810270:	00802284 	movi	r2,138
  810274:	20800015 	stw	r2,0(r4)
  810278:	00bfffc4 	movi	r2,-1
  81027c:	f800283a 	ret

00810280 <_wctomb_r>:
  810280:	00802074 	movhi	r2,129
  810284:	defff904 	addi	sp,sp,-28
  810288:	109f3404 	addi	r2,r2,31952
  81028c:	dfc00615 	stw	ra,24(sp)
  810290:	dc400515 	stw	r17,20(sp)
  810294:	dc000415 	stw	r16,16(sp)
  810298:	3823883a 	mov	r17,r7
  81029c:	14000017 	ldw	r16,0(r2)
  8102a0:	d9000115 	stw	r4,4(sp)
  8102a4:	d9400215 	stw	r5,8(sp)
  8102a8:	d9800315 	stw	r6,12(sp)
  8102ac:	080b6f40 	call	80b6f4 <__locale_charset>
  8102b0:	d9800317 	ldw	r6,12(sp)
  8102b4:	d9400217 	ldw	r5,8(sp)
  8102b8:	d9000117 	ldw	r4,4(sp)
  8102bc:	100f883a 	mov	r7,r2
  8102c0:	dc400015 	stw	r17,0(sp)
  8102c4:	803ee83a 	callr	r16
  8102c8:	dfc00617 	ldw	ra,24(sp)
  8102cc:	dc400517 	ldw	r17,20(sp)
  8102d0:	dc000417 	ldw	r16,16(sp)
  8102d4:	dec00704 	addi	sp,sp,28
  8102d8:	f800283a 	ret

008102dc <__udivdi3>:
  8102dc:	defff504 	addi	sp,sp,-44
  8102e0:	dcc00415 	stw	r19,16(sp)
  8102e4:	dc000115 	stw	r16,4(sp)
  8102e8:	dfc00a15 	stw	ra,40(sp)
  8102ec:	df000915 	stw	fp,36(sp)
  8102f0:	ddc00815 	stw	r23,32(sp)
  8102f4:	dd800715 	stw	r22,28(sp)
  8102f8:	dd400615 	stw	r21,24(sp)
  8102fc:	dd000515 	stw	r20,20(sp)
  810300:	dc800315 	stw	r18,12(sp)
  810304:	dc400215 	stw	r17,8(sp)
  810308:	2027883a 	mov	r19,r4
  81030c:	2821883a 	mov	r16,r5
  810310:	3800411e 	bne	r7,zero,810418 <__udivdi3+0x13c>
  810314:	3023883a 	mov	r17,r6
  810318:	2025883a 	mov	r18,r4
  81031c:	2980522e 	bgeu	r5,r6,810468 <__udivdi3+0x18c>
  810320:	00bfffd4 	movui	r2,65535
  810324:	282d883a 	mov	r22,r5
  810328:	1180a836 	bltu	r2,r6,8105cc <__udivdi3+0x2f0>
  81032c:	00803fc4 	movi	r2,255
  810330:	1185803a 	cmpltu	r2,r2,r6
  810334:	100490fa 	slli	r2,r2,3
  810338:	3086d83a 	srl	r3,r6,r2
  81033c:	01002074 	movhi	r4,129
  810340:	2116a804 	addi	r4,r4,23200
  810344:	20c7883a 	add	r3,r4,r3
  810348:	18c00003 	ldbu	r3,0(r3)
  81034c:	1885883a 	add	r2,r3,r2
  810350:	00c00804 	movi	r3,32
  810354:	1887c83a 	sub	r3,r3,r2
  810358:	18000526 	beq	r3,zero,810370 <__udivdi3+0x94>
  81035c:	80e0983a 	sll	r16,r16,r3
  810360:	9884d83a 	srl	r2,r19,r2
  810364:	30e2983a 	sll	r17,r6,r3
  810368:	98e4983a 	sll	r18,r19,r3
  81036c:	142cb03a 	or	r22,r2,r16
  810370:	882ad43a 	srli	r21,r17,16
  810374:	b009883a 	mov	r4,r22
  810378:	8d3fffcc 	andi	r20,r17,65535
  81037c:	a80b883a 	mov	r5,r21
  810380:	0810ee80 	call	810ee8 <__umodsi3>
  810384:	b009883a 	mov	r4,r22
  810388:	a80b883a 	mov	r5,r21
  81038c:	1027883a 	mov	r19,r2
  810390:	0810e840 	call	810e84 <__udivsi3>
  810394:	102d883a 	mov	r22,r2
  810398:	9826943a 	slli	r19,r19,16
  81039c:	9004d43a 	srli	r2,r18,16
  8103a0:	a5a1383a 	mul	r16,r20,r22
  8103a4:	14c4b03a 	or	r2,r2,r19
  8103a8:	1400052e 	bgeu	r2,r16,8103c0 <__udivdi3+0xe4>
  8103ac:	1445883a 	add	r2,r2,r17
  8103b0:	b0ffffc4 	addi	r3,r22,-1
  8103b4:	14400136 	bltu	r2,r17,8103bc <__udivdi3+0xe0>
  8103b8:	14012336 	bltu	r2,r16,810848 <__udivdi3+0x56c>
  8103bc:	182d883a 	mov	r22,r3
  8103c0:	1421c83a 	sub	r16,r2,r16
  8103c4:	a80b883a 	mov	r5,r21
  8103c8:	8009883a 	mov	r4,r16
  8103cc:	0810ee80 	call	810ee8 <__umodsi3>
  8103d0:	1027883a 	mov	r19,r2
  8103d4:	a80b883a 	mov	r5,r21
  8103d8:	8009883a 	mov	r4,r16
  8103dc:	0810e840 	call	810e84 <__udivsi3>
  8103e0:	9826943a 	slli	r19,r19,16
  8103e4:	a0a9383a 	mul	r20,r20,r2
  8103e8:	94bfffcc 	andi	r18,r18,65535
  8103ec:	94e4b03a 	or	r18,r18,r19
  8103f0:	9500052e 	bgeu	r18,r20,810408 <__udivdi3+0x12c>
  8103f4:	8ca5883a 	add	r18,r17,r18
  8103f8:	10ffffc4 	addi	r3,r2,-1
  8103fc:	9440f136 	bltu	r18,r17,8107c4 <__udivdi3+0x4e8>
  810400:	9500f02e 	bgeu	r18,r20,8107c4 <__udivdi3+0x4e8>
  810404:	10bfff84 	addi	r2,r2,-2
  810408:	b00c943a 	slli	r6,r22,16
  81040c:	0007883a 	mov	r3,zero
  810410:	3084b03a 	or	r2,r6,r2
  810414:	00005906 	br	81057c <__udivdi3+0x2a0>
  810418:	29c05636 	bltu	r5,r7,810574 <__udivdi3+0x298>
  81041c:	00bfffd4 	movui	r2,65535
  810420:	11c0622e 	bgeu	r2,r7,8105ac <__udivdi3+0x2d0>
  810424:	00804034 	movhi	r2,256
  810428:	10bfffc4 	addi	r2,r2,-1
  81042c:	11c0ee36 	bltu	r2,r7,8107e8 <__udivdi3+0x50c>
  810430:	00800404 	movi	r2,16
  810434:	3886d83a 	srl	r3,r7,r2
  810438:	01002074 	movhi	r4,129
  81043c:	2116a804 	addi	r4,r4,23200
  810440:	20c7883a 	add	r3,r4,r3
  810444:	18c00003 	ldbu	r3,0(r3)
  810448:	05400804 	movi	r21,32
  81044c:	1885883a 	add	r2,r3,r2
  810450:	a8abc83a 	sub	r21,r21,r2
  810454:	a800621e 	bne	r21,zero,8105e0 <__udivdi3+0x304>
  810458:	3c00e936 	bltu	r7,r16,810800 <__udivdi3+0x524>
  81045c:	9985403a 	cmpgeu	r2,r19,r6
  810460:	0007883a 	mov	r3,zero
  810464:	00004506 	br	81057c <__udivdi3+0x2a0>
  810468:	3000041e 	bne	r6,zero,81047c <__udivdi3+0x1a0>
  81046c:	000b883a 	mov	r5,zero
  810470:	01000044 	movi	r4,1
  810474:	0810e840 	call	810e84 <__udivsi3>
  810478:	1023883a 	mov	r17,r2
  81047c:	00bfffd4 	movui	r2,65535
  810480:	14404e2e 	bgeu	r2,r17,8105bc <__udivdi3+0x2e0>
  810484:	00804034 	movhi	r2,256
  810488:	10bfffc4 	addi	r2,r2,-1
  81048c:	1440d836 	bltu	r2,r17,8107f0 <__udivdi3+0x514>
  810490:	00800404 	movi	r2,16
  810494:	8886d83a 	srl	r3,r17,r2
  810498:	01002074 	movhi	r4,129
  81049c:	2116a804 	addi	r4,r4,23200
  8104a0:	20c7883a 	add	r3,r4,r3
  8104a4:	18c00003 	ldbu	r3,0(r3)
  8104a8:	1885883a 	add	r2,r3,r2
  8104ac:	00c00804 	movi	r3,32
  8104b0:	1887c83a 	sub	r3,r3,r2
  8104b4:	18008f1e 	bne	r3,zero,8106f4 <__udivdi3+0x418>
  8104b8:	882ad43a 	srli	r21,r17,16
  8104bc:	8461c83a 	sub	r16,r16,r17
  8104c0:	8d3fffcc 	andi	r20,r17,65535
  8104c4:	00c00044 	movi	r3,1
  8104c8:	8009883a 	mov	r4,r16
  8104cc:	a80b883a 	mov	r5,r21
  8104d0:	d8c00015 	stw	r3,0(sp)
  8104d4:	0810ee80 	call	810ee8 <__umodsi3>
  8104d8:	8009883a 	mov	r4,r16
  8104dc:	a80b883a 	mov	r5,r21
  8104e0:	1027883a 	mov	r19,r2
  8104e4:	0810e840 	call	810e84 <__udivsi3>
  8104e8:	9826943a 	slli	r19,r19,16
  8104ec:	9008d43a 	srli	r4,r18,16
  8104f0:	1521383a 	mul	r16,r2,r20
  8104f4:	102d883a 	mov	r22,r2
  8104f8:	24c8b03a 	or	r4,r4,r19
  8104fc:	d8c00017 	ldw	r3,0(sp)
  810500:	2400052e 	bgeu	r4,r16,810518 <__udivdi3+0x23c>
  810504:	2449883a 	add	r4,r4,r17
  810508:	b0bfffc4 	addi	r2,r22,-1
  81050c:	24400136 	bltu	r4,r17,810514 <__udivdi3+0x238>
  810510:	2400ca36 	bltu	r4,r16,81083c <__udivdi3+0x560>
  810514:	102d883a 	mov	r22,r2
  810518:	2421c83a 	sub	r16,r4,r16
  81051c:	a80b883a 	mov	r5,r21
  810520:	8009883a 	mov	r4,r16
  810524:	d8c00015 	stw	r3,0(sp)
  810528:	0810ee80 	call	810ee8 <__umodsi3>
  81052c:	1027883a 	mov	r19,r2
  810530:	a80b883a 	mov	r5,r21
  810534:	8009883a 	mov	r4,r16
  810538:	0810e840 	call	810e84 <__udivsi3>
  81053c:	9826943a 	slli	r19,r19,16
  810540:	1529383a 	mul	r20,r2,r20
  810544:	94bfffcc 	andi	r18,r18,65535
  810548:	94e4b03a 	or	r18,r18,r19
  81054c:	d8c00017 	ldw	r3,0(sp)
  810550:	9500052e 	bgeu	r18,r20,810568 <__udivdi3+0x28c>
  810554:	8ca5883a 	add	r18,r17,r18
  810558:	113fffc4 	addi	r4,r2,-1
  81055c:	94409736 	bltu	r18,r17,8107bc <__udivdi3+0x4e0>
  810560:	9500962e 	bgeu	r18,r20,8107bc <__udivdi3+0x4e0>
  810564:	10bfff84 	addi	r2,r2,-2
  810568:	b00c943a 	slli	r6,r22,16
  81056c:	3084b03a 	or	r2,r6,r2
  810570:	00000206 	br	81057c <__udivdi3+0x2a0>
  810574:	0007883a 	mov	r3,zero
  810578:	0005883a 	mov	r2,zero
  81057c:	dfc00a17 	ldw	ra,40(sp)
  810580:	df000917 	ldw	fp,36(sp)
  810584:	ddc00817 	ldw	r23,32(sp)
  810588:	dd800717 	ldw	r22,28(sp)
  81058c:	dd400617 	ldw	r21,24(sp)
  810590:	dd000517 	ldw	r20,20(sp)
  810594:	dcc00417 	ldw	r19,16(sp)
  810598:	dc800317 	ldw	r18,12(sp)
  81059c:	dc400217 	ldw	r17,8(sp)
  8105a0:	dc000117 	ldw	r16,4(sp)
  8105a4:	dec00b04 	addi	sp,sp,44
  8105a8:	f800283a 	ret
  8105ac:	00803fc4 	movi	r2,255
  8105b0:	11c5803a 	cmpltu	r2,r2,r7
  8105b4:	100490fa 	slli	r2,r2,3
  8105b8:	003f9e06 	br	810434 <__alt_mem_onchip_mem+0xff808434>
  8105bc:	00803fc4 	movi	r2,255
  8105c0:	1445803a 	cmpltu	r2,r2,r17
  8105c4:	100490fa 	slli	r2,r2,3
  8105c8:	003fb206 	br	810494 <__alt_mem_onchip_mem+0xff808494>
  8105cc:	00804034 	movhi	r2,256
  8105d0:	10bfffc4 	addi	r2,r2,-1
  8105d4:	11808836 	bltu	r2,r6,8107f8 <__udivdi3+0x51c>
  8105d8:	00800404 	movi	r2,16
  8105dc:	003f5606 	br	810338 <__alt_mem_onchip_mem+0xff808338>
  8105e0:	30aed83a 	srl	r23,r6,r2
  8105e4:	3d4e983a 	sll	r7,r7,r21
  8105e8:	80acd83a 	srl	r22,r16,r2
  8105ec:	9884d83a 	srl	r2,r19,r2
  8105f0:	3deeb03a 	or	r23,r7,r23
  8105f4:	b824d43a 	srli	r18,r23,16
  8105f8:	8560983a 	sll	r16,r16,r21
  8105fc:	b009883a 	mov	r4,r22
  810600:	900b883a 	mov	r5,r18
  810604:	3568983a 	sll	r20,r6,r21
  810608:	1420b03a 	or	r16,r2,r16
  81060c:	0810ee80 	call	810ee8 <__umodsi3>
  810610:	b009883a 	mov	r4,r22
  810614:	900b883a 	mov	r5,r18
  810618:	1023883a 	mov	r17,r2
  81061c:	0810e840 	call	810e84 <__udivsi3>
  810620:	8808943a 	slli	r4,r17,16
  810624:	bf3fffcc 	andi	fp,r23,65535
  810628:	8006d43a 	srli	r3,r16,16
  81062c:	e0a3383a 	mul	r17,fp,r2
  810630:	100d883a 	mov	r6,r2
  810634:	1906b03a 	or	r3,r3,r4
  810638:	1c40042e 	bgeu	r3,r17,81064c <__udivdi3+0x370>
  81063c:	1dc7883a 	add	r3,r3,r23
  810640:	10bfffc4 	addi	r2,r2,-1
  810644:	1dc0752e 	bgeu	r3,r23,81081c <__udivdi3+0x540>
  810648:	100d883a 	mov	r6,r2
  81064c:	1c63c83a 	sub	r17,r3,r17
  810650:	900b883a 	mov	r5,r18
  810654:	8809883a 	mov	r4,r17
  810658:	d9800015 	stw	r6,0(sp)
  81065c:	0810ee80 	call	810ee8 <__umodsi3>
  810660:	102d883a 	mov	r22,r2
  810664:	8809883a 	mov	r4,r17
  810668:	900b883a 	mov	r5,r18
  81066c:	0810e840 	call	810e84 <__udivsi3>
  810670:	b02c943a 	slli	r22,r22,16
  810674:	e089383a 	mul	r4,fp,r2
  810678:	843fffcc 	andi	r16,r16,65535
  81067c:	85a0b03a 	or	r16,r16,r22
  810680:	d9800017 	ldw	r6,0(sp)
  810684:	8100042e 	bgeu	r16,r4,810698 <__udivdi3+0x3bc>
  810688:	85e1883a 	add	r16,r16,r23
  81068c:	10ffffc4 	addi	r3,r2,-1
  810690:	85c05e2e 	bgeu	r16,r23,81080c <__udivdi3+0x530>
  810694:	1805883a 	mov	r2,r3
  810698:	300c943a 	slli	r6,r6,16
  81069c:	a17fffcc 	andi	r5,r20,65535
  8106a0:	a028d43a 	srli	r20,r20,16
  8106a4:	3084b03a 	or	r2,r6,r2
  8106a8:	10ffffcc 	andi	r3,r2,65535
  8106ac:	100cd43a 	srli	r6,r2,16
  8106b0:	194f383a 	mul	r7,r3,r5
  8106b4:	1d07383a 	mul	r3,r3,r20
  8106b8:	314b383a 	mul	r5,r6,r5
  8106bc:	3810d43a 	srli	r8,r7,16
  8106c0:	8121c83a 	sub	r16,r16,r4
  8106c4:	1947883a 	add	r3,r3,r5
  8106c8:	40c7883a 	add	r3,r8,r3
  8106cc:	350d383a 	mul	r6,r6,r20
  8106d0:	1940022e 	bgeu	r3,r5,8106dc <__udivdi3+0x400>
  8106d4:	01000074 	movhi	r4,1
  8106d8:	310d883a 	add	r6,r6,r4
  8106dc:	1828d43a 	srli	r20,r3,16
  8106e0:	a18d883a 	add	r6,r20,r6
  8106e4:	81803e36 	bltu	r16,r6,8107e0 <__udivdi3+0x504>
  8106e8:	81803826 	beq	r16,r6,8107cc <__udivdi3+0x4f0>
  8106ec:	0007883a 	mov	r3,zero
  8106f0:	003fa206 	br	81057c <__alt_mem_onchip_mem+0xff80857c>
  8106f4:	88e2983a 	sll	r17,r17,r3
  8106f8:	80a8d83a 	srl	r20,r16,r2
  8106fc:	80e0983a 	sll	r16,r16,r3
  810700:	882ad43a 	srli	r21,r17,16
  810704:	9884d83a 	srl	r2,r19,r2
  810708:	a009883a 	mov	r4,r20
  81070c:	a80b883a 	mov	r5,r21
  810710:	142eb03a 	or	r23,r2,r16
  810714:	98e4983a 	sll	r18,r19,r3
  810718:	0810ee80 	call	810ee8 <__umodsi3>
  81071c:	a009883a 	mov	r4,r20
  810720:	a80b883a 	mov	r5,r21
  810724:	1021883a 	mov	r16,r2
  810728:	0810e840 	call	810e84 <__udivsi3>
  81072c:	1039883a 	mov	fp,r2
  810730:	8d3fffcc 	andi	r20,r17,65535
  810734:	8020943a 	slli	r16,r16,16
  810738:	b804d43a 	srli	r2,r23,16
  81073c:	a72d383a 	mul	r22,r20,fp
  810740:	1404b03a 	or	r2,r2,r16
  810744:	1580062e 	bgeu	r2,r22,810760 <__udivdi3+0x484>
  810748:	1445883a 	add	r2,r2,r17
  81074c:	e0ffffc4 	addi	r3,fp,-1
  810750:	14403836 	bltu	r2,r17,810834 <__udivdi3+0x558>
  810754:	1580372e 	bgeu	r2,r22,810834 <__udivdi3+0x558>
  810758:	e73fff84 	addi	fp,fp,-2
  81075c:	1445883a 	add	r2,r2,r17
  810760:	15adc83a 	sub	r22,r2,r22
  810764:	a80b883a 	mov	r5,r21
  810768:	b009883a 	mov	r4,r22
  81076c:	0810ee80 	call	810ee8 <__umodsi3>
  810770:	1027883a 	mov	r19,r2
  810774:	b009883a 	mov	r4,r22
  810778:	a80b883a 	mov	r5,r21
  81077c:	0810e840 	call	810e84 <__udivsi3>
  810780:	9826943a 	slli	r19,r19,16
  810784:	a0a1383a 	mul	r16,r20,r2
  810788:	b93fffcc 	andi	r4,r23,65535
  81078c:	24c8b03a 	or	r4,r4,r19
  810790:	2400062e 	bgeu	r4,r16,8107ac <__udivdi3+0x4d0>
  810794:	2449883a 	add	r4,r4,r17
  810798:	10ffffc4 	addi	r3,r2,-1
  81079c:	24402336 	bltu	r4,r17,81082c <__udivdi3+0x550>
  8107a0:	2400222e 	bgeu	r4,r16,81082c <__udivdi3+0x550>
  8107a4:	10bfff84 	addi	r2,r2,-2
  8107a8:	2449883a 	add	r4,r4,r17
  8107ac:	e038943a 	slli	fp,fp,16
  8107b0:	2421c83a 	sub	r16,r4,r16
  8107b4:	e086b03a 	or	r3,fp,r2
  8107b8:	003f4306 	br	8104c8 <__alt_mem_onchip_mem+0xff8084c8>
  8107bc:	2005883a 	mov	r2,r4
  8107c0:	003f6906 	br	810568 <__alt_mem_onchip_mem+0xff808568>
  8107c4:	1805883a 	mov	r2,r3
  8107c8:	003f0f06 	br	810408 <__alt_mem_onchip_mem+0xff808408>
  8107cc:	1806943a 	slli	r3,r3,16
  8107d0:	9d66983a 	sll	r19,r19,r21
  8107d4:	39ffffcc 	andi	r7,r7,65535
  8107d8:	19c7883a 	add	r3,r3,r7
  8107dc:	98ffc32e 	bgeu	r19,r3,8106ec <__alt_mem_onchip_mem+0xff8086ec>
  8107e0:	10bfffc4 	addi	r2,r2,-1
  8107e4:	003fc106 	br	8106ec <__alt_mem_onchip_mem+0xff8086ec>
  8107e8:	00800604 	movi	r2,24
  8107ec:	003f1106 	br	810434 <__alt_mem_onchip_mem+0xff808434>
  8107f0:	00800604 	movi	r2,24
  8107f4:	003f2706 	br	810494 <__alt_mem_onchip_mem+0xff808494>
  8107f8:	00800604 	movi	r2,24
  8107fc:	003ece06 	br	810338 <__alt_mem_onchip_mem+0xff808338>
  810800:	0007883a 	mov	r3,zero
  810804:	00800044 	movi	r2,1
  810808:	003f5c06 	br	81057c <__alt_mem_onchip_mem+0xff80857c>
  81080c:	813fa12e 	bgeu	r16,r4,810694 <__alt_mem_onchip_mem+0xff808694>
  810810:	10bfff84 	addi	r2,r2,-2
  810814:	85e1883a 	add	r16,r16,r23
  810818:	003f9f06 	br	810698 <__alt_mem_onchip_mem+0xff808698>
  81081c:	1c7f8a2e 	bgeu	r3,r17,810648 <__alt_mem_onchip_mem+0xff808648>
  810820:	31bfff84 	addi	r6,r6,-2
  810824:	1dc7883a 	add	r3,r3,r23
  810828:	003f8806 	br	81064c <__alt_mem_onchip_mem+0xff80864c>
  81082c:	1805883a 	mov	r2,r3
  810830:	003fde06 	br	8107ac <__alt_mem_onchip_mem+0xff8087ac>
  810834:	1839883a 	mov	fp,r3
  810838:	003fc906 	br	810760 <__alt_mem_onchip_mem+0xff808760>
  81083c:	b5bfff84 	addi	r22,r22,-2
  810840:	2449883a 	add	r4,r4,r17
  810844:	003f3406 	br	810518 <__alt_mem_onchip_mem+0xff808518>
  810848:	b5bfff84 	addi	r22,r22,-2
  81084c:	1445883a 	add	r2,r2,r17
  810850:	003edb06 	br	8103c0 <__alt_mem_onchip_mem+0xff8083c0>

00810854 <__umoddi3>:
  810854:	defff404 	addi	sp,sp,-48
  810858:	df000a15 	stw	fp,40(sp)
  81085c:	dc400315 	stw	r17,12(sp)
  810860:	dc000215 	stw	r16,8(sp)
  810864:	dfc00b15 	stw	ra,44(sp)
  810868:	ddc00915 	stw	r23,36(sp)
  81086c:	dd800815 	stw	r22,32(sp)
  810870:	dd400715 	stw	r21,28(sp)
  810874:	dd000615 	stw	r20,24(sp)
  810878:	dcc00515 	stw	r19,20(sp)
  81087c:	dc800415 	stw	r18,16(sp)
  810880:	2021883a 	mov	r16,r4
  810884:	2823883a 	mov	r17,r5
  810888:	2839883a 	mov	fp,r5
  81088c:	38003c1e 	bne	r7,zero,810980 <__umoddi3+0x12c>
  810890:	3027883a 	mov	r19,r6
  810894:	2029883a 	mov	r20,r4
  810898:	2980512e 	bgeu	r5,r6,8109e0 <__umoddi3+0x18c>
  81089c:	00bfffd4 	movui	r2,65535
  8108a0:	11809a36 	bltu	r2,r6,810b0c <__umoddi3+0x2b8>
  8108a4:	01003fc4 	movi	r4,255
  8108a8:	2189803a 	cmpltu	r4,r4,r6
  8108ac:	200890fa 	slli	r4,r4,3
  8108b0:	3104d83a 	srl	r2,r6,r4
  8108b4:	00c02074 	movhi	r3,129
  8108b8:	18d6a804 	addi	r3,r3,23200
  8108bc:	1885883a 	add	r2,r3,r2
  8108c0:	10c00003 	ldbu	r3,0(r2)
  8108c4:	00800804 	movi	r2,32
  8108c8:	1909883a 	add	r4,r3,r4
  8108cc:	1125c83a 	sub	r18,r2,r4
  8108d0:	90000526 	beq	r18,zero,8108e8 <__umoddi3+0x94>
  8108d4:	8ca2983a 	sll	r17,r17,r18
  8108d8:	8108d83a 	srl	r4,r16,r4
  8108dc:	34a6983a 	sll	r19,r6,r18
  8108e0:	84a8983a 	sll	r20,r16,r18
  8108e4:	2478b03a 	or	fp,r4,r17
  8108e8:	982ed43a 	srli	r23,r19,16
  8108ec:	e009883a 	mov	r4,fp
  8108f0:	9dbfffcc 	andi	r22,r19,65535
  8108f4:	b80b883a 	mov	r5,r23
  8108f8:	0810ee80 	call	810ee8 <__umodsi3>
  8108fc:	e009883a 	mov	r4,fp
  810900:	b80b883a 	mov	r5,r23
  810904:	102b883a 	mov	r21,r2
  810908:	0810e840 	call	810e84 <__udivsi3>
  81090c:	a806943a 	slli	r3,r21,16
  810910:	a008d43a 	srli	r4,r20,16
  810914:	b085383a 	mul	r2,r22,r2
  810918:	20c8b03a 	or	r4,r4,r3
  81091c:	2080032e 	bgeu	r4,r2,81092c <__umoddi3+0xd8>
  810920:	24c9883a 	add	r4,r4,r19
  810924:	24c00136 	bltu	r4,r19,81092c <__umoddi3+0xd8>
  810928:	20811036 	bltu	r4,r2,810d6c <__umoddi3+0x518>
  81092c:	20abc83a 	sub	r21,r4,r2
  810930:	b80b883a 	mov	r5,r23
  810934:	a809883a 	mov	r4,r21
  810938:	0810ee80 	call	810ee8 <__umodsi3>
  81093c:	1023883a 	mov	r17,r2
  810940:	b80b883a 	mov	r5,r23
  810944:	a809883a 	mov	r4,r21
  810948:	0810e840 	call	810e84 <__udivsi3>
  81094c:	8822943a 	slli	r17,r17,16
  810950:	b085383a 	mul	r2,r22,r2
  810954:	a0ffffcc 	andi	r3,r20,65535
  810958:	1c46b03a 	or	r3,r3,r17
  81095c:	1880042e 	bgeu	r3,r2,810970 <__umoddi3+0x11c>
  810960:	1cc7883a 	add	r3,r3,r19
  810964:	1cc00236 	bltu	r3,r19,810970 <__umoddi3+0x11c>
  810968:	1880012e 	bgeu	r3,r2,810970 <__umoddi3+0x11c>
  81096c:	1cc7883a 	add	r3,r3,r19
  810970:	1885c83a 	sub	r2,r3,r2
  810974:	1484d83a 	srl	r2,r2,r18
  810978:	0007883a 	mov	r3,zero
  81097c:	00004f06 	br	810abc <__umoddi3+0x268>
  810980:	29c04c36 	bltu	r5,r7,810ab4 <__umoddi3+0x260>
  810984:	00bfffd4 	movui	r2,65535
  810988:	11c0582e 	bgeu	r2,r7,810aec <__umoddi3+0x298>
  81098c:	00804034 	movhi	r2,256
  810990:	10bfffc4 	addi	r2,r2,-1
  810994:	11c0e736 	bltu	r2,r7,810d34 <__umoddi3+0x4e0>
  810998:	01000404 	movi	r4,16
  81099c:	3904d83a 	srl	r2,r7,r4
  8109a0:	00c02074 	movhi	r3,129
  8109a4:	18d6a804 	addi	r3,r3,23200
  8109a8:	1885883a 	add	r2,r3,r2
  8109ac:	14c00003 	ldbu	r19,0(r2)
  8109b0:	00c00804 	movi	r3,32
  8109b4:	9927883a 	add	r19,r19,r4
  8109b8:	1ce9c83a 	sub	r20,r3,r19
  8109bc:	a000581e 	bne	r20,zero,810b20 <__umoddi3+0x2cc>
  8109c0:	3c400136 	bltu	r7,r17,8109c8 <__umoddi3+0x174>
  8109c4:	8180eb36 	bltu	r16,r6,810d74 <__umoddi3+0x520>
  8109c8:	8185c83a 	sub	r2,r16,r6
  8109cc:	89e3c83a 	sub	r17,r17,r7
  8109d0:	8089803a 	cmpltu	r4,r16,r2
  8109d4:	8939c83a 	sub	fp,r17,r4
  8109d8:	e007883a 	mov	r3,fp
  8109dc:	00003706 	br	810abc <__umoddi3+0x268>
  8109e0:	3000041e 	bne	r6,zero,8109f4 <__umoddi3+0x1a0>
  8109e4:	000b883a 	mov	r5,zero
  8109e8:	01000044 	movi	r4,1
  8109ec:	0810e840 	call	810e84 <__udivsi3>
  8109f0:	1027883a 	mov	r19,r2
  8109f4:	00bfffd4 	movui	r2,65535
  8109f8:	14c0402e 	bgeu	r2,r19,810afc <__umoddi3+0x2a8>
  8109fc:	00804034 	movhi	r2,256
  810a00:	10bfffc4 	addi	r2,r2,-1
  810a04:	14c0cd36 	bltu	r2,r19,810d3c <__umoddi3+0x4e8>
  810a08:	00800404 	movi	r2,16
  810a0c:	9886d83a 	srl	r3,r19,r2
  810a10:	01002074 	movhi	r4,129
  810a14:	2116a804 	addi	r4,r4,23200
  810a18:	20c7883a 	add	r3,r4,r3
  810a1c:	18c00003 	ldbu	r3,0(r3)
  810a20:	1887883a 	add	r3,r3,r2
  810a24:	00800804 	movi	r2,32
  810a28:	10e5c83a 	sub	r18,r2,r3
  810a2c:	9000901e 	bne	r18,zero,810c70 <__umoddi3+0x41c>
  810a30:	982cd43a 	srli	r22,r19,16
  810a34:	8ce3c83a 	sub	r17,r17,r19
  810a38:	9d7fffcc 	andi	r21,r19,65535
  810a3c:	b00b883a 	mov	r5,r22
  810a40:	8809883a 	mov	r4,r17
  810a44:	0810ee80 	call	810ee8 <__umodsi3>
  810a48:	8809883a 	mov	r4,r17
  810a4c:	b00b883a 	mov	r5,r22
  810a50:	1021883a 	mov	r16,r2
  810a54:	0810e840 	call	810e84 <__udivsi3>
  810a58:	8006943a 	slli	r3,r16,16
  810a5c:	a008d43a 	srli	r4,r20,16
  810a60:	1545383a 	mul	r2,r2,r21
  810a64:	20c8b03a 	or	r4,r4,r3
  810a68:	2080042e 	bgeu	r4,r2,810a7c <__umoddi3+0x228>
  810a6c:	24c9883a 	add	r4,r4,r19
  810a70:	24c00236 	bltu	r4,r19,810a7c <__umoddi3+0x228>
  810a74:	2080012e 	bgeu	r4,r2,810a7c <__umoddi3+0x228>
  810a78:	24c9883a 	add	r4,r4,r19
  810a7c:	20a1c83a 	sub	r16,r4,r2
  810a80:	b00b883a 	mov	r5,r22
  810a84:	8009883a 	mov	r4,r16
  810a88:	0810ee80 	call	810ee8 <__umodsi3>
  810a8c:	1023883a 	mov	r17,r2
  810a90:	b00b883a 	mov	r5,r22
  810a94:	8009883a 	mov	r4,r16
  810a98:	0810e840 	call	810e84 <__udivsi3>
  810a9c:	8822943a 	slli	r17,r17,16
  810aa0:	1545383a 	mul	r2,r2,r21
  810aa4:	a53fffcc 	andi	r20,r20,65535
  810aa8:	a446b03a 	or	r3,r20,r17
  810aac:	18bfb02e 	bgeu	r3,r2,810970 <__alt_mem_onchip_mem+0xff808970>
  810ab0:	003fab06 	br	810960 <__alt_mem_onchip_mem+0xff808960>
  810ab4:	2005883a 	mov	r2,r4
  810ab8:	2807883a 	mov	r3,r5
  810abc:	dfc00b17 	ldw	ra,44(sp)
  810ac0:	df000a17 	ldw	fp,40(sp)
  810ac4:	ddc00917 	ldw	r23,36(sp)
  810ac8:	dd800817 	ldw	r22,32(sp)
  810acc:	dd400717 	ldw	r21,28(sp)
  810ad0:	dd000617 	ldw	r20,24(sp)
  810ad4:	dcc00517 	ldw	r19,20(sp)
  810ad8:	dc800417 	ldw	r18,16(sp)
  810adc:	dc400317 	ldw	r17,12(sp)
  810ae0:	dc000217 	ldw	r16,8(sp)
  810ae4:	dec00c04 	addi	sp,sp,48
  810ae8:	f800283a 	ret
  810aec:	04c03fc4 	movi	r19,255
  810af0:	99c9803a 	cmpltu	r4,r19,r7
  810af4:	200890fa 	slli	r4,r4,3
  810af8:	003fa806 	br	81099c <__alt_mem_onchip_mem+0xff80899c>
  810afc:	00803fc4 	movi	r2,255
  810b00:	14c5803a 	cmpltu	r2,r2,r19
  810b04:	100490fa 	slli	r2,r2,3
  810b08:	003fc006 	br	810a0c <__alt_mem_onchip_mem+0xff808a0c>
  810b0c:	00804034 	movhi	r2,256
  810b10:	10bfffc4 	addi	r2,r2,-1
  810b14:	11808b36 	bltu	r2,r6,810d44 <__umoddi3+0x4f0>
  810b18:	01000404 	movi	r4,16
  810b1c:	003f6406 	br	8108b0 <__alt_mem_onchip_mem+0xff8088b0>
  810b20:	34c4d83a 	srl	r2,r6,r19
  810b24:	3d0e983a 	sll	r7,r7,r20
  810b28:	8cf8d83a 	srl	fp,r17,r19
  810b2c:	8d10983a 	sll	r8,r17,r20
  810b30:	38aab03a 	or	r21,r7,r2
  810b34:	a82cd43a 	srli	r22,r21,16
  810b38:	84e2d83a 	srl	r17,r16,r19
  810b3c:	e009883a 	mov	r4,fp
  810b40:	b00b883a 	mov	r5,r22
  810b44:	8a22b03a 	or	r17,r17,r8
  810b48:	3524983a 	sll	r18,r6,r20
  810b4c:	0810ee80 	call	810ee8 <__umodsi3>
  810b50:	e009883a 	mov	r4,fp
  810b54:	b00b883a 	mov	r5,r22
  810b58:	102f883a 	mov	r23,r2
  810b5c:	0810e840 	call	810e84 <__udivsi3>
  810b60:	100d883a 	mov	r6,r2
  810b64:	b808943a 	slli	r4,r23,16
  810b68:	aa3fffcc 	andi	r8,r21,65535
  810b6c:	8804d43a 	srli	r2,r17,16
  810b70:	41af383a 	mul	r23,r8,r6
  810b74:	8520983a 	sll	r16,r16,r20
  810b78:	1104b03a 	or	r2,r2,r4
  810b7c:	15c0042e 	bgeu	r2,r23,810b90 <__umoddi3+0x33c>
  810b80:	1545883a 	add	r2,r2,r21
  810b84:	30ffffc4 	addi	r3,r6,-1
  810b88:	1540742e 	bgeu	r2,r21,810d5c <__umoddi3+0x508>
  810b8c:	180d883a 	mov	r6,r3
  810b90:	15efc83a 	sub	r23,r2,r23
  810b94:	b00b883a 	mov	r5,r22
  810b98:	b809883a 	mov	r4,r23
  810b9c:	d9800115 	stw	r6,4(sp)
  810ba0:	da000015 	stw	r8,0(sp)
  810ba4:	0810ee80 	call	810ee8 <__umodsi3>
  810ba8:	b00b883a 	mov	r5,r22
  810bac:	b809883a 	mov	r4,r23
  810bb0:	1039883a 	mov	fp,r2
  810bb4:	0810e840 	call	810e84 <__udivsi3>
  810bb8:	da000017 	ldw	r8,0(sp)
  810bbc:	e038943a 	slli	fp,fp,16
  810bc0:	100b883a 	mov	r5,r2
  810bc4:	4089383a 	mul	r4,r8,r2
  810bc8:	8a3fffcc 	andi	r8,r17,65535
  810bcc:	4710b03a 	or	r8,r8,fp
  810bd0:	d9800117 	ldw	r6,4(sp)
  810bd4:	4100042e 	bgeu	r8,r4,810be8 <__umoddi3+0x394>
  810bd8:	4551883a 	add	r8,r8,r21
  810bdc:	10bfffc4 	addi	r2,r2,-1
  810be0:	45405a2e 	bgeu	r8,r21,810d4c <__umoddi3+0x4f8>
  810be4:	100b883a 	mov	r5,r2
  810be8:	300c943a 	slli	r6,r6,16
  810bec:	91ffffcc 	andi	r7,r18,65535
  810bf0:	9004d43a 	srli	r2,r18,16
  810bf4:	314cb03a 	or	r6,r6,r5
  810bf8:	317fffcc 	andi	r5,r6,65535
  810bfc:	300cd43a 	srli	r6,r6,16
  810c00:	29d3383a 	mul	r9,r5,r7
  810c04:	288b383a 	mul	r5,r5,r2
  810c08:	31cf383a 	mul	r7,r6,r7
  810c0c:	4806d43a 	srli	r3,r9,16
  810c10:	4111c83a 	sub	r8,r8,r4
  810c14:	29cb883a 	add	r5,r5,r7
  810c18:	194b883a 	add	r5,r3,r5
  810c1c:	3085383a 	mul	r2,r6,r2
  810c20:	29c0022e 	bgeu	r5,r7,810c2c <__umoddi3+0x3d8>
  810c24:	00c00074 	movhi	r3,1
  810c28:	10c5883a 	add	r2,r2,r3
  810c2c:	2808d43a 	srli	r4,r5,16
  810c30:	280a943a 	slli	r5,r5,16
  810c34:	4a7fffcc 	andi	r9,r9,65535
  810c38:	2085883a 	add	r2,r4,r2
  810c3c:	2a4b883a 	add	r5,r5,r9
  810c40:	40803636 	bltu	r8,r2,810d1c <__umoddi3+0x4c8>
  810c44:	40804d26 	beq	r8,r2,810d7c <__umoddi3+0x528>
  810c48:	4089c83a 	sub	r4,r8,r2
  810c4c:	280f883a 	mov	r7,r5
  810c50:	81cfc83a 	sub	r7,r16,r7
  810c54:	81c7803a 	cmpltu	r3,r16,r7
  810c58:	20c7c83a 	sub	r3,r4,r3
  810c5c:	1cc4983a 	sll	r2,r3,r19
  810c60:	3d0ed83a 	srl	r7,r7,r20
  810c64:	1d06d83a 	srl	r3,r3,r20
  810c68:	11c4b03a 	or	r2,r2,r7
  810c6c:	003f9306 	br	810abc <__alt_mem_onchip_mem+0xff808abc>
  810c70:	9ca6983a 	sll	r19,r19,r18
  810c74:	88e8d83a 	srl	r20,r17,r3
  810c78:	80c4d83a 	srl	r2,r16,r3
  810c7c:	982cd43a 	srli	r22,r19,16
  810c80:	8ca2983a 	sll	r17,r17,r18
  810c84:	a009883a 	mov	r4,r20
  810c88:	b00b883a 	mov	r5,r22
  810c8c:	1478b03a 	or	fp,r2,r17
  810c90:	0810ee80 	call	810ee8 <__umodsi3>
  810c94:	a009883a 	mov	r4,r20
  810c98:	b00b883a 	mov	r5,r22
  810c9c:	1023883a 	mov	r17,r2
  810ca0:	0810e840 	call	810e84 <__udivsi3>
  810ca4:	9d7fffcc 	andi	r21,r19,65535
  810ca8:	880a943a 	slli	r5,r17,16
  810cac:	e008d43a 	srli	r4,fp,16
  810cb0:	a885383a 	mul	r2,r21,r2
  810cb4:	84a8983a 	sll	r20,r16,r18
  810cb8:	2148b03a 	or	r4,r4,r5
  810cbc:	2080042e 	bgeu	r4,r2,810cd0 <__umoddi3+0x47c>
  810cc0:	24c9883a 	add	r4,r4,r19
  810cc4:	24c00236 	bltu	r4,r19,810cd0 <__umoddi3+0x47c>
  810cc8:	2080012e 	bgeu	r4,r2,810cd0 <__umoddi3+0x47c>
  810ccc:	24c9883a 	add	r4,r4,r19
  810cd0:	20a3c83a 	sub	r17,r4,r2
  810cd4:	b00b883a 	mov	r5,r22
  810cd8:	8809883a 	mov	r4,r17
  810cdc:	0810ee80 	call	810ee8 <__umodsi3>
  810ce0:	102f883a 	mov	r23,r2
  810ce4:	8809883a 	mov	r4,r17
  810ce8:	b00b883a 	mov	r5,r22
  810cec:	0810e840 	call	810e84 <__udivsi3>
  810cf0:	b82e943a 	slli	r23,r23,16
  810cf4:	a885383a 	mul	r2,r21,r2
  810cf8:	e13fffcc 	andi	r4,fp,65535
  810cfc:	25c8b03a 	or	r4,r4,r23
  810d00:	2080042e 	bgeu	r4,r2,810d14 <__umoddi3+0x4c0>
  810d04:	24c9883a 	add	r4,r4,r19
  810d08:	24c00236 	bltu	r4,r19,810d14 <__umoddi3+0x4c0>
  810d0c:	2080012e 	bgeu	r4,r2,810d14 <__umoddi3+0x4c0>
  810d10:	24c9883a 	add	r4,r4,r19
  810d14:	20a3c83a 	sub	r17,r4,r2
  810d18:	003f4806 	br	810a3c <__alt_mem_onchip_mem+0xff808a3c>
  810d1c:	2c8fc83a 	sub	r7,r5,r18
  810d20:	1545c83a 	sub	r2,r2,r21
  810d24:	29cb803a 	cmpltu	r5,r5,r7
  810d28:	1145c83a 	sub	r2,r2,r5
  810d2c:	4089c83a 	sub	r4,r8,r2
  810d30:	003fc706 	br	810c50 <__alt_mem_onchip_mem+0xff808c50>
  810d34:	01000604 	movi	r4,24
  810d38:	003f1806 	br	81099c <__alt_mem_onchip_mem+0xff80899c>
  810d3c:	00800604 	movi	r2,24
  810d40:	003f3206 	br	810a0c <__alt_mem_onchip_mem+0xff808a0c>
  810d44:	01000604 	movi	r4,24
  810d48:	003ed906 	br	8108b0 <__alt_mem_onchip_mem+0xff8088b0>
  810d4c:	413fa52e 	bgeu	r8,r4,810be4 <__alt_mem_onchip_mem+0xff808be4>
  810d50:	297fff84 	addi	r5,r5,-2
  810d54:	4551883a 	add	r8,r8,r21
  810d58:	003fa306 	br	810be8 <__alt_mem_onchip_mem+0xff808be8>
  810d5c:	15ff8b2e 	bgeu	r2,r23,810b8c <__alt_mem_onchip_mem+0xff808b8c>
  810d60:	31bfff84 	addi	r6,r6,-2
  810d64:	1545883a 	add	r2,r2,r21
  810d68:	003f8906 	br	810b90 <__alt_mem_onchip_mem+0xff808b90>
  810d6c:	24c9883a 	add	r4,r4,r19
  810d70:	003eee06 	br	81092c <__alt_mem_onchip_mem+0xff80892c>
  810d74:	8005883a 	mov	r2,r16
  810d78:	003f1706 	br	8109d8 <__alt_mem_onchip_mem+0xff8089d8>
  810d7c:	817fe736 	bltu	r16,r5,810d1c <__alt_mem_onchip_mem+0xff808d1c>
  810d80:	280f883a 	mov	r7,r5
  810d84:	0009883a 	mov	r4,zero
  810d88:	003fb106 	br	810c50 <__alt_mem_onchip_mem+0xff808c50>

00810d8c <__divsi3>:
  810d8c:	20001b16 	blt	r4,zero,810dfc <__divsi3+0x70>
  810d90:	000f883a 	mov	r7,zero
  810d94:	28001616 	blt	r5,zero,810df0 <__divsi3+0x64>
  810d98:	200d883a 	mov	r6,r4
  810d9c:	29001a2e 	bgeu	r5,r4,810e08 <__divsi3+0x7c>
  810da0:	00800804 	movi	r2,32
  810da4:	00c00044 	movi	r3,1
  810da8:	00000106 	br	810db0 <__divsi3+0x24>
  810dac:	10000d26 	beq	r2,zero,810de4 <__divsi3+0x58>
  810db0:	294b883a 	add	r5,r5,r5
  810db4:	10bfffc4 	addi	r2,r2,-1
  810db8:	18c7883a 	add	r3,r3,r3
  810dbc:	293ffb36 	bltu	r5,r4,810dac <__alt_mem_onchip_mem+0xff808dac>
  810dc0:	0005883a 	mov	r2,zero
  810dc4:	18000726 	beq	r3,zero,810de4 <__divsi3+0x58>
  810dc8:	0005883a 	mov	r2,zero
  810dcc:	31400236 	bltu	r6,r5,810dd8 <__divsi3+0x4c>
  810dd0:	314dc83a 	sub	r6,r6,r5
  810dd4:	10c4b03a 	or	r2,r2,r3
  810dd8:	1806d07a 	srli	r3,r3,1
  810ddc:	280ad07a 	srli	r5,r5,1
  810de0:	183ffa1e 	bne	r3,zero,810dcc <__alt_mem_onchip_mem+0xff808dcc>
  810de4:	38000126 	beq	r7,zero,810dec <__divsi3+0x60>
  810de8:	0085c83a 	sub	r2,zero,r2
  810dec:	f800283a 	ret
  810df0:	014bc83a 	sub	r5,zero,r5
  810df4:	39c0005c 	xori	r7,r7,1
  810df8:	003fe706 	br	810d98 <__alt_mem_onchip_mem+0xff808d98>
  810dfc:	0109c83a 	sub	r4,zero,r4
  810e00:	01c00044 	movi	r7,1
  810e04:	003fe306 	br	810d94 <__alt_mem_onchip_mem+0xff808d94>
  810e08:	00c00044 	movi	r3,1
  810e0c:	003fee06 	br	810dc8 <__alt_mem_onchip_mem+0xff808dc8>

00810e10 <__modsi3>:
  810e10:	20001716 	blt	r4,zero,810e70 <__modsi3+0x60>
  810e14:	000f883a 	mov	r7,zero
  810e18:	2005883a 	mov	r2,r4
  810e1c:	28001216 	blt	r5,zero,810e68 <__modsi3+0x58>
  810e20:	2900162e 	bgeu	r5,r4,810e7c <__modsi3+0x6c>
  810e24:	01800804 	movi	r6,32
  810e28:	00c00044 	movi	r3,1
  810e2c:	00000106 	br	810e34 <__modsi3+0x24>
  810e30:	30000a26 	beq	r6,zero,810e5c <__modsi3+0x4c>
  810e34:	294b883a 	add	r5,r5,r5
  810e38:	31bfffc4 	addi	r6,r6,-1
  810e3c:	18c7883a 	add	r3,r3,r3
  810e40:	293ffb36 	bltu	r5,r4,810e30 <__alt_mem_onchip_mem+0xff808e30>
  810e44:	18000526 	beq	r3,zero,810e5c <__modsi3+0x4c>
  810e48:	1806d07a 	srli	r3,r3,1
  810e4c:	11400136 	bltu	r2,r5,810e54 <__modsi3+0x44>
  810e50:	1145c83a 	sub	r2,r2,r5
  810e54:	280ad07a 	srli	r5,r5,1
  810e58:	183ffb1e 	bne	r3,zero,810e48 <__alt_mem_onchip_mem+0xff808e48>
  810e5c:	38000126 	beq	r7,zero,810e64 <__modsi3+0x54>
  810e60:	0085c83a 	sub	r2,zero,r2
  810e64:	f800283a 	ret
  810e68:	014bc83a 	sub	r5,zero,r5
  810e6c:	003fec06 	br	810e20 <__alt_mem_onchip_mem+0xff808e20>
  810e70:	0109c83a 	sub	r4,zero,r4
  810e74:	01c00044 	movi	r7,1
  810e78:	003fe706 	br	810e18 <__alt_mem_onchip_mem+0xff808e18>
  810e7c:	00c00044 	movi	r3,1
  810e80:	003ff106 	br	810e48 <__alt_mem_onchip_mem+0xff808e48>

00810e84 <__udivsi3>:
  810e84:	200d883a 	mov	r6,r4
  810e88:	2900152e 	bgeu	r5,r4,810ee0 <__udivsi3+0x5c>
  810e8c:	28001416 	blt	r5,zero,810ee0 <__udivsi3+0x5c>
  810e90:	00800804 	movi	r2,32
  810e94:	00c00044 	movi	r3,1
  810e98:	00000206 	br	810ea4 <__udivsi3+0x20>
  810e9c:	10000e26 	beq	r2,zero,810ed8 <__udivsi3+0x54>
  810ea0:	28000516 	blt	r5,zero,810eb8 <__udivsi3+0x34>
  810ea4:	294b883a 	add	r5,r5,r5
  810ea8:	10bfffc4 	addi	r2,r2,-1
  810eac:	18c7883a 	add	r3,r3,r3
  810eb0:	293ffa36 	bltu	r5,r4,810e9c <__alt_mem_onchip_mem+0xff808e9c>
  810eb4:	18000826 	beq	r3,zero,810ed8 <__udivsi3+0x54>
  810eb8:	0005883a 	mov	r2,zero
  810ebc:	31400236 	bltu	r6,r5,810ec8 <__udivsi3+0x44>
  810ec0:	314dc83a 	sub	r6,r6,r5
  810ec4:	10c4b03a 	or	r2,r2,r3
  810ec8:	1806d07a 	srli	r3,r3,1
  810ecc:	280ad07a 	srli	r5,r5,1
  810ed0:	183ffa1e 	bne	r3,zero,810ebc <__alt_mem_onchip_mem+0xff808ebc>
  810ed4:	f800283a 	ret
  810ed8:	0005883a 	mov	r2,zero
  810edc:	f800283a 	ret
  810ee0:	00c00044 	movi	r3,1
  810ee4:	003ff406 	br	810eb8 <__alt_mem_onchip_mem+0xff808eb8>

00810ee8 <__umodsi3>:
  810ee8:	2005883a 	mov	r2,r4
  810eec:	2900122e 	bgeu	r5,r4,810f38 <__umodsi3+0x50>
  810ef0:	28001116 	blt	r5,zero,810f38 <__umodsi3+0x50>
  810ef4:	01800804 	movi	r6,32
  810ef8:	00c00044 	movi	r3,1
  810efc:	00000206 	br	810f08 <__umodsi3+0x20>
  810f00:	30000c26 	beq	r6,zero,810f34 <__umodsi3+0x4c>
  810f04:	28000516 	blt	r5,zero,810f1c <__umodsi3+0x34>
  810f08:	294b883a 	add	r5,r5,r5
  810f0c:	31bfffc4 	addi	r6,r6,-1
  810f10:	18c7883a 	add	r3,r3,r3
  810f14:	293ffa36 	bltu	r5,r4,810f00 <__alt_mem_onchip_mem+0xff808f00>
  810f18:	18000626 	beq	r3,zero,810f34 <__umodsi3+0x4c>
  810f1c:	1806d07a 	srli	r3,r3,1
  810f20:	11400136 	bltu	r2,r5,810f28 <__umodsi3+0x40>
  810f24:	1145c83a 	sub	r2,r2,r5
  810f28:	280ad07a 	srli	r5,r5,1
  810f2c:	183ffb1e 	bne	r3,zero,810f1c <__alt_mem_onchip_mem+0xff808f1c>
  810f30:	f800283a 	ret
  810f34:	f800283a 	ret
  810f38:	00c00044 	movi	r3,1
  810f3c:	003ff706 	br	810f1c <__alt_mem_onchip_mem+0xff808f1c>

00810f40 <__divdf3>:
  810f40:	defff204 	addi	sp,sp,-56
  810f44:	dd400915 	stw	r21,36(sp)
  810f48:	282ad53a 	srli	r21,r5,20
  810f4c:	dd000815 	stw	r20,32(sp)
  810f50:	2828d7fa 	srli	r20,r5,31
  810f54:	dc000415 	stw	r16,16(sp)
  810f58:	04000434 	movhi	r16,16
  810f5c:	df000c15 	stw	fp,48(sp)
  810f60:	843fffc4 	addi	r16,r16,-1
  810f64:	dfc00d15 	stw	ra,52(sp)
  810f68:	ddc00b15 	stw	r23,44(sp)
  810f6c:	dd800a15 	stw	r22,40(sp)
  810f70:	dcc00715 	stw	r19,28(sp)
  810f74:	dc800615 	stw	r18,24(sp)
  810f78:	dc400515 	stw	r17,20(sp)
  810f7c:	ad41ffcc 	andi	r21,r21,2047
  810f80:	2c20703a 	and	r16,r5,r16
  810f84:	a7003fcc 	andi	fp,r20,255
  810f88:	a8006126 	beq	r21,zero,811110 <__divdf3+0x1d0>
  810f8c:	0081ffc4 	movi	r2,2047
  810f90:	2025883a 	mov	r18,r4
  810f94:	a8803726 	beq	r21,r2,811074 <__divdf3+0x134>
  810f98:	80800434 	orhi	r2,r16,16
  810f9c:	100490fa 	slli	r2,r2,3
  810fa0:	2020d77a 	srli	r16,r4,29
  810fa4:	202490fa 	slli	r18,r4,3
  810fa8:	ad7f0044 	addi	r21,r21,-1023
  810fac:	80a0b03a 	or	r16,r16,r2
  810fb0:	0027883a 	mov	r19,zero
  810fb4:	0013883a 	mov	r9,zero
  810fb8:	3804d53a 	srli	r2,r7,20
  810fbc:	382cd7fa 	srli	r22,r7,31
  810fc0:	04400434 	movhi	r17,16
  810fc4:	8c7fffc4 	addi	r17,r17,-1
  810fc8:	1081ffcc 	andi	r2,r2,2047
  810fcc:	3011883a 	mov	r8,r6
  810fd0:	3c62703a 	and	r17,r7,r17
  810fd4:	b5c03fcc 	andi	r23,r22,255
  810fd8:	10006c26 	beq	r2,zero,81118c <__divdf3+0x24c>
  810fdc:	00c1ffc4 	movi	r3,2047
  810fe0:	10c06426 	beq	r2,r3,811174 <__divdf3+0x234>
  810fe4:	88c00434 	orhi	r3,r17,16
  810fe8:	180690fa 	slli	r3,r3,3
  810fec:	3022d77a 	srli	r17,r6,29
  810ff0:	301090fa 	slli	r8,r6,3
  810ff4:	10bf0044 	addi	r2,r2,-1023
  810ff8:	88e2b03a 	or	r17,r17,r3
  810ffc:	000f883a 	mov	r7,zero
  811000:	a58cf03a 	xor	r6,r20,r22
  811004:	3cc8b03a 	or	r4,r7,r19
  811008:	a8abc83a 	sub	r21,r21,r2
  81100c:	008003c4 	movi	r2,15
  811010:	3007883a 	mov	r3,r6
  811014:	34c03fcc 	andi	r19,r6,255
  811018:	11009036 	bltu	r2,r4,81125c <__divdf3+0x31c>
  81101c:	200890ba 	slli	r4,r4,2
  811020:	00802074 	movhi	r2,129
  811024:	10840d04 	addi	r2,r2,4148
  811028:	2089883a 	add	r4,r4,r2
  81102c:	20800017 	ldw	r2,0(r4)
  811030:	1000683a 	jmp	r2
  811034:	0081125c 	xori	r2,zero,1097
  811038:	008110ac 	andhi	r2,zero,1090
  81103c:	0081124c 	andi	r2,zero,1097
  811040:	008110a0 	cmpeqi	r2,zero,1090
  811044:	0081124c 	andi	r2,zero,1097
  811048:	00811220 	cmpeqi	r2,zero,1096
  81104c:	0081124c 	andi	r2,zero,1097
  811050:	008110a0 	cmpeqi	r2,zero,1090
  811054:	008110ac 	andhi	r2,zero,1090
  811058:	008110ac 	andhi	r2,zero,1090
  81105c:	00811220 	cmpeqi	r2,zero,1096
  811060:	008110a0 	cmpeqi	r2,zero,1090
  811064:	00811090 	cmplti	r2,zero,1090
  811068:	00811090 	cmplti	r2,zero,1090
  81106c:	00811090 	cmplti	r2,zero,1090
  811070:	00811540 	call	81154 <__alt_mem_sdram-0x77eeac>
  811074:	2404b03a 	or	r2,r4,r16
  811078:	1000661e 	bne	r2,zero,811214 <__divdf3+0x2d4>
  81107c:	04c00204 	movi	r19,8
  811080:	0021883a 	mov	r16,zero
  811084:	0025883a 	mov	r18,zero
  811088:	02400084 	movi	r9,2
  81108c:	003fca06 	br	810fb8 <__alt_mem_onchip_mem+0xff808fb8>
  811090:	8023883a 	mov	r17,r16
  811094:	9011883a 	mov	r8,r18
  811098:	e02f883a 	mov	r23,fp
  81109c:	480f883a 	mov	r7,r9
  8110a0:	00800084 	movi	r2,2
  8110a4:	3881311e 	bne	r7,r2,81156c <__divdf3+0x62c>
  8110a8:	b827883a 	mov	r19,r23
  8110ac:	98c0004c 	andi	r3,r19,1
  8110b0:	0081ffc4 	movi	r2,2047
  8110b4:	000b883a 	mov	r5,zero
  8110b8:	0025883a 	mov	r18,zero
  8110bc:	1004953a 	slli	r2,r2,20
  8110c0:	18c03fcc 	andi	r3,r3,255
  8110c4:	04400434 	movhi	r17,16
  8110c8:	8c7fffc4 	addi	r17,r17,-1
  8110cc:	180697fa 	slli	r3,r3,31
  8110d0:	2c4a703a 	and	r5,r5,r17
  8110d4:	288ab03a 	or	r5,r5,r2
  8110d8:	28c6b03a 	or	r3,r5,r3
  8110dc:	9005883a 	mov	r2,r18
  8110e0:	dfc00d17 	ldw	ra,52(sp)
  8110e4:	df000c17 	ldw	fp,48(sp)
  8110e8:	ddc00b17 	ldw	r23,44(sp)
  8110ec:	dd800a17 	ldw	r22,40(sp)
  8110f0:	dd400917 	ldw	r21,36(sp)
  8110f4:	dd000817 	ldw	r20,32(sp)
  8110f8:	dcc00717 	ldw	r19,28(sp)
  8110fc:	dc800617 	ldw	r18,24(sp)
  811100:	dc400517 	ldw	r17,20(sp)
  811104:	dc000417 	ldw	r16,16(sp)
  811108:	dec00e04 	addi	sp,sp,56
  81110c:	f800283a 	ret
  811110:	2404b03a 	or	r2,r4,r16
  811114:	2027883a 	mov	r19,r4
  811118:	10003926 	beq	r2,zero,811200 <__divdf3+0x2c0>
  81111c:	80012e26 	beq	r16,zero,8115d8 <__divdf3+0x698>
  811120:	8009883a 	mov	r4,r16
  811124:	d9800315 	stw	r6,12(sp)
  811128:	d9c00215 	stw	r7,8(sp)
  81112c:	0806cf80 	call	806cf8 <__clzsi2>
  811130:	d9800317 	ldw	r6,12(sp)
  811134:	d9c00217 	ldw	r7,8(sp)
  811138:	113ffd44 	addi	r4,r2,-11
  81113c:	00c00704 	movi	r3,28
  811140:	19012116 	blt	r3,r4,8115c8 <__divdf3+0x688>
  811144:	00c00744 	movi	r3,29
  811148:	147ffe04 	addi	r17,r2,-8
  81114c:	1907c83a 	sub	r3,r3,r4
  811150:	8460983a 	sll	r16,r16,r17
  811154:	98c6d83a 	srl	r3,r19,r3
  811158:	9c64983a 	sll	r18,r19,r17
  81115c:	1c20b03a 	or	r16,r3,r16
  811160:	1080fcc4 	addi	r2,r2,1011
  811164:	00abc83a 	sub	r21,zero,r2
  811168:	0027883a 	mov	r19,zero
  81116c:	0013883a 	mov	r9,zero
  811170:	003f9106 	br	810fb8 <__alt_mem_onchip_mem+0xff808fb8>
  811174:	3446b03a 	or	r3,r6,r17
  811178:	18001f1e 	bne	r3,zero,8111f8 <__divdf3+0x2b8>
  81117c:	0023883a 	mov	r17,zero
  811180:	0011883a 	mov	r8,zero
  811184:	01c00084 	movi	r7,2
  811188:	003f9d06 	br	811000 <__alt_mem_onchip_mem+0xff809000>
  81118c:	3446b03a 	or	r3,r6,r17
  811190:	18001526 	beq	r3,zero,8111e8 <__divdf3+0x2a8>
  811194:	88011b26 	beq	r17,zero,811604 <__divdf3+0x6c4>
  811198:	8809883a 	mov	r4,r17
  81119c:	d9800315 	stw	r6,12(sp)
  8111a0:	da400115 	stw	r9,4(sp)
  8111a4:	0806cf80 	call	806cf8 <__clzsi2>
  8111a8:	d9800317 	ldw	r6,12(sp)
  8111ac:	da400117 	ldw	r9,4(sp)
  8111b0:	113ffd44 	addi	r4,r2,-11
  8111b4:	00c00704 	movi	r3,28
  8111b8:	19010e16 	blt	r3,r4,8115f4 <__divdf3+0x6b4>
  8111bc:	00c00744 	movi	r3,29
  8111c0:	123ffe04 	addi	r8,r2,-8
  8111c4:	1907c83a 	sub	r3,r3,r4
  8111c8:	8a22983a 	sll	r17,r17,r8
  8111cc:	30c6d83a 	srl	r3,r6,r3
  8111d0:	3210983a 	sll	r8,r6,r8
  8111d4:	1c62b03a 	or	r17,r3,r17
  8111d8:	1080fcc4 	addi	r2,r2,1011
  8111dc:	0085c83a 	sub	r2,zero,r2
  8111e0:	000f883a 	mov	r7,zero
  8111e4:	003f8606 	br	811000 <__alt_mem_onchip_mem+0xff809000>
  8111e8:	0023883a 	mov	r17,zero
  8111ec:	0011883a 	mov	r8,zero
  8111f0:	01c00044 	movi	r7,1
  8111f4:	003f8206 	br	811000 <__alt_mem_onchip_mem+0xff809000>
  8111f8:	01c000c4 	movi	r7,3
  8111fc:	003f8006 	br	811000 <__alt_mem_onchip_mem+0xff809000>
  811200:	04c00104 	movi	r19,4
  811204:	0021883a 	mov	r16,zero
  811208:	0025883a 	mov	r18,zero
  81120c:	02400044 	movi	r9,1
  811210:	003f6906 	br	810fb8 <__alt_mem_onchip_mem+0xff808fb8>
  811214:	04c00304 	movi	r19,12
  811218:	024000c4 	movi	r9,3
  81121c:	003f6606 	br	810fb8 <__alt_mem_onchip_mem+0xff808fb8>
  811220:	01400434 	movhi	r5,16
  811224:	0007883a 	mov	r3,zero
  811228:	297fffc4 	addi	r5,r5,-1
  81122c:	04bfffc4 	movi	r18,-1
  811230:	0081ffc4 	movi	r2,2047
  811234:	003fa106 	br	8110bc <__alt_mem_onchip_mem+0xff8090bc>
  811238:	00c00044 	movi	r3,1
  81123c:	1887c83a 	sub	r3,r3,r2
  811240:	01000e04 	movi	r4,56
  811244:	20c1210e 	bge	r4,r3,8116cc <__divdf3+0x78c>
  811248:	98c0004c 	andi	r3,r19,1
  81124c:	0005883a 	mov	r2,zero
  811250:	000b883a 	mov	r5,zero
  811254:	0025883a 	mov	r18,zero
  811258:	003f9806 	br	8110bc <__alt_mem_onchip_mem+0xff8090bc>
  81125c:	8c00fd36 	bltu	r17,r16,811654 <__divdf3+0x714>
  811260:	8440fb26 	beq	r16,r17,811650 <__divdf3+0x710>
  811264:	8007883a 	mov	r3,r16
  811268:	ad7fffc4 	addi	r21,r21,-1
  81126c:	0021883a 	mov	r16,zero
  811270:	4004d63a 	srli	r2,r8,24
  811274:	8822923a 	slli	r17,r17,8
  811278:	1809883a 	mov	r4,r3
  81127c:	402c923a 	slli	r22,r8,8
  811280:	88b8b03a 	or	fp,r17,r2
  811284:	e028d43a 	srli	r20,fp,16
  811288:	d8c00015 	stw	r3,0(sp)
  81128c:	e5ffffcc 	andi	r23,fp,65535
  811290:	a00b883a 	mov	r5,r20
  811294:	0810e840 	call	810e84 <__udivsi3>
  811298:	d8c00017 	ldw	r3,0(sp)
  81129c:	a00b883a 	mov	r5,r20
  8112a0:	d8800315 	stw	r2,12(sp)
  8112a4:	1809883a 	mov	r4,r3
  8112a8:	0810ee80 	call	810ee8 <__umodsi3>
  8112ac:	d9800317 	ldw	r6,12(sp)
  8112b0:	1006943a 	slli	r3,r2,16
  8112b4:	9004d43a 	srli	r2,r18,16
  8112b8:	b9a3383a 	mul	r17,r23,r6
  8112bc:	10c4b03a 	or	r2,r2,r3
  8112c0:	1440062e 	bgeu	r2,r17,8112dc <__divdf3+0x39c>
  8112c4:	1705883a 	add	r2,r2,fp
  8112c8:	30ffffc4 	addi	r3,r6,-1
  8112cc:	1700ee36 	bltu	r2,fp,811688 <__divdf3+0x748>
  8112d0:	1440ed2e 	bgeu	r2,r17,811688 <__divdf3+0x748>
  8112d4:	31bfff84 	addi	r6,r6,-2
  8112d8:	1705883a 	add	r2,r2,fp
  8112dc:	1463c83a 	sub	r17,r2,r17
  8112e0:	a00b883a 	mov	r5,r20
  8112e4:	8809883a 	mov	r4,r17
  8112e8:	d9800315 	stw	r6,12(sp)
  8112ec:	0810e840 	call	810e84 <__udivsi3>
  8112f0:	a00b883a 	mov	r5,r20
  8112f4:	8809883a 	mov	r4,r17
  8112f8:	d8800215 	stw	r2,8(sp)
  8112fc:	0810ee80 	call	810ee8 <__umodsi3>
  811300:	d9c00217 	ldw	r7,8(sp)
  811304:	1004943a 	slli	r2,r2,16
  811308:	94bfffcc 	andi	r18,r18,65535
  81130c:	b9d1383a 	mul	r8,r23,r7
  811310:	90a4b03a 	or	r18,r18,r2
  811314:	d9800317 	ldw	r6,12(sp)
  811318:	9200062e 	bgeu	r18,r8,811334 <__divdf3+0x3f4>
  81131c:	9725883a 	add	r18,r18,fp
  811320:	38bfffc4 	addi	r2,r7,-1
  811324:	9700d636 	bltu	r18,fp,811680 <__divdf3+0x740>
  811328:	9200d52e 	bgeu	r18,r8,811680 <__divdf3+0x740>
  81132c:	39ffff84 	addi	r7,r7,-2
  811330:	9725883a 	add	r18,r18,fp
  811334:	3004943a 	slli	r2,r6,16
  811338:	b012d43a 	srli	r9,r22,16
  81133c:	b1bfffcc 	andi	r6,r22,65535
  811340:	11e2b03a 	or	r17,r2,r7
  811344:	8806d43a 	srli	r3,r17,16
  811348:	893fffcc 	andi	r4,r17,65535
  81134c:	218b383a 	mul	r5,r4,r6
  811350:	30c5383a 	mul	r2,r6,r3
  811354:	2249383a 	mul	r4,r4,r9
  811358:	280ed43a 	srli	r7,r5,16
  81135c:	9225c83a 	sub	r18,r18,r8
  811360:	2089883a 	add	r4,r4,r2
  811364:	3909883a 	add	r4,r7,r4
  811368:	1a47383a 	mul	r3,r3,r9
  81136c:	2080022e 	bgeu	r4,r2,811378 <__divdf3+0x438>
  811370:	00800074 	movhi	r2,1
  811374:	1887883a 	add	r3,r3,r2
  811378:	2004d43a 	srli	r2,r4,16
  81137c:	2008943a 	slli	r4,r4,16
  811380:	297fffcc 	andi	r5,r5,65535
  811384:	10c7883a 	add	r3,r2,r3
  811388:	2149883a 	add	r4,r4,r5
  81138c:	90c0a536 	bltu	r18,r3,811624 <__divdf3+0x6e4>
  811390:	90c0bf26 	beq	r18,r3,811690 <__divdf3+0x750>
  811394:	90c7c83a 	sub	r3,r18,r3
  811398:	810fc83a 	sub	r7,r16,r4
  81139c:	81e5803a 	cmpltu	r18,r16,r7
  8113a0:	1ca5c83a 	sub	r18,r3,r18
  8113a4:	e480c126 	beq	fp,r18,8116ac <__divdf3+0x76c>
  8113a8:	a00b883a 	mov	r5,r20
  8113ac:	9009883a 	mov	r4,r18
  8113b0:	d9800315 	stw	r6,12(sp)
  8113b4:	d9c00215 	stw	r7,8(sp)
  8113b8:	da400115 	stw	r9,4(sp)
  8113bc:	0810e840 	call	810e84 <__udivsi3>
  8113c0:	a00b883a 	mov	r5,r20
  8113c4:	9009883a 	mov	r4,r18
  8113c8:	d8800015 	stw	r2,0(sp)
  8113cc:	0810ee80 	call	810ee8 <__umodsi3>
  8113d0:	d9c00217 	ldw	r7,8(sp)
  8113d4:	da000017 	ldw	r8,0(sp)
  8113d8:	1006943a 	slli	r3,r2,16
  8113dc:	3804d43a 	srli	r2,r7,16
  8113e0:	ba21383a 	mul	r16,r23,r8
  8113e4:	d9800317 	ldw	r6,12(sp)
  8113e8:	10c4b03a 	or	r2,r2,r3
  8113ec:	da400117 	ldw	r9,4(sp)
  8113f0:	1400062e 	bgeu	r2,r16,81140c <__divdf3+0x4cc>
  8113f4:	1705883a 	add	r2,r2,fp
  8113f8:	40ffffc4 	addi	r3,r8,-1
  8113fc:	1700ad36 	bltu	r2,fp,8116b4 <__divdf3+0x774>
  811400:	1400ac2e 	bgeu	r2,r16,8116b4 <__divdf3+0x774>
  811404:	423fff84 	addi	r8,r8,-2
  811408:	1705883a 	add	r2,r2,fp
  81140c:	1421c83a 	sub	r16,r2,r16
  811410:	a00b883a 	mov	r5,r20
  811414:	8009883a 	mov	r4,r16
  811418:	d9800315 	stw	r6,12(sp)
  81141c:	d9c00215 	stw	r7,8(sp)
  811420:	da000015 	stw	r8,0(sp)
  811424:	da400115 	stw	r9,4(sp)
  811428:	0810e840 	call	810e84 <__udivsi3>
  81142c:	8009883a 	mov	r4,r16
  811430:	a00b883a 	mov	r5,r20
  811434:	1025883a 	mov	r18,r2
  811438:	0810ee80 	call	810ee8 <__umodsi3>
  81143c:	d9c00217 	ldw	r7,8(sp)
  811440:	1004943a 	slli	r2,r2,16
  811444:	bcaf383a 	mul	r23,r23,r18
  811448:	393fffcc 	andi	r4,r7,65535
  81144c:	2088b03a 	or	r4,r4,r2
  811450:	d9800317 	ldw	r6,12(sp)
  811454:	da000017 	ldw	r8,0(sp)
  811458:	da400117 	ldw	r9,4(sp)
  81145c:	25c0062e 	bgeu	r4,r23,811478 <__divdf3+0x538>
  811460:	2709883a 	add	r4,r4,fp
  811464:	90bfffc4 	addi	r2,r18,-1
  811468:	27009436 	bltu	r4,fp,8116bc <__divdf3+0x77c>
  81146c:	25c0932e 	bgeu	r4,r23,8116bc <__divdf3+0x77c>
  811470:	94bfff84 	addi	r18,r18,-2
  811474:	2709883a 	add	r4,r4,fp
  811478:	4004943a 	slli	r2,r8,16
  81147c:	25efc83a 	sub	r23,r4,r23
  811480:	1490b03a 	or	r8,r2,r18
  811484:	4008d43a 	srli	r4,r8,16
  811488:	40ffffcc 	andi	r3,r8,65535
  81148c:	30c5383a 	mul	r2,r6,r3
  811490:	1a47383a 	mul	r3,r3,r9
  811494:	310d383a 	mul	r6,r6,r4
  811498:	100ad43a 	srli	r5,r2,16
  81149c:	4913383a 	mul	r9,r9,r4
  8114a0:	1987883a 	add	r3,r3,r6
  8114a4:	28c7883a 	add	r3,r5,r3
  8114a8:	1980022e 	bgeu	r3,r6,8114b4 <__divdf3+0x574>
  8114ac:	01000074 	movhi	r4,1
  8114b0:	4913883a 	add	r9,r9,r4
  8114b4:	1808d43a 	srli	r4,r3,16
  8114b8:	1806943a 	slli	r3,r3,16
  8114bc:	10bfffcc 	andi	r2,r2,65535
  8114c0:	2253883a 	add	r9,r4,r9
  8114c4:	1887883a 	add	r3,r3,r2
  8114c8:	ba403836 	bltu	r23,r9,8115ac <__divdf3+0x66c>
  8114cc:	ba403626 	beq	r23,r9,8115a8 <__divdf3+0x668>
  8114d0:	42000054 	ori	r8,r8,1
  8114d4:	a880ffc4 	addi	r2,r21,1023
  8114d8:	00bf570e 	bge	zero,r2,811238 <__alt_mem_onchip_mem+0xff809238>
  8114dc:	40c001cc 	andi	r3,r8,7
  8114e0:	18000726 	beq	r3,zero,811500 <__divdf3+0x5c0>
  8114e4:	40c003cc 	andi	r3,r8,15
  8114e8:	01000104 	movi	r4,4
  8114ec:	19000426 	beq	r3,r4,811500 <__divdf3+0x5c0>
  8114f0:	4107883a 	add	r3,r8,r4
  8114f4:	1a11803a 	cmpltu	r8,r3,r8
  8114f8:	8a23883a 	add	r17,r17,r8
  8114fc:	1811883a 	mov	r8,r3
  811500:	88c0402c 	andhi	r3,r17,256
  811504:	18000426 	beq	r3,zero,811518 <__divdf3+0x5d8>
  811508:	00ffc034 	movhi	r3,65280
  81150c:	18ffffc4 	addi	r3,r3,-1
  811510:	a8810004 	addi	r2,r21,1024
  811514:	88e2703a 	and	r17,r17,r3
  811518:	00c1ff84 	movi	r3,2046
  81151c:	18bee316 	blt	r3,r2,8110ac <__alt_mem_onchip_mem+0xff8090ac>
  811520:	8824977a 	slli	r18,r17,29
  811524:	4010d0fa 	srli	r8,r8,3
  811528:	8822927a 	slli	r17,r17,9
  81152c:	1081ffcc 	andi	r2,r2,2047
  811530:	9224b03a 	or	r18,r18,r8
  811534:	880ad33a 	srli	r5,r17,12
  811538:	98c0004c 	andi	r3,r19,1
  81153c:	003edf06 	br	8110bc <__alt_mem_onchip_mem+0xff8090bc>
  811540:	8080022c 	andhi	r2,r16,8
  811544:	10001226 	beq	r2,zero,811590 <__divdf3+0x650>
  811548:	8880022c 	andhi	r2,r17,8
  81154c:	1000101e 	bne	r2,zero,811590 <__divdf3+0x650>
  811550:	00800434 	movhi	r2,16
  811554:	89400234 	orhi	r5,r17,8
  811558:	10bfffc4 	addi	r2,r2,-1
  81155c:	b007883a 	mov	r3,r22
  811560:	288a703a 	and	r5,r5,r2
  811564:	4025883a 	mov	r18,r8
  811568:	003f3106 	br	811230 <__alt_mem_onchip_mem+0xff809230>
  81156c:	008000c4 	movi	r2,3
  811570:	3880a626 	beq	r7,r2,81180c <__divdf3+0x8cc>
  811574:	00800044 	movi	r2,1
  811578:	3880521e 	bne	r7,r2,8116c4 <__divdf3+0x784>
  81157c:	b807883a 	mov	r3,r23
  811580:	0005883a 	mov	r2,zero
  811584:	000b883a 	mov	r5,zero
  811588:	0025883a 	mov	r18,zero
  81158c:	003ecb06 	br	8110bc <__alt_mem_onchip_mem+0xff8090bc>
  811590:	00800434 	movhi	r2,16
  811594:	81400234 	orhi	r5,r16,8
  811598:	10bfffc4 	addi	r2,r2,-1
  81159c:	a007883a 	mov	r3,r20
  8115a0:	288a703a 	and	r5,r5,r2
  8115a4:	003f2206 	br	811230 <__alt_mem_onchip_mem+0xff809230>
  8115a8:	183fca26 	beq	r3,zero,8114d4 <__alt_mem_onchip_mem+0xff8094d4>
  8115ac:	e5ef883a 	add	r23,fp,r23
  8115b0:	40bfffc4 	addi	r2,r8,-1
  8115b4:	bf00392e 	bgeu	r23,fp,81169c <__divdf3+0x75c>
  8115b8:	1011883a 	mov	r8,r2
  8115bc:	ba7fc41e 	bne	r23,r9,8114d0 <__alt_mem_onchip_mem+0xff8094d0>
  8115c0:	b0ffc31e 	bne	r22,r3,8114d0 <__alt_mem_onchip_mem+0xff8094d0>
  8115c4:	003fc306 	br	8114d4 <__alt_mem_onchip_mem+0xff8094d4>
  8115c8:	143ff604 	addi	r16,r2,-40
  8115cc:	9c20983a 	sll	r16,r19,r16
  8115d0:	0025883a 	mov	r18,zero
  8115d4:	003ee206 	br	811160 <__alt_mem_onchip_mem+0xff809160>
  8115d8:	d9800315 	stw	r6,12(sp)
  8115dc:	d9c00215 	stw	r7,8(sp)
  8115e0:	0806cf80 	call	806cf8 <__clzsi2>
  8115e4:	10800804 	addi	r2,r2,32
  8115e8:	d9c00217 	ldw	r7,8(sp)
  8115ec:	d9800317 	ldw	r6,12(sp)
  8115f0:	003ed106 	br	811138 <__alt_mem_onchip_mem+0xff809138>
  8115f4:	147ff604 	addi	r17,r2,-40
  8115f8:	3462983a 	sll	r17,r6,r17
  8115fc:	0011883a 	mov	r8,zero
  811600:	003ef506 	br	8111d8 <__alt_mem_onchip_mem+0xff8091d8>
  811604:	3009883a 	mov	r4,r6
  811608:	d9800315 	stw	r6,12(sp)
  81160c:	da400115 	stw	r9,4(sp)
  811610:	0806cf80 	call	806cf8 <__clzsi2>
  811614:	10800804 	addi	r2,r2,32
  811618:	da400117 	ldw	r9,4(sp)
  81161c:	d9800317 	ldw	r6,12(sp)
  811620:	003ee306 	br	8111b0 <__alt_mem_onchip_mem+0xff8091b0>
  811624:	85a1883a 	add	r16,r16,r22
  811628:	8585803a 	cmpltu	r2,r16,r22
  81162c:	1705883a 	add	r2,r2,fp
  811630:	14a5883a 	add	r18,r2,r18
  811634:	88bfffc4 	addi	r2,r17,-1
  811638:	e4800c2e 	bgeu	fp,r18,81166c <__divdf3+0x72c>
  81163c:	90c03e36 	bltu	r18,r3,811738 <__divdf3+0x7f8>
  811640:	1c806926 	beq	r3,r18,8117e8 <__divdf3+0x8a8>
  811644:	90c7c83a 	sub	r3,r18,r3
  811648:	1023883a 	mov	r17,r2
  81164c:	003f5206 	br	811398 <__alt_mem_onchip_mem+0xff809398>
  811650:	923f0436 	bltu	r18,r8,811264 <__alt_mem_onchip_mem+0xff809264>
  811654:	800897fa 	slli	r4,r16,31
  811658:	9004d07a 	srli	r2,r18,1
  81165c:	8006d07a 	srli	r3,r16,1
  811660:	902097fa 	slli	r16,r18,31
  811664:	20a4b03a 	or	r18,r4,r2
  811668:	003f0106 	br	811270 <__alt_mem_onchip_mem+0xff809270>
  81166c:	e4bff51e 	bne	fp,r18,811644 <__alt_mem_onchip_mem+0xff809644>
  811670:	85bff22e 	bgeu	r16,r22,81163c <__alt_mem_onchip_mem+0xff80963c>
  811674:	e0c7c83a 	sub	r3,fp,r3
  811678:	1023883a 	mov	r17,r2
  81167c:	003f4606 	br	811398 <__alt_mem_onchip_mem+0xff809398>
  811680:	100f883a 	mov	r7,r2
  811684:	003f2b06 	br	811334 <__alt_mem_onchip_mem+0xff809334>
  811688:	180d883a 	mov	r6,r3
  81168c:	003f1306 	br	8112dc <__alt_mem_onchip_mem+0xff8092dc>
  811690:	813fe436 	bltu	r16,r4,811624 <__alt_mem_onchip_mem+0xff809624>
  811694:	0007883a 	mov	r3,zero
  811698:	003f3f06 	br	811398 <__alt_mem_onchip_mem+0xff809398>
  81169c:	ba402c36 	bltu	r23,r9,811750 <__divdf3+0x810>
  8116a0:	4dc05426 	beq	r9,r23,8117f4 <__divdf3+0x8b4>
  8116a4:	1011883a 	mov	r8,r2
  8116a8:	003f8906 	br	8114d0 <__alt_mem_onchip_mem+0xff8094d0>
  8116ac:	023fffc4 	movi	r8,-1
  8116b0:	003f8806 	br	8114d4 <__alt_mem_onchip_mem+0xff8094d4>
  8116b4:	1811883a 	mov	r8,r3
  8116b8:	003f5406 	br	81140c <__alt_mem_onchip_mem+0xff80940c>
  8116bc:	1025883a 	mov	r18,r2
  8116c0:	003f6d06 	br	811478 <__alt_mem_onchip_mem+0xff809478>
  8116c4:	b827883a 	mov	r19,r23
  8116c8:	003f8206 	br	8114d4 <__alt_mem_onchip_mem+0xff8094d4>
  8116cc:	010007c4 	movi	r4,31
  8116d0:	20c02616 	blt	r4,r3,81176c <__divdf3+0x82c>
  8116d4:	00800804 	movi	r2,32
  8116d8:	10c5c83a 	sub	r2,r2,r3
  8116dc:	888a983a 	sll	r5,r17,r2
  8116e0:	40c8d83a 	srl	r4,r8,r3
  8116e4:	4084983a 	sll	r2,r8,r2
  8116e8:	88e2d83a 	srl	r17,r17,r3
  8116ec:	2906b03a 	or	r3,r5,r4
  8116f0:	1004c03a 	cmpne	r2,r2,zero
  8116f4:	1886b03a 	or	r3,r3,r2
  8116f8:	188001cc 	andi	r2,r3,7
  8116fc:	10000726 	beq	r2,zero,81171c <__divdf3+0x7dc>
  811700:	188003cc 	andi	r2,r3,15
  811704:	01000104 	movi	r4,4
  811708:	11000426 	beq	r2,r4,81171c <__divdf3+0x7dc>
  81170c:	1805883a 	mov	r2,r3
  811710:	10c00104 	addi	r3,r2,4
  811714:	1885803a 	cmpltu	r2,r3,r2
  811718:	88a3883a 	add	r17,r17,r2
  81171c:	8880202c 	andhi	r2,r17,128
  811720:	10002726 	beq	r2,zero,8117c0 <__divdf3+0x880>
  811724:	98c0004c 	andi	r3,r19,1
  811728:	00800044 	movi	r2,1
  81172c:	000b883a 	mov	r5,zero
  811730:	0025883a 	mov	r18,zero
  811734:	003e6106 	br	8110bc <__alt_mem_onchip_mem+0xff8090bc>
  811738:	85a1883a 	add	r16,r16,r22
  81173c:	8585803a 	cmpltu	r2,r16,r22
  811740:	1705883a 	add	r2,r2,fp
  811744:	14a5883a 	add	r18,r2,r18
  811748:	8c7fff84 	addi	r17,r17,-2
  81174c:	003f1106 	br	811394 <__alt_mem_onchip_mem+0xff809394>
  811750:	b589883a 	add	r4,r22,r22
  811754:	25ad803a 	cmpltu	r22,r4,r22
  811758:	b739883a 	add	fp,r22,fp
  81175c:	40bfff84 	addi	r2,r8,-2
  811760:	bf2f883a 	add	r23,r23,fp
  811764:	202d883a 	mov	r22,r4
  811768:	003f9306 	br	8115b8 <__alt_mem_onchip_mem+0xff8095b8>
  81176c:	013ff844 	movi	r4,-31
  811770:	2085c83a 	sub	r2,r4,r2
  811774:	8888d83a 	srl	r4,r17,r2
  811778:	00800804 	movi	r2,32
  81177c:	18802126 	beq	r3,r2,811804 <__divdf3+0x8c4>
  811780:	00801004 	movi	r2,64
  811784:	10c5c83a 	sub	r2,r2,r3
  811788:	8884983a 	sll	r2,r17,r2
  81178c:	1204b03a 	or	r2,r2,r8
  811790:	1004c03a 	cmpne	r2,r2,zero
  811794:	2084b03a 	or	r2,r4,r2
  811798:	144001cc 	andi	r17,r2,7
  81179c:	88000d1e 	bne	r17,zero,8117d4 <__divdf3+0x894>
  8117a0:	000b883a 	mov	r5,zero
  8117a4:	1024d0fa 	srli	r18,r2,3
  8117a8:	98c0004c 	andi	r3,r19,1
  8117ac:	0005883a 	mov	r2,zero
  8117b0:	9464b03a 	or	r18,r18,r17
  8117b4:	003e4106 	br	8110bc <__alt_mem_onchip_mem+0xff8090bc>
  8117b8:	1007883a 	mov	r3,r2
  8117bc:	0023883a 	mov	r17,zero
  8117c0:	880a927a 	slli	r5,r17,9
  8117c4:	1805883a 	mov	r2,r3
  8117c8:	8822977a 	slli	r17,r17,29
  8117cc:	280ad33a 	srli	r5,r5,12
  8117d0:	003ff406 	br	8117a4 <__alt_mem_onchip_mem+0xff8097a4>
  8117d4:	10c003cc 	andi	r3,r2,15
  8117d8:	01000104 	movi	r4,4
  8117dc:	193ff626 	beq	r3,r4,8117b8 <__alt_mem_onchip_mem+0xff8097b8>
  8117e0:	0023883a 	mov	r17,zero
  8117e4:	003fca06 	br	811710 <__alt_mem_onchip_mem+0xff809710>
  8117e8:	813fd336 	bltu	r16,r4,811738 <__alt_mem_onchip_mem+0xff809738>
  8117ec:	1023883a 	mov	r17,r2
  8117f0:	003fa806 	br	811694 <__alt_mem_onchip_mem+0xff809694>
  8117f4:	b0ffd636 	bltu	r22,r3,811750 <__alt_mem_onchip_mem+0xff809750>
  8117f8:	1011883a 	mov	r8,r2
  8117fc:	b0ff341e 	bne	r22,r3,8114d0 <__alt_mem_onchip_mem+0xff8094d0>
  811800:	003f3406 	br	8114d4 <__alt_mem_onchip_mem+0xff8094d4>
  811804:	0005883a 	mov	r2,zero
  811808:	003fe006 	br	81178c <__alt_mem_onchip_mem+0xff80978c>
  81180c:	00800434 	movhi	r2,16
  811810:	89400234 	orhi	r5,r17,8
  811814:	10bfffc4 	addi	r2,r2,-1
  811818:	b807883a 	mov	r3,r23
  81181c:	288a703a 	and	r5,r5,r2
  811820:	4025883a 	mov	r18,r8
  811824:	003e8206 	br	811230 <__alt_mem_onchip_mem+0xff809230>

00811828 <__eqdf2>:
  811828:	2804d53a 	srli	r2,r5,20
  81182c:	3806d53a 	srli	r3,r7,20
  811830:	02000434 	movhi	r8,16
  811834:	423fffc4 	addi	r8,r8,-1
  811838:	1081ffcc 	andi	r2,r2,2047
  81183c:	0281ffc4 	movi	r10,2047
  811840:	2a12703a 	and	r9,r5,r8
  811844:	18c1ffcc 	andi	r3,r3,2047
  811848:	3a10703a 	and	r8,r7,r8
  81184c:	280ad7fa 	srli	r5,r5,31
  811850:	380ed7fa 	srli	r7,r7,31
  811854:	12801026 	beq	r2,r10,811898 <__eqdf2+0x70>
  811858:	0281ffc4 	movi	r10,2047
  81185c:	1a800a26 	beq	r3,r10,811888 <__eqdf2+0x60>
  811860:	10c00226 	beq	r2,r3,81186c <__eqdf2+0x44>
  811864:	00800044 	movi	r2,1
  811868:	f800283a 	ret
  81186c:	4a3ffd1e 	bne	r9,r8,811864 <__alt_mem_onchip_mem+0xff809864>
  811870:	21bffc1e 	bne	r4,r6,811864 <__alt_mem_onchip_mem+0xff809864>
  811874:	29c00c26 	beq	r5,r7,8118a8 <__eqdf2+0x80>
  811878:	103ffa1e 	bne	r2,zero,811864 <__alt_mem_onchip_mem+0xff809864>
  81187c:	2244b03a 	or	r2,r4,r9
  811880:	1004c03a 	cmpne	r2,r2,zero
  811884:	f800283a 	ret
  811888:	3214b03a 	or	r10,r6,r8
  81188c:	503ff426 	beq	r10,zero,811860 <__alt_mem_onchip_mem+0xff809860>
  811890:	00800044 	movi	r2,1
  811894:	f800283a 	ret
  811898:	2254b03a 	or	r10,r4,r9
  81189c:	503fee26 	beq	r10,zero,811858 <__alt_mem_onchip_mem+0xff809858>
  8118a0:	00800044 	movi	r2,1
  8118a4:	f800283a 	ret
  8118a8:	0005883a 	mov	r2,zero
  8118ac:	f800283a 	ret

008118b0 <__fixdfsi>:
  8118b0:	280cd53a 	srli	r6,r5,20
  8118b4:	00c00434 	movhi	r3,16
  8118b8:	18ffffc4 	addi	r3,r3,-1
  8118bc:	3181ffcc 	andi	r6,r6,2047
  8118c0:	01c0ff84 	movi	r7,1022
  8118c4:	28c6703a 	and	r3,r5,r3
  8118c8:	280ad7fa 	srli	r5,r5,31
  8118cc:	3980120e 	bge	r7,r6,811918 <__fixdfsi+0x68>
  8118d0:	00810744 	movi	r2,1053
  8118d4:	11800c16 	blt	r2,r6,811908 <__fixdfsi+0x58>
  8118d8:	00810cc4 	movi	r2,1075
  8118dc:	1185c83a 	sub	r2,r2,r6
  8118e0:	01c007c4 	movi	r7,31
  8118e4:	18c00434 	orhi	r3,r3,16
  8118e8:	38800d16 	blt	r7,r2,811920 <__fixdfsi+0x70>
  8118ec:	31befb44 	addi	r6,r6,-1043
  8118f0:	2084d83a 	srl	r2,r4,r2
  8118f4:	1986983a 	sll	r3,r3,r6
  8118f8:	1884b03a 	or	r2,r3,r2
  8118fc:	28000726 	beq	r5,zero,81191c <__fixdfsi+0x6c>
  811900:	0085c83a 	sub	r2,zero,r2
  811904:	f800283a 	ret
  811908:	00a00034 	movhi	r2,32768
  81190c:	10bfffc4 	addi	r2,r2,-1
  811910:	2885883a 	add	r2,r5,r2
  811914:	f800283a 	ret
  811918:	0005883a 	mov	r2,zero
  81191c:	f800283a 	ret
  811920:	008104c4 	movi	r2,1043
  811924:	1185c83a 	sub	r2,r2,r6
  811928:	1884d83a 	srl	r2,r3,r2
  81192c:	003ff306 	br	8118fc <__alt_mem_onchip_mem+0xff8098fc>

00811930 <alt_alarm_start>:
 */ 

int alt_alarm_start (alt_alarm* alarm, alt_u32 nticks,
                     alt_u32 (*callback) (void* context),
                     void* context)
{
  811930:	defff504 	addi	sp,sp,-44
  811934:	df000a15 	stw	fp,40(sp)
  811938:	df000a04 	addi	fp,sp,40
  81193c:	e13ffc15 	stw	r4,-16(fp)
  811940:	e17ffd15 	stw	r5,-12(fp)
  811944:	e1bffe15 	stw	r6,-8(fp)
  811948:	e1ffff15 	stw	r7,-4(fp)
  alt_irq_context irq_context;
  alt_u32 current_nticks = 0;
  81194c:	e03ff615 	stw	zero,-40(fp)
 * Obtain the system clock rate in ticks/s. 
 */

static ALT_INLINE alt_u32 ALT_ALWAYS_INLINE alt_ticks_per_second (void)
{
  return _alt_tick_rate;
  811950:	d0a76017 	ldw	r2,-25216(gp)
  
  if (alt_ticks_per_second ())
  811954:	10003c26 	beq	r2,zero,811a48 <alt_alarm_start+0x118>
  {
    if (alarm)
  811958:	e0bffc17 	ldw	r2,-16(fp)
  81195c:	10003826 	beq	r2,zero,811a40 <alt_alarm_start+0x110>
    {
      alarm->callback = callback;
  811960:	e0bffc17 	ldw	r2,-16(fp)
  811964:	e0fffe17 	ldw	r3,-8(fp)
  811968:	10c00315 	stw	r3,12(r2)
      alarm->context  = context;
  81196c:	e0bffc17 	ldw	r2,-16(fp)
  811970:	e0ffff17 	ldw	r3,-4(fp)
  811974:	10c00515 	stw	r3,20(r2)
static ALT_INLINE alt_irq_context ALT_ALWAYS_INLINE 
       alt_irq_disable_all (void)
{
  alt_irq_context context;

  NIOS2_READ_STATUS (context);
  811978:	0005303a 	rdctl	r2,status
  81197c:	e0bff915 	stw	r2,-28(fp)

  NIOS2_WRITE_STATUS (context & ~NIOS2_STATUS_PIE_MSK);
  811980:	e0fff917 	ldw	r3,-28(fp)
  811984:	00bfff84 	movi	r2,-2
  811988:	1884703a 	and	r2,r3,r2
  81198c:	1001703a 	wrctl	status,r2
  
  return context;
  811990:	e0bff917 	ldw	r2,-28(fp)
 
      irq_context = alt_irq_disable_all ();
  811994:	e0bff815 	stw	r2,-32(fp)
 * alt_nticks() returns the elapsed number of system clock ticks since reset.
 */

static ALT_INLINE alt_u32 ALT_ALWAYS_INLINE alt_nticks (void)
{
  return _alt_nticks;
  811998:	d0a76117 	ldw	r2,-25212(gp)
      
      current_nticks = alt_nticks();
  81199c:	e0bff615 	stw	r2,-40(fp)
      
      alarm->time = nticks + current_nticks + 1; 
  8119a0:	e0fffd17 	ldw	r3,-12(fp)
  8119a4:	e0bff617 	ldw	r2,-40(fp)
  8119a8:	1885883a 	add	r2,r3,r2
  8119ac:	10c00044 	addi	r3,r2,1
  8119b0:	e0bffc17 	ldw	r2,-16(fp)
  8119b4:	10c00215 	stw	r3,8(r2)
      /* 
       * If the desired alarm time causes a roll-over, set the rollover
       * flag. This will prevent the subsequent tick event from causing
       * an alarm too early.
       */
      if(alarm->time < current_nticks)
  8119b8:	e0bffc17 	ldw	r2,-16(fp)
  8119bc:	10c00217 	ldw	r3,8(r2)
  8119c0:	e0bff617 	ldw	r2,-40(fp)
  8119c4:	1880042e 	bgeu	r3,r2,8119d8 <alt_alarm_start+0xa8>
      {
        alarm->rollover = 1;
  8119c8:	e0bffc17 	ldw	r2,-16(fp)
  8119cc:	00c00044 	movi	r3,1
  8119d0:	10c00405 	stb	r3,16(r2)
  8119d4:	00000206 	br	8119e0 <alt_alarm_start+0xb0>
      }
      else
      {
        alarm->rollover = 0;
  8119d8:	e0bffc17 	ldw	r2,-16(fp)
  8119dc:	10000405 	stb	zero,16(r2)
      }
    
      alt_llist_insert (&alt_alarm_list, &alarm->llist);
  8119e0:	e0bffc17 	ldw	r2,-16(fp)
  8119e4:	d0e00e04 	addi	r3,gp,-32712
  8119e8:	e0fffa15 	stw	r3,-24(fp)
  8119ec:	e0bffb15 	stw	r2,-20(fp)
 */

static ALT_INLINE void ALT_ALWAYS_INLINE alt_llist_insert(alt_llist* list, 
                alt_llist* entry)
{
  entry->previous = list;
  8119f0:	e0bffb17 	ldw	r2,-20(fp)
  8119f4:	e0fffa17 	ldw	r3,-24(fp)
  8119f8:	10c00115 	stw	r3,4(r2)
  entry->next     = list->next;
  8119fc:	e0bffa17 	ldw	r2,-24(fp)
  811a00:	10c00017 	ldw	r3,0(r2)
  811a04:	e0bffb17 	ldw	r2,-20(fp)
  811a08:	10c00015 	stw	r3,0(r2)

  list->next->previous = entry;
  811a0c:	e0bffa17 	ldw	r2,-24(fp)
  811a10:	10800017 	ldw	r2,0(r2)
  811a14:	e0fffb17 	ldw	r3,-20(fp)
  811a18:	10c00115 	stw	r3,4(r2)
  list->next           = entry;
  811a1c:	e0bffa17 	ldw	r2,-24(fp)
  811a20:	e0fffb17 	ldw	r3,-20(fp)
  811a24:	10c00015 	stw	r3,0(r2)
  811a28:	e0bff817 	ldw	r2,-32(fp)
  811a2c:	e0bff715 	stw	r2,-36(fp)
  status &= ~NIOS2_STATUS_PIE_MSK;
  status |= (context & NIOS2_STATUS_PIE_MSK);
  
  NIOS2_WRITE_STATUS (status);
#else
  NIOS2_WRITE_STATUS (context);
  811a30:	e0bff717 	ldw	r2,-36(fp)
  811a34:	1001703a 	wrctl	status,r2
      alt_irq_enable_all (irq_context);

      return 0;
  811a38:	0005883a 	mov	r2,zero
  811a3c:	00000306 	br	811a4c <alt_alarm_start+0x11c>
    }
    else
    {
      return -EINVAL;
  811a40:	00bffa84 	movi	r2,-22
  811a44:	00000106 	br	811a4c <alt_alarm_start+0x11c>
    }
  }
  else
  {
    return -ENOTSUP;
  811a48:	00bfde84 	movi	r2,-134
  }
}
  811a4c:	e037883a 	mov	sp,fp
  811a50:	df000017 	ldw	fp,0(sp)
  811a54:	dec00104 	addi	sp,sp,4
  811a58:	f800283a 	ret

00811a5c <alt_get_errno>:
#undef errno

extern int errno;

static ALT_INLINE int* alt_get_errno(void)
{
  811a5c:	defffe04 	addi	sp,sp,-8
  811a60:	dfc00115 	stw	ra,4(sp)
  811a64:	df000015 	stw	fp,0(sp)
  811a68:	d839883a 	mov	fp,sp
  return ((alt_errno) ? alt_errno() : &errno);
  811a6c:	d0a00b17 	ldw	r2,-32724(gp)
  811a70:	10000326 	beq	r2,zero,811a80 <alt_get_errno+0x24>
  811a74:	d0a00b17 	ldw	r2,-32724(gp)
  811a78:	103ee83a 	callr	r2
  811a7c:	00000106 	br	811a84 <alt_get_errno+0x28>
  811a80:	d0a75b04 	addi	r2,gp,-25236
}
  811a84:	e037883a 	mov	sp,fp
  811a88:	dfc00117 	ldw	ra,4(sp)
  811a8c:	df000017 	ldw	fp,0(sp)
  811a90:	dec00204 	addi	sp,sp,8
  811a94:	f800283a 	ret

00811a98 <close>:
 *
 * ALT_CLOSE is mapped onto the close() system call in alt_syscall.h
 */
 
int ALT_CLOSE (int fildes)
{
  811a98:	defffb04 	addi	sp,sp,-20
  811a9c:	dfc00415 	stw	ra,16(sp)
  811aa0:	df000315 	stw	fp,12(sp)
  811aa4:	df000304 	addi	fp,sp,12
  811aa8:	e13fff15 	stw	r4,-4(fp)
   * A common error case is that when the file descriptor was created, the call
   * to open() failed resulting in a negative file descriptor. This is trapped
   * below so that we don't try and process an invalid file descriptor.
   */

  fd = (fildes < 0) ? NULL : &alt_fd_list[fildes];
  811aac:	e0bfff17 	ldw	r2,-4(fp)
  811ab0:	10000616 	blt	r2,zero,811acc <close+0x34>
  811ab4:	e0bfff17 	ldw	r2,-4(fp)
  811ab8:	10c00324 	muli	r3,r2,12
  811abc:	00802074 	movhi	r2,129
  811ac0:	109a3e04 	addi	r2,r2,26872
  811ac4:	1885883a 	add	r2,r3,r2
  811ac8:	00000106 	br	811ad0 <close+0x38>
  811acc:	0005883a 	mov	r2,zero
  811ad0:	e0bffd15 	stw	r2,-12(fp)

  if (fd)
  811ad4:	e0bffd17 	ldw	r2,-12(fp)
  811ad8:	10001926 	beq	r2,zero,811b40 <close+0xa8>
    /*
     * If the associated file system/device has a close function, call it so 
     * that any necessary cleanup code can run.
     */

    rval = (fd->dev->close) ? fd->dev->close(fd) : 0;
  811adc:	e0bffd17 	ldw	r2,-12(fp)
  811ae0:	10800017 	ldw	r2,0(r2)
  811ae4:	10800417 	ldw	r2,16(r2)
  811ae8:	10000626 	beq	r2,zero,811b04 <close+0x6c>
  811aec:	e0bffd17 	ldw	r2,-12(fp)
  811af0:	10800017 	ldw	r2,0(r2)
  811af4:	10800417 	ldw	r2,16(r2)
  811af8:	e13ffd17 	ldw	r4,-12(fp)
  811afc:	103ee83a 	callr	r2
  811b00:	00000106 	br	811b08 <close+0x70>
  811b04:	0005883a 	mov	r2,zero
  811b08:	e0bffe15 	stw	r2,-8(fp)

    /* Free the file descriptor structure and return. */

    alt_release_fd (fildes);
  811b0c:	e13fff17 	ldw	r4,-4(fp)
  811b10:	08123f80 	call	8123f8 <alt_release_fd>
    if (rval < 0)
  811b14:	e0bffe17 	ldw	r2,-8(fp)
  811b18:	1000070e 	bge	r2,zero,811b38 <close+0xa0>
    {
      ALT_ERRNO = -rval;
  811b1c:	0811a5c0 	call	811a5c <alt_get_errno>
  811b20:	1007883a 	mov	r3,r2
  811b24:	e0bffe17 	ldw	r2,-8(fp)
  811b28:	0085c83a 	sub	r2,zero,r2
  811b2c:	18800015 	stw	r2,0(r3)
      return -1;
  811b30:	00bfffc4 	movi	r2,-1
  811b34:	00000706 	br	811b54 <close+0xbc>
    }
    return 0;
  811b38:	0005883a 	mov	r2,zero
  811b3c:	00000506 	br	811b54 <close+0xbc>
  }
  else
  {
    ALT_ERRNO = EBADFD;
  811b40:	0811a5c0 	call	811a5c <alt_get_errno>
  811b44:	1007883a 	mov	r3,r2
  811b48:	00801444 	movi	r2,81
  811b4c:	18800015 	stw	r2,0(r3)
    return -1;
  811b50:	00bfffc4 	movi	r2,-1
  }
}
  811b54:	e037883a 	mov	sp,fp
  811b58:	dfc00117 	ldw	ra,4(sp)
  811b5c:	df000017 	ldw	fp,0(sp)
  811b60:	dec00204 	addi	sp,sp,8
  811b64:	f800283a 	ret

00811b68 <alt_dev_null_write>:
 * by the alt_dev_null device. It simple discards all data passed to it, and
 * indicates that the data has been successfully transmitted.
 */

static int alt_dev_null_write (alt_fd* fd, const char* ptr, int len)
{
  811b68:	defffc04 	addi	sp,sp,-16
  811b6c:	df000315 	stw	fp,12(sp)
  811b70:	df000304 	addi	fp,sp,12
  811b74:	e13ffd15 	stw	r4,-12(fp)
  811b78:	e17ffe15 	stw	r5,-8(fp)
  811b7c:	e1bfff15 	stw	r6,-4(fp)
  return len;
  811b80:	e0bfff17 	ldw	r2,-4(fp)
}
  811b84:	e037883a 	mov	sp,fp
  811b88:	df000017 	ldw	fp,0(sp)
  811b8c:	dec00104 	addi	sp,sp,4
  811b90:	f800283a 	ret

00811b94 <alt_get_errno>:
#undef errno

extern int errno;

static ALT_INLINE int* alt_get_errno(void)
{
  811b94:	defffe04 	addi	sp,sp,-8
  811b98:	dfc00115 	stw	ra,4(sp)
  811b9c:	df000015 	stw	fp,0(sp)
  811ba0:	d839883a 	mov	fp,sp
  return ((alt_errno) ? alt_errno() : &errno);
  811ba4:	d0a00b17 	ldw	r2,-32724(gp)
  811ba8:	10000326 	beq	r2,zero,811bb8 <alt_get_errno+0x24>
  811bac:	d0a00b17 	ldw	r2,-32724(gp)
  811bb0:	103ee83a 	callr	r2
  811bb4:	00000106 	br	811bbc <alt_get_errno+0x28>
  811bb8:	d0a75b04 	addi	r2,gp,-25236
}
  811bbc:	e037883a 	mov	sp,fp
  811bc0:	dfc00117 	ldw	ra,4(sp)
  811bc4:	df000017 	ldw	fp,0(sp)
  811bc8:	dec00204 	addi	sp,sp,8
  811bcc:	f800283a 	ret

00811bd0 <fstat>:
}

#else /* !ALT_USE_DIRECT_DRIVERS */

int ALT_FSTAT (int file, struct stat *st)
{
  811bd0:	defffb04 	addi	sp,sp,-20
  811bd4:	dfc00415 	stw	ra,16(sp)
  811bd8:	df000315 	stw	fp,12(sp)
  811bdc:	df000304 	addi	fp,sp,12
  811be0:	e13ffe15 	stw	r4,-8(fp)
  811be4:	e17fff15 	stw	r5,-4(fp)
   * A common error case is that when the file descriptor was created, the call
   * to open() failed resulting in a negative file descriptor. This is trapped
   * below so that we don't try and process an invalid file descriptor.
   */

  fd = (file < 0) ? NULL : &alt_fd_list[file];
  811be8:	e0bffe17 	ldw	r2,-8(fp)
  811bec:	10000616 	blt	r2,zero,811c08 <fstat+0x38>
  811bf0:	e0bffe17 	ldw	r2,-8(fp)
  811bf4:	10c00324 	muli	r3,r2,12
  811bf8:	00802074 	movhi	r2,129
  811bfc:	109a3e04 	addi	r2,r2,26872
  811c00:	1885883a 	add	r2,r3,r2
  811c04:	00000106 	br	811c0c <fstat+0x3c>
  811c08:	0005883a 	mov	r2,zero
  811c0c:	e0bffd15 	stw	r2,-12(fp)
  
  if (fd)
  811c10:	e0bffd17 	ldw	r2,-12(fp)
  811c14:	10001026 	beq	r2,zero,811c58 <fstat+0x88>
  {
    /* Call the drivers fstat() function to fill out the "st" structure. */

    if (fd->dev->fstat)
  811c18:	e0bffd17 	ldw	r2,-12(fp)
  811c1c:	10800017 	ldw	r2,0(r2)
  811c20:	10800817 	ldw	r2,32(r2)
  811c24:	10000726 	beq	r2,zero,811c44 <fstat+0x74>
    {
      return fd->dev->fstat(fd, st);
  811c28:	e0bffd17 	ldw	r2,-12(fp)
  811c2c:	10800017 	ldw	r2,0(r2)
  811c30:	10800817 	ldw	r2,32(r2)
  811c34:	e17fff17 	ldw	r5,-4(fp)
  811c38:	e13ffd17 	ldw	r4,-12(fp)
  811c3c:	103ee83a 	callr	r2
  811c40:	00000a06 	br	811c6c <fstat+0x9c>
     * device.
     */
 
    else
    {
      st->st_mode = _IFCHR;
  811c44:	e0bfff17 	ldw	r2,-4(fp)
  811c48:	00c80004 	movi	r3,8192
  811c4c:	10c00115 	stw	r3,4(r2)
      return 0;
  811c50:	0005883a 	mov	r2,zero
  811c54:	00000506 	br	811c6c <fstat+0x9c>
    }
  }
  else
  {
    ALT_ERRNO = EBADFD;
  811c58:	0811b940 	call	811b94 <alt_get_errno>
  811c5c:	1007883a 	mov	r3,r2
  811c60:	00801444 	movi	r2,81
  811c64:	18800015 	stw	r2,0(r3)
    return -1;
  811c68:	00bfffc4 	movi	r2,-1
  }
}
  811c6c:	e037883a 	mov	sp,fp
  811c70:	dfc00117 	ldw	ra,4(sp)
  811c74:	df000017 	ldw	fp,0(sp)
  811c78:	dec00204 	addi	sp,sp,8
  811c7c:	f800283a 	ret

00811c80 <alt_ic_isr_register>:
  * @param irq              IRQ number
  * @return                 0 if successful, else error (-1)
  */
int alt_ic_isr_register(alt_u32 ic_id, alt_u32 irq, alt_isr_func isr, 
  void *isr_context, void *flags)
{
  811c80:	defff904 	addi	sp,sp,-28
  811c84:	dfc00615 	stw	ra,24(sp)
  811c88:	df000515 	stw	fp,20(sp)
  811c8c:	df000504 	addi	fp,sp,20
  811c90:	e13ffc15 	stw	r4,-16(fp)
  811c94:	e17ffd15 	stw	r5,-12(fp)
  811c98:	e1bffe15 	stw	r6,-8(fp)
  811c9c:	e1ffff15 	stw	r7,-4(fp)
    return alt_iic_isr_register(ic_id, irq, isr, isr_context, flags);
  811ca0:	e0800217 	ldw	r2,8(fp)
  811ca4:	d8800015 	stw	r2,0(sp)
  811ca8:	e1ffff17 	ldw	r7,-4(fp)
  811cac:	e1bffe17 	ldw	r6,-8(fp)
  811cb0:	e17ffd17 	ldw	r5,-12(fp)
  811cb4:	e13ffc17 	ldw	r4,-16(fp)
  811cb8:	0811e300 	call	811e30 <alt_iic_isr_register>
}  
  811cbc:	e037883a 	mov	sp,fp
  811cc0:	dfc00117 	ldw	ra,4(sp)
  811cc4:	df000017 	ldw	fp,0(sp)
  811cc8:	dec00204 	addi	sp,sp,8
  811ccc:	f800283a 	ret

00811cd0 <alt_ic_irq_enable>:
  * @param ic_id            Ignored.
  * @param irq              IRQ number
  * @return                 0 if successful, else error (-1)
  */
int alt_ic_irq_enable (alt_u32 ic_id, alt_u32 irq)
{
  811cd0:	defff904 	addi	sp,sp,-28
  811cd4:	df000615 	stw	fp,24(sp)
  811cd8:	df000604 	addi	fp,sp,24
  811cdc:	e13ffe15 	stw	r4,-8(fp)
  811ce0:	e17fff15 	stw	r5,-4(fp)
  811ce4:	e0bfff17 	ldw	r2,-4(fp)
  811ce8:	e0bffa15 	stw	r2,-24(fp)
static ALT_INLINE alt_irq_context ALT_ALWAYS_INLINE 
       alt_irq_disable_all (void)
{
  alt_irq_context context;

  NIOS2_READ_STATUS (context);
  811cec:	0005303a 	rdctl	r2,status
  811cf0:	e0bffb15 	stw	r2,-20(fp)

  NIOS2_WRITE_STATUS (context & ~NIOS2_STATUS_PIE_MSK);
  811cf4:	e0fffb17 	ldw	r3,-20(fp)
  811cf8:	00bfff84 	movi	r2,-2
  811cfc:	1884703a 	and	r2,r3,r2
  811d00:	1001703a 	wrctl	status,r2
  
  return context;
  811d04:	e0bffb17 	ldw	r2,-20(fp)
static ALT_INLINE int ALT_ALWAYS_INLINE alt_irq_enable (alt_u32 id)
{
  alt_irq_context  status;
  extern volatile alt_u32 alt_irq_active;

  status = alt_irq_disable_all ();
  811d08:	e0bffc15 	stw	r2,-16(fp)

  alt_irq_active |= (1 << id);
  811d0c:	00c00044 	movi	r3,1
  811d10:	e0bffa17 	ldw	r2,-24(fp)
  811d14:	1884983a 	sll	r2,r3,r2
  811d18:	1007883a 	mov	r3,r2
  811d1c:	d0a75c17 	ldw	r2,-25232(gp)
  811d20:	1884b03a 	or	r2,r3,r2
  811d24:	d0a75c15 	stw	r2,-25232(gp)
  NIOS2_WRITE_IENABLE (alt_irq_active);
  811d28:	d0a75c17 	ldw	r2,-25232(gp)
  811d2c:	100170fa 	wrctl	ienable,r2
  811d30:	e0bffc17 	ldw	r2,-16(fp)
  811d34:	e0bffd15 	stw	r2,-12(fp)
  status &= ~NIOS2_STATUS_PIE_MSK;
  status |= (context & NIOS2_STATUS_PIE_MSK);
  
  NIOS2_WRITE_STATUS (status);
#else
  NIOS2_WRITE_STATUS (context);
  811d38:	e0bffd17 	ldw	r2,-12(fp)
  811d3c:	1001703a 	wrctl	status,r2

  alt_irq_enable_all(status);

  return 0;
  811d40:	0005883a 	mov	r2,zero
    return alt_irq_enable(irq);
  811d44:	0001883a 	nop
}
  811d48:	e037883a 	mov	sp,fp
  811d4c:	df000017 	ldw	fp,0(sp)
  811d50:	dec00104 	addi	sp,sp,4
  811d54:	f800283a 	ret

00811d58 <alt_ic_irq_disable>:
  * @param ic_id            Ignored.
  * @param irq              IRQ number
  * @return                 0 if successful, else error (-1)
  */
int alt_ic_irq_disable(alt_u32 ic_id, alt_u32 irq)
{
  811d58:	defff904 	addi	sp,sp,-28
  811d5c:	df000615 	stw	fp,24(sp)
  811d60:	df000604 	addi	fp,sp,24
  811d64:	e13ffe15 	stw	r4,-8(fp)
  811d68:	e17fff15 	stw	r5,-4(fp)
  811d6c:	e0bfff17 	ldw	r2,-4(fp)
  811d70:	e0bffa15 	stw	r2,-24(fp)
static ALT_INLINE alt_irq_context ALT_ALWAYS_INLINE 
       alt_irq_disable_all (void)
{
  alt_irq_context context;

  NIOS2_READ_STATUS (context);
  811d74:	0005303a 	rdctl	r2,status
  811d78:	e0bffb15 	stw	r2,-20(fp)

  NIOS2_WRITE_STATUS (context & ~NIOS2_STATUS_PIE_MSK);
  811d7c:	e0fffb17 	ldw	r3,-20(fp)
  811d80:	00bfff84 	movi	r2,-2
  811d84:	1884703a 	and	r2,r3,r2
  811d88:	1001703a 	wrctl	status,r2
  
  return context;
  811d8c:	e0bffb17 	ldw	r2,-20(fp)
static ALT_INLINE int ALT_ALWAYS_INLINE alt_irq_disable (alt_u32 id)
{
  alt_irq_context  status;
  extern volatile alt_u32 alt_irq_active;

  status = alt_irq_disable_all ();
  811d90:	e0bffc15 	stw	r2,-16(fp)

  alt_irq_active &= ~(1 << id);
  811d94:	00c00044 	movi	r3,1
  811d98:	e0bffa17 	ldw	r2,-24(fp)
  811d9c:	1884983a 	sll	r2,r3,r2
  811da0:	0084303a 	nor	r2,zero,r2
  811da4:	1007883a 	mov	r3,r2
  811da8:	d0a75c17 	ldw	r2,-25232(gp)
  811dac:	1884703a 	and	r2,r3,r2
  811db0:	d0a75c15 	stw	r2,-25232(gp)
  NIOS2_WRITE_IENABLE (alt_irq_active);
  811db4:	d0a75c17 	ldw	r2,-25232(gp)
  811db8:	100170fa 	wrctl	ienable,r2
  811dbc:	e0bffc17 	ldw	r2,-16(fp)
  811dc0:	e0bffd15 	stw	r2,-12(fp)
  status &= ~NIOS2_STATUS_PIE_MSK;
  status |= (context & NIOS2_STATUS_PIE_MSK);
  
  NIOS2_WRITE_STATUS (status);
#else
  NIOS2_WRITE_STATUS (context);
  811dc4:	e0bffd17 	ldw	r2,-12(fp)
  811dc8:	1001703a 	wrctl	status,r2

  alt_irq_enable_all(status);

  return 0;
  811dcc:	0005883a 	mov	r2,zero
    return alt_irq_disable(irq);
  811dd0:	0001883a 	nop
}
  811dd4:	e037883a 	mov	sp,fp
  811dd8:	df000017 	ldw	fp,0(sp)
  811ddc:	dec00104 	addi	sp,sp,4
  811de0:	f800283a 	ret

00811de4 <alt_ic_irq_enabled>:
  * @param irq              IRQ number
  * @return                 Zero if corresponding interrupt is disabled and
  *                         non-zero otherwise.
  */
alt_u32 alt_ic_irq_enabled(alt_u32 ic_id, alt_u32 irq)
{
  811de4:	defffc04 	addi	sp,sp,-16
  811de8:	df000315 	stw	fp,12(sp)
  811dec:	df000304 	addi	fp,sp,12
  811df0:	e13ffe15 	stw	r4,-8(fp)
  811df4:	e17fff15 	stw	r5,-4(fp)
    alt_u32 irq_enabled;

    NIOS2_READ_IENABLE(irq_enabled);
  811df8:	000530fa 	rdctl	r2,ienable
  811dfc:	e0bffd15 	stw	r2,-12(fp)

    return (irq_enabled & (1 << irq)) ? 1: 0;
  811e00:	00c00044 	movi	r3,1
  811e04:	e0bfff17 	ldw	r2,-4(fp)
  811e08:	1884983a 	sll	r2,r3,r2
  811e0c:	1007883a 	mov	r3,r2
  811e10:	e0bffd17 	ldw	r2,-12(fp)
  811e14:	1884703a 	and	r2,r3,r2
  811e18:	1004c03a 	cmpne	r2,r2,zero
  811e1c:	10803fcc 	andi	r2,r2,255
}
  811e20:	e037883a 	mov	sp,fp
  811e24:	df000017 	ldw	fp,0(sp)
  811e28:	dec00104 	addi	sp,sp,4
  811e2c:	f800283a 	ret

00811e30 <alt_iic_isr_register>:
  * @param flags            
  * @return                 0 if successful, else error (-1)
  */
int alt_iic_isr_register(alt_u32 ic_id, alt_u32 irq, alt_isr_func isr, 
  void *isr_context, void *flags)
{
  811e30:	defff504 	addi	sp,sp,-44
  811e34:	dfc00a15 	stw	ra,40(sp)
  811e38:	df000915 	stw	fp,36(sp)
  811e3c:	df000904 	addi	fp,sp,36
  811e40:	e13ffc15 	stw	r4,-16(fp)
  811e44:	e17ffd15 	stw	r5,-12(fp)
  811e48:	e1bffe15 	stw	r6,-8(fp)
  811e4c:	e1ffff15 	stw	r7,-4(fp)
  int rc = -EINVAL;  
  811e50:	00bffa84 	movi	r2,-22
  811e54:	e0bff715 	stw	r2,-36(fp)
  int id = irq;             /* IRQ interpreted as the interrupt ID. */
  811e58:	e0bffd17 	ldw	r2,-12(fp)
  811e5c:	e0bff815 	stw	r2,-32(fp)
  alt_irq_context status;

  if (id < ALT_NIRQ)
  811e60:	e0bff817 	ldw	r2,-32(fp)
  811e64:	10800808 	cmpgei	r2,r2,32
  811e68:	1000271e 	bne	r2,zero,811f08 <alt_iic_isr_register+0xd8>
static ALT_INLINE alt_irq_context ALT_ALWAYS_INLINE 
       alt_irq_disable_all (void)
{
  alt_irq_context context;

  NIOS2_READ_STATUS (context);
  811e6c:	0005303a 	rdctl	r2,status
  811e70:	e0bffb15 	stw	r2,-20(fp)

  NIOS2_WRITE_STATUS (context & ~NIOS2_STATUS_PIE_MSK);
  811e74:	e0fffb17 	ldw	r3,-20(fp)
  811e78:	00bfff84 	movi	r2,-2
  811e7c:	1884703a 	and	r2,r3,r2
  811e80:	1001703a 	wrctl	status,r2
  
  return context;
  811e84:	e0bffb17 	ldw	r2,-20(fp)
     * interrupts are disabled while the handler tables are updated to ensure
     * that an interrupt doesn't occur while the tables are in an inconsistant
     * state.
     */

    status = alt_irq_disable_all();
  811e88:	e0bffa15 	stw	r2,-24(fp)

    alt_irq[id].handler = isr;
  811e8c:	008020b4 	movhi	r2,130
  811e90:	10a69c04 	addi	r2,r2,-26000
  811e94:	e0fff817 	ldw	r3,-32(fp)
  811e98:	180690fa 	slli	r3,r3,3
  811e9c:	10c5883a 	add	r2,r2,r3
  811ea0:	e0fffe17 	ldw	r3,-8(fp)
  811ea4:	10c00015 	stw	r3,0(r2)
    alt_irq[id].context = isr_context;
  811ea8:	008020b4 	movhi	r2,130
  811eac:	10a69c04 	addi	r2,r2,-26000
  811eb0:	e0fff817 	ldw	r3,-32(fp)
  811eb4:	180690fa 	slli	r3,r3,3
  811eb8:	10c5883a 	add	r2,r2,r3
  811ebc:	10800104 	addi	r2,r2,4
  811ec0:	e0ffff17 	ldw	r3,-4(fp)
  811ec4:	10c00015 	stw	r3,0(r2)

    rc = (isr) ? alt_ic_irq_enable(ic_id, id) : alt_ic_irq_disable(ic_id, id);
  811ec8:	e0bffe17 	ldw	r2,-8(fp)
  811ecc:	10000526 	beq	r2,zero,811ee4 <alt_iic_isr_register+0xb4>
  811ed0:	e0bff817 	ldw	r2,-32(fp)
  811ed4:	100b883a 	mov	r5,r2
  811ed8:	e13ffc17 	ldw	r4,-16(fp)
  811edc:	0811cd00 	call	811cd0 <alt_ic_irq_enable>
  811ee0:	00000406 	br	811ef4 <alt_iic_isr_register+0xc4>
  811ee4:	e0bff817 	ldw	r2,-32(fp)
  811ee8:	100b883a 	mov	r5,r2
  811eec:	e13ffc17 	ldw	r4,-16(fp)
  811ef0:	0811d580 	call	811d58 <alt_ic_irq_disable>
  811ef4:	e0bff715 	stw	r2,-36(fp)
  811ef8:	e0bffa17 	ldw	r2,-24(fp)
  811efc:	e0bff915 	stw	r2,-28(fp)
  status &= ~NIOS2_STATUS_PIE_MSK;
  status |= (context & NIOS2_STATUS_PIE_MSK);
  
  NIOS2_WRITE_STATUS (status);
#else
  NIOS2_WRITE_STATUS (context);
  811f00:	e0bff917 	ldw	r2,-28(fp)
  811f04:	1001703a 	wrctl	status,r2

    alt_irq_enable_all(status);
  }

  return rc; 
  811f08:	e0bff717 	ldw	r2,-36(fp)
}
  811f0c:	e037883a 	mov	sp,fp
  811f10:	dfc00117 	ldw	ra,4(sp)
  811f14:	df000017 	ldw	fp,0(sp)
  811f18:	dec00204 	addi	sp,sp,8
  811f1c:	f800283a 	ret

00811f20 <alt_get_errno>:
#undef errno

extern int errno;

static ALT_INLINE int* alt_get_errno(void)
{
  811f20:	defffe04 	addi	sp,sp,-8
  811f24:	dfc00115 	stw	ra,4(sp)
  811f28:	df000015 	stw	fp,0(sp)
  811f2c:	d839883a 	mov	fp,sp
  return ((alt_errno) ? alt_errno() : &errno);
  811f30:	d0a00b17 	ldw	r2,-32724(gp)
  811f34:	10000326 	beq	r2,zero,811f44 <alt_get_errno+0x24>
  811f38:	d0a00b17 	ldw	r2,-32724(gp)
  811f3c:	103ee83a 	callr	r2
  811f40:	00000106 	br	811f48 <alt_get_errno+0x28>
  811f44:	d0a75b04 	addi	r2,gp,-25236
}
  811f48:	e037883a 	mov	sp,fp
  811f4c:	dfc00117 	ldw	ra,4(sp)
  811f50:	df000017 	ldw	fp,0(sp)
  811f54:	dec00204 	addi	sp,sp,8
  811f58:	f800283a 	ret

00811f5c <isatty>:
 *
 * ALT_ISATTY is mapped onto the isatty() system call in alt_syscall.h
 */
 
int ALT_ISATTY (int file)
{
  811f5c:	deffed04 	addi	sp,sp,-76
  811f60:	dfc01215 	stw	ra,72(sp)
  811f64:	df001115 	stw	fp,68(sp)
  811f68:	df001104 	addi	fp,sp,68
  811f6c:	e13fff15 	stw	r4,-4(fp)
   * A common error case is that when the file descriptor was created, the call
   * to open() failed resulting in a negative file descriptor. This is trapped
   * below so that we don't try and process an invalid file descriptor.
   */

  fd = (file < 0) ? NULL : &alt_fd_list[file];
  811f70:	e0bfff17 	ldw	r2,-4(fp)
  811f74:	10000616 	blt	r2,zero,811f90 <isatty+0x34>
  811f78:	e0bfff17 	ldw	r2,-4(fp)
  811f7c:	10c00324 	muli	r3,r2,12
  811f80:	00802074 	movhi	r2,129
  811f84:	109a3e04 	addi	r2,r2,26872
  811f88:	1885883a 	add	r2,r3,r2
  811f8c:	00000106 	br	811f94 <isatty+0x38>
  811f90:	0005883a 	mov	r2,zero
  811f94:	e0bfef15 	stw	r2,-68(fp)
  
  if (fd)
  811f98:	e0bfef17 	ldw	r2,-68(fp)
  811f9c:	10000e26 	beq	r2,zero,811fd8 <isatty+0x7c>
    /*
     * If a device driver does not provide an fstat() function, then it is 
     * treated as a terminal device by default.
     */

    if (!fd->dev->fstat)
  811fa0:	e0bfef17 	ldw	r2,-68(fp)
  811fa4:	10800017 	ldw	r2,0(r2)
  811fa8:	10800817 	ldw	r2,32(r2)
  811fac:	1000021e 	bne	r2,zero,811fb8 <isatty+0x5c>
    {
      return 1;
  811fb0:	00800044 	movi	r2,1
  811fb4:	00000d06 	br	811fec <isatty+0x90>
     * this is called so that the device can identify itself.
     */ 

    else
    {
      fstat (file, &stat);
  811fb8:	e0bff004 	addi	r2,fp,-64
  811fbc:	100b883a 	mov	r5,r2
  811fc0:	e13fff17 	ldw	r4,-4(fp)
  811fc4:	0811bd00 	call	811bd0 <fstat>
      return (stat.st_mode == _IFCHR) ? 1 : 0;
  811fc8:	e0bff117 	ldw	r2,-60(fp)
  811fcc:	10880020 	cmpeqi	r2,r2,8192
  811fd0:	10803fcc 	andi	r2,r2,255
  811fd4:	00000506 	br	811fec <isatty+0x90>
    }
  }
  else
  {
    ALT_ERRNO = EBADFD;
  811fd8:	0811f200 	call	811f20 <alt_get_errno>
  811fdc:	1007883a 	mov	r3,r2
  811fe0:	00801444 	movi	r2,81
  811fe4:	18800015 	stw	r2,0(r3)
    return 0;
  811fe8:	0005883a 	mov	r2,zero
  }
}
  811fec:	e037883a 	mov	sp,fp
  811ff0:	dfc00117 	ldw	ra,4(sp)
  811ff4:	df000017 	ldw	fp,0(sp)
  811ff8:	dec00204 	addi	sp,sp,8
  811ffc:	f800283a 	ret

00812000 <alt_load_section>:
 */

static void ALT_INLINE alt_load_section (alt_u32* from, 
                                         alt_u32* to, 
                                         alt_u32* end)
{
  812000:	defffc04 	addi	sp,sp,-16
  812004:	df000315 	stw	fp,12(sp)
  812008:	df000304 	addi	fp,sp,12
  81200c:	e13ffd15 	stw	r4,-12(fp)
  812010:	e17ffe15 	stw	r5,-8(fp)
  812014:	e1bfff15 	stw	r6,-4(fp)
  if (to != from)
  812018:	e0fffe17 	ldw	r3,-8(fp)
  81201c:	e0bffd17 	ldw	r2,-12(fp)
  812020:	18800c26 	beq	r3,r2,812054 <alt_load_section+0x54>
  {
    while( to != end )
  812024:	00000806 	br	812048 <alt_load_section+0x48>
    {
      *to++ = *from++;
  812028:	e0bffe17 	ldw	r2,-8(fp)
  81202c:	10c00104 	addi	r3,r2,4
  812030:	e0fffe15 	stw	r3,-8(fp)
  812034:	e0fffd17 	ldw	r3,-12(fp)
  812038:	19000104 	addi	r4,r3,4
  81203c:	e13ffd15 	stw	r4,-12(fp)
  812040:	18c00017 	ldw	r3,0(r3)
  812044:	10c00015 	stw	r3,0(r2)
                                         alt_u32* to, 
                                         alt_u32* end)
{
  if (to != from)
  {
    while( to != end )
  812048:	e0fffe17 	ldw	r3,-8(fp)
  81204c:	e0bfff17 	ldw	r2,-4(fp)
  812050:	18bff51e 	bne	r3,r2,812028 <__alt_mem_onchip_mem+0xff80a028>
    {
      *to++ = *from++;
    }
  }
}
  812054:	0001883a 	nop
  812058:	e037883a 	mov	sp,fp
  81205c:	df000017 	ldw	fp,0(sp)
  812060:	dec00104 	addi	sp,sp,4
  812064:	f800283a 	ret

00812068 <alt_load>:
 * there is no bootloader, so this application is responsible for loading to
 * RAM any sections that are required.
 */  

void alt_load (void)
{
  812068:	defffe04 	addi	sp,sp,-8
  81206c:	dfc00115 	stw	ra,4(sp)
  812070:	df000015 	stw	fp,0(sp)
  812074:	d839883a 	mov	fp,sp
  /* 
   * Copy the .rwdata section. 
   */

  alt_load_section (&__flash_rwdata_start, 
  812078:	01802074 	movhi	r6,129
  81207c:	319f4104 	addi	r6,r6,32004
  812080:	01402074 	movhi	r5,129
  812084:	29580b04 	addi	r5,r5,24620
  812088:	01002074 	movhi	r4,129
  81208c:	211f4104 	addi	r4,r4,32004
  812090:	08120000 	call	812000 <alt_load_section>

  /*
   * Copy the exception handler.
   */

  alt_load_section (&__flash_exceptions_start, 
  812094:	01802034 	movhi	r6,128
  812098:	31809104 	addi	r6,r6,580
  81209c:	01402034 	movhi	r5,128
  8120a0:	29400804 	addi	r5,r5,32
  8120a4:	01002034 	movhi	r4,128
  8120a8:	21000804 	addi	r4,r4,32
  8120ac:	08120000 	call	812000 <alt_load_section>

  /*
   * Copy the .rodata section.
   */

  alt_load_section (&__flash_rodata_start, 
  8120b0:	01802074 	movhi	r6,129
  8120b4:	31980b04 	addi	r6,r6,24620
  8120b8:	01402074 	movhi	r5,129
  8120bc:	29569404 	addi	r5,r5,23120
  8120c0:	01002074 	movhi	r4,129
  8120c4:	21169404 	addi	r4,r4,23120
  8120c8:	08120000 	call	812000 <alt_load_section>
  
  /*
   * Now ensure that the caches are in synch.
   */
  
  alt_dcache_flush_all();
  8120cc:	0814bf80 	call	814bf8 <alt_dcache_flush_all>
  alt_icache_flush_all();
  8120d0:	0814de00 	call	814de0 <alt_icache_flush_all>
}
  8120d4:	0001883a 	nop
  8120d8:	e037883a 	mov	sp,fp
  8120dc:	dfc00117 	ldw	ra,4(sp)
  8120e0:	df000017 	ldw	fp,0(sp)
  8120e4:	dec00204 	addi	sp,sp,8
  8120e8:	f800283a 	ret

008120ec <alt_get_errno>:
#undef errno

extern int errno;

static ALT_INLINE int* alt_get_errno(void)
{
  8120ec:	defffe04 	addi	sp,sp,-8
  8120f0:	dfc00115 	stw	ra,4(sp)
  8120f4:	df000015 	stw	fp,0(sp)
  8120f8:	d839883a 	mov	fp,sp
  return ((alt_errno) ? alt_errno() : &errno);
  8120fc:	d0a00b17 	ldw	r2,-32724(gp)
  812100:	10000326 	beq	r2,zero,812110 <alt_get_errno+0x24>
  812104:	d0a00b17 	ldw	r2,-32724(gp)
  812108:	103ee83a 	callr	r2
  81210c:	00000106 	br	812114 <alt_get_errno+0x28>
  812110:	d0a75b04 	addi	r2,gp,-25236
}
  812114:	e037883a 	mov	sp,fp
  812118:	dfc00117 	ldw	ra,4(sp)
  81211c:	df000017 	ldw	fp,0(sp)
  812120:	dec00204 	addi	sp,sp,8
  812124:	f800283a 	ret

00812128 <lseek>:
 * ALT_LSEEK is mapped onto the lseek() system call in alt_syscall.h
 *
 */

off_t ALT_LSEEK (int file, off_t ptr, int dir)
{
  812128:	defff904 	addi	sp,sp,-28
  81212c:	dfc00615 	stw	ra,24(sp)
  812130:	df000515 	stw	fp,20(sp)
  812134:	df000504 	addi	fp,sp,20
  812138:	e13ffd15 	stw	r4,-12(fp)
  81213c:	e17ffe15 	stw	r5,-8(fp)
  812140:	e1bfff15 	stw	r6,-4(fp)
  alt_fd* fd;
  off_t   rc = 0; 
  812144:	e03ffb15 	stw	zero,-20(fp)
   * A common error case is that when the file descriptor was created, the call
   * to open() failed resulting in a negative file descriptor. This is trapped
   * below so that we don't try and process an invalid file descriptor.
   */

  fd = (file < 0) ? NULL : &alt_fd_list[file];
  812148:	e0bffd17 	ldw	r2,-12(fp)
  81214c:	10000616 	blt	r2,zero,812168 <lseek+0x40>
  812150:	e0bffd17 	ldw	r2,-12(fp)
  812154:	10c00324 	muli	r3,r2,12
  812158:	00802074 	movhi	r2,129
  81215c:	109a3e04 	addi	r2,r2,26872
  812160:	1885883a 	add	r2,r3,r2
  812164:	00000106 	br	81216c <lseek+0x44>
  812168:	0005883a 	mov	r2,zero
  81216c:	e0bffc15 	stw	r2,-16(fp)
  
  if (fd) 
  812170:	e0bffc17 	ldw	r2,-16(fp)
  812174:	10001026 	beq	r2,zero,8121b8 <lseek+0x90>
    /*
     * If the device driver provides an implementation of the lseek() function,
     * then call that to process the request.
     */
 
    if (fd->dev->lseek)
  812178:	e0bffc17 	ldw	r2,-16(fp)
  81217c:	10800017 	ldw	r2,0(r2)
  812180:	10800717 	ldw	r2,28(r2)
  812184:	10000926 	beq	r2,zero,8121ac <lseek+0x84>
    {
      rc = fd->dev->lseek(fd, ptr, dir);
  812188:	e0bffc17 	ldw	r2,-16(fp)
  81218c:	10800017 	ldw	r2,0(r2)
  812190:	10800717 	ldw	r2,28(r2)
  812194:	e1bfff17 	ldw	r6,-4(fp)
  812198:	e17ffe17 	ldw	r5,-8(fp)
  81219c:	e13ffc17 	ldw	r4,-16(fp)
  8121a0:	103ee83a 	callr	r2
  8121a4:	e0bffb15 	stw	r2,-20(fp)
  8121a8:	00000506 	br	8121c0 <lseek+0x98>
     * Otherwise return an error.
     */

    else
    {
      rc = -ENOTSUP;
  8121ac:	00bfde84 	movi	r2,-134
  8121b0:	e0bffb15 	stw	r2,-20(fp)
  8121b4:	00000206 	br	8121c0 <lseek+0x98>
    }
  }
  else  
  {
    rc = -EBADFD;
  8121b8:	00bfebc4 	movi	r2,-81
  8121bc:	e0bffb15 	stw	r2,-20(fp)
  }

  if (rc < 0)
  8121c0:	e0bffb17 	ldw	r2,-20(fp)
  8121c4:	1000070e 	bge	r2,zero,8121e4 <lseek+0xbc>
  {
    ALT_ERRNO = -rc;
  8121c8:	08120ec0 	call	8120ec <alt_get_errno>
  8121cc:	1007883a 	mov	r3,r2
  8121d0:	e0bffb17 	ldw	r2,-20(fp)
  8121d4:	0085c83a 	sub	r2,zero,r2
  8121d8:	18800015 	stw	r2,0(r3)
    rc = -1;
  8121dc:	00bfffc4 	movi	r2,-1
  8121e0:	e0bffb15 	stw	r2,-20(fp)
  }

  return rc;
  8121e4:	e0bffb17 	ldw	r2,-20(fp)
}
  8121e8:	e037883a 	mov	sp,fp
  8121ec:	dfc00117 	ldw	ra,4(sp)
  8121f0:	df000017 	ldw	fp,0(sp)
  8121f4:	dec00204 	addi	sp,sp,8
  8121f8:	f800283a 	ret

008121fc <alt_main>:
 * devices/filesystems/components in the system; and call the entry point for
 * the users application, i.e. main().
 */

void alt_main (void)
{
  8121fc:	defffd04 	addi	sp,sp,-12
  812200:	dfc00215 	stw	ra,8(sp)
  812204:	df000115 	stw	fp,4(sp)
  812208:	df000104 	addi	fp,sp,4
#endif

  /* ALT LOG - please see HAL/sys/alt_log_printf.h for details */
  ALT_LOG_PRINT_BOOT("[alt_main.c] Entering alt_main, calling alt_irq_init.\r\n");
  /* Initialize the interrupt controller. */
  alt_irq_init (NULL);
  81220c:	0009883a 	mov	r4,zero
  812210:	08128180 	call	812818 <alt_irq_init>

  /* Initialize the operating system */
  ALT_LOG_PRINT_BOOT("[alt_main.c] Done alt_irq_init, calling alt_os_init.\r\n");
  ALT_OS_INIT();
  812214:	0001883a 	nop
  ALT_LOG_PRINT_BOOT("[alt_main.c] Done OS Init, calling alt_sem_create.\r\n");
  ALT_SEM_CREATE (&alt_fd_list_lock, 1);

  /* Initialize the device drivers/software components. */
  ALT_LOG_PRINT_BOOT("[alt_main.c] Calling alt_sys_init.\r\n");
  alt_sys_init();
  812218:	08128500 	call	812850 <alt_sys_init>
   * devices be present (not equal to /dev/null) and if direct drivers
   * aren't being used.
   */

    ALT_LOG_PRINT_BOOT("[alt_main.c] Redirecting IO.\r\n");
    alt_io_redirect(ALT_STDOUT, ALT_STDIN, ALT_STDERR);
  81221c:	01802074 	movhi	r6,129
  812220:	31975d04 	addi	r6,r6,23924
  812224:	01402074 	movhi	r5,129
  812228:	29575d04 	addi	r5,r5,23924
  81222c:	01002074 	movhi	r4,129
  812230:	21175d04 	addi	r4,r4,23924
  812234:	0814f740 	call	814f74 <alt_io_redirect>
  /* 
   * Call the C++ constructors 
   */

  ALT_LOG_PRINT_BOOT("[alt_main.c] Calling C++ constructors.\r\n");
  _do_ctors ();
  812238:	0814d200 	call	814d20 <_do_ctors>
   * redefined as _exit()). This is in the interest of reducing code footprint,
   * in that the atexit() overhead is removed when it's not needed.
   */

  ALT_LOG_PRINT_BOOT("[alt_main.c] Calling atexit.\r\n");
  atexit (_do_dtors);
  81223c:	01002074 	movhi	r4,129
  812240:	21136004 	addi	r4,r4,19840
  812244:	08156bc0 	call	8156bc <atexit>
  ALT_LOG_PRINT_BOOT("[alt_main.c] Calling main.\r\n");

#ifdef ALT_NO_EXIT
  main (alt_argc, alt_argv, alt_envp);
#else
  result = main (alt_argc, alt_argv, alt_envp);
  812248:	d0a75d17 	ldw	r2,-25228(gp)
  81224c:	d0e75e17 	ldw	r3,-25224(gp)
  812250:	d1275f17 	ldw	r4,-25220(gp)
  812254:	200d883a 	mov	r6,r4
  812258:	180b883a 	mov	r5,r3
  81225c:	1009883a 	mov	r4,r2
  812260:	08006f80 	call	8006f8 <main>
  812264:	e0bfff15 	stw	r2,-4(fp)
  close(STDOUT_FILENO);
  812268:	01000044 	movi	r4,1
  81226c:	0811a980 	call	811a98 <close>
  exit (result);
  812270:	e13fff17 	ldw	r4,-4(fp)
  812274:	08156d00 	call	8156d0 <exit>

00812278 <__malloc_lock>:
 * configuration is single threaded, so there is nothing to do here. Note that 
 * this requires that malloc is never called by an interrupt service routine.
 */

void __malloc_lock ( struct _reent *_r )
{
  812278:	defffe04 	addi	sp,sp,-8
  81227c:	df000115 	stw	fp,4(sp)
  812280:	df000104 	addi	fp,sp,4
  812284:	e13fff15 	stw	r4,-4(fp)
}
  812288:	0001883a 	nop
  81228c:	e037883a 	mov	sp,fp
  812290:	df000017 	ldw	fp,0(sp)
  812294:	dec00104 	addi	sp,sp,4
  812298:	f800283a 	ret

0081229c <__malloc_unlock>:
/*
 *
 */

void __malloc_unlock ( struct _reent *_r )
{
  81229c:	defffe04 	addi	sp,sp,-8
  8122a0:	df000115 	stw	fp,4(sp)
  8122a4:	df000104 	addi	fp,sp,4
  8122a8:	e13fff15 	stw	r4,-4(fp)
}
  8122ac:	0001883a 	nop
  8122b0:	e037883a 	mov	sp,fp
  8122b4:	df000017 	ldw	fp,0(sp)
  8122b8:	dec00104 	addi	sp,sp,4
  8122bc:	f800283a 	ret

008122c0 <alt_get_errno>:
#undef errno

extern int errno;

static ALT_INLINE int* alt_get_errno(void)
{
  8122c0:	defffe04 	addi	sp,sp,-8
  8122c4:	dfc00115 	stw	ra,4(sp)
  8122c8:	df000015 	stw	fp,0(sp)
  8122cc:	d839883a 	mov	fp,sp
  return ((alt_errno) ? alt_errno() : &errno);
  8122d0:	d0a00b17 	ldw	r2,-32724(gp)
  8122d4:	10000326 	beq	r2,zero,8122e4 <alt_get_errno+0x24>
  8122d8:	d0a00b17 	ldw	r2,-32724(gp)
  8122dc:	103ee83a 	callr	r2
  8122e0:	00000106 	br	8122e8 <alt_get_errno+0x28>
  8122e4:	d0a75b04 	addi	r2,gp,-25236
}
  8122e8:	e037883a 	mov	sp,fp
  8122ec:	dfc00117 	ldw	ra,4(sp)
  8122f0:	df000017 	ldw	fp,0(sp)
  8122f4:	dec00204 	addi	sp,sp,8
  8122f8:	f800283a 	ret

008122fc <read>:
}

#else /* !ALT_USE_DIRECT_DRIVERS */

int ALT_READ (int file, void *ptr, size_t len)
{
  8122fc:	defff904 	addi	sp,sp,-28
  812300:	dfc00615 	stw	ra,24(sp)
  812304:	df000515 	stw	fp,20(sp)
  812308:	df000504 	addi	fp,sp,20
  81230c:	e13ffd15 	stw	r4,-12(fp)
  812310:	e17ffe15 	stw	r5,-8(fp)
  812314:	e1bfff15 	stw	r6,-4(fp)
   * A common error case is that when the file descriptor was created, the call
   * to open() failed resulting in a negative file descriptor. This is trapped
   * below so that we don't try and process an invalid file descriptor.
   */

  fd = (file < 0) ? NULL : &alt_fd_list[file];
  812318:	e0bffd17 	ldw	r2,-12(fp)
  81231c:	10000616 	blt	r2,zero,812338 <read+0x3c>
  812320:	e0bffd17 	ldw	r2,-12(fp)
  812324:	10c00324 	muli	r3,r2,12
  812328:	00802074 	movhi	r2,129
  81232c:	109a3e04 	addi	r2,r2,26872
  812330:	1885883a 	add	r2,r3,r2
  812334:	00000106 	br	81233c <read+0x40>
  812338:	0005883a 	mov	r2,zero
  81233c:	e0bffb15 	stw	r2,-20(fp)
  
  if (fd)
  812340:	e0bffb17 	ldw	r2,-20(fp)
  812344:	10002226 	beq	r2,zero,8123d0 <read+0xd4>
     * If the file has not been opened with read access, or if the driver does
     * not provide an implementation of read(), generate an error. Otherwise
     * call the drivers read() function to process the request.
     */

    if (((fd->fd_flags & O_ACCMODE) != O_WRONLY) && 
  812348:	e0bffb17 	ldw	r2,-20(fp)
  81234c:	10800217 	ldw	r2,8(r2)
  812350:	108000cc 	andi	r2,r2,3
  812354:	10800060 	cmpeqi	r2,r2,1
  812358:	1000181e 	bne	r2,zero,8123bc <read+0xc0>
        (fd->dev->read))
  81235c:	e0bffb17 	ldw	r2,-20(fp)
  812360:	10800017 	ldw	r2,0(r2)
  812364:	10800517 	ldw	r2,20(r2)
     * If the file has not been opened with read access, or if the driver does
     * not provide an implementation of read(), generate an error. Otherwise
     * call the drivers read() function to process the request.
     */

    if (((fd->fd_flags & O_ACCMODE) != O_WRONLY) && 
  812368:	10001426 	beq	r2,zero,8123bc <read+0xc0>
        (fd->dev->read))
      {
        if ((rval = fd->dev->read(fd, ptr, len)) < 0)
  81236c:	e0bffb17 	ldw	r2,-20(fp)
  812370:	10800017 	ldw	r2,0(r2)
  812374:	10800517 	ldw	r2,20(r2)
  812378:	e0ffff17 	ldw	r3,-4(fp)
  81237c:	180d883a 	mov	r6,r3
  812380:	e17ffe17 	ldw	r5,-8(fp)
  812384:	e13ffb17 	ldw	r4,-20(fp)
  812388:	103ee83a 	callr	r2
  81238c:	e0bffc15 	stw	r2,-16(fp)
  812390:	e0bffc17 	ldw	r2,-16(fp)
  812394:	1000070e 	bge	r2,zero,8123b4 <read+0xb8>
        {
          ALT_ERRNO = -rval;
  812398:	08122c00 	call	8122c0 <alt_get_errno>
  81239c:	1007883a 	mov	r3,r2
  8123a0:	e0bffc17 	ldw	r2,-16(fp)
  8123a4:	0085c83a 	sub	r2,zero,r2
  8123a8:	18800015 	stw	r2,0(r3)
          return -1;
  8123ac:	00bfffc4 	movi	r2,-1
  8123b0:	00000c06 	br	8123e4 <read+0xe8>
        }
        return rval;
  8123b4:	e0bffc17 	ldw	r2,-16(fp)
  8123b8:	00000a06 	br	8123e4 <read+0xe8>
      }
      else
      {
        ALT_ERRNO = EACCES;
  8123bc:	08122c00 	call	8122c0 <alt_get_errno>
  8123c0:	1007883a 	mov	r3,r2
  8123c4:	00800344 	movi	r2,13
  8123c8:	18800015 	stw	r2,0(r3)
  8123cc:	00000406 	br	8123e0 <read+0xe4>
      }
    }
  else
  {
    ALT_ERRNO = EBADFD;
  8123d0:	08122c00 	call	8122c0 <alt_get_errno>
  8123d4:	1007883a 	mov	r3,r2
  8123d8:	00801444 	movi	r2,81
  8123dc:	18800015 	stw	r2,0(r3)
  }
  return -1;
  8123e0:	00bfffc4 	movi	r2,-1
}
  8123e4:	e037883a 	mov	sp,fp
  8123e8:	dfc00117 	ldw	ra,4(sp)
  8123ec:	df000017 	ldw	fp,0(sp)
  8123f0:	dec00204 	addi	sp,sp,8
  8123f4:	f800283a 	ret

008123f8 <alt_release_fd>:
 * File descriptors correcponding to standard in, standard out and standard 
 * error cannont be released backed to the pool. They are always reserved.
 */

void alt_release_fd (int fd)
{
  8123f8:	defffe04 	addi	sp,sp,-8
  8123fc:	df000115 	stw	fp,4(sp)
  812400:	df000104 	addi	fp,sp,4
  812404:	e13fff15 	stw	r4,-4(fp)
  if (fd > 2)
  812408:	e0bfff17 	ldw	r2,-4(fp)
  81240c:	108000d0 	cmplti	r2,r2,3
  812410:	10000d1e 	bne	r2,zero,812448 <alt_release_fd+0x50>
  {
    alt_fd_list[fd].fd_flags = 0;
  812414:	00802074 	movhi	r2,129
  812418:	109a3e04 	addi	r2,r2,26872
  81241c:	e0ffff17 	ldw	r3,-4(fp)
  812420:	18c00324 	muli	r3,r3,12
  812424:	10c5883a 	add	r2,r2,r3
  812428:	10800204 	addi	r2,r2,8
  81242c:	10000015 	stw	zero,0(r2)
    alt_fd_list[fd].dev      = 0;
  812430:	00802074 	movhi	r2,129
  812434:	109a3e04 	addi	r2,r2,26872
  812438:	e0ffff17 	ldw	r3,-4(fp)
  81243c:	18c00324 	muli	r3,r3,12
  812440:	10c5883a 	add	r2,r2,r3
  812444:	10000015 	stw	zero,0(r2)
  }
}
  812448:	0001883a 	nop
  81244c:	e037883a 	mov	sp,fp
  812450:	df000017 	ldw	fp,0(sp)
  812454:	dec00104 	addi	sp,sp,4
  812458:	f800283a 	ret

0081245c <sbrk>:
#endif
 
caddr_t ALT_SBRK (int incr) __attribute__ ((no_instrument_function ));

caddr_t ALT_SBRK (int incr)
{ 
  81245c:	defff904 	addi	sp,sp,-28
  812460:	df000615 	stw	fp,24(sp)
  812464:	df000604 	addi	fp,sp,24
  812468:	e13fff15 	stw	r4,-4(fp)
static ALT_INLINE alt_irq_context ALT_ALWAYS_INLINE 
       alt_irq_disable_all (void)
{
  alt_irq_context context;

  NIOS2_READ_STATUS (context);
  81246c:	0005303a 	rdctl	r2,status
  812470:	e0bffe15 	stw	r2,-8(fp)

  NIOS2_WRITE_STATUS (context & ~NIOS2_STATUS_PIE_MSK);
  812474:	e0fffe17 	ldw	r3,-8(fp)
  812478:	00bfff84 	movi	r2,-2
  81247c:	1884703a 	and	r2,r3,r2
  812480:	1001703a 	wrctl	status,r2
  
  return context;
  812484:	e0bffe17 	ldw	r2,-8(fp)
  alt_irq_context context;
  char *prev_heap_end; 

  context = alt_irq_disable_all();
  812488:	e0bffb15 	stw	r2,-20(fp)

  /* Always return data aligned on a word boundary */
  heap_end = (char *)(((unsigned int)heap_end + 3) & ~3);
  81248c:	d0a00d17 	ldw	r2,-32716(gp)
  812490:	10c000c4 	addi	r3,r2,3
  812494:	00bfff04 	movi	r2,-4
  812498:	1884703a 	and	r2,r3,r2
  81249c:	d0a00d15 	stw	r2,-32716(gp)
  if (((heap_end + incr) - __alt_heap_start) > ALT_MAX_HEAP_BYTES) {
    alt_irq_enable_all(context);
    return (caddr_t)-1;
  }
#else
  if ((heap_end + incr) > __alt_heap_limit) {
  8124a0:	d0e00d17 	ldw	r3,-32716(gp)
  8124a4:	e0bfff17 	ldw	r2,-4(fp)
  8124a8:	1887883a 	add	r3,r3,r2
  8124ac:	00804034 	movhi	r2,256
  8124b0:	10800004 	addi	r2,r2,0
  8124b4:	10c0062e 	bgeu	r2,r3,8124d0 <sbrk+0x74>
  8124b8:	e0bffb17 	ldw	r2,-20(fp)
  8124bc:	e0bffa15 	stw	r2,-24(fp)
  status &= ~NIOS2_STATUS_PIE_MSK;
  status |= (context & NIOS2_STATUS_PIE_MSK);
  
  NIOS2_WRITE_STATUS (status);
#else
  NIOS2_WRITE_STATUS (context);
  8124c0:	e0bffa17 	ldw	r2,-24(fp)
  8124c4:	1001703a 	wrctl	status,r2
    alt_irq_enable_all(context);
    return (caddr_t)-1;
  8124c8:	00bfffc4 	movi	r2,-1
  8124cc:	00000b06 	br	8124fc <sbrk+0xa0>
  }
#endif

  prev_heap_end = heap_end; 
  8124d0:	d0a00d17 	ldw	r2,-32716(gp)
  8124d4:	e0bffd15 	stw	r2,-12(fp)
  heap_end += incr; 
  8124d8:	d0e00d17 	ldw	r3,-32716(gp)
  8124dc:	e0bfff17 	ldw	r2,-4(fp)
  8124e0:	1885883a 	add	r2,r3,r2
  8124e4:	d0a00d15 	stw	r2,-32716(gp)
  8124e8:	e0bffb17 	ldw	r2,-20(fp)
  8124ec:	e0bffc15 	stw	r2,-16(fp)
  8124f0:	e0bffc17 	ldw	r2,-16(fp)
  8124f4:	1001703a 	wrctl	status,r2

#endif

  alt_irq_enable_all(context);

  return (caddr_t) prev_heap_end; 
  8124f8:	e0bffd17 	ldw	r2,-12(fp)
} 
  8124fc:	e037883a 	mov	sp,fp
  812500:	df000017 	ldw	fp,0(sp)
  812504:	dec00104 	addi	sp,sp,4
  812508:	f800283a 	ret

0081250c <alt_alarm_stop>:
 * alarms. Alternatively an alarm can unregister itself by returning zero when 
 * the alarm executes.
 */

void alt_alarm_stop (alt_alarm* alarm)
{
  81250c:	defffa04 	addi	sp,sp,-24
  812510:	df000515 	stw	fp,20(sp)
  812514:	df000504 	addi	fp,sp,20
  812518:	e13fff15 	stw	r4,-4(fp)
static ALT_INLINE alt_irq_context ALT_ALWAYS_INLINE 
       alt_irq_disable_all (void)
{
  alt_irq_context context;

  NIOS2_READ_STATUS (context);
  81251c:	0005303a 	rdctl	r2,status
  812520:	e0bffc15 	stw	r2,-16(fp)

  NIOS2_WRITE_STATUS (context & ~NIOS2_STATUS_PIE_MSK);
  812524:	e0fffc17 	ldw	r3,-16(fp)
  812528:	00bfff84 	movi	r2,-2
  81252c:	1884703a 	and	r2,r3,r2
  812530:	1001703a 	wrctl	status,r2
  
  return context;
  812534:	e0bffc17 	ldw	r2,-16(fp)
  alt_irq_context irq_context;

  irq_context = alt_irq_disable_all();
  812538:	e0bffb15 	stw	r2,-20(fp)
  alt_llist_remove (&alarm->llist);
  81253c:	e0bfff17 	ldw	r2,-4(fp)
  812540:	e0bffd15 	stw	r2,-12(fp)
 * input argument is the element to remove.
 */
     
static ALT_INLINE void ALT_ALWAYS_INLINE alt_llist_remove(alt_llist* entry)
{
  entry->next->previous = entry->previous;
  812544:	e0bffd17 	ldw	r2,-12(fp)
  812548:	10800017 	ldw	r2,0(r2)
  81254c:	e0fffd17 	ldw	r3,-12(fp)
  812550:	18c00117 	ldw	r3,4(r3)
  812554:	10c00115 	stw	r3,4(r2)
  entry->previous->next = entry->next;
  812558:	e0bffd17 	ldw	r2,-12(fp)
  81255c:	10800117 	ldw	r2,4(r2)
  812560:	e0fffd17 	ldw	r3,-12(fp)
  812564:	18c00017 	ldw	r3,0(r3)
  812568:	10c00015 	stw	r3,0(r2)
  /* 
   * Set the entry to point to itself, so that any further calls to
   * alt_llist_remove() are harmless.
   */

  entry->previous = entry;
  81256c:	e0bffd17 	ldw	r2,-12(fp)
  812570:	e0fffd17 	ldw	r3,-12(fp)
  812574:	10c00115 	stw	r3,4(r2)
  entry->next     = entry;
  812578:	e0bffd17 	ldw	r2,-12(fp)
  81257c:	e0fffd17 	ldw	r3,-12(fp)
  812580:	10c00015 	stw	r3,0(r2)
  812584:	e0bffb17 	ldw	r2,-20(fp)
  812588:	e0bffe15 	stw	r2,-8(fp)
  status &= ~NIOS2_STATUS_PIE_MSK;
  status |= (context & NIOS2_STATUS_PIE_MSK);
  
  NIOS2_WRITE_STATUS (status);
#else
  NIOS2_WRITE_STATUS (context);
  81258c:	e0bffe17 	ldw	r2,-8(fp)
  812590:	1001703a 	wrctl	status,r2
  alt_irq_enable_all (irq_context);
}
  812594:	0001883a 	nop
  812598:	e037883a 	mov	sp,fp
  81259c:	df000017 	ldw	fp,0(sp)
  8125a0:	dec00104 	addi	sp,sp,4
  8125a4:	f800283a 	ret

008125a8 <alt_tick>:
 * 
 * alt_tick() is expected to run at interrupt level.
 */

void alt_tick (void)
{
  8125a8:	defffb04 	addi	sp,sp,-20
  8125ac:	dfc00415 	stw	ra,16(sp)
  8125b0:	df000315 	stw	fp,12(sp)
  8125b4:	df000304 	addi	fp,sp,12
  alt_alarm* next;
  alt_alarm* alarm = (alt_alarm*) alt_alarm_list.next;
  8125b8:	d0a00e17 	ldw	r2,-32712(gp)
  8125bc:	e0bffd15 	stw	r2,-12(fp)

  alt_u32    next_callback;

  /* update the tick counter */

  _alt_nticks++;
  8125c0:	d0a76117 	ldw	r2,-25212(gp)
  8125c4:	10800044 	addi	r2,r2,1
  8125c8:	d0a76115 	stw	r2,-25212(gp)

  /* process the registered callbacks */

  while (alarm != (alt_alarm*) &alt_alarm_list)
  8125cc:	00002e06 	br	812688 <alt_tick+0xe0>
  {
    next = (alt_alarm*) alarm->llist.next;
  8125d0:	e0bffd17 	ldw	r2,-12(fp)
  8125d4:	10800017 	ldw	r2,0(r2)
  8125d8:	e0bffe15 	stw	r2,-8(fp)
    /* 
     * Upon the tick-counter rolling over it is safe to clear the 
     * roll-over flag; once the flag is cleared this (or subsequnt)
     * tick events are enabled to generate an alarm event. 
     */
    if ((alarm->rollover) && (_alt_nticks == 0))
  8125dc:	e0bffd17 	ldw	r2,-12(fp)
  8125e0:	10800403 	ldbu	r2,16(r2)
  8125e4:	10803fcc 	andi	r2,r2,255
  8125e8:	10000426 	beq	r2,zero,8125fc <alt_tick+0x54>
  8125ec:	d0a76117 	ldw	r2,-25212(gp)
  8125f0:	1000021e 	bne	r2,zero,8125fc <alt_tick+0x54>
    {
      alarm->rollover = 0;
  8125f4:	e0bffd17 	ldw	r2,-12(fp)
  8125f8:	10000405 	stb	zero,16(r2)
    }
    
    /* if the alarm period has expired, make the callback */    
    if ((alarm->time <= _alt_nticks) && (alarm->rollover == 0))
  8125fc:	e0bffd17 	ldw	r2,-12(fp)
  812600:	10800217 	ldw	r2,8(r2)
  812604:	d0e76117 	ldw	r3,-25212(gp)
  812608:	18801d36 	bltu	r3,r2,812680 <alt_tick+0xd8>
  81260c:	e0bffd17 	ldw	r2,-12(fp)
  812610:	10800403 	ldbu	r2,16(r2)
  812614:	10803fcc 	andi	r2,r2,255
  812618:	1000191e 	bne	r2,zero,812680 <alt_tick+0xd8>
    {
      next_callback = alarm->callback (alarm->context);
  81261c:	e0bffd17 	ldw	r2,-12(fp)
  812620:	10800317 	ldw	r2,12(r2)
  812624:	e0fffd17 	ldw	r3,-12(fp)
  812628:	18c00517 	ldw	r3,20(r3)
  81262c:	1809883a 	mov	r4,r3
  812630:	103ee83a 	callr	r2
  812634:	e0bfff15 	stw	r2,-4(fp)

      /* deactivate the alarm if the return value is zero */

      if (next_callback == 0)
  812638:	e0bfff17 	ldw	r2,-4(fp)
  81263c:	1000031e 	bne	r2,zero,81264c <alt_tick+0xa4>
      {
        alt_alarm_stop (alarm);
  812640:	e13ffd17 	ldw	r4,-12(fp)
  812644:	081250c0 	call	81250c <alt_alarm_stop>
  812648:	00000d06 	br	812680 <alt_tick+0xd8>
      }
      else
      {
        alarm->time += next_callback;
  81264c:	e0bffd17 	ldw	r2,-12(fp)
  812650:	10c00217 	ldw	r3,8(r2)
  812654:	e0bfff17 	ldw	r2,-4(fp)
  812658:	1887883a 	add	r3,r3,r2
  81265c:	e0bffd17 	ldw	r2,-12(fp)
  812660:	10c00215 	stw	r3,8(r2)
        /* 
         * If the desired alarm time causes a roll-over, set the rollover
         * flag. This will prevent the subsequent tick event from causing
         * an alarm too early.
         */
        if(alarm->time < _alt_nticks)
  812664:	e0bffd17 	ldw	r2,-12(fp)
  812668:	10c00217 	ldw	r3,8(r2)
  81266c:	d0a76117 	ldw	r2,-25212(gp)
  812670:	1880032e 	bgeu	r3,r2,812680 <alt_tick+0xd8>
        {
          alarm->rollover = 1;
  812674:	e0bffd17 	ldw	r2,-12(fp)
  812678:	00c00044 	movi	r3,1
  81267c:	10c00405 	stb	r3,16(r2)
        }
      }
    }
    alarm = next;
  812680:	e0bffe17 	ldw	r2,-8(fp)
  812684:	e0bffd15 	stw	r2,-12(fp)

  _alt_nticks++;

  /* process the registered callbacks */

  while (alarm != (alt_alarm*) &alt_alarm_list)
  812688:	e0fffd17 	ldw	r3,-12(fp)
  81268c:	d0a00e04 	addi	r2,gp,-32712
  812690:	18bfcf1e 	bne	r3,r2,8125d0 <__alt_mem_onchip_mem+0xff80a5d0>

  /* 
   * Update the operating system specific timer facilities.
   */

  ALT_OS_TIME_TICK();
  812694:	0001883a 	nop
}
  812698:	0001883a 	nop
  81269c:	e037883a 	mov	sp,fp
  8126a0:	dfc00117 	ldw	ra,4(sp)
  8126a4:	df000017 	ldw	fp,0(sp)
  8126a8:	dec00204 	addi	sp,sp,8
  8126ac:	f800283a 	ret

008126b0 <alt_get_errno>:
#undef errno

extern int errno;

static ALT_INLINE int* alt_get_errno(void)
{
  8126b0:	defffe04 	addi	sp,sp,-8
  8126b4:	dfc00115 	stw	ra,4(sp)
  8126b8:	df000015 	stw	fp,0(sp)
  8126bc:	d839883a 	mov	fp,sp
  return ((alt_errno) ? alt_errno() : &errno);
  8126c0:	d0a00b17 	ldw	r2,-32724(gp)
  8126c4:	10000326 	beq	r2,zero,8126d4 <alt_get_errno+0x24>
  8126c8:	d0a00b17 	ldw	r2,-32724(gp)
  8126cc:	103ee83a 	callr	r2
  8126d0:	00000106 	br	8126d8 <alt_get_errno+0x28>
  8126d4:	d0a75b04 	addi	r2,gp,-25236
}
  8126d8:	e037883a 	mov	sp,fp
  8126dc:	dfc00117 	ldw	ra,4(sp)
  8126e0:	df000017 	ldw	fp,0(sp)
  8126e4:	dec00204 	addi	sp,sp,8
  8126e8:	f800283a 	ret

008126ec <write>:
}

#else /* !ALT_USE_DIRECT_DRIVERS */

int ALT_WRITE (int file, const void *ptr, size_t len)
{
  8126ec:	defff904 	addi	sp,sp,-28
  8126f0:	dfc00615 	stw	ra,24(sp)
  8126f4:	df000515 	stw	fp,20(sp)
  8126f8:	df000504 	addi	fp,sp,20
  8126fc:	e13ffd15 	stw	r4,-12(fp)
  812700:	e17ffe15 	stw	r5,-8(fp)
  812704:	e1bfff15 	stw	r6,-4(fp)
   * A common error case is that when the file descriptor was created, the call
   * to open() failed resulting in a negative file descriptor. This is trapped
   * below so that we don't try and process an invalid file descriptor.
   */

  fd = (file < 0) ? NULL : &alt_fd_list[file];
  812708:	e0bffd17 	ldw	r2,-12(fp)
  81270c:	10000616 	blt	r2,zero,812728 <write+0x3c>
  812710:	e0bffd17 	ldw	r2,-12(fp)
  812714:	10c00324 	muli	r3,r2,12
  812718:	00802074 	movhi	r2,129
  81271c:	109a3e04 	addi	r2,r2,26872
  812720:	1885883a 	add	r2,r3,r2
  812724:	00000106 	br	81272c <write+0x40>
  812728:	0005883a 	mov	r2,zero
  81272c:	e0bffb15 	stw	r2,-20(fp)
  
  if (fd)
  812730:	e0bffb17 	ldw	r2,-20(fp)
  812734:	10002126 	beq	r2,zero,8127bc <write+0xd0>
     * If the file has not been opened with write access, or if the driver does
     * not provide an implementation of write(), generate an error. Otherwise
     * call the drivers write() function to process the request.
     */

    if (((fd->fd_flags & O_ACCMODE) != O_RDONLY) && fd->dev->write)
  812738:	e0bffb17 	ldw	r2,-20(fp)
  81273c:	10800217 	ldw	r2,8(r2)
  812740:	108000cc 	andi	r2,r2,3
  812744:	10001826 	beq	r2,zero,8127a8 <write+0xbc>
  812748:	e0bffb17 	ldw	r2,-20(fp)
  81274c:	10800017 	ldw	r2,0(r2)
  812750:	10800617 	ldw	r2,24(r2)
  812754:	10001426 	beq	r2,zero,8127a8 <write+0xbc>
    {
      
      /* ALT_LOG - see altera_hal/HAL/inc/sys/alt_log_printf.h */
      ALT_LOG_WRITE_FUNCTION(ptr,len);

      if ((rval = fd->dev->write(fd, ptr, len)) < 0)
  812758:	e0bffb17 	ldw	r2,-20(fp)
  81275c:	10800017 	ldw	r2,0(r2)
  812760:	10800617 	ldw	r2,24(r2)
  812764:	e0ffff17 	ldw	r3,-4(fp)
  812768:	180d883a 	mov	r6,r3
  81276c:	e17ffe17 	ldw	r5,-8(fp)
  812770:	e13ffb17 	ldw	r4,-20(fp)
  812774:	103ee83a 	callr	r2
  812778:	e0bffc15 	stw	r2,-16(fp)
  81277c:	e0bffc17 	ldw	r2,-16(fp)
  812780:	1000070e 	bge	r2,zero,8127a0 <write+0xb4>
      {
        ALT_ERRNO = -rval;
  812784:	08126b00 	call	8126b0 <alt_get_errno>
  812788:	1007883a 	mov	r3,r2
  81278c:	e0bffc17 	ldw	r2,-16(fp)
  812790:	0085c83a 	sub	r2,zero,r2
  812794:	18800015 	stw	r2,0(r3)
        return -1;
  812798:	00bfffc4 	movi	r2,-1
  81279c:	00000c06 	br	8127d0 <write+0xe4>
      }
      return rval;
  8127a0:	e0bffc17 	ldw	r2,-16(fp)
  8127a4:	00000a06 	br	8127d0 <write+0xe4>
    }
    else
    {
      ALT_ERRNO = EACCES;
  8127a8:	08126b00 	call	8126b0 <alt_get_errno>
  8127ac:	1007883a 	mov	r3,r2
  8127b0:	00800344 	movi	r2,13
  8127b4:	18800015 	stw	r2,0(r3)
  8127b8:	00000406 	br	8127cc <write+0xe0>
    }
  }
  else  
  {
    ALT_ERRNO = EBADFD;
  8127bc:	08126b00 	call	8126b0 <alt_get_errno>
  8127c0:	1007883a 	mov	r3,r2
  8127c4:	00801444 	movi	r2,81
  8127c8:	18800015 	stw	r2,0(r3)
  }
  return -1;
  8127cc:	00bfffc4 	movi	r2,-1
}
  8127d0:	e037883a 	mov	sp,fp
  8127d4:	dfc00117 	ldw	ra,4(sp)
  8127d8:	df000017 	ldw	fp,0(sp)
  8127dc:	dec00204 	addi	sp,sp,8
  8127e0:	f800283a 	ret

008127e4 <alt_dev_reg>:
 */

extern int alt_fs_reg  (alt_dev* dev); 

static ALT_INLINE int alt_dev_reg (alt_dev* dev)
{
  8127e4:	defffd04 	addi	sp,sp,-12
  8127e8:	dfc00215 	stw	ra,8(sp)
  8127ec:	df000115 	stw	fp,4(sp)
  8127f0:	df000104 	addi	fp,sp,4
  8127f4:	e13fff15 	stw	r4,-4(fp)
  extern alt_llist alt_dev_list;

  return alt_dev_llist_insert ((alt_dev_llist*) dev, &alt_dev_list);
  8127f8:	d1600804 	addi	r5,gp,-32736
  8127fc:	e13fff17 	ldw	r4,-4(fp)
  812800:	0814c7c0 	call	814c7c <alt_dev_llist_insert>
}
  812804:	e037883a 	mov	sp,fp
  812808:	dfc00117 	ldw	ra,4(sp)
  81280c:	df000017 	ldw	fp,0(sp)
  812810:	dec00204 	addi	sp,sp,8
  812814:	f800283a 	ret

00812818 <alt_irq_init>:
 * The "base" parameter is ignored and only
 * present for backwards-compatibility.
 */

void alt_irq_init ( const void* base )
{
  812818:	defffd04 	addi	sp,sp,-12
  81281c:	dfc00215 	stw	ra,8(sp)
  812820:	df000115 	stw	fp,4(sp)
  812824:	df000104 	addi	fp,sp,4
  812828:	e13fff15 	stw	r4,-4(fp)
    ALTERA_NIOS2_GEN2_IRQ_INIT ( CPU, cpu);
  81282c:	08152740 	call	815274 <altera_nios2_gen2_irq_init>
 * alt_irq_cpu_enable_interrupts() enables the CPU to start taking interrupts.
 */
static ALT_INLINE void ALT_ALWAYS_INLINE 
       alt_irq_cpu_enable_interrupts (void)
{
    NIOS2_WRITE_STATUS(NIOS2_STATUS_PIE_MSK
  812830:	00800044 	movi	r2,1
  812834:	1001703a 	wrctl	status,r2
    alt_irq_cpu_enable_interrupts();
}
  812838:	0001883a 	nop
  81283c:	e037883a 	mov	sp,fp
  812840:	dfc00117 	ldw	ra,4(sp)
  812844:	df000017 	ldw	fp,0(sp)
  812848:	dec00204 	addi	sp,sp,8
  81284c:	f800283a 	ret

00812850 <alt_sys_init>:
 * Initialize the non-interrupt controller devices.
 * Called after alt_irq_init().
 */

void alt_sys_init( void )
{
  812850:	defffe04 	addi	sp,sp,-8
  812854:	dfc00115 	stw	ra,4(sp)
  812858:	df000015 	stw	fp,0(sp)
  81285c:	d839883a 	mov	fp,sp
    ALTERA_AVALON_TIMER_INIT ( TIMER_0, timer_0);
  812860:	01c0fa04 	movi	r7,1000
  812864:	01800084 	movi	r6,2
  812868:	000b883a 	mov	r5,zero
  81286c:	01004074 	movhi	r4,257
  812870:	21040804 	addi	r4,r4,4128
  812874:	08142a40 	call	8142a4 <alt_avalon_timer_sc_init>
    ALTERA_AVALON_TIMER_INIT ( TIMER_1, timer_1);
    ALTERA_AVALON_JTAG_UART_INIT ( JTAG_UART, jtag_uart);
  812878:	01800044 	movi	r6,1
  81287c:	000b883a 	mov	r5,zero
  812880:	01002074 	movhi	r4,129
  812884:	211aa804 	addi	r4,r4,27296
  812888:	0812a4c0 	call	812a4c <altera_avalon_jtag_uart_init>
  81288c:	01002074 	movhi	r4,129
  812890:	211a9e04 	addi	r4,r4,27256
  812894:	08127e40 	call	8127e4 <alt_dev_reg>
    ALTERA_AVALON_LCD_16207_INIT ( LCD, lcd);
  812898:	01002074 	movhi	r4,129
  81289c:	211ec004 	addi	r4,r4,31488
  8128a0:	08140980 	call	814098 <altera_avalon_lcd_16207_init>
  8128a4:	01002074 	movhi	r4,129
  8128a8:	211eb604 	addi	r4,r4,31448
  8128ac:	08127e40 	call	8127e4 <alt_dev_reg>
    ALTERA_AVALON_UART_INIT ( UART, uart);
  8128b0:	000d883a 	mov	r6,zero
  8128b4:	000b883a 	mov	r5,zero
  8128b8:	01002074 	movhi	r4,129
  8128bc:	211f0804 	addi	r4,r4,31776
  8128c0:	08144300 	call	814430 <altera_avalon_uart_init>
  8128c4:	01002074 	movhi	r4,129
  8128c8:	211efe04 	addi	r4,r4,31736
  8128cc:	08127e40 	call	8127e4 <alt_dev_reg>
}
  8128d0:	0001883a 	nop
  8128d4:	e037883a 	mov	sp,fp
  8128d8:	dfc00117 	ldw	ra,4(sp)
  8128dc:	df000017 	ldw	fp,0(sp)
  8128e0:	dec00204 	addi	sp,sp,8
  8128e4:	f800283a 	ret

008128e8 <altera_avalon_jtag_uart_read_fd>:
 *
 */

int 
altera_avalon_jtag_uart_read_fd(alt_fd* fd, char* buffer, int space)
{
  8128e8:	defffa04 	addi	sp,sp,-24
  8128ec:	dfc00515 	stw	ra,20(sp)
  8128f0:	df000415 	stw	fp,16(sp)
  8128f4:	df000404 	addi	fp,sp,16
  8128f8:	e13ffd15 	stw	r4,-12(fp)
  8128fc:	e17ffe15 	stw	r5,-8(fp)
  812900:	e1bfff15 	stw	r6,-4(fp)
    altera_avalon_jtag_uart_dev* dev = (altera_avalon_jtag_uart_dev*) fd->dev; 
  812904:	e0bffd17 	ldw	r2,-12(fp)
  812908:	10800017 	ldw	r2,0(r2)
  81290c:	e0bffc15 	stw	r2,-16(fp)

    return altera_avalon_jtag_uart_read(&dev->state, buffer, space,
  812910:	e0bffc17 	ldw	r2,-16(fp)
  812914:	10c00a04 	addi	r3,r2,40
  812918:	e0bffd17 	ldw	r2,-12(fp)
  81291c:	10800217 	ldw	r2,8(r2)
  812920:	100f883a 	mov	r7,r2
  812924:	e1bfff17 	ldw	r6,-4(fp)
  812928:	e17ffe17 	ldw	r5,-8(fp)
  81292c:	1809883a 	mov	r4,r3
  812930:	0812f100 	call	812f10 <altera_avalon_jtag_uart_read>
      fd->fd_flags);
}
  812934:	e037883a 	mov	sp,fp
  812938:	dfc00117 	ldw	ra,4(sp)
  81293c:	df000017 	ldw	fp,0(sp)
  812940:	dec00204 	addi	sp,sp,8
  812944:	f800283a 	ret

00812948 <altera_avalon_jtag_uart_write_fd>:

int 
altera_avalon_jtag_uart_write_fd(alt_fd* fd, const char* buffer, int space)
{
  812948:	defffa04 	addi	sp,sp,-24
  81294c:	dfc00515 	stw	ra,20(sp)
  812950:	df000415 	stw	fp,16(sp)
  812954:	df000404 	addi	fp,sp,16
  812958:	e13ffd15 	stw	r4,-12(fp)
  81295c:	e17ffe15 	stw	r5,-8(fp)
  812960:	e1bfff15 	stw	r6,-4(fp)
    altera_avalon_jtag_uart_dev* dev = (altera_avalon_jtag_uart_dev*) fd->dev; 
  812964:	e0bffd17 	ldw	r2,-12(fp)
  812968:	10800017 	ldw	r2,0(r2)
  81296c:	e0bffc15 	stw	r2,-16(fp)

    return altera_avalon_jtag_uart_write(&dev->state, buffer, space,
  812970:	e0bffc17 	ldw	r2,-16(fp)
  812974:	10c00a04 	addi	r3,r2,40
  812978:	e0bffd17 	ldw	r2,-12(fp)
  81297c:	10800217 	ldw	r2,8(r2)
  812980:	100f883a 	mov	r7,r2
  812984:	e1bfff17 	ldw	r6,-4(fp)
  812988:	e17ffe17 	ldw	r5,-8(fp)
  81298c:	1809883a 	mov	r4,r3
  812990:	081312c0 	call	81312c <altera_avalon_jtag_uart_write>
      fd->fd_flags);
}
  812994:	e037883a 	mov	sp,fp
  812998:	dfc00117 	ldw	ra,4(sp)
  81299c:	df000017 	ldw	fp,0(sp)
  8129a0:	dec00204 	addi	sp,sp,8
  8129a4:	f800283a 	ret

008129a8 <altera_avalon_jtag_uart_close_fd>:

#ifndef ALTERA_AVALON_JTAG_UART_SMALL

int 
altera_avalon_jtag_uart_close_fd(alt_fd* fd)
{
  8129a8:	defffc04 	addi	sp,sp,-16
  8129ac:	dfc00315 	stw	ra,12(sp)
  8129b0:	df000215 	stw	fp,8(sp)
  8129b4:	df000204 	addi	fp,sp,8
  8129b8:	e13fff15 	stw	r4,-4(fp)
    altera_avalon_jtag_uart_dev* dev = (altera_avalon_jtag_uart_dev*) fd->dev; 
  8129bc:	e0bfff17 	ldw	r2,-4(fp)
  8129c0:	10800017 	ldw	r2,0(r2)
  8129c4:	e0bffe15 	stw	r2,-8(fp)

    return altera_avalon_jtag_uart_close(&dev->state, fd->fd_flags);
  8129c8:	e0bffe17 	ldw	r2,-8(fp)
  8129cc:	10c00a04 	addi	r3,r2,40
  8129d0:	e0bfff17 	ldw	r2,-4(fp)
  8129d4:	10800217 	ldw	r2,8(r2)
  8129d8:	100b883a 	mov	r5,r2
  8129dc:	1809883a 	mov	r4,r3
  8129e0:	0812db80 	call	812db8 <altera_avalon_jtag_uart_close>
}
  8129e4:	e037883a 	mov	sp,fp
  8129e8:	dfc00117 	ldw	ra,4(sp)
  8129ec:	df000017 	ldw	fp,0(sp)
  8129f0:	dec00204 	addi	sp,sp,8
  8129f4:	f800283a 	ret

008129f8 <altera_avalon_jtag_uart_ioctl_fd>:

int 
altera_avalon_jtag_uart_ioctl_fd(alt_fd* fd, int req, void* arg)
{
  8129f8:	defffa04 	addi	sp,sp,-24
  8129fc:	dfc00515 	stw	ra,20(sp)
  812a00:	df000415 	stw	fp,16(sp)
  812a04:	df000404 	addi	fp,sp,16
  812a08:	e13ffd15 	stw	r4,-12(fp)
  812a0c:	e17ffe15 	stw	r5,-8(fp)
  812a10:	e1bfff15 	stw	r6,-4(fp)
    altera_avalon_jtag_uart_dev* dev = (altera_avalon_jtag_uart_dev*) fd->dev;
  812a14:	e0bffd17 	ldw	r2,-12(fp)
  812a18:	10800017 	ldw	r2,0(r2)
  812a1c:	e0bffc15 	stw	r2,-16(fp)

    return altera_avalon_jtag_uart_ioctl(&dev->state, req, arg);
  812a20:	e0bffc17 	ldw	r2,-16(fp)
  812a24:	10800a04 	addi	r2,r2,40
  812a28:	e1bfff17 	ldw	r6,-4(fp)
  812a2c:	e17ffe17 	ldw	r5,-8(fp)
  812a30:	1009883a 	mov	r4,r2
  812a34:	0812e200 	call	812e20 <altera_avalon_jtag_uart_ioctl>
}
  812a38:	e037883a 	mov	sp,fp
  812a3c:	dfc00117 	ldw	ra,4(sp)
  812a40:	df000017 	ldw	fp,0(sp)
  812a44:	dec00204 	addi	sp,sp,8
  812a48:	f800283a 	ret

00812a4c <altera_avalon_jtag_uart_init>:
 * Return 1 on sucessful IRQ register and 0 on failure.
 */

void altera_avalon_jtag_uart_init(altera_avalon_jtag_uart_state* sp, 
                                  int irq_controller_id, int irq)
{
  812a4c:	defffa04 	addi	sp,sp,-24
  812a50:	dfc00515 	stw	ra,20(sp)
  812a54:	df000415 	stw	fp,16(sp)
  812a58:	df000404 	addi	fp,sp,16
  812a5c:	e13ffd15 	stw	r4,-12(fp)
  812a60:	e17ffe15 	stw	r5,-8(fp)
  812a64:	e1bfff15 	stw	r6,-4(fp)
  ALT_FLAG_CREATE(&sp->events, 0);
  ALT_SEM_CREATE(&sp->read_lock, 1);
  ALT_SEM_CREATE(&sp->write_lock, 1);

  /* enable read interrupts at the device */
  sp->irq_enable = ALTERA_AVALON_JTAG_UART_CONTROL_RE_MSK;
  812a68:	e0bffd17 	ldw	r2,-12(fp)
  812a6c:	00c00044 	movi	r3,1
  812a70:	10c00815 	stw	r3,32(r2)

  IOWR_ALTERA_AVALON_JTAG_UART_CONTROL(sp->base, sp->irq_enable); 
  812a74:	e0bffd17 	ldw	r2,-12(fp)
  812a78:	10800017 	ldw	r2,0(r2)
  812a7c:	10800104 	addi	r2,r2,4
  812a80:	1007883a 	mov	r3,r2
  812a84:	e0bffd17 	ldw	r2,-12(fp)
  812a88:	10800817 	ldw	r2,32(r2)
  812a8c:	18800035 	stwio	r2,0(r3)
  
  /* register the interrupt handler */
#ifdef ALT_ENHANCED_INTERRUPT_API_PRESENT
  alt_ic_isr_register(irq_controller_id, irq, altera_avalon_jtag_uart_irq, 
  812a90:	e0bffe17 	ldw	r2,-8(fp)
  812a94:	e0ffff17 	ldw	r3,-4(fp)
  812a98:	d8000015 	stw	zero,0(sp)
  812a9c:	e1fffd17 	ldw	r7,-12(fp)
  812aa0:	01802074 	movhi	r6,129
  812aa4:	318ac304 	addi	r6,r6,11020
  812aa8:	180b883a 	mov	r5,r3
  812aac:	1009883a 	mov	r4,r2
  812ab0:	0811c800 	call	811c80 <alt_ic_isr_register>
#else
  alt_irq_register(irq, sp, altera_avalon_jtag_uart_irq);
#endif  

  /* Register an alarm to go off every second to check for presence of host */
  sp->host_inactive = 0;
  812ab4:	e0bffd17 	ldw	r2,-12(fp)
  812ab8:	10000915 	stw	zero,36(r2)

  if (alt_alarm_start(&sp->alarm, alt_ticks_per_second(), 
  812abc:	e0bffd17 	ldw	r2,-12(fp)
  812ac0:	10800204 	addi	r2,r2,8
 * Obtain the system clock rate in ticks/s. 
 */

static ALT_INLINE alt_u32 ALT_ALWAYS_INLINE alt_ticks_per_second (void)
{
  return _alt_tick_rate;
  812ac4:	d0e76017 	ldw	r3,-25216(gp)
  812ac8:	e1fffd17 	ldw	r7,-12(fp)
  812acc:	01802074 	movhi	r6,129
  812ad0:	318b4604 	addi	r6,r6,11544
  812ad4:	180b883a 	mov	r5,r3
  812ad8:	1009883a 	mov	r4,r2
  812adc:	08119300 	call	811930 <alt_alarm_start>
  812ae0:	1000040e 	bge	r2,zero,812af4 <altera_avalon_jtag_uart_init+0xa8>
    &altera_avalon_jtag_uart_timeout, sp) < 0)
  {
    /* If we can't set the alarm then record "don't know if host present" 
     * and behave as though the host is present.
     */
    sp->timeout = INT_MAX;
  812ae4:	e0fffd17 	ldw	r3,-12(fp)
  812ae8:	00a00034 	movhi	r2,32768
  812aec:	10bfffc4 	addi	r2,r2,-1
  812af0:	18800115 	stw	r2,4(r3)
  }

  /* ALT_LOG - see altera_hal/HAL/inc/sys/alt_log_printf.h */ 
  ALT_LOG_JTAG_UART_ALARM_REGISTER(sp, sp->base);
}
  812af4:	0001883a 	nop
  812af8:	e037883a 	mov	sp,fp
  812afc:	dfc00117 	ldw	ra,4(sp)
  812b00:	df000017 	ldw	fp,0(sp)
  812b04:	dec00204 	addi	sp,sp,8
  812b08:	f800283a 	ret

00812b0c <altera_avalon_jtag_uart_irq>:
#ifdef ALT_ENHANCED_INTERRUPT_API_PRESENT
static void altera_avalon_jtag_uart_irq(void* context)
#else
static void altera_avalon_jtag_uart_irq(void* context, alt_u32 id)
#endif
{
  812b0c:	defff804 	addi	sp,sp,-32
  812b10:	df000715 	stw	fp,28(sp)
  812b14:	df000704 	addi	fp,sp,28
  812b18:	e13fff15 	stw	r4,-4(fp)
  altera_avalon_jtag_uart_state* sp = (altera_avalon_jtag_uart_state*) context;
  812b1c:	e0bfff17 	ldw	r2,-4(fp)
  812b20:	e0bffb15 	stw	r2,-20(fp)
  unsigned int base = sp->base;
  812b24:	e0bffb17 	ldw	r2,-20(fp)
  812b28:	10800017 	ldw	r2,0(r2)
  812b2c:	e0bffc15 	stw	r2,-16(fp)
  /* ALT_LOG - see altera_hal/HAL/inc/sys/alt_log_printf.h */ 
  ALT_LOG_JTAG_UART_ISR_FUNCTION(base, sp);

  for ( ; ; )
  {
    unsigned int control = IORD_ALTERA_AVALON_JTAG_UART_CONTROL(base);
  812b30:	e0bffc17 	ldw	r2,-16(fp)
  812b34:	10800104 	addi	r2,r2,4
  812b38:	10800037 	ldwio	r2,0(r2)
  812b3c:	e0bffd15 	stw	r2,-12(fp)

    /* Return once nothing more to do */
    if ((control & (ALTERA_AVALON_JTAG_UART_CONTROL_RI_MSK | ALTERA_AVALON_JTAG_UART_CONTROL_WI_MSK)) == 0)
  812b40:	e0bffd17 	ldw	r2,-12(fp)
  812b44:	1080c00c 	andi	r2,r2,768
  812b48:	10006d26 	beq	r2,zero,812d00 <altera_avalon_jtag_uart_irq+0x1f4>
      break;

    if (control & ALTERA_AVALON_JTAG_UART_CONTROL_RI_MSK)
  812b4c:	e0bffd17 	ldw	r2,-12(fp)
  812b50:	1080400c 	andi	r2,r2,256
  812b54:	10003526 	beq	r2,zero,812c2c <altera_avalon_jtag_uart_irq+0x120>
    {
      /* process a read irq.  Start by assuming that there is data in the
       * receive FIFO (otherwise why would we have been interrupted?)
       */
      unsigned int data = 1 << ALTERA_AVALON_JTAG_UART_DATA_RAVAIL_OFST;
  812b58:	00800074 	movhi	r2,1
  812b5c:	e0bff915 	stw	r2,-28(fp)
      for ( ; ; )
      {
        /* Check whether there is space in the buffer.  If not then we must not
         * read any characters from the buffer as they will be lost.
         */
        unsigned int next = (sp->rx_in + 1) % ALTERA_AVALON_JTAG_UART_BUF_LEN;
  812b60:	e0bffb17 	ldw	r2,-20(fp)
  812b64:	10800a17 	ldw	r2,40(r2)
  812b68:	10800044 	addi	r2,r2,1
  812b6c:	1081ffcc 	andi	r2,r2,2047
  812b70:	e0bffe15 	stw	r2,-8(fp)
        if (next == sp->rx_out)
  812b74:	e0bffb17 	ldw	r2,-20(fp)
  812b78:	10c00b17 	ldw	r3,44(r2)
  812b7c:	e0bffe17 	ldw	r2,-8(fp)
  812b80:	18801526 	beq	r3,r2,812bd8 <altera_avalon_jtag_uart_irq+0xcc>
          break;

        /* Try to remove a character from the FIFO and find out whether there
         * are any more characters remaining.
         */
        data = IORD_ALTERA_AVALON_JTAG_UART_DATA(base);
  812b84:	e0bffc17 	ldw	r2,-16(fp)
  812b88:	10800037 	ldwio	r2,0(r2)
  812b8c:	e0bff915 	stw	r2,-28(fp)
        
        if ((data & ALTERA_AVALON_JTAG_UART_DATA_RVALID_MSK) == 0)
  812b90:	e0bff917 	ldw	r2,-28(fp)
  812b94:	10a0000c 	andi	r2,r2,32768
  812b98:	10001126 	beq	r2,zero,812be0 <altera_avalon_jtag_uart_irq+0xd4>
          break;

        sp->rx_buf[sp->rx_in] = (data & ALTERA_AVALON_JTAG_UART_DATA_DATA_MSK) >> ALTERA_AVALON_JTAG_UART_DATA_DATA_OFST;
  812b9c:	e0bffb17 	ldw	r2,-20(fp)
  812ba0:	10800a17 	ldw	r2,40(r2)
  812ba4:	e0fff917 	ldw	r3,-28(fp)
  812ba8:	1809883a 	mov	r4,r3
  812bac:	e0fffb17 	ldw	r3,-20(fp)
  812bb0:	1885883a 	add	r2,r3,r2
  812bb4:	10800e04 	addi	r2,r2,56
  812bb8:	11000005 	stb	r4,0(r2)
        sp->rx_in = (sp->rx_in + 1) % ALTERA_AVALON_JTAG_UART_BUF_LEN;
  812bbc:	e0bffb17 	ldw	r2,-20(fp)
  812bc0:	10800a17 	ldw	r2,40(r2)
  812bc4:	10800044 	addi	r2,r2,1
  812bc8:	10c1ffcc 	andi	r3,r2,2047
  812bcc:	e0bffb17 	ldw	r2,-20(fp)
  812bd0:	10c00a15 	stw	r3,40(r2)

        /* Post an event to notify jtag_uart_read that a character has been read */
        ALT_FLAG_POST (sp->events, ALT_JTAG_UART_READ_RDY, OS_FLAG_SET);
      }
  812bd4:	003fe206 	br	812b60 <__alt_mem_onchip_mem+0xff80ab60>
        /* Check whether there is space in the buffer.  If not then we must not
         * read any characters from the buffer as they will be lost.
         */
        unsigned int next = (sp->rx_in + 1) % ALTERA_AVALON_JTAG_UART_BUF_LEN;
        if (next == sp->rx_out)
          break;
  812bd8:	0001883a 	nop
  812bdc:	00000106 	br	812be4 <altera_avalon_jtag_uart_irq+0xd8>
         * are any more characters remaining.
         */
        data = IORD_ALTERA_AVALON_JTAG_UART_DATA(base);
        
        if ((data & ALTERA_AVALON_JTAG_UART_DATA_RVALID_MSK) == 0)
          break;
  812be0:	0001883a 	nop

        /* Post an event to notify jtag_uart_read that a character has been read */
        ALT_FLAG_POST (sp->events, ALT_JTAG_UART_READ_RDY, OS_FLAG_SET);
      }

      if (data & ALTERA_AVALON_JTAG_UART_DATA_RAVAIL_MSK)
  812be4:	e0bff917 	ldw	r2,-28(fp)
  812be8:	10bfffec 	andhi	r2,r2,65535
  812bec:	10000f26 	beq	r2,zero,812c2c <altera_avalon_jtag_uart_irq+0x120>
      {
        /* If there is still data available here then the buffer is full 
         * so turn off receive interrupts until some space becomes available.
         */
        sp->irq_enable &= ~ALTERA_AVALON_JTAG_UART_CONTROL_RE_MSK;
  812bf0:	e0bffb17 	ldw	r2,-20(fp)
  812bf4:	10c00817 	ldw	r3,32(r2)
  812bf8:	00bfff84 	movi	r2,-2
  812bfc:	1886703a 	and	r3,r3,r2
  812c00:	e0bffb17 	ldw	r2,-20(fp)
  812c04:	10c00815 	stw	r3,32(r2)
        IOWR_ALTERA_AVALON_JTAG_UART_CONTROL(base, sp->irq_enable);
  812c08:	e0bffc17 	ldw	r2,-16(fp)
  812c0c:	10800104 	addi	r2,r2,4
  812c10:	1007883a 	mov	r3,r2
  812c14:	e0bffb17 	ldw	r2,-20(fp)
  812c18:	10800817 	ldw	r2,32(r2)
  812c1c:	18800035 	stwio	r2,0(r3)
        
        /* Dummy read to ensure IRQ is cleared prior to ISR completion */
        IORD_ALTERA_AVALON_JTAG_UART_CONTROL(base);
  812c20:	e0bffc17 	ldw	r2,-16(fp)
  812c24:	10800104 	addi	r2,r2,4
  812c28:	10800037 	ldwio	r2,0(r2)
      }
    }

    if (control & ALTERA_AVALON_JTAG_UART_CONTROL_WI_MSK)
  812c2c:	e0bffd17 	ldw	r2,-12(fp)
  812c30:	1080800c 	andi	r2,r2,512
  812c34:	103fbe26 	beq	r2,zero,812b30 <__alt_mem_onchip_mem+0xff80ab30>
    {
      /* process a write irq */
      unsigned int space = (control & ALTERA_AVALON_JTAG_UART_CONTROL_WSPACE_MSK) >> ALTERA_AVALON_JTAG_UART_CONTROL_WSPACE_OFST;
  812c38:	e0bffd17 	ldw	r2,-12(fp)
  812c3c:	1004d43a 	srli	r2,r2,16
  812c40:	e0bffa15 	stw	r2,-24(fp)

      while (space > 0 && sp->tx_out != sp->tx_in)
  812c44:	00001406 	br	812c98 <altera_avalon_jtag_uart_irq+0x18c>
      {
        IOWR_ALTERA_AVALON_JTAG_UART_DATA(base, sp->tx_buf[sp->tx_out]);
  812c48:	e0bffc17 	ldw	r2,-16(fp)
  812c4c:	e0fffb17 	ldw	r3,-20(fp)
  812c50:	18c00d17 	ldw	r3,52(r3)
  812c54:	e13ffb17 	ldw	r4,-20(fp)
  812c58:	20c7883a 	add	r3,r4,r3
  812c5c:	18c20e04 	addi	r3,r3,2104
  812c60:	18c00003 	ldbu	r3,0(r3)
  812c64:	18c03fcc 	andi	r3,r3,255
  812c68:	18c0201c 	xori	r3,r3,128
  812c6c:	18ffe004 	addi	r3,r3,-128
  812c70:	10c00035 	stwio	r3,0(r2)

        sp->tx_out = (sp->tx_out + 1) % ALTERA_AVALON_JTAG_UART_BUF_LEN;
  812c74:	e0bffb17 	ldw	r2,-20(fp)
  812c78:	10800d17 	ldw	r2,52(r2)
  812c7c:	10800044 	addi	r2,r2,1
  812c80:	10c1ffcc 	andi	r3,r2,2047
  812c84:	e0bffb17 	ldw	r2,-20(fp)
  812c88:	10c00d15 	stw	r3,52(r2)

        /* Post an event to notify jtag_uart_write that a character has been written */
        ALT_FLAG_POST (sp->events, ALT_JTAG_UART_WRITE_RDY, OS_FLAG_SET);

        space--;
  812c8c:	e0bffa17 	ldw	r2,-24(fp)
  812c90:	10bfffc4 	addi	r2,r2,-1
  812c94:	e0bffa15 	stw	r2,-24(fp)
    if (control & ALTERA_AVALON_JTAG_UART_CONTROL_WI_MSK)
    {
      /* process a write irq */
      unsigned int space = (control & ALTERA_AVALON_JTAG_UART_CONTROL_WSPACE_MSK) >> ALTERA_AVALON_JTAG_UART_CONTROL_WSPACE_OFST;

      while (space > 0 && sp->tx_out != sp->tx_in)
  812c98:	e0bffa17 	ldw	r2,-24(fp)
  812c9c:	10000526 	beq	r2,zero,812cb4 <altera_avalon_jtag_uart_irq+0x1a8>
  812ca0:	e0bffb17 	ldw	r2,-20(fp)
  812ca4:	10c00d17 	ldw	r3,52(r2)
  812ca8:	e0bffb17 	ldw	r2,-20(fp)
  812cac:	10800c17 	ldw	r2,48(r2)
  812cb0:	18bfe51e 	bne	r3,r2,812c48 <__alt_mem_onchip_mem+0xff80ac48>
        ALT_FLAG_POST (sp->events, ALT_JTAG_UART_WRITE_RDY, OS_FLAG_SET);

        space--;
      }

      if (space > 0)
  812cb4:	e0bffa17 	ldw	r2,-24(fp)
  812cb8:	103f9d26 	beq	r2,zero,812b30 <__alt_mem_onchip_mem+0xff80ab30>
      {
        /* If we don't have any more data available then turn off the TX interrupt */
        sp->irq_enable &= ~ALTERA_AVALON_JTAG_UART_CONTROL_WE_MSK;
  812cbc:	e0bffb17 	ldw	r2,-20(fp)
  812cc0:	10c00817 	ldw	r3,32(r2)
  812cc4:	00bfff44 	movi	r2,-3
  812cc8:	1886703a 	and	r3,r3,r2
  812ccc:	e0bffb17 	ldw	r2,-20(fp)
  812cd0:	10c00815 	stw	r3,32(r2)
        IOWR_ALTERA_AVALON_JTAG_UART_CONTROL(sp->base, sp->irq_enable);
  812cd4:	e0bffb17 	ldw	r2,-20(fp)
  812cd8:	10800017 	ldw	r2,0(r2)
  812cdc:	10800104 	addi	r2,r2,4
  812ce0:	1007883a 	mov	r3,r2
  812ce4:	e0bffb17 	ldw	r2,-20(fp)
  812ce8:	10800817 	ldw	r2,32(r2)
  812cec:	18800035 	stwio	r2,0(r3)
        
        /* Dummy read to ensure IRQ is cleared prior to ISR completion */
        IORD_ALTERA_AVALON_JTAG_UART_CONTROL(base);
  812cf0:	e0bffc17 	ldw	r2,-16(fp)
  812cf4:	10800104 	addi	r2,r2,4
  812cf8:	10800037 	ldwio	r2,0(r2)
      }
    }
  }
  812cfc:	003f8c06 	br	812b30 <__alt_mem_onchip_mem+0xff80ab30>
  {
    unsigned int control = IORD_ALTERA_AVALON_JTAG_UART_CONTROL(base);

    /* Return once nothing more to do */
    if ((control & (ALTERA_AVALON_JTAG_UART_CONTROL_RI_MSK | ALTERA_AVALON_JTAG_UART_CONTROL_WI_MSK)) == 0)
      break;
  812d00:	0001883a 	nop
        /* Dummy read to ensure IRQ is cleared prior to ISR completion */
        IORD_ALTERA_AVALON_JTAG_UART_CONTROL(base);
      }
    }
  }
}
  812d04:	0001883a 	nop
  812d08:	e037883a 	mov	sp,fp
  812d0c:	df000017 	ldw	fp,0(sp)
  812d10:	dec00104 	addi	sp,sp,4
  812d14:	f800283a 	ret

00812d18 <altera_avalon_jtag_uart_timeout>:
 * Timeout routine is called every second
 */

static alt_u32 
altera_avalon_jtag_uart_timeout(void* context) 
{
  812d18:	defff804 	addi	sp,sp,-32
  812d1c:	df000715 	stw	fp,28(sp)
  812d20:	df000704 	addi	fp,sp,28
  812d24:	e13ffb15 	stw	r4,-20(fp)
  altera_avalon_jtag_uart_state* sp = (altera_avalon_jtag_uart_state *) context;
  812d28:	e0bffb17 	ldw	r2,-20(fp)
  812d2c:	e0bff915 	stw	r2,-28(fp)

  unsigned int control = IORD_ALTERA_AVALON_JTAG_UART_CONTROL(sp->base);
  812d30:	e0bff917 	ldw	r2,-28(fp)
  812d34:	10800017 	ldw	r2,0(r2)
  812d38:	10800104 	addi	r2,r2,4
  812d3c:	10800037 	ldwio	r2,0(r2)
  812d40:	e0bffa15 	stw	r2,-24(fp)

  if (control & ALTERA_AVALON_JTAG_UART_CONTROL_AC_MSK)
  812d44:	e0bffa17 	ldw	r2,-24(fp)
  812d48:	1081000c 	andi	r2,r2,1024
  812d4c:	10000b26 	beq	r2,zero,812d7c <altera_avalon_jtag_uart_timeout+0x64>
  {
    IOWR_ALTERA_AVALON_JTAG_UART_CONTROL(sp->base, sp->irq_enable | ALTERA_AVALON_JTAG_UART_CONTROL_AC_MSK);
  812d50:	e0bff917 	ldw	r2,-28(fp)
  812d54:	10800017 	ldw	r2,0(r2)
  812d58:	10800104 	addi	r2,r2,4
  812d5c:	1007883a 	mov	r3,r2
  812d60:	e0bff917 	ldw	r2,-28(fp)
  812d64:	10800817 	ldw	r2,32(r2)
  812d68:	10810014 	ori	r2,r2,1024
  812d6c:	18800035 	stwio	r2,0(r3)
    sp->host_inactive = 0;
  812d70:	e0bff917 	ldw	r2,-28(fp)
  812d74:	10000915 	stw	zero,36(r2)
  812d78:	00000a06 	br	812da4 <altera_avalon_jtag_uart_timeout+0x8c>
  }
  else if (sp->host_inactive < INT_MAX - 2) {
  812d7c:	e0bff917 	ldw	r2,-28(fp)
  812d80:	10c00917 	ldw	r3,36(r2)
  812d84:	00a00034 	movhi	r2,32768
  812d88:	10bfff04 	addi	r2,r2,-4
  812d8c:	10c00536 	bltu	r2,r3,812da4 <altera_avalon_jtag_uart_timeout+0x8c>
    sp->host_inactive++;
  812d90:	e0bff917 	ldw	r2,-28(fp)
  812d94:	10800917 	ldw	r2,36(r2)
  812d98:	10c00044 	addi	r3,r2,1
  812d9c:	e0bff917 	ldw	r2,-28(fp)
  812da0:	10c00915 	stw	r3,36(r2)
  812da4:	d0a76017 	ldw	r2,-25216(gp)
      ALT_FLAG_POST (sp->events, ALT_JTAG_UART_TIMEOUT, OS_FLAG_SET);
    }
  }

  return alt_ticks_per_second();
}
  812da8:	e037883a 	mov	sp,fp
  812dac:	df000017 	ldw	fp,0(sp)
  812db0:	dec00104 	addi	sp,sp,4
  812db4:	f800283a 	ret

00812db8 <altera_avalon_jtag_uart_close>:
 * The close routine is not implemented for the small driver; instead it will
 * map to null. This is because the small driver simply waits while characters
 * are transmitted; there is no interrupt-serviced buffer to empty 
 */
int altera_avalon_jtag_uart_close(altera_avalon_jtag_uart_state* sp, int flags)
{
  812db8:	defffd04 	addi	sp,sp,-12
  812dbc:	df000215 	stw	fp,8(sp)
  812dc0:	df000204 	addi	fp,sp,8
  812dc4:	e13ffe15 	stw	r4,-8(fp)
  812dc8:	e17fff15 	stw	r5,-4(fp)
  /* 
   * Wait for all transmit data to be emptied by the JTAG UART ISR, or
   * for a host-inactivity timeout, in which case transmit data will be lost
   */
  while ( (sp->tx_out != sp->tx_in) && (sp->host_inactive < sp->timeout) ) {
  812dcc:	00000506 	br	812de4 <altera_avalon_jtag_uart_close+0x2c>
    if (flags & O_NONBLOCK) {
  812dd0:	e0bfff17 	ldw	r2,-4(fp)
  812dd4:	1090000c 	andi	r2,r2,16384
  812dd8:	10000226 	beq	r2,zero,812de4 <altera_avalon_jtag_uart_close+0x2c>
      return -EWOULDBLOCK; 
  812ddc:	00bffd44 	movi	r2,-11
  812de0:	00000b06 	br	812e10 <altera_avalon_jtag_uart_close+0x58>
{
  /* 
   * Wait for all transmit data to be emptied by the JTAG UART ISR, or
   * for a host-inactivity timeout, in which case transmit data will be lost
   */
  while ( (sp->tx_out != sp->tx_in) && (sp->host_inactive < sp->timeout) ) {
  812de4:	e0bffe17 	ldw	r2,-8(fp)
  812de8:	10c00d17 	ldw	r3,52(r2)
  812dec:	e0bffe17 	ldw	r2,-8(fp)
  812df0:	10800c17 	ldw	r2,48(r2)
  812df4:	18800526 	beq	r3,r2,812e0c <altera_avalon_jtag_uart_close+0x54>
  812df8:	e0bffe17 	ldw	r2,-8(fp)
  812dfc:	10c00917 	ldw	r3,36(r2)
  812e00:	e0bffe17 	ldw	r2,-8(fp)
  812e04:	10800117 	ldw	r2,4(r2)
  812e08:	18bff136 	bltu	r3,r2,812dd0 <__alt_mem_onchip_mem+0xff80add0>
    if (flags & O_NONBLOCK) {
      return -EWOULDBLOCK; 
    }
  }

  return 0;
  812e0c:	0005883a 	mov	r2,zero
}
  812e10:	e037883a 	mov	sp,fp
  812e14:	df000017 	ldw	fp,0(sp)
  812e18:	dec00104 	addi	sp,sp,4
  812e1c:	f800283a 	ret

00812e20 <altera_avalon_jtag_uart_ioctl>:
/* ----------------------------------------------------------- */

int 
altera_avalon_jtag_uart_ioctl(altera_avalon_jtag_uart_state* sp, int req,
  void* arg)
{
  812e20:	defffa04 	addi	sp,sp,-24
  812e24:	df000515 	stw	fp,20(sp)
  812e28:	df000504 	addi	fp,sp,20
  812e2c:	e13ffd15 	stw	r4,-12(fp)
  812e30:	e17ffe15 	stw	r5,-8(fp)
  812e34:	e1bfff15 	stw	r6,-4(fp)
  int rc = -ENOTTY;
  812e38:	00bff9c4 	movi	r2,-25
  812e3c:	e0bffb15 	stw	r2,-20(fp)

  switch (req)
  812e40:	e0bffe17 	ldw	r2,-8(fp)
  812e44:	10da8060 	cmpeqi	r3,r2,27137
  812e48:	1800031e 	bne	r3,zero,812e58 <altera_avalon_jtag_uart_ioctl+0x38>
  812e4c:	109a80a0 	cmpeqi	r2,r2,27138
  812e50:	1000181e 	bne	r2,zero,812eb4 <altera_avalon_jtag_uart_ioctl+0x94>
      rc = 0;
    }
    break;

  default:
    break;
  812e54:	00002906 	br	812efc <altera_avalon_jtag_uart_ioctl+0xdc>

  switch (req)
  {
  case TIOCSTIMEOUT:
    /* Set the time to wait until assuming host is not connected */
    if (sp->timeout != INT_MAX)
  812e58:	e0bffd17 	ldw	r2,-12(fp)
  812e5c:	10c00117 	ldw	r3,4(r2)
  812e60:	00a00034 	movhi	r2,32768
  812e64:	10bfffc4 	addi	r2,r2,-1
  812e68:	18802126 	beq	r3,r2,812ef0 <altera_avalon_jtag_uart_ioctl+0xd0>
    {
      int timeout = *((int *)arg);
  812e6c:	e0bfff17 	ldw	r2,-4(fp)
  812e70:	10800017 	ldw	r2,0(r2)
  812e74:	e0bffc15 	stw	r2,-16(fp)
      sp->timeout = (timeout >= 2 && timeout < INT_MAX) ? timeout : INT_MAX - 1;
  812e78:	e0bffc17 	ldw	r2,-16(fp)
  812e7c:	10800090 	cmplti	r2,r2,2
  812e80:	1000061e 	bne	r2,zero,812e9c <altera_avalon_jtag_uart_ioctl+0x7c>
  812e84:	e0fffc17 	ldw	r3,-16(fp)
  812e88:	00a00034 	movhi	r2,32768
  812e8c:	10bfffc4 	addi	r2,r2,-1
  812e90:	18800226 	beq	r3,r2,812e9c <altera_avalon_jtag_uart_ioctl+0x7c>
  812e94:	e0bffc17 	ldw	r2,-16(fp)
  812e98:	00000206 	br	812ea4 <altera_avalon_jtag_uart_ioctl+0x84>
  812e9c:	00a00034 	movhi	r2,32768
  812ea0:	10bfff84 	addi	r2,r2,-2
  812ea4:	e0fffd17 	ldw	r3,-12(fp)
  812ea8:	18800115 	stw	r2,4(r3)
      rc = 0;
  812eac:	e03ffb15 	stw	zero,-20(fp)
    }
    break;
  812eb0:	00000f06 	br	812ef0 <altera_avalon_jtag_uart_ioctl+0xd0>

  case TIOCGCONNECTED:
    /* Find out whether host is connected */
    if (sp->timeout != INT_MAX)
  812eb4:	e0bffd17 	ldw	r2,-12(fp)
  812eb8:	10c00117 	ldw	r3,4(r2)
  812ebc:	00a00034 	movhi	r2,32768
  812ec0:	10bfffc4 	addi	r2,r2,-1
  812ec4:	18800c26 	beq	r3,r2,812ef8 <altera_avalon_jtag_uart_ioctl+0xd8>
    {
      *((int *)arg) = (sp->host_inactive < sp->timeout) ? 1 : 0;
  812ec8:	e0bffd17 	ldw	r2,-12(fp)
  812ecc:	10c00917 	ldw	r3,36(r2)
  812ed0:	e0bffd17 	ldw	r2,-12(fp)
  812ed4:	10800117 	ldw	r2,4(r2)
  812ed8:	1885803a 	cmpltu	r2,r3,r2
  812edc:	10c03fcc 	andi	r3,r2,255
  812ee0:	e0bfff17 	ldw	r2,-4(fp)
  812ee4:	10c00015 	stw	r3,0(r2)
      rc = 0;
  812ee8:	e03ffb15 	stw	zero,-20(fp)
    }
    break;
  812eec:	00000206 	br	812ef8 <altera_avalon_jtag_uart_ioctl+0xd8>
    {
      int timeout = *((int *)arg);
      sp->timeout = (timeout >= 2 && timeout < INT_MAX) ? timeout : INT_MAX - 1;
      rc = 0;
    }
    break;
  812ef0:	0001883a 	nop
  812ef4:	00000106 	br	812efc <altera_avalon_jtag_uart_ioctl+0xdc>
    if (sp->timeout != INT_MAX)
    {
      *((int *)arg) = (sp->host_inactive < sp->timeout) ? 1 : 0;
      rc = 0;
    }
    break;
  812ef8:	0001883a 	nop

  default:
    break;
  }

  return rc;
  812efc:	e0bffb17 	ldw	r2,-20(fp)
}
  812f00:	e037883a 	mov	sp,fp
  812f04:	df000017 	ldw	fp,0(sp)
  812f08:	dec00104 	addi	sp,sp,4
  812f0c:	f800283a 	ret

00812f10 <altera_avalon_jtag_uart_read>:
/* ----------------------------------------------------------- */

int 
altera_avalon_jtag_uart_read(altera_avalon_jtag_uart_state* sp, 
  char * buffer, int space, int flags)
{
  812f10:	defff304 	addi	sp,sp,-52
  812f14:	dfc00c15 	stw	ra,48(sp)
  812f18:	df000b15 	stw	fp,44(sp)
  812f1c:	df000b04 	addi	fp,sp,44
  812f20:	e13ffc15 	stw	r4,-16(fp)
  812f24:	e17ffd15 	stw	r5,-12(fp)
  812f28:	e1bffe15 	stw	r6,-8(fp)
  812f2c:	e1ffff15 	stw	r7,-4(fp)
  char * ptr = buffer;
  812f30:	e0bffd17 	ldw	r2,-12(fp)
  812f34:	e0bff515 	stw	r2,-44(fp)
   * When running in a multi threaded environment, obtain the "read_lock"
   * semaphore. This ensures that reading from the device is thread-safe.
   */
  ALT_SEM_PEND (sp->read_lock, 0);

  while (space > 0)
  812f38:	00004706 	br	813058 <altera_avalon_jtag_uart_read+0x148>
    unsigned int in, out;

    /* Read as much data as possible */
    do
    {
      in  = sp->rx_in;
  812f3c:	e0bffc17 	ldw	r2,-16(fp)
  812f40:	10800a17 	ldw	r2,40(r2)
  812f44:	e0bff715 	stw	r2,-36(fp)
      out = sp->rx_out;
  812f48:	e0bffc17 	ldw	r2,-16(fp)
  812f4c:	10800b17 	ldw	r2,44(r2)
  812f50:	e0bff815 	stw	r2,-32(fp)

      if (in >= out)
  812f54:	e0fff717 	ldw	r3,-36(fp)
  812f58:	e0bff817 	ldw	r2,-32(fp)
  812f5c:	18800536 	bltu	r3,r2,812f74 <altera_avalon_jtag_uart_read+0x64>
        n = in - out;
  812f60:	e0fff717 	ldw	r3,-36(fp)
  812f64:	e0bff817 	ldw	r2,-32(fp)
  812f68:	1885c83a 	sub	r2,r3,r2
  812f6c:	e0bff615 	stw	r2,-40(fp)
  812f70:	00000406 	br	812f84 <altera_avalon_jtag_uart_read+0x74>
      else
        n = ALTERA_AVALON_JTAG_UART_BUF_LEN - out;
  812f74:	00c20004 	movi	r3,2048
  812f78:	e0bff817 	ldw	r2,-32(fp)
  812f7c:	1885c83a 	sub	r2,r3,r2
  812f80:	e0bff615 	stw	r2,-40(fp)

      if (n == 0)
  812f84:	e0bff617 	ldw	r2,-40(fp)
  812f88:	10001e26 	beq	r2,zero,813004 <altera_avalon_jtag_uart_read+0xf4>
        break; /* No more data available */

      if (n > space)
  812f8c:	e0fffe17 	ldw	r3,-8(fp)
  812f90:	e0bff617 	ldw	r2,-40(fp)
  812f94:	1880022e 	bgeu	r3,r2,812fa0 <altera_avalon_jtag_uart_read+0x90>
        n = space;
  812f98:	e0bffe17 	ldw	r2,-8(fp)
  812f9c:	e0bff615 	stw	r2,-40(fp)

      memcpy(ptr, sp->rx_buf + out, n);
  812fa0:	e0bffc17 	ldw	r2,-16(fp)
  812fa4:	10c00e04 	addi	r3,r2,56
  812fa8:	e0bff817 	ldw	r2,-32(fp)
  812fac:	1885883a 	add	r2,r3,r2
  812fb0:	e1bff617 	ldw	r6,-40(fp)
  812fb4:	100b883a 	mov	r5,r2
  812fb8:	e13ff517 	ldw	r4,-44(fp)
  812fbc:	080c2000 	call	80c200 <memcpy>
      ptr   += n;
  812fc0:	e0fff517 	ldw	r3,-44(fp)
  812fc4:	e0bff617 	ldw	r2,-40(fp)
  812fc8:	1885883a 	add	r2,r3,r2
  812fcc:	e0bff515 	stw	r2,-44(fp)
      space -= n;
  812fd0:	e0fffe17 	ldw	r3,-8(fp)
  812fd4:	e0bff617 	ldw	r2,-40(fp)
  812fd8:	1885c83a 	sub	r2,r3,r2
  812fdc:	e0bffe15 	stw	r2,-8(fp)

      sp->rx_out = (out + n) % ALTERA_AVALON_JTAG_UART_BUF_LEN;
  812fe0:	e0fff817 	ldw	r3,-32(fp)
  812fe4:	e0bff617 	ldw	r2,-40(fp)
  812fe8:	1885883a 	add	r2,r3,r2
  812fec:	10c1ffcc 	andi	r3,r2,2047
  812ff0:	e0bffc17 	ldw	r2,-16(fp)
  812ff4:	10c00b15 	stw	r3,44(r2)
    }
    while (space > 0);
  812ff8:	e0bffe17 	ldw	r2,-8(fp)
  812ffc:	00bfcf16 	blt	zero,r2,812f3c <__alt_mem_onchip_mem+0xff80af3c>
  813000:	00000106 	br	813008 <altera_avalon_jtag_uart_read+0xf8>
        n = in - out;
      else
        n = ALTERA_AVALON_JTAG_UART_BUF_LEN - out;

      if (n == 0)
        break; /* No more data available */
  813004:	0001883a 	nop
      sp->rx_out = (out + n) % ALTERA_AVALON_JTAG_UART_BUF_LEN;
    }
    while (space > 0);

    /* If we read any data then return it */
    if (ptr != buffer)
  813008:	e0fff517 	ldw	r3,-44(fp)
  81300c:	e0bffd17 	ldw	r2,-12(fp)
  813010:	1880141e 	bne	r3,r2,813064 <altera_avalon_jtag_uart_read+0x154>
      break;

    /* If in non-blocking mode then return error */
    if (flags & O_NONBLOCK)
  813014:	e0bfff17 	ldw	r2,-4(fp)
  813018:	1090000c 	andi	r2,r2,16384
  81301c:	1000131e 	bne	r2,zero,81306c <altera_avalon_jtag_uart_read+0x15c>
      while (in == sp->rx_in && sp->host_inactive < sp->timeout)
        ;
    }
#else
    /* No OS: Always spin */
    while (in == sp->rx_in && sp->host_inactive < sp->timeout)
  813020:	0001883a 	nop
  813024:	e0bffc17 	ldw	r2,-16(fp)
  813028:	10c00a17 	ldw	r3,40(r2)
  81302c:	e0bff717 	ldw	r2,-36(fp)
  813030:	1880051e 	bne	r3,r2,813048 <altera_avalon_jtag_uart_read+0x138>
  813034:	e0bffc17 	ldw	r2,-16(fp)
  813038:	10c00917 	ldw	r3,36(r2)
  81303c:	e0bffc17 	ldw	r2,-16(fp)
  813040:	10800117 	ldw	r2,4(r2)
  813044:	18bff736 	bltu	r3,r2,813024 <__alt_mem_onchip_mem+0xff80b024>
      ;
#endif /* __ucosii__ */

    if (in == sp->rx_in)
  813048:	e0bffc17 	ldw	r2,-16(fp)
  81304c:	10c00a17 	ldw	r3,40(r2)
  813050:	e0bff717 	ldw	r2,-36(fp)
  813054:	18800726 	beq	r3,r2,813074 <altera_avalon_jtag_uart_read+0x164>
   * When running in a multi threaded environment, obtain the "read_lock"
   * semaphore. This ensures that reading from the device is thread-safe.
   */
  ALT_SEM_PEND (sp->read_lock, 0);

  while (space > 0)
  813058:	e0bffe17 	ldw	r2,-8(fp)
  81305c:	00bfb716 	blt	zero,r2,812f3c <__alt_mem_onchip_mem+0xff80af3c>
  813060:	00000506 	br	813078 <altera_avalon_jtag_uart_read+0x168>
    }
    while (space > 0);

    /* If we read any data then return it */
    if (ptr != buffer)
      break;
  813064:	0001883a 	nop
  813068:	00000306 	br	813078 <altera_avalon_jtag_uart_read+0x168>

    /* If in non-blocking mode then return error */
    if (flags & O_NONBLOCK)
      break;
  81306c:	0001883a 	nop
  813070:	00000106 	br	813078 <altera_avalon_jtag_uart_read+0x168>
    while (in == sp->rx_in && sp->host_inactive < sp->timeout)
      ;
#endif /* __ucosii__ */

    if (in == sp->rx_in)
      break;
  813074:	0001883a 	nop
   * semaphore so that other threads can access the buffer.
   */

  ALT_SEM_POST (sp->read_lock);

  if (ptr != buffer)
  813078:	e0fff517 	ldw	r3,-44(fp)
  81307c:	e0bffd17 	ldw	r2,-12(fp)
  813080:	18801826 	beq	r3,r2,8130e4 <altera_avalon_jtag_uart_read+0x1d4>
static ALT_INLINE alt_irq_context ALT_ALWAYS_INLINE 
       alt_irq_disable_all (void)
{
  alt_irq_context context;

  NIOS2_READ_STATUS (context);
  813084:	0005303a 	rdctl	r2,status
  813088:	e0bffb15 	stw	r2,-20(fp)

  NIOS2_WRITE_STATUS (context & ~NIOS2_STATUS_PIE_MSK);
  81308c:	e0fffb17 	ldw	r3,-20(fp)
  813090:	00bfff84 	movi	r2,-2
  813094:	1884703a 	and	r2,r3,r2
  813098:	1001703a 	wrctl	status,r2
  
  return context;
  81309c:	e0bffb17 	ldw	r2,-20(fp)
  {
    /* If we read any data then there is space in the buffer so enable interrupts */
    context = alt_irq_disable_all();
  8130a0:	e0bffa15 	stw	r2,-24(fp)
    sp->irq_enable |= ALTERA_AVALON_JTAG_UART_CONTROL_RE_MSK;
  8130a4:	e0bffc17 	ldw	r2,-16(fp)
  8130a8:	10800817 	ldw	r2,32(r2)
  8130ac:	10c00054 	ori	r3,r2,1
  8130b0:	e0bffc17 	ldw	r2,-16(fp)
  8130b4:	10c00815 	stw	r3,32(r2)
    IOWR_ALTERA_AVALON_JTAG_UART_CONTROL(sp->base, sp->irq_enable);
  8130b8:	e0bffc17 	ldw	r2,-16(fp)
  8130bc:	10800017 	ldw	r2,0(r2)
  8130c0:	10800104 	addi	r2,r2,4
  8130c4:	1007883a 	mov	r3,r2
  8130c8:	e0bffc17 	ldw	r2,-16(fp)
  8130cc:	10800817 	ldw	r2,32(r2)
  8130d0:	18800035 	stwio	r2,0(r3)
  8130d4:	e0bffa17 	ldw	r2,-24(fp)
  8130d8:	e0bff915 	stw	r2,-28(fp)
  status &= ~NIOS2_STATUS_PIE_MSK;
  status |= (context & NIOS2_STATUS_PIE_MSK);
  
  NIOS2_WRITE_STATUS (status);
#else
  NIOS2_WRITE_STATUS (context);
  8130dc:	e0bff917 	ldw	r2,-28(fp)
  8130e0:	1001703a 	wrctl	status,r2
    alt_irq_enable_all(context);
  }

  if (ptr != buffer)
  8130e4:	e0fff517 	ldw	r3,-44(fp)
  8130e8:	e0bffd17 	ldw	r2,-12(fp)
  8130ec:	18800426 	beq	r3,r2,813100 <altera_avalon_jtag_uart_read+0x1f0>
    return ptr - buffer;
  8130f0:	e0fff517 	ldw	r3,-44(fp)
  8130f4:	e0bffd17 	ldw	r2,-12(fp)
  8130f8:	1885c83a 	sub	r2,r3,r2
  8130fc:	00000606 	br	813118 <altera_avalon_jtag_uart_read+0x208>
  else if (flags & O_NONBLOCK)
  813100:	e0bfff17 	ldw	r2,-4(fp)
  813104:	1090000c 	andi	r2,r2,16384
  813108:	10000226 	beq	r2,zero,813114 <altera_avalon_jtag_uart_read+0x204>
    return -EWOULDBLOCK;
  81310c:	00bffd44 	movi	r2,-11
  813110:	00000106 	br	813118 <altera_avalon_jtag_uart_read+0x208>
  else
    return -EIO;
  813114:	00bffec4 	movi	r2,-5
}
  813118:	e037883a 	mov	sp,fp
  81311c:	dfc00117 	ldw	ra,4(sp)
  813120:	df000017 	ldw	fp,0(sp)
  813124:	dec00204 	addi	sp,sp,8
  813128:	f800283a 	ret

0081312c <altera_avalon_jtag_uart_write>:
/* ----------------------------------------------------------- */

int 
altera_avalon_jtag_uart_write(altera_avalon_jtag_uart_state* sp, 
  const char * ptr, int count, int flags)
{
  81312c:	defff304 	addi	sp,sp,-52
  813130:	dfc00c15 	stw	ra,48(sp)
  813134:	df000b15 	stw	fp,44(sp)
  813138:	df000b04 	addi	fp,sp,44
  81313c:	e13ffc15 	stw	r4,-16(fp)
  813140:	e17ffd15 	stw	r5,-12(fp)
  813144:	e1bffe15 	stw	r6,-8(fp)
  813148:	e1ffff15 	stw	r7,-4(fp)
  /* Remove warning at optimisation level 03 by seting out to 0 */
  unsigned int in, out=0;
  81314c:	e03ff515 	stw	zero,-44(fp)
  unsigned int n;
  alt_irq_context context;

  const char * start = ptr;
  813150:	e0bffd17 	ldw	r2,-12(fp)
  813154:	e0bff715 	stw	r2,-36(fp)
  ALT_SEM_PEND (sp->write_lock, 0);

  do
  {
    /* Copy as much as we can into the transmit buffer */
    while (count > 0)
  813158:	00003706 	br	813238 <altera_avalon_jtag_uart_write+0x10c>
    {
      /* We need a stable value of the out pointer to calculate the space available */
      in  = sp->tx_in;
  81315c:	e0bffc17 	ldw	r2,-16(fp)
  813160:	10800c17 	ldw	r2,48(r2)
  813164:	e0bff915 	stw	r2,-28(fp)
      out = sp->tx_out;
  813168:	e0bffc17 	ldw	r2,-16(fp)
  81316c:	10800d17 	ldw	r2,52(r2)
  813170:	e0bff515 	stw	r2,-44(fp)

      if (in < out)
  813174:	e0fff917 	ldw	r3,-28(fp)
  813178:	e0bff517 	ldw	r2,-44(fp)
  81317c:	1880062e 	bgeu	r3,r2,813198 <altera_avalon_jtag_uart_write+0x6c>
        n = out - 1 - in;
  813180:	e0fff517 	ldw	r3,-44(fp)
  813184:	e0bff917 	ldw	r2,-28(fp)
  813188:	1885c83a 	sub	r2,r3,r2
  81318c:	10bfffc4 	addi	r2,r2,-1
  813190:	e0bff615 	stw	r2,-40(fp)
  813194:	00000b06 	br	8131c4 <altera_avalon_jtag_uart_write+0x98>
      else if (out > 0)
  813198:	e0bff517 	ldw	r2,-44(fp)
  81319c:	10000526 	beq	r2,zero,8131b4 <altera_avalon_jtag_uart_write+0x88>
        n = ALTERA_AVALON_JTAG_UART_BUF_LEN - in;
  8131a0:	00c20004 	movi	r3,2048
  8131a4:	e0bff917 	ldw	r2,-28(fp)
  8131a8:	1885c83a 	sub	r2,r3,r2
  8131ac:	e0bff615 	stw	r2,-40(fp)
  8131b0:	00000406 	br	8131c4 <altera_avalon_jtag_uart_write+0x98>
      else
        n = ALTERA_AVALON_JTAG_UART_BUF_LEN - 1 - in;
  8131b4:	00c1ffc4 	movi	r3,2047
  8131b8:	e0bff917 	ldw	r2,-28(fp)
  8131bc:	1885c83a 	sub	r2,r3,r2
  8131c0:	e0bff615 	stw	r2,-40(fp)

      if (n == 0)
  8131c4:	e0bff617 	ldw	r2,-40(fp)
  8131c8:	10001e26 	beq	r2,zero,813244 <altera_avalon_jtag_uart_write+0x118>
        break;

      if (n > count)
  8131cc:	e0fffe17 	ldw	r3,-8(fp)
  8131d0:	e0bff617 	ldw	r2,-40(fp)
  8131d4:	1880022e 	bgeu	r3,r2,8131e0 <altera_avalon_jtag_uart_write+0xb4>
        n = count;
  8131d8:	e0bffe17 	ldw	r2,-8(fp)
  8131dc:	e0bff615 	stw	r2,-40(fp)

      memcpy(sp->tx_buf + in, ptr, n);
  8131e0:	e0bffc17 	ldw	r2,-16(fp)
  8131e4:	10c20e04 	addi	r3,r2,2104
  8131e8:	e0bff917 	ldw	r2,-28(fp)
  8131ec:	1885883a 	add	r2,r3,r2
  8131f0:	e1bff617 	ldw	r6,-40(fp)
  8131f4:	e17ffd17 	ldw	r5,-12(fp)
  8131f8:	1009883a 	mov	r4,r2
  8131fc:	080c2000 	call	80c200 <memcpy>
      ptr   += n;
  813200:	e0fffd17 	ldw	r3,-12(fp)
  813204:	e0bff617 	ldw	r2,-40(fp)
  813208:	1885883a 	add	r2,r3,r2
  81320c:	e0bffd15 	stw	r2,-12(fp)
      count -= n;
  813210:	e0fffe17 	ldw	r3,-8(fp)
  813214:	e0bff617 	ldw	r2,-40(fp)
  813218:	1885c83a 	sub	r2,r3,r2
  81321c:	e0bffe15 	stw	r2,-8(fp)

      sp->tx_in = (in + n) % ALTERA_AVALON_JTAG_UART_BUF_LEN;
  813220:	e0fff917 	ldw	r3,-28(fp)
  813224:	e0bff617 	ldw	r2,-40(fp)
  813228:	1885883a 	add	r2,r3,r2
  81322c:	10c1ffcc 	andi	r3,r2,2047
  813230:	e0bffc17 	ldw	r2,-16(fp)
  813234:	10c00c15 	stw	r3,48(r2)
  ALT_SEM_PEND (sp->write_lock, 0);

  do
  {
    /* Copy as much as we can into the transmit buffer */
    while (count > 0)
  813238:	e0bffe17 	ldw	r2,-8(fp)
  81323c:	00bfc716 	blt	zero,r2,81315c <__alt_mem_onchip_mem+0xff80b15c>
  813240:	00000106 	br	813248 <altera_avalon_jtag_uart_write+0x11c>
        n = ALTERA_AVALON_JTAG_UART_BUF_LEN - in;
      else
        n = ALTERA_AVALON_JTAG_UART_BUF_LEN - 1 - in;

      if (n == 0)
        break;
  813244:	0001883a 	nop
static ALT_INLINE alt_irq_context ALT_ALWAYS_INLINE 
       alt_irq_disable_all (void)
{
  alt_irq_context context;

  NIOS2_READ_STATUS (context);
  813248:	0005303a 	rdctl	r2,status
  81324c:	e0bffb15 	stw	r2,-20(fp)

  NIOS2_WRITE_STATUS (context & ~NIOS2_STATUS_PIE_MSK);
  813250:	e0fffb17 	ldw	r3,-20(fp)
  813254:	00bfff84 	movi	r2,-2
  813258:	1884703a 	and	r2,r3,r2
  81325c:	1001703a 	wrctl	status,r2
  
  return context;
  813260:	e0bffb17 	ldw	r2,-20(fp)
     * to enable interrupts if there is no space left in the FIFO
     *
     * For now kick the interrupt routine every time to make it transmit 
     * the data 
     */
    context = alt_irq_disable_all();
  813264:	e0bffa15 	stw	r2,-24(fp)
    sp->irq_enable |= ALTERA_AVALON_JTAG_UART_CONTROL_WE_MSK;
  813268:	e0bffc17 	ldw	r2,-16(fp)
  81326c:	10800817 	ldw	r2,32(r2)
  813270:	10c00094 	ori	r3,r2,2
  813274:	e0bffc17 	ldw	r2,-16(fp)
  813278:	10c00815 	stw	r3,32(r2)
    IOWR_ALTERA_AVALON_JTAG_UART_CONTROL(sp->base, sp->irq_enable);
  81327c:	e0bffc17 	ldw	r2,-16(fp)
  813280:	10800017 	ldw	r2,0(r2)
  813284:	10800104 	addi	r2,r2,4
  813288:	1007883a 	mov	r3,r2
  81328c:	e0bffc17 	ldw	r2,-16(fp)
  813290:	10800817 	ldw	r2,32(r2)
  813294:	18800035 	stwio	r2,0(r3)
  813298:	e0bffa17 	ldw	r2,-24(fp)
  81329c:	e0bff815 	stw	r2,-32(fp)
  status &= ~NIOS2_STATUS_PIE_MSK;
  status |= (context & NIOS2_STATUS_PIE_MSK);
  
  NIOS2_WRITE_STATUS (status);
#else
  NIOS2_WRITE_STATUS (context);
  8132a0:	e0bff817 	ldw	r2,-32(fp)
  8132a4:	1001703a 	wrctl	status,r2
    /* 
     * If there is any data left then either return now or block until 
     * some has been sent 
     */
    /* consider: test whether there is anything there while doing this and delay for at most 2s. */
    if (count > 0)
  8132a8:	e0bffe17 	ldw	r2,-8(fp)
  8132ac:	0080100e 	bge	zero,r2,8132f0 <altera_avalon_jtag_uart_write+0x1c4>
    {
      if (flags & O_NONBLOCK)
  8132b0:	e0bfff17 	ldw	r2,-4(fp)
  8132b4:	1090000c 	andi	r2,r2,16384
  8132b8:	1000101e 	bne	r2,zero,8132fc <altera_avalon_jtag_uart_write+0x1d0>
      /*
       * No OS present: Always wait for data to be removed from buffer.  Once
       * the interrupt routine has removed some data then we will be able to
       * insert some more.
       */
      while (out == sp->tx_out && sp->host_inactive < sp->timeout)
  8132bc:	0001883a 	nop
  8132c0:	e0bffc17 	ldw	r2,-16(fp)
  8132c4:	10c00d17 	ldw	r3,52(r2)
  8132c8:	e0bff517 	ldw	r2,-44(fp)
  8132cc:	1880051e 	bne	r3,r2,8132e4 <altera_avalon_jtag_uart_write+0x1b8>
  8132d0:	e0bffc17 	ldw	r2,-16(fp)
  8132d4:	10c00917 	ldw	r3,36(r2)
  8132d8:	e0bffc17 	ldw	r2,-16(fp)
  8132dc:	10800117 	ldw	r2,4(r2)
  8132e0:	18bff736 	bltu	r3,r2,8132c0 <__alt_mem_onchip_mem+0xff80b2c0>
        ;
#endif /* __ucosii__ */

      if  (sp->host_inactive)
  8132e4:	e0bffc17 	ldw	r2,-16(fp)
  8132e8:	10800917 	ldw	r2,36(r2)
  8132ec:	1000051e 	bne	r2,zero,813304 <altera_avalon_jtag_uart_write+0x1d8>
         break;
    }
  }
  while (count > 0);
  8132f0:	e0bffe17 	ldw	r2,-8(fp)
  8132f4:	00bfd016 	blt	zero,r2,813238 <__alt_mem_onchip_mem+0xff80b238>
  8132f8:	00000306 	br	813308 <altera_avalon_jtag_uart_write+0x1dc>
     */
    /* consider: test whether there is anything there while doing this and delay for at most 2s. */
    if (count > 0)
    {
      if (flags & O_NONBLOCK)
        break;
  8132fc:	0001883a 	nop
  813300:	00000106 	br	813308 <altera_avalon_jtag_uart_write+0x1dc>
      while (out == sp->tx_out && sp->host_inactive < sp->timeout)
        ;
#endif /* __ucosii__ */

      if  (sp->host_inactive)
         break;
  813304:	0001883a 	nop
   * Now that access to the circular buffer is complete, release the write
   * semaphore so that other threads can access the buffer.
   */
  ALT_SEM_POST (sp->write_lock);

  if (ptr != start)
  813308:	e0fffd17 	ldw	r3,-12(fp)
  81330c:	e0bff717 	ldw	r2,-36(fp)
  813310:	18800426 	beq	r3,r2,813324 <altera_avalon_jtag_uart_write+0x1f8>
    return ptr - start;
  813314:	e0fffd17 	ldw	r3,-12(fp)
  813318:	e0bff717 	ldw	r2,-36(fp)
  81331c:	1885c83a 	sub	r2,r3,r2
  813320:	00000606 	br	81333c <altera_avalon_jtag_uart_write+0x210>
  else if (flags & O_NONBLOCK)
  813324:	e0bfff17 	ldw	r2,-4(fp)
  813328:	1090000c 	andi	r2,r2,16384
  81332c:	10000226 	beq	r2,zero,813338 <altera_avalon_jtag_uart_write+0x20c>
    return -EWOULDBLOCK;
  813330:	00bffd44 	movi	r2,-11
  813334:	00000106 	br	81333c <altera_avalon_jtag_uart_write+0x210>
    sp->tx_out = sp->tx_in = 0;
    return ptr - start + count;
  }
#endif
  else
    return -EIO; /* Host not connected */
  813338:	00bffec4 	movi	r2,-5
}
  81333c:	e037883a 	mov	sp,fp
  813340:	dfc00117 	ldw	ra,4(sp)
  813344:	df000017 	ldw	fp,0(sp)
  813348:	dec00204 	addi	sp,sp,8
  81334c:	f800283a 	ret

00813350 <lcd_write_command>:

/* --------------------------------------------------------------------- */

static void lcd_write_command(altera_avalon_lcd_16207_state* sp, 
  unsigned char command)
{
  813350:	defffa04 	addi	sp,sp,-24
  813354:	dfc00515 	stw	ra,20(sp)
  813358:	df000415 	stw	fp,16(sp)
  81335c:	df000404 	addi	fp,sp,16
  813360:	e13ffe15 	stw	r4,-8(fp)
  813364:	2805883a 	mov	r2,r5
  813368:	e0bfff05 	stb	r2,-4(fp)
  unsigned int base = sp->base;
  81336c:	e0bffe17 	ldw	r2,-8(fp)
  813370:	10800017 	ldw	r2,0(r2)
  813374:	e0bffd15 	stw	r2,-12(fp)
  /* We impose a timeout on the driver in case the LCD panel isn't connected.
   * The first time we call this function the timeout is approx 25ms 
   * (assuming 5 cycles per loop and a 200MHz clock).  Obviously systems
   * with slower clocks, or debug builds, or slower memory will take longer.
   */
  int i = 1000000;
  813378:	008003f4 	movhi	r2,15
  81337c:	10909004 	addi	r2,r2,16960
  813380:	e0bffc15 	stw	r2,-16(fp)

  /* Don't bother if the LCD panel didn't work before */
  if (sp->broken)
  813384:	e0bffe17 	ldw	r2,-8(fp)
  813388:	10800803 	ldbu	r2,32(r2)
  81338c:	10803fcc 	andi	r2,r2,255
  813390:	1080201c 	xori	r2,r2,128
  813394:	10bfe004 	addi	r2,r2,-128
  813398:	1000151e 	bne	r2,zero,8133f0 <lcd_write_command+0xa0>
    return;

  /* Wait until LCD isn't busy. */
  while (IORD_ALTERA_AVALON_LCD_16207_STATUS(base) & ALTERA_AVALON_LCD_16207_STATUS_BUSY_MSK)
  81339c:	00000906 	br	8133c4 <lcd_write_command+0x74>
    if (--i == 0)
  8133a0:	e0bffc17 	ldw	r2,-16(fp)
  8133a4:	10bfffc4 	addi	r2,r2,-1
  8133a8:	e0bffc15 	stw	r2,-16(fp)
  8133ac:	e0bffc17 	ldw	r2,-16(fp)
  8133b0:	1000041e 	bne	r2,zero,8133c4 <lcd_write_command+0x74>
    {
      sp->broken = 1;
  8133b4:	e0bffe17 	ldw	r2,-8(fp)
  8133b8:	00c00044 	movi	r3,1
  8133bc:	10c00805 	stb	r3,32(r2)
      return;
  8133c0:	00000c06 	br	8133f4 <lcd_write_command+0xa4>
  /* Don't bother if the LCD panel didn't work before */
  if (sp->broken)
    return;

  /* Wait until LCD isn't busy. */
  while (IORD_ALTERA_AVALON_LCD_16207_STATUS(base) & ALTERA_AVALON_LCD_16207_STATUS_BUSY_MSK)
  8133c4:	e0bffd17 	ldw	r2,-12(fp)
  8133c8:	10800104 	addi	r2,r2,4
  8133cc:	10800037 	ldwio	r2,0(r2)
  8133d0:	1080200c 	andi	r2,r2,128
  8133d4:	103ff21e 	bne	r2,zero,8133a0 <__alt_mem_onchip_mem+0xff80b3a0>
    }

  /* Despite what it says in the datasheet, the LCD isn't ready to accept
   * a write immediately after it returns BUSY=0.  Wait for 100us more.
   */
  usleep(100);
  8133d8:	01001904 	movi	r4,100
  8133dc:	08152440 	call	815244 <usleep>

  IOWR_ALTERA_AVALON_LCD_16207_COMMAND(base, command);
  8133e0:	e0bffd17 	ldw	r2,-12(fp)
  8133e4:	e0ffff03 	ldbu	r3,-4(fp)
  8133e8:	10c00035 	stwio	r3,0(r2)
  8133ec:	00000106 	br	8133f4 <lcd_write_command+0xa4>
   */
  int i = 1000000;

  /* Don't bother if the LCD panel didn't work before */
  if (sp->broken)
    return;
  8133f0:	0001883a 	nop
   * a write immediately after it returns BUSY=0.  Wait for 100us more.
   */
  usleep(100);

  IOWR_ALTERA_AVALON_LCD_16207_COMMAND(base, command);
}
  8133f4:	e037883a 	mov	sp,fp
  8133f8:	dfc00117 	ldw	ra,4(sp)
  8133fc:	df000017 	ldw	fp,0(sp)
  813400:	dec00204 	addi	sp,sp,8
  813404:	f800283a 	ret

00813408 <lcd_write_data>:

/* --------------------------------------------------------------------- */

static void lcd_write_data(altera_avalon_lcd_16207_state* sp, 
  unsigned char data)
{
  813408:	defffa04 	addi	sp,sp,-24
  81340c:	dfc00515 	stw	ra,20(sp)
  813410:	df000415 	stw	fp,16(sp)
  813414:	df000404 	addi	fp,sp,16
  813418:	e13ffe15 	stw	r4,-8(fp)
  81341c:	2805883a 	mov	r2,r5
  813420:	e0bfff05 	stb	r2,-4(fp)
  unsigned int base = sp->base;
  813424:	e0bffe17 	ldw	r2,-8(fp)
  813428:	10800017 	ldw	r2,0(r2)
  81342c:	e0bffd15 	stw	r2,-12(fp)
  /* We impose a timeout on the driver in case the LCD panel isn't connected.
   * The first time we call this function the timeout is approx 25ms 
   * (assuming 5 cycles per loop and a 200MHz clock).  Obviously systems
   * with slower clocks, or debug builds, or slower memory will take longer.
   */
  int i = 1000000;
  813430:	008003f4 	movhi	r2,15
  813434:	10909004 	addi	r2,r2,16960
  813438:	e0bffc15 	stw	r2,-16(fp)

  /* Don't bother if the LCD panel didn't work before */
  if (sp->broken)
  81343c:	e0bffe17 	ldw	r2,-8(fp)
  813440:	10800803 	ldbu	r2,32(r2)
  813444:	10803fcc 	andi	r2,r2,255
  813448:	1080201c 	xori	r2,r2,128
  81344c:	10bfe004 	addi	r2,r2,-128
  813450:	10001d1e 	bne	r2,zero,8134c8 <lcd_write_data+0xc0>
    return;

  /* Wait until LCD isn't busy. */
  while (IORD_ALTERA_AVALON_LCD_16207_STATUS(base) & ALTERA_AVALON_LCD_16207_STATUS_BUSY_MSK)
  813454:	00000906 	br	81347c <lcd_write_data+0x74>
    if (--i == 0)
  813458:	e0bffc17 	ldw	r2,-16(fp)
  81345c:	10bfffc4 	addi	r2,r2,-1
  813460:	e0bffc15 	stw	r2,-16(fp)
  813464:	e0bffc17 	ldw	r2,-16(fp)
  813468:	1000041e 	bne	r2,zero,81347c <lcd_write_data+0x74>
    {
      sp->broken = 1;
  81346c:	e0bffe17 	ldw	r2,-8(fp)
  813470:	00c00044 	movi	r3,1
  813474:	10c00805 	stb	r3,32(r2)
      return;
  813478:	00001406 	br	8134cc <lcd_write_data+0xc4>
  /* Don't bother if the LCD panel didn't work before */
  if (sp->broken)
    return;

  /* Wait until LCD isn't busy. */
  while (IORD_ALTERA_AVALON_LCD_16207_STATUS(base) & ALTERA_AVALON_LCD_16207_STATUS_BUSY_MSK)
  81347c:	e0bffd17 	ldw	r2,-12(fp)
  813480:	10800104 	addi	r2,r2,4
  813484:	10800037 	ldwio	r2,0(r2)
  813488:	1080200c 	andi	r2,r2,128
  81348c:	103ff21e 	bne	r2,zero,813458 <__alt_mem_onchip_mem+0xff80b458>
    }

  /* Despite what it says in the datasheet, the LCD isn't ready to accept
   * a write immediately after it returns BUSY=0.  Wait for 100us more.
   */
  usleep(100);
  813490:	01001904 	movi	r4,100
  813494:	08152440 	call	815244 <usleep>

  IOWR_ALTERA_AVALON_LCD_16207_DATA(base, data);
  813498:	e0bffd17 	ldw	r2,-12(fp)
  81349c:	10800204 	addi	r2,r2,8
  8134a0:	1007883a 	mov	r3,r2
  8134a4:	e0bfff03 	ldbu	r2,-4(fp)
  8134a8:	18800035 	stwio	r2,0(r3)

  sp->address++;
  8134ac:	e0bffe17 	ldw	r2,-8(fp)
  8134b0:	108008c3 	ldbu	r2,35(r2)
  8134b4:	10800044 	addi	r2,r2,1
  8134b8:	1007883a 	mov	r3,r2
  8134bc:	e0bffe17 	ldw	r2,-8(fp)
  8134c0:	10c008c5 	stb	r3,35(r2)
  8134c4:	00000106 	br	8134cc <lcd_write_data+0xc4>
   */
  int i = 1000000;

  /* Don't bother if the LCD panel didn't work before */
  if (sp->broken)
    return;
  8134c8:	0001883a 	nop
  usleep(100);

  IOWR_ALTERA_AVALON_LCD_16207_DATA(base, data);

  sp->address++;
}
  8134cc:	e037883a 	mov	sp,fp
  8134d0:	dfc00117 	ldw	ra,4(sp)
  8134d4:	df000017 	ldw	fp,0(sp)
  8134d8:	dec00204 	addi	sp,sp,8
  8134dc:	f800283a 	ret

008134e0 <lcd_clear_screen>:

/* --------------------------------------------------------------------- */

static void lcd_clear_screen(altera_avalon_lcd_16207_state* sp)
{
  8134e0:	defffc04 	addi	sp,sp,-16
  8134e4:	dfc00315 	stw	ra,12(sp)
  8134e8:	df000215 	stw	fp,8(sp)
  8134ec:	df000204 	addi	fp,sp,8
  8134f0:	e13fff15 	stw	r4,-4(fp)
  int y;

  lcd_write_command(sp, LCD_CMD_CLEAR);
  8134f4:	01400044 	movi	r5,1
  8134f8:	e13fff17 	ldw	r4,-4(fp)
  8134fc:	08133500 	call	813350 <lcd_write_command>

  sp->x = 0;
  813500:	e0bfff17 	ldw	r2,-4(fp)
  813504:	10000845 	stb	zero,33(r2)
  sp->y = 0;
  813508:	e0bfff17 	ldw	r2,-4(fp)
  81350c:	10000885 	stb	zero,34(r2)
  sp->address = 0;
  813510:	e0bfff17 	ldw	r2,-4(fp)
  813514:	100008c5 	stb	zero,35(r2)

  for (y = 0 ; y < ALT_LCD_HEIGHT ; y++)
  813518:	e03ffe15 	stw	zero,-8(fp)
  81351c:	00001b06 	br	81358c <lcd_clear_screen+0xac>
  {
    memset(sp->line[y].data, ' ', sizeof(sp->line[0].data));
  813520:	e0bffe17 	ldw	r2,-8(fp)
  813524:	108018e4 	muli	r2,r2,99
  813528:	10801004 	addi	r2,r2,64
  81352c:	e0ffff17 	ldw	r3,-4(fp)
  813530:	1885883a 	add	r2,r3,r2
  813534:	01801444 	movi	r6,81
  813538:	01400804 	movi	r5,32
  81353c:	1009883a 	mov	r4,r2
  813540:	080c3480 	call	80c348 <memset>
    memset(sp->line[y].visible, ' ', sizeof(sp->line[0].visible));
  813544:	e0bffe17 	ldw	r2,-8(fp)
  813548:	108018e4 	muli	r2,r2,99
  81354c:	10800c04 	addi	r2,r2,48
  813550:	e0ffff17 	ldw	r3,-4(fp)
  813554:	1885883a 	add	r2,r3,r2
  813558:	01800404 	movi	r6,16
  81355c:	01400804 	movi	r5,32
  813560:	1009883a 	mov	r4,r2
  813564:	080c3480 	call	80c348 <memset>
    sp->line[y].width = 0;
  813568:	e0ffff17 	ldw	r3,-4(fp)
  81356c:	e0bffe17 	ldw	r2,-8(fp)
  813570:	108018e4 	muli	r2,r2,99
  813574:	1885883a 	add	r2,r3,r2
  813578:	10802444 	addi	r2,r2,145
  81357c:	10000005 	stb	zero,0(r2)

  sp->x = 0;
  sp->y = 0;
  sp->address = 0;

  for (y = 0 ; y < ALT_LCD_HEIGHT ; y++)
  813580:	e0bffe17 	ldw	r2,-8(fp)
  813584:	10800044 	addi	r2,r2,1
  813588:	e0bffe15 	stw	r2,-8(fp)
  81358c:	e0bffe17 	ldw	r2,-8(fp)
  813590:	10800090 	cmplti	r2,r2,2
  813594:	103fe21e 	bne	r2,zero,813520 <__alt_mem_onchip_mem+0xff80b520>
  {
    memset(sp->line[y].data, ' ', sizeof(sp->line[0].data));
    memset(sp->line[y].visible, ' ', sizeof(sp->line[0].visible));
    sp->line[y].width = 0;
  }
}
  813598:	0001883a 	nop
  81359c:	e037883a 	mov	sp,fp
  8135a0:	dfc00117 	ldw	ra,4(sp)
  8135a4:	df000017 	ldw	fp,0(sp)
  8135a8:	dec00204 	addi	sp,sp,8
  8135ac:	f800283a 	ret

008135b0 <lcd_repaint_screen>:

/* --------------------------------------------------------------------- */

static void lcd_repaint_screen(altera_avalon_lcd_16207_state* sp)
{
  8135b0:	defff704 	addi	sp,sp,-36
  8135b4:	dfc00815 	stw	ra,32(sp)
  8135b8:	df000715 	stw	fp,28(sp)
  8135bc:	df000704 	addi	fp,sp,28
  8135c0:	e13fff15 	stw	r4,-4(fp)
  /* scrollpos controls how much the lines have scrolled round.  The speed
   * each line scrolls at is controlled by its speed variable - while
   * scrolline lines will wrap at the position set by width
   */

  int scrollpos = sp->scrollpos;
  8135c4:	e0bfff17 	ldw	r2,-4(fp)
  8135c8:	10800943 	ldbu	r2,37(r2)
  8135cc:	10803fcc 	andi	r2,r2,255
  8135d0:	e0bffc15 	stw	r2,-16(fp)

  for (y = 0 ; y < ALT_LCD_HEIGHT ; y++)
  8135d4:	e03ff915 	stw	zero,-28(fp)
  8135d8:	00006706 	br	813778 <lcd_repaint_screen+0x1c8>
  {
    int width  = sp->line[y].width;
  8135dc:	e0ffff17 	ldw	r3,-4(fp)
  8135e0:	e0bff917 	ldw	r2,-28(fp)
  8135e4:	108018e4 	muli	r2,r2,99
  8135e8:	1885883a 	add	r2,r3,r2
  8135ec:	10802444 	addi	r2,r2,145
  8135f0:	10800003 	ldbu	r2,0(r2)
  8135f4:	10803fcc 	andi	r2,r2,255
  8135f8:	1080201c 	xori	r2,r2,128
  8135fc:	10bfe004 	addi	r2,r2,-128
  813600:	e0bffd15 	stw	r2,-12(fp)
    int offset = (scrollpos * sp->line[y].speed) >> 8;
  813604:	e0ffff17 	ldw	r3,-4(fp)
  813608:	e0bff917 	ldw	r2,-28(fp)
  81360c:	108018e4 	muli	r2,r2,99
  813610:	1885883a 	add	r2,r3,r2
  813614:	10802484 	addi	r2,r2,146
  813618:	10800003 	ldbu	r2,0(r2)
  81361c:	10c03fcc 	andi	r3,r2,255
  813620:	e0bffc17 	ldw	r2,-16(fp)
  813624:	1885383a 	mul	r2,r3,r2
  813628:	1005d23a 	srai	r2,r2,8
  81362c:	e0bffb15 	stw	r2,-20(fp)
    if (offset >= width)
  813630:	e0fffb17 	ldw	r3,-20(fp)
  813634:	e0bffd17 	ldw	r2,-12(fp)
  813638:	18800116 	blt	r3,r2,813640 <lcd_repaint_screen+0x90>
      offset = 0;
  81363c:	e03ffb15 	stw	zero,-20(fp)

    for (x = 0 ; x < ALT_LCD_WIDTH ; x++)
  813640:	e03ffa15 	stw	zero,-24(fp)
  813644:	00004606 	br	813760 <lcd_repaint_screen+0x1b0>
    {
      char c = sp->line[y].data[(x + offset) % width];
  813648:	e0fffa17 	ldw	r3,-24(fp)
  81364c:	e0bffb17 	ldw	r2,-20(fp)
  813650:	1885883a 	add	r2,r3,r2
  813654:	e17ffd17 	ldw	r5,-12(fp)
  813658:	1009883a 	mov	r4,r2
  81365c:	0810e100 	call	810e10 <__modsi3>
  813660:	1009883a 	mov	r4,r2
  813664:	e0ffff17 	ldw	r3,-4(fp)
  813668:	e0bff917 	ldw	r2,-28(fp)
  81366c:	108018e4 	muli	r2,r2,99
  813670:	1885883a 	add	r2,r3,r2
  813674:	1105883a 	add	r2,r2,r4
  813678:	10801004 	addi	r2,r2,64
  81367c:	10800003 	ldbu	r2,0(r2)
  813680:	e0bffe05 	stb	r2,-8(fp)

      /* Writing data takes 40us, so don't do it unless required */
      if (sp->line[y].visible[x] != c)
  813684:	e0ffff17 	ldw	r3,-4(fp)
  813688:	e0bff917 	ldw	r2,-28(fp)
  81368c:	108018e4 	muli	r2,r2,99
  813690:	1887883a 	add	r3,r3,r2
  813694:	e0bffa17 	ldw	r2,-24(fp)
  813698:	1885883a 	add	r2,r3,r2
  81369c:	10800c04 	addi	r2,r2,48
  8136a0:	10800003 	ldbu	r2,0(r2)
  8136a4:	10c03fcc 	andi	r3,r2,255
  8136a8:	18c0201c 	xori	r3,r3,128
  8136ac:	18ffe004 	addi	r3,r3,-128
  8136b0:	e0bffe07 	ldb	r2,-8(fp)
  8136b4:	18802726 	beq	r3,r2,813754 <lcd_repaint_screen+0x1a4>
      {
        unsigned char address = x + colstart[y];
  8136b8:	e0fff917 	ldw	r3,-28(fp)
  8136bc:	d0a01004 	addi	r2,gp,-32704
  8136c0:	1885883a 	add	r2,r3,r2
  8136c4:	10800003 	ldbu	r2,0(r2)
  8136c8:	1007883a 	mov	r3,r2
  8136cc:	e0bffa17 	ldw	r2,-24(fp)
  8136d0:	1885883a 	add	r2,r3,r2
  8136d4:	e0bffe45 	stb	r2,-7(fp)

        if (address != sp->address)
  8136d8:	e0fffe43 	ldbu	r3,-7(fp)
  8136dc:	e0bfff17 	ldw	r2,-4(fp)
  8136e0:	108008c3 	ldbu	r2,35(r2)
  8136e4:	10803fcc 	andi	r2,r2,255
  8136e8:	1080201c 	xori	r2,r2,128
  8136ec:	10bfe004 	addi	r2,r2,-128
  8136f0:	18800a26 	beq	r3,r2,81371c <lcd_repaint_screen+0x16c>
        {
          lcd_write_command(sp, LCD_CMD_WRITE_DATA | address);
  8136f4:	e0fffe43 	ldbu	r3,-7(fp)
  8136f8:	00bfe004 	movi	r2,-128
  8136fc:	1884b03a 	or	r2,r3,r2
  813700:	10803fcc 	andi	r2,r2,255
  813704:	100b883a 	mov	r5,r2
  813708:	e13fff17 	ldw	r4,-4(fp)
  81370c:	08133500 	call	813350 <lcd_write_command>
          sp->address = address;
  813710:	e0fffe43 	ldbu	r3,-7(fp)
  813714:	e0bfff17 	ldw	r2,-4(fp)
  813718:	10c008c5 	stb	r3,35(r2)
        }

        lcd_write_data(sp, c);
  81371c:	e0bffe03 	ldbu	r2,-8(fp)
  813720:	10803fcc 	andi	r2,r2,255
  813724:	100b883a 	mov	r5,r2
  813728:	e13fff17 	ldw	r4,-4(fp)
  81372c:	08134080 	call	813408 <lcd_write_data>
        sp->line[y].visible[x] = c;
  813730:	e0ffff17 	ldw	r3,-4(fp)
  813734:	e0bff917 	ldw	r2,-28(fp)
  813738:	108018e4 	muli	r2,r2,99
  81373c:	1887883a 	add	r3,r3,r2
  813740:	e0bffa17 	ldw	r2,-24(fp)
  813744:	1885883a 	add	r2,r3,r2
  813748:	10800c04 	addi	r2,r2,48
  81374c:	e0fffe03 	ldbu	r3,-8(fp)
  813750:	10c00005 	stb	r3,0(r2)
    int width  = sp->line[y].width;
    int offset = (scrollpos * sp->line[y].speed) >> 8;
    if (offset >= width)
      offset = 0;

    for (x = 0 ; x < ALT_LCD_WIDTH ; x++)
  813754:	e0bffa17 	ldw	r2,-24(fp)
  813758:	10800044 	addi	r2,r2,1
  81375c:	e0bffa15 	stw	r2,-24(fp)
  813760:	e0bffa17 	ldw	r2,-24(fp)
  813764:	10800410 	cmplti	r2,r2,16
  813768:	103fb71e 	bne	r2,zero,813648 <__alt_mem_onchip_mem+0xff80b648>
   * scrolline lines will wrap at the position set by width
   */

  int scrollpos = sp->scrollpos;

  for (y = 0 ; y < ALT_LCD_HEIGHT ; y++)
  81376c:	e0bff917 	ldw	r2,-28(fp)
  813770:	10800044 	addi	r2,r2,1
  813774:	e0bff915 	stw	r2,-28(fp)
  813778:	e0bff917 	ldw	r2,-28(fp)
  81377c:	10800090 	cmplti	r2,r2,2
  813780:	103f961e 	bne	r2,zero,8135dc <__alt_mem_onchip_mem+0xff80b5dc>
        lcd_write_data(sp, c);
        sp->line[y].visible[x] = c;
      }
    }
  }
}
  813784:	0001883a 	nop
  813788:	e037883a 	mov	sp,fp
  81378c:	dfc00117 	ldw	ra,4(sp)
  813790:	df000017 	ldw	fp,0(sp)
  813794:	dec00204 	addi	sp,sp,8
  813798:	f800283a 	ret

0081379c <lcd_scroll_up>:

/* --------------------------------------------------------------------- */

static void lcd_scroll_up(altera_avalon_lcd_16207_state* sp)
{
  81379c:	defffc04 	addi	sp,sp,-16
  8137a0:	dfc00315 	stw	ra,12(sp)
  8137a4:	df000215 	stw	fp,8(sp)
  8137a8:	df000204 	addi	fp,sp,8
  8137ac:	e13fff15 	stw	r4,-4(fp)
  int y;

  for (y = 0 ; y < ALT_LCD_HEIGHT ; y++)
  8137b0:	e03ffe15 	stw	zero,-8(fp)
  8137b4:	00001d06 	br	81382c <lcd_scroll_up+0x90>
  {
    if (y < ALT_LCD_HEIGHT-1)
  8137b8:	e0bffe17 	ldw	r2,-8(fp)
  8137bc:	00800f16 	blt	zero,r2,8137fc <lcd_scroll_up+0x60>
      memcpy(sp->line[y].data, sp->line[y+1].data, ALT_LCD_VIRTUAL_WIDTH);
  8137c0:	e0bffe17 	ldw	r2,-8(fp)
  8137c4:	108018e4 	muli	r2,r2,99
  8137c8:	10801004 	addi	r2,r2,64
  8137cc:	e0ffff17 	ldw	r3,-4(fp)
  8137d0:	1889883a 	add	r4,r3,r2
  8137d4:	e0bffe17 	ldw	r2,-8(fp)
  8137d8:	10800044 	addi	r2,r2,1
  8137dc:	108018e4 	muli	r2,r2,99
  8137e0:	10801004 	addi	r2,r2,64
  8137e4:	e0ffff17 	ldw	r3,-4(fp)
  8137e8:	1885883a 	add	r2,r3,r2
  8137ec:	01801404 	movi	r6,80
  8137f0:	100b883a 	mov	r5,r2
  8137f4:	080c2000 	call	80c200 <memcpy>
  8137f8:	00000906 	br	813820 <lcd_scroll_up+0x84>
    else
      memset(sp->line[y].data, ' ', ALT_LCD_VIRTUAL_WIDTH);
  8137fc:	e0bffe17 	ldw	r2,-8(fp)
  813800:	108018e4 	muli	r2,r2,99
  813804:	10801004 	addi	r2,r2,64
  813808:	e0ffff17 	ldw	r3,-4(fp)
  81380c:	1885883a 	add	r2,r3,r2
  813810:	01801404 	movi	r6,80
  813814:	01400804 	movi	r5,32
  813818:	1009883a 	mov	r4,r2
  81381c:	080c3480 	call	80c348 <memset>

static void lcd_scroll_up(altera_avalon_lcd_16207_state* sp)
{
  int y;

  for (y = 0 ; y < ALT_LCD_HEIGHT ; y++)
  813820:	e0bffe17 	ldw	r2,-8(fp)
  813824:	10800044 	addi	r2,r2,1
  813828:	e0bffe15 	stw	r2,-8(fp)
  81382c:	e0bffe17 	ldw	r2,-8(fp)
  813830:	10800090 	cmplti	r2,r2,2
  813834:	103fe01e 	bne	r2,zero,8137b8 <__alt_mem_onchip_mem+0xff80b7b8>
      memcpy(sp->line[y].data, sp->line[y+1].data, ALT_LCD_VIRTUAL_WIDTH);
    else
      memset(sp->line[y].data, ' ', ALT_LCD_VIRTUAL_WIDTH);
  }

  sp->y--;
  813838:	e0bfff17 	ldw	r2,-4(fp)
  81383c:	10800883 	ldbu	r2,34(r2)
  813840:	10bfffc4 	addi	r2,r2,-1
  813844:	1007883a 	mov	r3,r2
  813848:	e0bfff17 	ldw	r2,-4(fp)
  81384c:	10c00885 	stb	r3,34(r2)
}
  813850:	0001883a 	nop
  813854:	e037883a 	mov	sp,fp
  813858:	dfc00117 	ldw	ra,4(sp)
  81385c:	df000017 	ldw	fp,0(sp)
  813860:	dec00204 	addi	sp,sp,8
  813864:	f800283a 	ret

00813868 <lcd_handle_escape>:

/* --------------------------------------------------------------------- */

static void lcd_handle_escape(altera_avalon_lcd_16207_state* sp, char c)
{
  813868:	defff904 	addi	sp,sp,-28
  81386c:	dfc00615 	stw	ra,24(sp)
  813870:	df000515 	stw	fp,20(sp)
  813874:	df000504 	addi	fp,sp,20
  813878:	e13ffe15 	stw	r4,-8(fp)
  81387c:	2805883a 	mov	r2,r5
  813880:	e0bfff05 	stb	r2,-4(fp)
  int parm1 = 0, parm2 = 0;
  813884:	e03ffb15 	stw	zero,-20(fp)
  813888:	e03ffc15 	stw	zero,-16(fp)

  if (sp->escape[0] == '[')
  81388c:	e0bffe17 	ldw	r2,-8(fp)
  813890:	10800a03 	ldbu	r2,40(r2)
  813894:	10803fcc 	andi	r2,r2,255
  813898:	1080201c 	xori	r2,r2,128
  81389c:	10bfe004 	addi	r2,r2,-128
  8138a0:	108016d8 	cmpnei	r2,r2,91
  8138a4:	1000411e 	bne	r2,zero,8139ac <lcd_handle_escape+0x144>
  {
    char * ptr = sp->escape+1;
  8138a8:	e0bffe17 	ldw	r2,-8(fp)
  8138ac:	10800a04 	addi	r2,r2,40
  8138b0:	10800044 	addi	r2,r2,1
  8138b4:	e0bffd15 	stw	r2,-12(fp)
    while (isdigit(*ptr))
  8138b8:	00000c06 	br	8138ec <lcd_handle_escape+0x84>
      parm1 = (parm1 * 10) + (*ptr++ - '0');
  8138bc:	e0bffb17 	ldw	r2,-20(fp)
  8138c0:	10c002a4 	muli	r3,r2,10
  8138c4:	e0bffd17 	ldw	r2,-12(fp)
  8138c8:	11000044 	addi	r4,r2,1
  8138cc:	e13ffd15 	stw	r4,-12(fp)
  8138d0:	10800003 	ldbu	r2,0(r2)
  8138d4:	10803fcc 	andi	r2,r2,255
  8138d8:	1080201c 	xori	r2,r2,128
  8138dc:	10bfe004 	addi	r2,r2,-128
  8138e0:	10bff404 	addi	r2,r2,-48
  8138e4:	1885883a 	add	r2,r3,r2
  8138e8:	e0bffb15 	stw	r2,-20(fp)
  int parm1 = 0, parm2 = 0;

  if (sp->escape[0] == '[')
  {
    char * ptr = sp->escape+1;
    while (isdigit(*ptr))
  8138ec:	d0e01117 	ldw	r3,-32700(gp)
  8138f0:	e0bffd17 	ldw	r2,-12(fp)
  8138f4:	10800003 	ldbu	r2,0(r2)
  8138f8:	10803fcc 	andi	r2,r2,255
  8138fc:	1080201c 	xori	r2,r2,128
  813900:	10bfe004 	addi	r2,r2,-128
  813904:	10800044 	addi	r2,r2,1
  813908:	1885883a 	add	r2,r3,r2
  81390c:	10800003 	ldbu	r2,0(r2)
  813910:	10803fcc 	andi	r2,r2,255
  813914:	1080010c 	andi	r2,r2,4
  813918:	103fe81e 	bne	r2,zero,8138bc <__alt_mem_onchip_mem+0xff80b8bc>
      parm1 = (parm1 * 10) + (*ptr++ - '0');

    if (*ptr == ';')
  81391c:	e0bffd17 	ldw	r2,-12(fp)
  813920:	10800003 	ldbu	r2,0(r2)
  813924:	10803fcc 	andi	r2,r2,255
  813928:	1080201c 	xori	r2,r2,128
  81392c:	10bfe004 	addi	r2,r2,-128
  813930:	10800ed8 	cmpnei	r2,r2,59
  813934:	10001f1e 	bne	r2,zero,8139b4 <lcd_handle_escape+0x14c>
    {
      ptr++;
  813938:	e0bffd17 	ldw	r2,-12(fp)
  81393c:	10800044 	addi	r2,r2,1
  813940:	e0bffd15 	stw	r2,-12(fp)
      while (isdigit(*ptr))
  813944:	00000c06 	br	813978 <lcd_handle_escape+0x110>
        parm2 = (parm2 * 10) + (*ptr++ - '0');
  813948:	e0bffc17 	ldw	r2,-16(fp)
  81394c:	10c002a4 	muli	r3,r2,10
  813950:	e0bffd17 	ldw	r2,-12(fp)
  813954:	11000044 	addi	r4,r2,1
  813958:	e13ffd15 	stw	r4,-12(fp)
  81395c:	10800003 	ldbu	r2,0(r2)
  813960:	10803fcc 	andi	r2,r2,255
  813964:	1080201c 	xori	r2,r2,128
  813968:	10bfe004 	addi	r2,r2,-128
  81396c:	10bff404 	addi	r2,r2,-48
  813970:	1885883a 	add	r2,r3,r2
  813974:	e0bffc15 	stw	r2,-16(fp)
      parm1 = (parm1 * 10) + (*ptr++ - '0');

    if (*ptr == ';')
    {
      ptr++;
      while (isdigit(*ptr))
  813978:	d0e01117 	ldw	r3,-32700(gp)
  81397c:	e0bffd17 	ldw	r2,-12(fp)
  813980:	10800003 	ldbu	r2,0(r2)
  813984:	10803fcc 	andi	r2,r2,255
  813988:	1080201c 	xori	r2,r2,128
  81398c:	10bfe004 	addi	r2,r2,-128
  813990:	10800044 	addi	r2,r2,1
  813994:	1885883a 	add	r2,r3,r2
  813998:	10800003 	ldbu	r2,0(r2)
  81399c:	10803fcc 	andi	r2,r2,255
  8139a0:	1080010c 	andi	r2,r2,4
  8139a4:	103fe81e 	bne	r2,zero,813948 <__alt_mem_onchip_mem+0xff80b948>
  8139a8:	00000206 	br	8139b4 <lcd_handle_escape+0x14c>
        parm2 = (parm2 * 10) + (*ptr++ - '0');
    }
  }
  else
    parm1 = -1;
  8139ac:	00bfffc4 	movi	r2,-1
  8139b0:	e0bffb15 	stw	r2,-20(fp)

  switch (c)
  8139b4:	e0bfff07 	ldb	r2,-4(fp)
  8139b8:	10c012a0 	cmpeqi	r3,r2,74
  8139bc:	1800291e 	bne	r3,zero,813a64 <lcd_handle_escape+0x1fc>
  8139c0:	10c012c8 	cmpgei	r3,r2,75
  8139c4:	1800031e 	bne	r3,zero,8139d4 <lcd_handle_escape+0x16c>
  8139c8:	10801220 	cmpeqi	r2,r2,72
  8139cc:	1000061e 	bne	r2,zero,8139e8 <lcd_handle_escape+0x180>
      if (sp->x < ALT_LCD_VIRTUAL_WIDTH)
        memset(sp->line[sp->y].data + sp->x, ' ', ALT_LCD_VIRTUAL_WIDTH - sp->x);
    }
    break;
  }
}
  8139d0:	00004a06 	br	813afc <lcd_handle_escape+0x294>
    }
  }
  else
    parm1 = -1;

  switch (c)
  8139d4:	10c012e0 	cmpeqi	r3,r2,75
  8139d8:	1800281e 	bne	r3,zero,813a7c <lcd_handle_escape+0x214>
  8139dc:	108019a0 	cmpeqi	r2,r2,102
  8139e0:	1000011e 	bne	r2,zero,8139e8 <lcd_handle_escape+0x180>
      if (sp->x < ALT_LCD_VIRTUAL_WIDTH)
        memset(sp->line[sp->y].data + sp->x, ' ', ALT_LCD_VIRTUAL_WIDTH - sp->x);
    }
    break;
  }
}
  8139e4:	00004506 	br	813afc <lcd_handle_escape+0x294>

  switch (c)
  {
  case 'H': /* ESC '[' <y> ';' <x> 'H'  : Move cursor to location */
  case 'f': /* Same as above */
    if (parm2 > 0)
  8139e8:	e0bffc17 	ldw	r2,-16(fp)
  8139ec:	0080050e 	bge	zero,r2,813a04 <lcd_handle_escape+0x19c>
      sp->x = parm2 - 1;
  8139f0:	e0bffc17 	ldw	r2,-16(fp)
  8139f4:	10bfffc4 	addi	r2,r2,-1
  8139f8:	1007883a 	mov	r3,r2
  8139fc:	e0bffe17 	ldw	r2,-8(fp)
  813a00:	10c00845 	stb	r3,33(r2)
    if (parm1 > 0)
  813a04:	e0bffb17 	ldw	r2,-20(fp)
  813a08:	0080370e 	bge	zero,r2,813ae8 <lcd_handle_escape+0x280>
    {
      sp->y = parm1 - 1;
  813a0c:	e0bffb17 	ldw	r2,-20(fp)
  813a10:	10bfffc4 	addi	r2,r2,-1
  813a14:	1007883a 	mov	r3,r2
  813a18:	e0bffe17 	ldw	r2,-8(fp)
  813a1c:	10c00885 	stb	r3,34(r2)
      if (sp->y > ALT_LCD_HEIGHT * 2)
  813a20:	e0bffe17 	ldw	r2,-8(fp)
  813a24:	10800883 	ldbu	r2,34(r2)
  813a28:	10803fcc 	andi	r2,r2,255
  813a2c:	10800170 	cmpltui	r2,r2,5
  813a30:	1000061e 	bne	r2,zero,813a4c <lcd_handle_escape+0x1e4>
        sp->y = ALT_LCD_HEIGHT * 2;
  813a34:	e0bffe17 	ldw	r2,-8(fp)
  813a38:	00c00104 	movi	r3,4
  813a3c:	10c00885 	stb	r3,34(r2)
      while (sp->y > ALT_LCD_HEIGHT)
  813a40:	00000206 	br	813a4c <lcd_handle_escape+0x1e4>
        lcd_scroll_up(sp);
  813a44:	e13ffe17 	ldw	r4,-8(fp)
  813a48:	081379c0 	call	81379c <lcd_scroll_up>
    if (parm1 > 0)
    {
      sp->y = parm1 - 1;
      if (sp->y > ALT_LCD_HEIGHT * 2)
        sp->y = ALT_LCD_HEIGHT * 2;
      while (sp->y > ALT_LCD_HEIGHT)
  813a4c:	e0bffe17 	ldw	r2,-8(fp)
  813a50:	10800883 	ldbu	r2,34(r2)
  813a54:	10803fcc 	andi	r2,r2,255
  813a58:	108000e8 	cmpgeui	r2,r2,3
  813a5c:	103ff91e 	bne	r2,zero,813a44 <__alt_mem_onchip_mem+0xff80ba44>
        lcd_scroll_up(sp);
    }
    break;
  813a60:	00002106 	br	813ae8 <lcd_handle_escape+0x280>
    /*   ESC J      is clear to beginning of line    [unimplemented]
     *   ESC [ 0 J  is clear to bottom of screen     [unimplemented]
     *   ESC [ 1 J  is clear to beginning of screen  [unimplemented]
     *   ESC [ 2 J  is clear screen
     */
    if (parm1 == 2)
  813a64:	e0bffb17 	ldw	r2,-20(fp)
  813a68:	10800098 	cmpnei	r2,r2,2
  813a6c:	1000201e 	bne	r2,zero,813af0 <lcd_handle_escape+0x288>
      lcd_clear_screen(sp);
  813a70:	e13ffe17 	ldw	r4,-8(fp)
  813a74:	08134e00 	call	8134e0 <lcd_clear_screen>
    break;
  813a78:	00001d06 	br	813af0 <lcd_handle_escape+0x288>
    /*   ESC K      is clear to end of line
     *   ESC [ 0 K  is clear to end of line
     *   ESC [ 1 K  is clear to beginning of line    [unimplemented]
     *   ESC [ 2 K  is clear line                    [unimplemented]
     */
    if (parm1 < 1)
  813a7c:	e0bffb17 	ldw	r2,-20(fp)
  813a80:	00801d16 	blt	zero,r2,813af8 <lcd_handle_escape+0x290>
    {
      if (sp->x < ALT_LCD_VIRTUAL_WIDTH)
  813a84:	e0bffe17 	ldw	r2,-8(fp)
  813a88:	10800843 	ldbu	r2,33(r2)
  813a8c:	10803fcc 	andi	r2,r2,255
  813a90:	10801428 	cmpgeui	r2,r2,80
  813a94:	1000181e 	bne	r2,zero,813af8 <lcd_handle_escape+0x290>
        memset(sp->line[sp->y].data + sp->x, ' ', ALT_LCD_VIRTUAL_WIDTH - sp->x);
  813a98:	e0bffe17 	ldw	r2,-8(fp)
  813a9c:	10800883 	ldbu	r2,34(r2)
  813aa0:	10803fcc 	andi	r2,r2,255
  813aa4:	108018e4 	muli	r2,r2,99
  813aa8:	10801004 	addi	r2,r2,64
  813aac:	e0fffe17 	ldw	r3,-8(fp)
  813ab0:	1887883a 	add	r3,r3,r2
  813ab4:	e0bffe17 	ldw	r2,-8(fp)
  813ab8:	10800843 	ldbu	r2,33(r2)
  813abc:	10803fcc 	andi	r2,r2,255
  813ac0:	1889883a 	add	r4,r3,r2
  813ac4:	e0bffe17 	ldw	r2,-8(fp)
  813ac8:	10800843 	ldbu	r2,33(r2)
  813acc:	10803fcc 	andi	r2,r2,255
  813ad0:	00c01404 	movi	r3,80
  813ad4:	1885c83a 	sub	r2,r3,r2
  813ad8:	100d883a 	mov	r6,r2
  813adc:	01400804 	movi	r5,32
  813ae0:	080c3480 	call	80c348 <memset>
    }
    break;
  813ae4:	00000406 	br	813af8 <lcd_handle_escape+0x290>
      if (sp->y > ALT_LCD_HEIGHT * 2)
        sp->y = ALT_LCD_HEIGHT * 2;
      while (sp->y > ALT_LCD_HEIGHT)
        lcd_scroll_up(sp);
    }
    break;
  813ae8:	0001883a 	nop
  813aec:	00000306 	br	813afc <lcd_handle_escape+0x294>
     *   ESC [ 1 J  is clear to beginning of screen  [unimplemented]
     *   ESC [ 2 J  is clear screen
     */
    if (parm1 == 2)
      lcd_clear_screen(sp);
    break;
  813af0:	0001883a 	nop
  813af4:	00000106 	br	813afc <lcd_handle_escape+0x294>
    if (parm1 < 1)
    {
      if (sp->x < ALT_LCD_VIRTUAL_WIDTH)
        memset(sp->line[sp->y].data + sp->x, ' ', ALT_LCD_VIRTUAL_WIDTH - sp->x);
    }
    break;
  813af8:	0001883a 	nop
  }
}
  813afc:	0001883a 	nop
  813b00:	e037883a 	mov	sp,fp
  813b04:	dfc00117 	ldw	ra,4(sp)
  813b08:	df000017 	ldw	fp,0(sp)
  813b0c:	dec00204 	addi	sp,sp,8
  813b10:	f800283a 	ret

00813b14 <altera_avalon_lcd_16207_write>:

/* --------------------------------------------------------------------- */

int altera_avalon_lcd_16207_write(altera_avalon_lcd_16207_state* sp, 
  const char* ptr, int len, int flags)
{
  813b14:	defff304 	addi	sp,sp,-52
  813b18:	dfc00c15 	stw	ra,48(sp)
  813b1c:	df000b15 	stw	fp,44(sp)
  813b20:	df000b04 	addi	fp,sp,44
  813b24:	e13ffc15 	stw	r4,-16(fp)
  813b28:	e17ffd15 	stw	r5,-12(fp)
  813b2c:	e1bffe15 	stw	r6,-8(fp)
  813b30:	e1ffff15 	stw	r7,-4(fp)
  const char* end = ptr + len;
  813b34:	e0bffe17 	ldw	r2,-8(fp)
  813b38:	e0fffd17 	ldw	r3,-12(fp)
  813b3c:	1885883a 	add	r2,r3,r2
  813b40:	e0bff815 	stw	r2,-32(fp)

  ALT_SEM_PEND (sp->write_lock, 0);

  /* Tell the routine which is called off the timer interrupt that the
   * foreground routines are active so it must not repaint the display. */
  sp->active = 1;
  813b44:	e0bffc17 	ldw	r2,-16(fp)
  813b48:	00c00044 	movi	r3,1
  813b4c:	10c009c5 	stb	r3,39(r2)

  for ( ; ptr < end ; ptr++)
  813b50:	00009906 	br	813db8 <altera_avalon_lcd_16207_write+0x2a4>
  {
    char c = *ptr;
  813b54:	e0bffd17 	ldw	r2,-12(fp)
  813b58:	10800003 	ldbu	r2,0(r2)
  813b5c:	e0bff905 	stb	r2,-28(fp)

    if (sp->esccount >= 0)
  813b60:	e0bffc17 	ldw	r2,-16(fp)
  813b64:	10800903 	ldbu	r2,36(r2)
  813b68:	10803fcc 	andi	r2,r2,255
  813b6c:	1080201c 	xori	r2,r2,128
  813b70:	10bfe004 	addi	r2,r2,-128
  813b74:	10003716 	blt	r2,zero,813c54 <altera_avalon_lcd_16207_write+0x140>
    {
      unsigned int esccount = sp->esccount;
  813b78:	e0bffc17 	ldw	r2,-16(fp)
  813b7c:	10800903 	ldbu	r2,36(r2)
  813b80:	10803fcc 	andi	r2,r2,255
  813b84:	1080201c 	xori	r2,r2,128
  813b88:	10bfe004 	addi	r2,r2,-128
  813b8c:	e0bffa15 	stw	r2,-24(fp)

      /* Single character escape sequences can end with any character
       * Multi character escape sequences start with '[' and contain
       * digits and semicolons before terminating
       */
      if ((esccount == 0 && c != '[') ||
  813b90:	e0bffa17 	ldw	r2,-24(fp)
  813b94:	1000031e 	bne	r2,zero,813ba4 <altera_avalon_lcd_16207_write+0x90>
  813b98:	e0bff907 	ldb	r2,-28(fp)
  813b9c:	108016d8 	cmpnei	r2,r2,91
  813ba0:	10000d1e 	bne	r2,zero,813bd8 <altera_avalon_lcd_16207_write+0xc4>
  813ba4:	e0bffa17 	ldw	r2,-24(fp)
  813ba8:	10001826 	beq	r2,zero,813c0c <altera_avalon_lcd_16207_write+0xf8>
          (esccount > 0 && !isdigit(c) && c != ';'))
  813bac:	d0e01117 	ldw	r3,-32700(gp)
  813bb0:	e0bff907 	ldb	r2,-28(fp)
  813bb4:	10800044 	addi	r2,r2,1
  813bb8:	1885883a 	add	r2,r3,r2
  813bbc:	10800003 	ldbu	r2,0(r2)
  813bc0:	10803fcc 	andi	r2,r2,255
  813bc4:	1080010c 	andi	r2,r2,4
  813bc8:	1000101e 	bne	r2,zero,813c0c <altera_avalon_lcd_16207_write+0xf8>
  813bcc:	e0bff907 	ldb	r2,-28(fp)
  813bd0:	10800ee0 	cmpeqi	r2,r2,59
  813bd4:	10000d1e 	bne	r2,zero,813c0c <altera_avalon_lcd_16207_write+0xf8>
      {
        sp->escape[esccount] = 0;
  813bd8:	e0fffc17 	ldw	r3,-16(fp)
  813bdc:	e0bffa17 	ldw	r2,-24(fp)
  813be0:	1885883a 	add	r2,r3,r2
  813be4:	10800a04 	addi	r2,r2,40
  813be8:	10000005 	stb	zero,0(r2)

        lcd_handle_escape(sp, c);
  813bec:	e0bff907 	ldb	r2,-28(fp)
  813bf0:	100b883a 	mov	r5,r2
  813bf4:	e13ffc17 	ldw	r4,-16(fp)
  813bf8:	08138680 	call	813868 <lcd_handle_escape>

        sp->esccount = -1;
  813bfc:	e0bffc17 	ldw	r2,-16(fp)
  813c00:	00ffffc4 	movi	r3,-1
  813c04:	10c00905 	stb	r3,36(r2)
  813c08:	00006806 	br	813dac <altera_avalon_lcd_16207_write+0x298>
      }
      else if (sp->esccount < sizeof(sp->escape)-1)
  813c0c:	e0bffc17 	ldw	r2,-16(fp)
  813c10:	10800903 	ldbu	r2,36(r2)
  813c14:	10803fcc 	andi	r2,r2,255
  813c18:	108001e8 	cmpgeui	r2,r2,7
  813c1c:	1000631e 	bne	r2,zero,813dac <altera_avalon_lcd_16207_write+0x298>
      {
        sp->escape[esccount] = c;
  813c20:	e0fffc17 	ldw	r3,-16(fp)
  813c24:	e0bffa17 	ldw	r2,-24(fp)
  813c28:	1885883a 	add	r2,r3,r2
  813c2c:	10800a04 	addi	r2,r2,40
  813c30:	e0fff903 	ldbu	r3,-28(fp)
  813c34:	10c00005 	stb	r3,0(r2)
        sp->esccount++;
  813c38:	e0bffc17 	ldw	r2,-16(fp)
  813c3c:	10800903 	ldbu	r2,36(r2)
  813c40:	10800044 	addi	r2,r2,1
  813c44:	1007883a 	mov	r3,r2
  813c48:	e0bffc17 	ldw	r2,-16(fp)
  813c4c:	10c00905 	stb	r3,36(r2)
  813c50:	00005606 	br	813dac <altera_avalon_lcd_16207_write+0x298>
      }
    }
    else if (c == 27) /* ESC */
  813c54:	e0bff907 	ldb	r2,-28(fp)
  813c58:	108006d8 	cmpnei	r2,r2,27
  813c5c:	1000031e 	bne	r2,zero,813c6c <altera_avalon_lcd_16207_write+0x158>
    {
      sp->esccount = 0;
  813c60:	e0bffc17 	ldw	r2,-16(fp)
  813c64:	10000905 	stb	zero,36(r2)
  813c68:	00005006 	br	813dac <altera_avalon_lcd_16207_write+0x298>
    }
    else if (c == '\r')
  813c6c:	e0bff907 	ldb	r2,-28(fp)
  813c70:	10800358 	cmpnei	r2,r2,13
  813c74:	1000031e 	bne	r2,zero,813c84 <altera_avalon_lcd_16207_write+0x170>
    {
      sp->x = 0;
  813c78:	e0bffc17 	ldw	r2,-16(fp)
  813c7c:	10000845 	stb	zero,33(r2)
  813c80:	00004a06 	br	813dac <altera_avalon_lcd_16207_write+0x298>
    }
    else if (c == '\n')
  813c84:	e0bff907 	ldb	r2,-28(fp)
  813c88:	10800298 	cmpnei	r2,r2,10
  813c8c:	1000101e 	bne	r2,zero,813cd0 <altera_avalon_lcd_16207_write+0x1bc>
    {
      sp->x = 0;
  813c90:	e0bffc17 	ldw	r2,-16(fp)
  813c94:	10000845 	stb	zero,33(r2)
      sp->y++;
  813c98:	e0bffc17 	ldw	r2,-16(fp)
  813c9c:	10800883 	ldbu	r2,34(r2)
  813ca0:	10800044 	addi	r2,r2,1
  813ca4:	1007883a 	mov	r3,r2
  813ca8:	e0bffc17 	ldw	r2,-16(fp)
  813cac:	10c00885 	stb	r3,34(r2)

      /* Let the cursor sit at X=0, Y=HEIGHT without scrolling so the user
       * can print two lines of data without losing one.
       */
      if (sp->y > ALT_LCD_HEIGHT)
  813cb0:	e0bffc17 	ldw	r2,-16(fp)
  813cb4:	10800883 	ldbu	r2,34(r2)
  813cb8:	10803fcc 	andi	r2,r2,255
  813cbc:	108000f0 	cmpltui	r2,r2,3
  813cc0:	10003a1e 	bne	r2,zero,813dac <altera_avalon_lcd_16207_write+0x298>
        lcd_scroll_up(sp);
  813cc4:	e13ffc17 	ldw	r4,-16(fp)
  813cc8:	081379c0 	call	81379c <lcd_scroll_up>
  813ccc:	00003706 	br	813dac <altera_avalon_lcd_16207_write+0x298>
    }
    else if (c == '\b')
  813cd0:	e0bff907 	ldb	r2,-28(fp)
  813cd4:	10800218 	cmpnei	r2,r2,8
  813cd8:	10000b1e 	bne	r2,zero,813d08 <altera_avalon_lcd_16207_write+0x1f4>
    {
      if (sp->x > 0)
  813cdc:	e0bffc17 	ldw	r2,-16(fp)
  813ce0:	10800843 	ldbu	r2,33(r2)
  813ce4:	10803fcc 	andi	r2,r2,255
  813ce8:	10003026 	beq	r2,zero,813dac <altera_avalon_lcd_16207_write+0x298>
        sp->x--;
  813cec:	e0bffc17 	ldw	r2,-16(fp)
  813cf0:	10800843 	ldbu	r2,33(r2)
  813cf4:	10bfffc4 	addi	r2,r2,-1
  813cf8:	1007883a 	mov	r3,r2
  813cfc:	e0bffc17 	ldw	r2,-16(fp)
  813d00:	10c00845 	stb	r3,33(r2)
  813d04:	00002906 	br	813dac <altera_avalon_lcd_16207_write+0x298>
    }
    else if (isprint(c))
  813d08:	d0e01117 	ldw	r3,-32700(gp)
  813d0c:	e0bff907 	ldb	r2,-28(fp)
  813d10:	10800044 	addi	r2,r2,1
  813d14:	1885883a 	add	r2,r3,r2
  813d18:	10800003 	ldbu	r2,0(r2)
  813d1c:	10803fcc 	andi	r2,r2,255
  813d20:	1080201c 	xori	r2,r2,128
  813d24:	10bfe004 	addi	r2,r2,-128
  813d28:	108025cc 	andi	r2,r2,151
  813d2c:	10001f26 	beq	r2,zero,813dac <altera_avalon_lcd_16207_write+0x298>
    {
      /* If we didn't scroll on the last linefeed then we might need to do
       * it now. */
      if (sp->y >= ALT_LCD_HEIGHT)
  813d30:	e0bffc17 	ldw	r2,-16(fp)
  813d34:	10800883 	ldbu	r2,34(r2)
  813d38:	10803fcc 	andi	r2,r2,255
  813d3c:	108000b0 	cmpltui	r2,r2,2
  813d40:	1000021e 	bne	r2,zero,813d4c <altera_avalon_lcd_16207_write+0x238>
        lcd_scroll_up(sp);
  813d44:	e13ffc17 	ldw	r4,-16(fp)
  813d48:	081379c0 	call	81379c <lcd_scroll_up>

      if (sp->x < ALT_LCD_VIRTUAL_WIDTH)
  813d4c:	e0bffc17 	ldw	r2,-16(fp)
  813d50:	10800843 	ldbu	r2,33(r2)
  813d54:	10803fcc 	andi	r2,r2,255
  813d58:	10801428 	cmpgeui	r2,r2,80
  813d5c:	10000d1e 	bne	r2,zero,813d94 <altera_avalon_lcd_16207_write+0x280>
        sp->line[sp->y].data[sp->x] = c;
  813d60:	e0bffc17 	ldw	r2,-16(fp)
  813d64:	10800883 	ldbu	r2,34(r2)
  813d68:	10c03fcc 	andi	r3,r2,255
  813d6c:	e0bffc17 	ldw	r2,-16(fp)
  813d70:	10800843 	ldbu	r2,33(r2)
  813d74:	10803fcc 	andi	r2,r2,255
  813d78:	e13ffc17 	ldw	r4,-16(fp)
  813d7c:	18c018e4 	muli	r3,r3,99
  813d80:	20c7883a 	add	r3,r4,r3
  813d84:	1885883a 	add	r2,r3,r2
  813d88:	10801004 	addi	r2,r2,64
  813d8c:	e0fff903 	ldbu	r3,-28(fp)
  813d90:	10c00005 	stb	r3,0(r2)

      sp->x++;
  813d94:	e0bffc17 	ldw	r2,-16(fp)
  813d98:	10800843 	ldbu	r2,33(r2)
  813d9c:	10800044 	addi	r2,r2,1
  813da0:	1007883a 	mov	r3,r2
  813da4:	e0bffc17 	ldw	r2,-16(fp)
  813da8:	10c00845 	stb	r3,33(r2)

  /* Tell the routine which is called off the timer interrupt that the
   * foreground routines are active so it must not repaint the display. */
  sp->active = 1;

  for ( ; ptr < end ; ptr++)
  813dac:	e0bffd17 	ldw	r2,-12(fp)
  813db0:	10800044 	addi	r2,r2,1
  813db4:	e0bffd15 	stw	r2,-12(fp)
  813db8:	e0fffd17 	ldw	r3,-12(fp)
  813dbc:	e0bff817 	ldw	r2,-32(fp)
  813dc0:	18bf6436 	bltu	r3,r2,813b54 <__alt_mem_onchip_mem+0xff80bb54>
      sp->x++;
    }
  }

  /* Recalculate the scrolling parameters */
  widthmax = ALT_LCD_WIDTH;
  813dc4:	00800404 	movi	r2,16
  813dc8:	e0bff615 	stw	r2,-40(fp)
  for (y = 0 ; y < ALT_LCD_HEIGHT ; y++)
  813dcc:	e03ff515 	stw	zero,-44(fp)
  813dd0:	00003706 	br	813eb0 <altera_avalon_lcd_16207_write+0x39c>
  {
    int width;
    for (width = ALT_LCD_VIRTUAL_WIDTH ; width > 0 ; width--)
  813dd4:	00801404 	movi	r2,80
  813dd8:	e0bff715 	stw	r2,-36(fp)
  813ddc:	00001106 	br	813e24 <altera_avalon_lcd_16207_write+0x310>
      if (sp->line[y].data[width-1] != ' ')
  813de0:	e0bff717 	ldw	r2,-36(fp)
  813de4:	10bfffc4 	addi	r2,r2,-1
  813de8:	e13ffc17 	ldw	r4,-16(fp)
  813dec:	e0fff517 	ldw	r3,-44(fp)
  813df0:	18c018e4 	muli	r3,r3,99
  813df4:	20c7883a 	add	r3,r4,r3
  813df8:	1885883a 	add	r2,r3,r2
  813dfc:	10801004 	addi	r2,r2,64
  813e00:	10800003 	ldbu	r2,0(r2)
  813e04:	10803fcc 	andi	r2,r2,255
  813e08:	1080201c 	xori	r2,r2,128
  813e0c:	10bfe004 	addi	r2,r2,-128
  813e10:	10800820 	cmpeqi	r2,r2,32
  813e14:	10000626 	beq	r2,zero,813e30 <altera_avalon_lcd_16207_write+0x31c>
  /* Recalculate the scrolling parameters */
  widthmax = ALT_LCD_WIDTH;
  for (y = 0 ; y < ALT_LCD_HEIGHT ; y++)
  {
    int width;
    for (width = ALT_LCD_VIRTUAL_WIDTH ; width > 0 ; width--)
  813e18:	e0bff717 	ldw	r2,-36(fp)
  813e1c:	10bfffc4 	addi	r2,r2,-1
  813e20:	e0bff715 	stw	r2,-36(fp)
  813e24:	e0bff717 	ldw	r2,-36(fp)
  813e28:	00bfed16 	blt	zero,r2,813de0 <__alt_mem_onchip_mem+0xff80bde0>
  813e2c:	00000106 	br	813e34 <altera_avalon_lcd_16207_write+0x320>
      if (sp->line[y].data[width-1] != ' ')
        break;
  813e30:	0001883a 	nop

    /* The minimum width is the size of the LCD panel.  If the real width
     * is long enough to require scrolling then add an extra space so the
     * end of the message doesn't run into the beginning of it.
     */
    if (width <= ALT_LCD_WIDTH)
  813e34:	e0bff717 	ldw	r2,-36(fp)
  813e38:	10800448 	cmpgei	r2,r2,17
  813e3c:	1000031e 	bne	r2,zero,813e4c <altera_avalon_lcd_16207_write+0x338>
      width = ALT_LCD_WIDTH;
  813e40:	00800404 	movi	r2,16
  813e44:	e0bff715 	stw	r2,-36(fp)
  813e48:	00000306 	br	813e58 <altera_avalon_lcd_16207_write+0x344>
    else
      width++;
  813e4c:	e0bff717 	ldw	r2,-36(fp)
  813e50:	10800044 	addi	r2,r2,1
  813e54:	e0bff715 	stw	r2,-36(fp)

    sp->line[y].width = width;
  813e58:	e0bff717 	ldw	r2,-36(fp)
  813e5c:	1009883a 	mov	r4,r2
  813e60:	e0fffc17 	ldw	r3,-16(fp)
  813e64:	e0bff517 	ldw	r2,-44(fp)
  813e68:	108018e4 	muli	r2,r2,99
  813e6c:	1885883a 	add	r2,r3,r2
  813e70:	10802444 	addi	r2,r2,145
  813e74:	11000005 	stb	r4,0(r2)
    if (widthmax < width)
  813e78:	e0fff617 	ldw	r3,-40(fp)
  813e7c:	e0bff717 	ldw	r2,-36(fp)
  813e80:	1880020e 	bge	r3,r2,813e8c <altera_avalon_lcd_16207_write+0x378>
      widthmax = width;
  813e84:	e0bff717 	ldw	r2,-36(fp)
  813e88:	e0bff615 	stw	r2,-40(fp)
    sp->line[y].speed = 0; /* By default lines don't scroll */
  813e8c:	e0fffc17 	ldw	r3,-16(fp)
  813e90:	e0bff517 	ldw	r2,-44(fp)
  813e94:	108018e4 	muli	r2,r2,99
  813e98:	1885883a 	add	r2,r3,r2
  813e9c:	10802484 	addi	r2,r2,146
  813ea0:	10000005 	stb	zero,0(r2)
    }
  }

  /* Recalculate the scrolling parameters */
  widthmax = ALT_LCD_WIDTH;
  for (y = 0 ; y < ALT_LCD_HEIGHT ; y++)
  813ea4:	e0bff517 	ldw	r2,-44(fp)
  813ea8:	10800044 	addi	r2,r2,1
  813eac:	e0bff515 	stw	r2,-44(fp)
  813eb0:	e0bff517 	ldw	r2,-44(fp)
  813eb4:	10800090 	cmplti	r2,r2,2
  813eb8:	103fc61e 	bne	r2,zero,813dd4 <__alt_mem_onchip_mem+0xff80bdd4>
    if (widthmax < width)
      widthmax = width;
    sp->line[y].speed = 0; /* By default lines don't scroll */
  }

  if (widthmax <= ALT_LCD_WIDTH)
  813ebc:	e0bff617 	ldw	r2,-40(fp)
  813ec0:	10800448 	cmpgei	r2,r2,17
  813ec4:	1000031e 	bne	r2,zero,813ed4 <altera_avalon_lcd_16207_write+0x3c0>
    sp->scrollmax = 0;
  813ec8:	e0bffc17 	ldw	r2,-16(fp)
  813ecc:	10000985 	stb	zero,38(r2)
  813ed0:	00002e06 	br	813f8c <altera_avalon_lcd_16207_write+0x478>
  else
  {
    widthmax *= 2;
  813ed4:	e0bff617 	ldw	r2,-40(fp)
  813ed8:	1085883a 	add	r2,r2,r2
  813edc:	e0bff615 	stw	r2,-40(fp)
    sp->scrollmax = widthmax;
  813ee0:	e0bff617 	ldw	r2,-40(fp)
  813ee4:	1007883a 	mov	r3,r2
  813ee8:	e0bffc17 	ldw	r2,-16(fp)
  813eec:	10c00985 	stb	r3,38(r2)

    /* Now calculate how fast each of the other lines should go */
    for (y = 0 ; y < ALT_LCD_HEIGHT ; y++)
  813ef0:	e03ff515 	stw	zero,-44(fp)
  813ef4:	00002206 	br	813f80 <altera_avalon_lcd_16207_write+0x46c>
      if (sp->line[y].width > ALT_LCD_WIDTH)
  813ef8:	e0fffc17 	ldw	r3,-16(fp)
  813efc:	e0bff517 	ldw	r2,-44(fp)
  813f00:	108018e4 	muli	r2,r2,99
  813f04:	1885883a 	add	r2,r3,r2
  813f08:	10802444 	addi	r2,r2,145
  813f0c:	10800003 	ldbu	r2,0(r2)
  813f10:	10803fcc 	andi	r2,r2,255
  813f14:	1080201c 	xori	r2,r2,128
  813f18:	10bfe004 	addi	r2,r2,-128
  813f1c:	10800450 	cmplti	r2,r2,17
  813f20:	1000141e 	bne	r2,zero,813f74 <altera_avalon_lcd_16207_write+0x460>
         */
#if 1
        /* This option makes all the lines scroll round at different speeds
         * which are chosen so that all the scrolls finish at the same time.
         */
        sp->line[y].speed = 256 * sp->line[y].width / widthmax;
  813f24:	e0fffc17 	ldw	r3,-16(fp)
  813f28:	e0bff517 	ldw	r2,-44(fp)
  813f2c:	108018e4 	muli	r2,r2,99
  813f30:	1885883a 	add	r2,r3,r2
  813f34:	10802444 	addi	r2,r2,145
  813f38:	10800003 	ldbu	r2,0(r2)
  813f3c:	10803fcc 	andi	r2,r2,255
  813f40:	1080201c 	xori	r2,r2,128
  813f44:	10bfe004 	addi	r2,r2,-128
  813f48:	1004923a 	slli	r2,r2,8
  813f4c:	e17ff617 	ldw	r5,-40(fp)
  813f50:	1009883a 	mov	r4,r2
  813f54:	0810d8c0 	call	810d8c <__divsi3>
  813f58:	1009883a 	mov	r4,r2
  813f5c:	e0fffc17 	ldw	r3,-16(fp)
  813f60:	e0bff517 	ldw	r2,-44(fp)
  813f64:	108018e4 	muli	r2,r2,99
  813f68:	1885883a 	add	r2,r3,r2
  813f6c:	10802484 	addi	r2,r2,146
  813f70:	11000005 	stb	r4,0(r2)
  {
    widthmax *= 2;
    sp->scrollmax = widthmax;

    /* Now calculate how fast each of the other lines should go */
    for (y = 0 ; y < ALT_LCD_HEIGHT ; y++)
  813f74:	e0bff517 	ldw	r2,-44(fp)
  813f78:	10800044 	addi	r2,r2,1
  813f7c:	e0bff515 	stw	r2,-44(fp)
  813f80:	e0bff517 	ldw	r2,-44(fp)
  813f84:	10800090 	cmplti	r2,r2,2
  813f88:	103fdb1e 	bne	r2,zero,813ef8 <__alt_mem_onchip_mem+0xff80bef8>
   * (because active was set when the timer interrupt occurred).  If there
   * has been a missed repaint then paint again.  And again.  etc.
   */
  for ( ; ; )
  {
    int old_scrollpos = sp->scrollpos;
  813f8c:	e0bffc17 	ldw	r2,-16(fp)
  813f90:	10800943 	ldbu	r2,37(r2)
  813f94:	10803fcc 	andi	r2,r2,255
  813f98:	e0bffb15 	stw	r2,-20(fp)

    lcd_repaint_screen(sp);
  813f9c:	e13ffc17 	ldw	r4,-16(fp)
  813fa0:	08135b00 	call	8135b0 <lcd_repaint_screen>

    /* Let the timer routines repaint the display again */
    sp->active = 0;
  813fa4:	e0bffc17 	ldw	r2,-16(fp)
  813fa8:	100009c5 	stb	zero,39(r2)

    /* Have the timer routines tried to scroll while we were painting?
     * If not then we can exit */
    if (sp->scrollpos == old_scrollpos)
  813fac:	e0bffc17 	ldw	r2,-16(fp)
  813fb0:	10800943 	ldbu	r2,37(r2)
  813fb4:	10c03fcc 	andi	r3,r2,255
  813fb8:	e0bffb17 	ldw	r2,-20(fp)
  813fbc:	18800426 	beq	r3,r2,813fd0 <altera_avalon_lcd_16207_write+0x4bc>
      break;

    /* We need to repaint again since the display scrolled while we were
     * painting last time */
    sp->active = 1;
  813fc0:	e0bffc17 	ldw	r2,-16(fp)
  813fc4:	00c00044 	movi	r3,1
  813fc8:	10c009c5 	stb	r3,39(r2)
  }
  813fcc:	003fef06 	br	813f8c <__alt_mem_onchip_mem+0xff80bf8c>
    sp->active = 0;

    /* Have the timer routines tried to scroll while we were painting?
     * If not then we can exit */
    if (sp->scrollpos == old_scrollpos)
      break;
  813fd0:	0001883a 	nop
   * semaphore so that other threads can access the buffer.
   */

  ALT_SEM_POST (sp->write_lock);

  return len;
  813fd4:	e0bffe17 	ldw	r2,-8(fp)
}
  813fd8:	e037883a 	mov	sp,fp
  813fdc:	dfc00117 	ldw	ra,4(sp)
  813fe0:	df000017 	ldw	fp,0(sp)
  813fe4:	dec00204 	addi	sp,sp,8
  813fe8:	f800283a 	ret

00813fec <alt_lcd_16207_timeout>:
/*
 * Timeout routine is called every second
 */

static alt_u32 alt_lcd_16207_timeout(void* context) 
{
  813fec:	defffc04 	addi	sp,sp,-16
  813ff0:	dfc00315 	stw	ra,12(sp)
  813ff4:	df000215 	stw	fp,8(sp)
  813ff8:	df000204 	addi	fp,sp,8
  813ffc:	e13fff15 	stw	r4,-4(fp)
  altera_avalon_lcd_16207_state* sp = (altera_avalon_lcd_16207_state*)context;
  814000:	e0bfff17 	ldw	r2,-4(fp)
  814004:	e0bffe15 	stw	r2,-8(fp)

  /* Update the scrolling position */
  if (sp->scrollpos + 1 >= sp->scrollmax)
  814008:	e0bffe17 	ldw	r2,-8(fp)
  81400c:	10800943 	ldbu	r2,37(r2)
  814010:	10803fcc 	andi	r2,r2,255
  814014:	10c00044 	addi	r3,r2,1
  814018:	e0bffe17 	ldw	r2,-8(fp)
  81401c:	10800983 	ldbu	r2,38(r2)
  814020:	10803fcc 	andi	r2,r2,255
  814024:	18800316 	blt	r3,r2,814034 <alt_lcd_16207_timeout+0x48>
    sp->scrollpos = 0;
  814028:	e0bffe17 	ldw	r2,-8(fp)
  81402c:	10000945 	stb	zero,37(r2)
  814030:	00000606 	br	81404c <alt_lcd_16207_timeout+0x60>
  else
    sp->scrollpos = sp->scrollpos + 1;
  814034:	e0bffe17 	ldw	r2,-8(fp)
  814038:	10800943 	ldbu	r2,37(r2)
  81403c:	10800044 	addi	r2,r2,1
  814040:	1007883a 	mov	r3,r2
  814044:	e0bffe17 	ldw	r2,-8(fp)
  814048:	10c00945 	stb	r3,37(r2)

  /* Repaint the panel unless the foreground will do it again soon */
  if (sp->scrollmax > 0 && !sp->active)
  81404c:	e0bffe17 	ldw	r2,-8(fp)
  814050:	10800983 	ldbu	r2,38(r2)
  814054:	10803fcc 	andi	r2,r2,255
  814058:	10000826 	beq	r2,zero,81407c <alt_lcd_16207_timeout+0x90>
  81405c:	e0bffe17 	ldw	r2,-8(fp)
  814060:	108009c3 	ldbu	r2,39(r2)
  814064:	10803fcc 	andi	r2,r2,255
  814068:	1080201c 	xori	r2,r2,128
  81406c:	10bfe004 	addi	r2,r2,-128
  814070:	1000021e 	bne	r2,zero,81407c <alt_lcd_16207_timeout+0x90>
    lcd_repaint_screen(sp);
  814074:	e13ffe17 	ldw	r4,-8(fp)
  814078:	08135b00 	call	8135b0 <lcd_repaint_screen>

  return sp->period;
  81407c:	e0bffe17 	ldw	r2,-8(fp)
  814080:	10800717 	ldw	r2,28(r2)
}
  814084:	e037883a 	mov	sp,fp
  814088:	dfc00117 	ldw	ra,4(sp)
  81408c:	df000017 	ldw	fp,0(sp)
  814090:	dec00204 	addi	sp,sp,8
  814094:	f800283a 	ret

00814098 <altera_avalon_lcd_16207_init>:

/*
 * Called at boot time to initialise the LCD driver
 */
void altera_avalon_lcd_16207_init(altera_avalon_lcd_16207_state* sp)
{
  814098:	defffc04 	addi	sp,sp,-16
  81409c:	dfc00315 	stw	ra,12(sp)
  8140a0:	df000215 	stw	fp,8(sp)
  8140a4:	df000204 	addi	fp,sp,8
  8140a8:	e13fff15 	stw	r4,-4(fp)
  unsigned int base = sp->base;
  8140ac:	e0bfff17 	ldw	r2,-4(fp)
  8140b0:	10800017 	ldw	r2,0(r2)
  8140b4:	e0bffe15 	stw	r2,-8(fp)

  /* Mark the device as functional */
  sp->broken = 0;
  8140b8:	e0bfff17 	ldw	r2,-4(fp)
  8140bc:	10000805 	stb	zero,32(r2)
   * the BUSY bit in the status register doesn't work until the display
   * has been reset three times.
   */

  /* Wait for 15 ms then reset */
  usleep(15000);
  8140c0:	010ea604 	movi	r4,15000
  8140c4:	08152440 	call	815244 <usleep>
  IOWR_ALTERA_AVALON_LCD_16207_COMMAND(base, LCD_CMD_FUNCTION_SET | LCD_CMD_8BIT);
  8140c8:	e0bffe17 	ldw	r2,-8(fp)
  8140cc:	00c00c04 	movi	r3,48
  8140d0:	10c00035 	stwio	r3,0(r2)

  /* Wait for another 4.1ms and reset again */
  usleep(4100);  
  8140d4:	01040104 	movi	r4,4100
  8140d8:	08152440 	call	815244 <usleep>
  IOWR_ALTERA_AVALON_LCD_16207_COMMAND(base, LCD_CMD_FUNCTION_SET | LCD_CMD_8BIT);
  8140dc:	e0bffe17 	ldw	r2,-8(fp)
  8140e0:	00c00c04 	movi	r3,48
  8140e4:	10c00035 	stwio	r3,0(r2)

  /* Wait a further 1 ms and reset a third time */
  usleep(1000);
  8140e8:	0100fa04 	movi	r4,1000
  8140ec:	08152440 	call	815244 <usleep>
  IOWR_ALTERA_AVALON_LCD_16207_COMMAND(base, LCD_CMD_FUNCTION_SET | LCD_CMD_8BIT);
  8140f0:	e0bffe17 	ldw	r2,-8(fp)
  8140f4:	00c00c04 	movi	r3,48
  8140f8:	10c00035 	stwio	r3,0(r2)

  /* Setup interface parameters: 8 bit bus, 2 rows, 5x7 font */
  lcd_write_command(sp, LCD_CMD_FUNCTION_SET | LCD_CMD_8BIT | LCD_CMD_TWO_LINE);
  8140fc:	01400e04 	movi	r5,56
  814100:	e13fff17 	ldw	r4,-4(fp)
  814104:	08133500 	call	813350 <lcd_write_command>
  
  /* Turn display off */
  lcd_write_command(sp, LCD_CMD_ONOFF);
  814108:	01400204 	movi	r5,8
  81410c:	e13fff17 	ldw	r4,-4(fp)
  814110:	08133500 	call	813350 <lcd_write_command>

  /* Clear display */
  lcd_clear_screen(sp);
  814114:	e13fff17 	ldw	r4,-4(fp)
  814118:	08134e00 	call	8134e0 <lcd_clear_screen>
  
  /* Set mode: increment after writing, don't shift display */
  lcd_write_command(sp, LCD_CMD_MODES | LCD_CMD_MODE_INC);
  81411c:	01400184 	movi	r5,6
  814120:	e13fff17 	ldw	r4,-4(fp)
  814124:	08133500 	call	813350 <lcd_write_command>

  /* Turn display on */
  lcd_write_command(sp, LCD_CMD_ONOFF | LCD_CMD_ENABLE_DISP);
  814128:	01400304 	movi	r5,12
  81412c:	e13fff17 	ldw	r4,-4(fp)
  814130:	08133500 	call	813350 <lcd_write_command>

  sp->esccount = -1;
  814134:	e0bfff17 	ldw	r2,-4(fp)
  814138:	00ffffc4 	movi	r3,-1
  81413c:	10c00905 	stb	r3,36(r2)
  memset(sp->escape, 0, sizeof(sp->escape));
  814140:	e0bfff17 	ldw	r2,-4(fp)
  814144:	10800a04 	addi	r2,r2,40
  814148:	01800204 	movi	r6,8
  81414c:	000b883a 	mov	r5,zero
  814150:	1009883a 	mov	r4,r2
  814154:	080c3480 	call	80c348 <memset>

  sp->scrollpos = 0;
  814158:	e0bfff17 	ldw	r2,-4(fp)
  81415c:	10000945 	stb	zero,37(r2)
  sp->scrollmax = 0;
  814160:	e0bfff17 	ldw	r2,-4(fp)
  814164:	10000985 	stb	zero,38(r2)
  sp->active = 0;
  814168:	e0bfff17 	ldw	r2,-4(fp)
  81416c:	100009c5 	stb	zero,39(r2)
  814170:	d0a76017 	ldw	r2,-25216(gp)

  sp->period = alt_ticks_per_second() / 10; /* Call every 100ms */
  814174:	01400284 	movi	r5,10
  814178:	1009883a 	mov	r4,r2
  81417c:	0810e840 	call	810e84 <__udivsi3>
  814180:	1007883a 	mov	r3,r2
  814184:	e0bfff17 	ldw	r2,-4(fp)
  814188:	10c00715 	stw	r3,28(r2)

  alt_alarm_start(&sp->alarm, sp->period, &alt_lcd_16207_timeout, sp);
  81418c:	e0bfff17 	ldw	r2,-4(fp)
  814190:	10c00104 	addi	r3,r2,4
  814194:	e0bfff17 	ldw	r2,-4(fp)
  814198:	10800717 	ldw	r2,28(r2)
  81419c:	e1ffff17 	ldw	r7,-4(fp)
  8141a0:	01802074 	movhi	r6,129
  8141a4:	318ffb04 	addi	r6,r6,16364
  8141a8:	100b883a 	mov	r5,r2
  8141ac:	1809883a 	mov	r4,r3
  8141b0:	08119300 	call	811930 <alt_alarm_start>
}
  8141b4:	0001883a 	nop
  8141b8:	e037883a 	mov	sp,fp
  8141bc:	dfc00117 	ldw	ra,4(sp)
  8141c0:	df000017 	ldw	fp,0(sp)
  8141c4:	dec00204 	addi	sp,sp,8
  8141c8:	f800283a 	ret

008141cc <altera_avalon_lcd_16207_write_fd>:
extern int altera_avalon_lcd_16207_write(altera_avalon_lcd_16207_state* sp,
  const char* ptr, int count, int flags);

int 
altera_avalon_lcd_16207_write_fd(alt_fd* fd, const char* buffer, int space)
{
  8141cc:	defffa04 	addi	sp,sp,-24
  8141d0:	dfc00515 	stw	ra,20(sp)
  8141d4:	df000415 	stw	fp,16(sp)
  8141d8:	df000404 	addi	fp,sp,16
  8141dc:	e13ffd15 	stw	r4,-12(fp)
  8141e0:	e17ffe15 	stw	r5,-8(fp)
  8141e4:	e1bfff15 	stw	r6,-4(fp)
    altera_avalon_lcd_16207_dev* dev = (altera_avalon_lcd_16207_dev*) fd->dev; 
  8141e8:	e0bffd17 	ldw	r2,-12(fp)
  8141ec:	10800017 	ldw	r2,0(r2)
  8141f0:	e0bffc15 	stw	r2,-16(fp)

    return altera_avalon_lcd_16207_write(&dev->state, buffer, space,
  8141f4:	e0bffc17 	ldw	r2,-16(fp)
  8141f8:	10c00a04 	addi	r3,r2,40
  8141fc:	e0bffd17 	ldw	r2,-12(fp)
  814200:	10800217 	ldw	r2,8(r2)
  814204:	100f883a 	mov	r7,r2
  814208:	e1bfff17 	ldw	r6,-4(fp)
  81420c:	e17ffe17 	ldw	r5,-8(fp)
  814210:	1809883a 	mov	r4,r3
  814214:	0813b140 	call	813b14 <altera_avalon_lcd_16207_write>
      fd->fd_flags);
}
  814218:	e037883a 	mov	sp,fp
  81421c:	dfc00117 	ldw	ra,4(sp)
  814220:	df000017 	ldw	fp,0(sp)
  814224:	dec00204 	addi	sp,sp,8
  814228:	f800283a 	ret

0081422c <alt_avalon_timer_sc_irq>:
#ifdef ALT_ENHANCED_INTERRUPT_API_PRESENT
static void alt_avalon_timer_sc_irq (void* base)
#else
static void alt_avalon_timer_sc_irq (void* base, alt_u32 id)
#endif
{
  81422c:	defffa04 	addi	sp,sp,-24
  814230:	dfc00515 	stw	ra,20(sp)
  814234:	df000415 	stw	fp,16(sp)
  814238:	df000404 	addi	fp,sp,16
  81423c:	e13fff15 	stw	r4,-4(fp)
  alt_irq_context cpu_sr;
  
  /* clear the interrupt */
  IOWR_ALTERA_AVALON_TIMER_STATUS (base, 0);
  814240:	0007883a 	mov	r3,zero
  814244:	e0bfff17 	ldw	r2,-4(fp)
  814248:	10c00035 	stwio	r3,0(r2)
  /* 
   * Dummy read to ensure IRQ is negated before the ISR returns.
   * The control register is read because reading the status
   * register has side-effects per the register map documentation.
   */
  IORD_ALTERA_AVALON_TIMER_CONTROL (base);
  81424c:	e0bfff17 	ldw	r2,-4(fp)
  814250:	10800104 	addi	r2,r2,4
  814254:	10800037 	ldwio	r2,0(r2)
static ALT_INLINE alt_irq_context ALT_ALWAYS_INLINE 
       alt_irq_disable_all (void)
{
  alt_irq_context context;

  NIOS2_READ_STATUS (context);
  814258:	0005303a 	rdctl	r2,status
  81425c:	e0bffd15 	stw	r2,-12(fp)

  NIOS2_WRITE_STATUS (context & ~NIOS2_STATUS_PIE_MSK);
  814260:	e0fffd17 	ldw	r3,-12(fp)
  814264:	00bfff84 	movi	r2,-2
  814268:	1884703a 	and	r2,r3,r2
  81426c:	1001703a 	wrctl	status,r2
  
  return context;
  814270:	e0bffd17 	ldw	r2,-12(fp)

  /* 
   * Notify the system of a clock tick. disable interrupts 
   * during this time to safely support ISR preemption
   */
  cpu_sr = alt_irq_disable_all();
  814274:	e0bffc15 	stw	r2,-16(fp)
  alt_tick ();
  814278:	08125a80 	call	8125a8 <alt_tick>
  81427c:	e0bffc17 	ldw	r2,-16(fp)
  814280:	e0bffe15 	stw	r2,-8(fp)
  status &= ~NIOS2_STATUS_PIE_MSK;
  status |= (context & NIOS2_STATUS_PIE_MSK);
  
  NIOS2_WRITE_STATUS (status);
#else
  NIOS2_WRITE_STATUS (context);
  814284:	e0bffe17 	ldw	r2,-8(fp)
  814288:	1001703a 	wrctl	status,r2
  alt_irq_enable_all(cpu_sr);
}
  81428c:	0001883a 	nop
  814290:	e037883a 	mov	sp,fp
  814294:	dfc00117 	ldw	ra,4(sp)
  814298:	df000017 	ldw	fp,0(sp)
  81429c:	dec00204 	addi	sp,sp,8
  8142a0:	f800283a 	ret

008142a4 <alt_avalon_timer_sc_init>:
 * auto-generated alt_sys_init() function.
 */

void alt_avalon_timer_sc_init (void* base, alt_u32 irq_controller_id, 
                                alt_u32 irq, alt_u32 freq)
{
  8142a4:	defff804 	addi	sp,sp,-32
  8142a8:	dfc00715 	stw	ra,28(sp)
  8142ac:	df000615 	stw	fp,24(sp)
  8142b0:	df000604 	addi	fp,sp,24
  8142b4:	e13ffc15 	stw	r4,-16(fp)
  8142b8:	e17ffd15 	stw	r5,-12(fp)
  8142bc:	e1bffe15 	stw	r6,-8(fp)
  8142c0:	e1ffff15 	stw	r7,-4(fp)
  8142c4:	e0bfff17 	ldw	r2,-4(fp)
  8142c8:	e0bffb15 	stw	r2,-20(fp)
 * in order to initialise the value of the clock frequency.
 */

static ALT_INLINE int ALT_ALWAYS_INLINE alt_sysclk_init (alt_u32 nticks)
{
  if (! _alt_tick_rate)
  8142cc:	d0a76017 	ldw	r2,-25216(gp)
  8142d0:	1000021e 	bne	r2,zero,8142dc <alt_avalon_timer_sc_init+0x38>
  {
    _alt_tick_rate = nticks;
  8142d4:	e0bffb17 	ldw	r2,-20(fp)
  8142d8:	d0a76015 	stw	r2,-25216(gp)
  
  alt_sysclk_init (freq);
  
  /* set to free running mode */
  
  IOWR_ALTERA_AVALON_TIMER_CONTROL (base, 
  8142dc:	e0bffc17 	ldw	r2,-16(fp)
  8142e0:	10800104 	addi	r2,r2,4
  8142e4:	00c001c4 	movi	r3,7
  8142e8:	10c00035 	stwio	r3,0(r2)
            ALTERA_AVALON_TIMER_CONTROL_CONT_MSK |
            ALTERA_AVALON_TIMER_CONTROL_START_MSK);

  /* register the interrupt handler, and enable the interrupt */
#ifdef ALT_ENHANCED_INTERRUPT_API_PRESENT
  alt_ic_isr_register(irq_controller_id, irq, alt_avalon_timer_sc_irq, 
  8142ec:	d8000015 	stw	zero,0(sp)
  8142f0:	e1fffc17 	ldw	r7,-16(fp)
  8142f4:	01802074 	movhi	r6,129
  8142f8:	31908b04 	addi	r6,r6,16940
  8142fc:	e17ffe17 	ldw	r5,-8(fp)
  814300:	e13ffd17 	ldw	r4,-12(fp)
  814304:	0811c800 	call	811c80 <alt_ic_isr_register>
                      base, NULL);
#else
  alt_irq_register (irq, base, alt_avalon_timer_sc_irq);
#endif  
}
  814308:	0001883a 	nop
  81430c:	e037883a 	mov	sp,fp
  814310:	dfc00117 	ldw	ra,4(sp)
  814314:	df000017 	ldw	fp,0(sp)
  814318:	dec00204 	addi	sp,sp,8
  81431c:	f800283a 	ret

00814320 <altera_avalon_uart_read_fd>:
 *
 */

int 
altera_avalon_uart_read_fd(alt_fd* fd, char* buffer, int space)
{
  814320:	defffa04 	addi	sp,sp,-24
  814324:	dfc00515 	stw	ra,20(sp)
  814328:	df000415 	stw	fp,16(sp)
  81432c:	df000404 	addi	fp,sp,16
  814330:	e13ffd15 	stw	r4,-12(fp)
  814334:	e17ffe15 	stw	r5,-8(fp)
  814338:	e1bfff15 	stw	r6,-4(fp)
    altera_avalon_uart_dev* dev = (altera_avalon_uart_dev*) fd->dev; 
  81433c:	e0bffd17 	ldw	r2,-12(fp)
  814340:	10800017 	ldw	r2,0(r2)
  814344:	e0bffc15 	stw	r2,-16(fp)

    return altera_avalon_uart_read(&dev->state, buffer, space,
  814348:	e0bffc17 	ldw	r2,-16(fp)
  81434c:	10c00a04 	addi	r3,r2,40
  814350:	e0bffd17 	ldw	r2,-12(fp)
  814354:	10800217 	ldw	r2,8(r2)
  814358:	100f883a 	mov	r7,r2
  81435c:	e1bfff17 	ldw	r6,-4(fp)
  814360:	e17ffe17 	ldw	r5,-8(fp)
  814364:	1809883a 	mov	r4,r3
  814368:	08148340 	call	814834 <altera_avalon_uart_read>
      fd->fd_flags);
}
  81436c:	e037883a 	mov	sp,fp
  814370:	dfc00117 	ldw	ra,4(sp)
  814374:	df000017 	ldw	fp,0(sp)
  814378:	dec00204 	addi	sp,sp,8
  81437c:	f800283a 	ret

00814380 <altera_avalon_uart_write_fd>:

int 
altera_avalon_uart_write_fd(alt_fd* fd, const char* buffer, int space)
{
  814380:	defffa04 	addi	sp,sp,-24
  814384:	dfc00515 	stw	ra,20(sp)
  814388:	df000415 	stw	fp,16(sp)
  81438c:	df000404 	addi	fp,sp,16
  814390:	e13ffd15 	stw	r4,-12(fp)
  814394:	e17ffe15 	stw	r5,-8(fp)
  814398:	e1bfff15 	stw	r6,-4(fp)
    altera_avalon_uart_dev* dev = (altera_avalon_uart_dev*) fd->dev; 
  81439c:	e0bffd17 	ldw	r2,-12(fp)
  8143a0:	10800017 	ldw	r2,0(r2)
  8143a4:	e0bffc15 	stw	r2,-16(fp)

    return altera_avalon_uart_write(&dev->state, buffer, space,
  8143a8:	e0bffc17 	ldw	r2,-16(fp)
  8143ac:	10c00a04 	addi	r3,r2,40
  8143b0:	e0bffd17 	ldw	r2,-12(fp)
  8143b4:	10800217 	ldw	r2,8(r2)
  8143b8:	100f883a 	mov	r7,r2
  8143bc:	e1bfff17 	ldw	r6,-4(fp)
  8143c0:	e17ffe17 	ldw	r5,-8(fp)
  8143c4:	1809883a 	mov	r4,r3
  8143c8:	0814a4c0 	call	814a4c <altera_avalon_uart_write>
      fd->fd_flags);
}
  8143cc:	e037883a 	mov	sp,fp
  8143d0:	dfc00117 	ldw	ra,4(sp)
  8143d4:	df000017 	ldw	fp,0(sp)
  8143d8:	dec00204 	addi	sp,sp,8
  8143dc:	f800283a 	ret

008143e0 <altera_avalon_uart_close_fd>:

#endif /* ALTERA_AVALON_UART_USE_IOCTL */

int 
altera_avalon_uart_close_fd(alt_fd* fd)
{
  8143e0:	defffc04 	addi	sp,sp,-16
  8143e4:	dfc00315 	stw	ra,12(sp)
  8143e8:	df000215 	stw	fp,8(sp)
  8143ec:	df000204 	addi	fp,sp,8
  8143f0:	e13fff15 	stw	r4,-4(fp)
    altera_avalon_uart_dev* dev = (altera_avalon_uart_dev*) fd->dev; 
  8143f4:	e0bfff17 	ldw	r2,-4(fp)
  8143f8:	10800017 	ldw	r2,0(r2)
  8143fc:	e0bffe15 	stw	r2,-8(fp)

    return altera_avalon_uart_close(&dev->state, fd->fd_flags);
  814400:	e0bffe17 	ldw	r2,-8(fp)
  814404:	10c00a04 	addi	r3,r2,40
  814408:	e0bfff17 	ldw	r2,-4(fp)
  81440c:	10800217 	ldw	r2,8(r2)
  814410:	100b883a 	mov	r5,r2
  814414:	1809883a 	mov	r4,r3
  814418:	08147a40 	call	8147a4 <altera_avalon_uart_close>
}
  81441c:	e037883a 	mov	sp,fp
  814420:	dfc00117 	ldw	ra,4(sp)
  814424:	df000017 	ldw	fp,0(sp)
  814428:	dec00204 	addi	sp,sp,8
  81442c:	f800283a 	ret

00814430 <altera_avalon_uart_init>:
  alt_u32 status);

void 
altera_avalon_uart_init(altera_avalon_uart_state* sp, 
  alt_u32 irq_controller_id,  alt_u32 irq)
{
  814430:	defff804 	addi	sp,sp,-32
  814434:	dfc00715 	stw	ra,28(sp)
  814438:	df000615 	stw	fp,24(sp)
  81443c:	df000604 	addi	fp,sp,24
  814440:	e13ffd15 	stw	r4,-12(fp)
  814444:	e17ffe15 	stw	r5,-8(fp)
  814448:	e1bfff15 	stw	r6,-4(fp)
  void* base = sp->base;
  81444c:	e0bffd17 	ldw	r2,-12(fp)
  814450:	10800017 	ldw	r2,0(r2)
  814454:	e0bffb15 	stw	r2,-20(fp)
 * HAL.
 */

static ALT_INLINE int ALT_ALWAYS_INLINE alt_no_error (void)
{
  return 0;
  814458:	0005883a 	mov	r2,zero
   * Initialise the read and write flags and the semaphores used to 
   * protect access to the circular buffers when running in a multi-threaded
   * environment.
   */
  error = ALT_FLAG_CREATE (&sp->events, 0)    || 
          ALT_SEM_CREATE (&sp->read_lock, 1)  ||
  81445c:	1000041e 	bne	r2,zero,814470 <altera_avalon_uart_init+0x40>
  814460:	0005883a 	mov	r2,zero
  /* 
   * Initialise the read and write flags and the semaphores used to 
   * protect access to the circular buffers when running in a multi-threaded
   * environment.
   */
  error = ALT_FLAG_CREATE (&sp->events, 0)    || 
  814464:	1000021e 	bne	r2,zero,814470 <altera_avalon_uart_init+0x40>
  814468:	0005883a 	mov	r2,zero
          ALT_SEM_CREATE (&sp->read_lock, 1)  ||
  81446c:	10000226 	beq	r2,zero,814478 <altera_avalon_uart_init+0x48>
  814470:	00800044 	movi	r2,1
  814474:	00000106 	br	81447c <altera_avalon_uart_init+0x4c>
  814478:	0005883a 	mov	r2,zero
  /* 
   * Initialise the read and write flags and the semaphores used to 
   * protect access to the circular buffers when running in a multi-threaded
   * environment.
   */
  error = ALT_FLAG_CREATE (&sp->events, 0)    || 
  81447c:	e0bffc15 	stw	r2,-16(fp)
          ALT_SEM_CREATE (&sp->read_lock, 1)  ||
          ALT_SEM_CREATE (&sp->write_lock, 1);

  if (!error)
  814480:	e0bffc17 	ldw	r2,-16(fp)
  814484:	10000f1e 	bne	r2,zero,8144c4 <altera_avalon_uart_init+0x94>
  {
    /* enable interrupts at the device */
    sp->ctrl = ALTERA_AVALON_UART_CONTROL_RTS_MSK  |
  814488:	e0bffd17 	ldw	r2,-12(fp)
  81448c:	00c32004 	movi	r3,3200
  814490:	10c00115 	stw	r3,4(r2)
                ALTERA_AVALON_UART_CONTROL_RRDY_MSK |
                ALTERA_AVALON_UART_CONTROL_DCTS_MSK;

    IOWR_ALTERA_AVALON_UART_CONTROL(base, sp->ctrl); 
  814494:	e0bffb17 	ldw	r2,-20(fp)
  814498:	10800304 	addi	r2,r2,12
  81449c:	e0fffd17 	ldw	r3,-12(fp)
  8144a0:	18c00117 	ldw	r3,4(r3)
  8144a4:	10c00035 	stwio	r3,0(r2)
  
    /* register the interrupt handler */
#ifdef ALT_ENHANCED_INTERRUPT_API_PRESENT
    alt_ic_isr_register(irq_controller_id, irq, altera_avalon_uart_irq, sp, 
  8144a8:	d8000015 	stw	zero,0(sp)
  8144ac:	e1fffd17 	ldw	r7,-12(fp)
  8144b0:	01802074 	movhi	r6,129
  8144b4:	31913704 	addi	r6,r6,17628
  8144b8:	e17fff17 	ldw	r5,-4(fp)
  8144bc:	e13ffe17 	ldw	r4,-8(fp)
  8144c0:	0811c800 	call	811c80 <alt_ic_isr_register>
      0x0);
#else
    alt_irq_register (irq, sp, altera_avalon_uart_irq);
#endif  
  }
}
  8144c4:	0001883a 	nop
  8144c8:	e037883a 	mov	sp,fp
  8144cc:	dfc00117 	ldw	ra,4(sp)
  8144d0:	df000017 	ldw	fp,0(sp)
  8144d4:	dec00204 	addi	sp,sp,8
  8144d8:	f800283a 	ret

008144dc <altera_avalon_uart_irq>:
#ifdef ALT_ENHANCED_INTERRUPT_API_PRESENT
static void altera_avalon_uart_irq(void* context)
#else
static void altera_avalon_uart_irq(void* context, alt_u32 id)
#endif
{
  8144dc:	defffa04 	addi	sp,sp,-24
  8144e0:	dfc00515 	stw	ra,20(sp)
  8144e4:	df000415 	stw	fp,16(sp)
  8144e8:	df000404 	addi	fp,sp,16
  8144ec:	e13fff15 	stw	r4,-4(fp)
  alt_u32 status;

  altera_avalon_uart_state* sp = (altera_avalon_uart_state*) context;
  8144f0:	e0bfff17 	ldw	r2,-4(fp)
  8144f4:	e0bffc15 	stw	r2,-16(fp)
  void* base               = sp->base;
  8144f8:	e0bffc17 	ldw	r2,-16(fp)
  8144fc:	10800017 	ldw	r2,0(r2)
  814500:	e0bffd15 	stw	r2,-12(fp)
  /*
   * Read the status register in order to determine the cause of the
   * interrupt.
   */

  status = IORD_ALTERA_AVALON_UART_STATUS(base);
  814504:	e0bffd17 	ldw	r2,-12(fp)
  814508:	10800204 	addi	r2,r2,8
  81450c:	10800037 	ldwio	r2,0(r2)
  814510:	e0bffe15 	stw	r2,-8(fp)

  /* Clear any error flags set at the device */
  IOWR_ALTERA_AVALON_UART_STATUS(base, 0);
  814514:	e0bffd17 	ldw	r2,-12(fp)
  814518:	10800204 	addi	r2,r2,8
  81451c:	0007883a 	mov	r3,zero
  814520:	10c00035 	stwio	r3,0(r2)

  /* Dummy read to ensure IRQ is negated before ISR returns */
  IORD_ALTERA_AVALON_UART_STATUS(base);
  814524:	e0bffd17 	ldw	r2,-12(fp)
  814528:	10800204 	addi	r2,r2,8
  81452c:	10800037 	ldwio	r2,0(r2)
  
  /* process a read irq */
  if (status & ALTERA_AVALON_UART_STATUS_RRDY_MSK)
  814530:	e0bffe17 	ldw	r2,-8(fp)
  814534:	1080200c 	andi	r2,r2,128
  814538:	10000326 	beq	r2,zero,814548 <altera_avalon_uart_irq+0x6c>
  {
    altera_avalon_uart_rxirq(sp, status);
  81453c:	e17ffe17 	ldw	r5,-8(fp)
  814540:	e13ffc17 	ldw	r4,-16(fp)
  814544:	08145780 	call	814578 <altera_avalon_uart_rxirq>
  }

  /* process a write irq */
  if (status & (ALTERA_AVALON_UART_STATUS_TRDY_MSK | 
  814548:	e0bffe17 	ldw	r2,-8(fp)
  81454c:	1081100c 	andi	r2,r2,1088
  814550:	10000326 	beq	r2,zero,814560 <altera_avalon_uart_irq+0x84>
                  ALTERA_AVALON_UART_STATUS_DCTS_MSK))
  {
    altera_avalon_uart_txirq(sp, status);
  814554:	e17ffe17 	ldw	r5,-8(fp)
  814558:	e13ffc17 	ldw	r4,-16(fp)
  81455c:	081465c0 	call	81465c <altera_avalon_uart_txirq>
  }
  

}
  814560:	0001883a 	nop
  814564:	e037883a 	mov	sp,fp
  814568:	dfc00117 	ldw	ra,4(sp)
  81456c:	df000017 	ldw	fp,0(sp)
  814570:	dec00204 	addi	sp,sp,8
  814574:	f800283a 	ret

00814578 <altera_avalon_uart_rxirq>:
 * the receive circular buffer, and sets the apropriate flags to indicate 
 * that there is data ready to be processed.
 */
static void 
altera_avalon_uart_rxirq(altera_avalon_uart_state* sp, alt_u32 status)
{
  814578:	defffc04 	addi	sp,sp,-16
  81457c:	df000315 	stw	fp,12(sp)
  814580:	df000304 	addi	fp,sp,12
  814584:	e13ffe15 	stw	r4,-8(fp)
  814588:	e17fff15 	stw	r5,-4(fp)
  alt_u32 next;
  
  /* If there was an error, discard the data */

  if (status & (ALTERA_AVALON_UART_STATUS_PE_MSK | 
  81458c:	e0bfff17 	ldw	r2,-4(fp)
  814590:	108000cc 	andi	r2,r2,3
  814594:	10002c1e 	bne	r2,zero,814648 <altera_avalon_uart_rxirq+0xd0>
   * In a multi-threaded environment, set the read event flag to indicate
   * that there is data ready. This is only done if the circular buffer was
   * previously empty.
   */

  if (sp->rx_end == sp->rx_start)
  814598:	e0bffe17 	ldw	r2,-8(fp)
  81459c:	10800317 	ldw	r2,12(r2)
  8145a0:	e0bffe17 	ldw	r2,-8(fp)
  8145a4:	10800217 	ldw	r2,8(r2)
    ALT_FLAG_POST (sp->events, ALT_UART_READ_RDY, OS_FLAG_SET);
  }

  /* Determine which slot to use next in the circular buffer */

  next = (sp->rx_end + 1) & ALT_AVALON_UART_BUF_MSK;
  8145a8:	e0bffe17 	ldw	r2,-8(fp)
  8145ac:	10800317 	ldw	r2,12(r2)
  8145b0:	10800044 	addi	r2,r2,1
  8145b4:	10800fcc 	andi	r2,r2,63
  8145b8:	e0bffd15 	stw	r2,-12(fp)

  /* Transfer data from the device to the circular buffer */

  sp->rx_buf[sp->rx_end] = IORD_ALTERA_AVALON_UART_RXDATA(sp->base);
  8145bc:	e0bffe17 	ldw	r2,-8(fp)
  8145c0:	10800317 	ldw	r2,12(r2)
  8145c4:	e0fffe17 	ldw	r3,-8(fp)
  8145c8:	18c00017 	ldw	r3,0(r3)
  8145cc:	18c00037 	ldwio	r3,0(r3)
  8145d0:	1809883a 	mov	r4,r3
  8145d4:	e0fffe17 	ldw	r3,-8(fp)
  8145d8:	1885883a 	add	r2,r3,r2
  8145dc:	10800704 	addi	r2,r2,28
  8145e0:	11000005 	stb	r4,0(r2)

  sp->rx_end = next;
  8145e4:	e0bffe17 	ldw	r2,-8(fp)
  8145e8:	e0fffd17 	ldw	r3,-12(fp)
  8145ec:	10c00315 	stw	r3,12(r2)

  next = (sp->rx_end + 1) & ALT_AVALON_UART_BUF_MSK;
  8145f0:	e0bffe17 	ldw	r2,-8(fp)
  8145f4:	10800317 	ldw	r2,12(r2)
  8145f8:	10800044 	addi	r2,r2,1
  8145fc:	10800fcc 	andi	r2,r2,63
  814600:	e0bffd15 	stw	r2,-12(fp)
  /*
   * If the cicular buffer was full, disable interrupts. Interrupts will be
   * re-enabled when data is removed from the buffer.
   */

  if (next == sp->rx_start)
  814604:	e0bffe17 	ldw	r2,-8(fp)
  814608:	10c00217 	ldw	r3,8(r2)
  81460c:	e0bffd17 	ldw	r2,-12(fp)
  814610:	18800e1e 	bne	r3,r2,81464c <altera_avalon_uart_rxirq+0xd4>
  {
    sp->ctrl &= ~ALTERA_AVALON_UART_CONTROL_RRDY_MSK;
  814614:	e0bffe17 	ldw	r2,-8(fp)
  814618:	10c00117 	ldw	r3,4(r2)
  81461c:	00bfdfc4 	movi	r2,-129
  814620:	1886703a 	and	r3,r3,r2
  814624:	e0bffe17 	ldw	r2,-8(fp)
  814628:	10c00115 	stw	r3,4(r2)
    IOWR_ALTERA_AVALON_UART_CONTROL(sp->base, sp->ctrl); 
  81462c:	e0bffe17 	ldw	r2,-8(fp)
  814630:	10800017 	ldw	r2,0(r2)
  814634:	10800304 	addi	r2,r2,12
  814638:	e0fffe17 	ldw	r3,-8(fp)
  81463c:	18c00117 	ldw	r3,4(r3)
  814640:	10c00035 	stwio	r3,0(r2)
  814644:	00000106 	br	81464c <altera_avalon_uart_rxirq+0xd4>
  /* If there was an error, discard the data */

  if (status & (ALTERA_AVALON_UART_STATUS_PE_MSK | 
                  ALTERA_AVALON_UART_STATUS_FE_MSK))
  {
    return;
  814648:	0001883a 	nop
  if (next == sp->rx_start)
  {
    sp->ctrl &= ~ALTERA_AVALON_UART_CONTROL_RRDY_MSK;
    IOWR_ALTERA_AVALON_UART_CONTROL(sp->base, sp->ctrl); 
  }   
}
  81464c:	e037883a 	mov	sp,fp
  814650:	df000017 	ldw	fp,0(sp)
  814654:	dec00104 	addi	sp,sp,4
  814658:	f800283a 	ret

0081465c <altera_avalon_uart_txirq>:
 * buffer to the device, and sets the apropriate flags to indicate that 
 * there is data ready to be processed.
 */
static void 
altera_avalon_uart_txirq(altera_avalon_uart_state* sp, alt_u32 status)
{
  81465c:	defffb04 	addi	sp,sp,-20
  814660:	df000415 	stw	fp,16(sp)
  814664:	df000404 	addi	fp,sp,16
  814668:	e13ffc15 	stw	r4,-16(fp)
  81466c:	e17ffd15 	stw	r5,-12(fp)
  /* Transfer data if there is some ready to be transfered */

  if (sp->tx_start != sp->tx_end)
  814670:	e0bffc17 	ldw	r2,-16(fp)
  814674:	10c00417 	ldw	r3,16(r2)
  814678:	e0bffc17 	ldw	r2,-16(fp)
  81467c:	10800517 	ldw	r2,20(r2)
  814680:	18803226 	beq	r3,r2,81474c <altera_avalon_uart_txirq+0xf0>
    /* 
     * If the device is using flow control (i.e. RTS/CTS), then the
     * transmitter is required to throttle if CTS is high.
     */

    if (!(sp->flags & ALT_AVALON_UART_FC) ||
  814684:	e0bffc17 	ldw	r2,-16(fp)
  814688:	10800617 	ldw	r2,24(r2)
  81468c:	1080008c 	andi	r2,r2,2
  814690:	10000326 	beq	r2,zero,8146a0 <altera_avalon_uart_txirq+0x44>
      (status & ALTERA_AVALON_UART_STATUS_CTS_MSK))
  814694:	e0bffd17 	ldw	r2,-12(fp)
  814698:	1082000c 	andi	r2,r2,2048
    /* 
     * If the device is using flow control (i.e. RTS/CTS), then the
     * transmitter is required to throttle if CTS is high.
     */

    if (!(sp->flags & ALT_AVALON_UART_FC) ||
  81469c:	10001d26 	beq	r2,zero,814714 <altera_avalon_uart_txirq+0xb8>
       * In a multi-threaded environment, set the write event flag to indicate
       * that there is space in the circular buffer. This is only done if the
       * buffer was previously empty.
       */

      if (sp->tx_start == ((sp->tx_end + 1) & ALT_AVALON_UART_BUF_MSK))
  8146a0:	e0bffc17 	ldw	r2,-16(fp)
  8146a4:	10800417 	ldw	r2,16(r2)
  8146a8:	e0bffc17 	ldw	r2,-16(fp)
  8146ac:	10800517 	ldw	r2,20(r2)
                       OS_FLAG_SET);
      }

      /* Write the data to the device */

      IOWR_ALTERA_AVALON_UART_TXDATA(sp->base, sp->tx_buf[sp->tx_start]);
  8146b0:	e0bffc17 	ldw	r2,-16(fp)
  8146b4:	10800017 	ldw	r2,0(r2)
  8146b8:	10800104 	addi	r2,r2,4
  8146bc:	e0fffc17 	ldw	r3,-16(fp)
  8146c0:	18c00417 	ldw	r3,16(r3)
  8146c4:	e13ffc17 	ldw	r4,-16(fp)
  8146c8:	20c7883a 	add	r3,r4,r3
  8146cc:	18c01704 	addi	r3,r3,92
  8146d0:	18c00003 	ldbu	r3,0(r3)
  8146d4:	18c03fcc 	andi	r3,r3,255
  8146d8:	10c00035 	stwio	r3,0(r2)

      sp->tx_start = (++sp->tx_start) & ALT_AVALON_UART_BUF_MSK;
  8146dc:	e0bffc17 	ldw	r2,-16(fp)
  8146e0:	10800417 	ldw	r2,16(r2)
  8146e4:	10800044 	addi	r2,r2,1
  8146e8:	e0fffc17 	ldw	r3,-16(fp)
  8146ec:	18800415 	stw	r2,16(r3)
  8146f0:	10c00fcc 	andi	r3,r2,63
  8146f4:	e0bffc17 	ldw	r2,-16(fp)
  8146f8:	10c00415 	stw	r3,16(r2)
      /*
       * In case the tranmit interrupt had previously been disabled by 
       * detecting a low value on CTS, it is reenabled here.
       */ 

      sp->ctrl |= ALTERA_AVALON_UART_CONTROL_TRDY_MSK;
  8146fc:	e0bffc17 	ldw	r2,-16(fp)
  814700:	10800117 	ldw	r2,4(r2)
  814704:	10c01014 	ori	r3,r2,64
  814708:	e0bffc17 	ldw	r2,-16(fp)
  81470c:	10c00115 	stw	r3,4(r2)
  814710:	00000e06 	br	81474c <altera_avalon_uart_txirq+0xf0>
       * the last write to the status register. To avoid this resulting in
       * deadlock, it's necessary to re-check the status register here
       * before throttling.
       */
 
      status = IORD_ALTERA_AVALON_UART_STATUS(sp->base); 
  814714:	e0bffc17 	ldw	r2,-16(fp)
  814718:	10800017 	ldw	r2,0(r2)
  81471c:	10800204 	addi	r2,r2,8
  814720:	10800037 	ldwio	r2,0(r2)
  814724:	e0bffd15 	stw	r2,-12(fp)

      if (!(status & ALTERA_AVALON_UART_STATUS_CTS_MSK))
  814728:	e0bffd17 	ldw	r2,-12(fp)
  81472c:	1082000c 	andi	r2,r2,2048
  814730:	1000061e 	bne	r2,zero,81474c <altera_avalon_uart_txirq+0xf0>
      {
        sp->ctrl &= ~ALTERA_AVALON_UART_CONTROL_TRDY_MSK;
  814734:	e0bffc17 	ldw	r2,-16(fp)
  814738:	10c00117 	ldw	r3,4(r2)
  81473c:	00bfefc4 	movi	r2,-65
  814740:	1886703a 	and	r3,r3,r2
  814744:	e0bffc17 	ldw	r2,-16(fp)
  814748:	10c00115 	stw	r3,4(r2)
  /*
   * If the circular buffer is empty, disable the interrupt. This will be
   * re-enabled when new data is placed in the buffer.
   */

  if (sp->tx_start == sp->tx_end)
  81474c:	e0bffc17 	ldw	r2,-16(fp)
  814750:	10c00417 	ldw	r3,16(r2)
  814754:	e0bffc17 	ldw	r2,-16(fp)
  814758:	10800517 	ldw	r2,20(r2)
  81475c:	1880061e 	bne	r3,r2,814778 <altera_avalon_uart_txirq+0x11c>
  {
    sp->ctrl &= ~(ALTERA_AVALON_UART_CONTROL_TRDY_MSK |
  814760:	e0bffc17 	ldw	r2,-16(fp)
  814764:	10c00117 	ldw	r3,4(r2)
  814768:	00beefc4 	movi	r2,-1089
  81476c:	1886703a 	and	r3,r3,r2
  814770:	e0bffc17 	ldw	r2,-16(fp)
  814774:	10c00115 	stw	r3,4(r2)
                    ALTERA_AVALON_UART_CONTROL_DCTS_MSK);
  }

  IOWR_ALTERA_AVALON_UART_CONTROL(sp->base, sp->ctrl);
  814778:	e0bffc17 	ldw	r2,-16(fp)
  81477c:	10800017 	ldw	r2,0(r2)
  814780:	10800304 	addi	r2,r2,12
  814784:	e0fffc17 	ldw	r3,-16(fp)
  814788:	18c00117 	ldw	r3,4(r3)
  81478c:	10c00035 	stwio	r3,0(r2)
}
  814790:	0001883a 	nop
  814794:	e037883a 	mov	sp,fp
  814798:	df000017 	ldw	fp,0(sp)
  81479c:	dec00104 	addi	sp,sp,4
  8147a0:	f800283a 	ret

008147a4 <altera_avalon_uart_close>:
 * The close routine is not implemented for the small driver; instead it will
 * map to null. This is because the small driver simply waits while characters
 * are transmitted; there is no interrupt-serviced buffer to empty 
 */
int altera_avalon_uart_close(altera_avalon_uart_state* sp, int flags)
{
  8147a4:	defffd04 	addi	sp,sp,-12
  8147a8:	df000215 	stw	fp,8(sp)
  8147ac:	df000204 	addi	fp,sp,8
  8147b0:	e13ffe15 	stw	r4,-8(fp)
  8147b4:	e17fff15 	stw	r5,-4(fp)
  /* 
   * Wait for all transmit data to be emptied by the UART ISR.
   */
  while (sp->tx_start != sp->tx_end) {
  8147b8:	00000506 	br	8147d0 <altera_avalon_uart_close+0x2c>
    if (flags & O_NONBLOCK) {
  8147bc:	e0bfff17 	ldw	r2,-4(fp)
  8147c0:	1090000c 	andi	r2,r2,16384
  8147c4:	10000226 	beq	r2,zero,8147d0 <altera_avalon_uart_close+0x2c>
      return -EWOULDBLOCK; 
  8147c8:	00bffd44 	movi	r2,-11
  8147cc:	00000606 	br	8147e8 <altera_avalon_uart_close+0x44>
int altera_avalon_uart_close(altera_avalon_uart_state* sp, int flags)
{
  /* 
   * Wait for all transmit data to be emptied by the UART ISR.
   */
  while (sp->tx_start != sp->tx_end) {
  8147d0:	e0bffe17 	ldw	r2,-8(fp)
  8147d4:	10c00417 	ldw	r3,16(r2)
  8147d8:	e0bffe17 	ldw	r2,-8(fp)
  8147dc:	10800517 	ldw	r2,20(r2)
  8147e0:	18bff61e 	bne	r3,r2,8147bc <__alt_mem_onchip_mem+0xff80c7bc>
    if (flags & O_NONBLOCK) {
      return -EWOULDBLOCK; 
    }
  }

  return 0;
  8147e4:	0005883a 	mov	r2,zero
}
  8147e8:	e037883a 	mov	sp,fp
  8147ec:	df000017 	ldw	fp,0(sp)
  8147f0:	dec00104 	addi	sp,sp,4
  8147f4:	f800283a 	ret

008147f8 <alt_get_errno>:
#undef errno

extern int errno;

static ALT_INLINE int* alt_get_errno(void)
{
  8147f8:	defffe04 	addi	sp,sp,-8
  8147fc:	dfc00115 	stw	ra,4(sp)
  814800:	df000015 	stw	fp,0(sp)
  814804:	d839883a 	mov	fp,sp
  return ((alt_errno) ? alt_errno() : &errno);
  814808:	d0a00b17 	ldw	r2,-32724(gp)
  81480c:	10000326 	beq	r2,zero,81481c <alt_get_errno+0x24>
  814810:	d0a00b17 	ldw	r2,-32724(gp)
  814814:	103ee83a 	callr	r2
  814818:	00000106 	br	814820 <alt_get_errno+0x28>
  81481c:	d0a75b04 	addi	r2,gp,-25236
}
  814820:	e037883a 	mov	sp,fp
  814824:	dfc00117 	ldw	ra,4(sp)
  814828:	df000017 	ldw	fp,0(sp)
  81482c:	dec00204 	addi	sp,sp,8
  814830:	f800283a 	ret

00814834 <altera_avalon_uart_read>:
 */

int 
altera_avalon_uart_read(altera_avalon_uart_state* sp, char* ptr, int len,
  int flags)
{
  814834:	defff204 	addi	sp,sp,-56
  814838:	dfc00d15 	stw	ra,52(sp)
  81483c:	df000c15 	stw	fp,48(sp)
  814840:	df000c04 	addi	fp,sp,48
  814844:	e13ffc15 	stw	r4,-16(fp)
  814848:	e17ffd15 	stw	r5,-12(fp)
  81484c:	e1bffe15 	stw	r6,-8(fp)
  814850:	e1ffff15 	stw	r7,-4(fp)
  alt_irq_context context;
  int             block;
  alt_u8          read_would_block = 0;
  814854:	e03ff405 	stb	zero,-48(fp)
  int             count = 0;
  814858:	e03ff515 	stw	zero,-44(fp)
  /* 
   * Construct a flag to indicate whether the device is being accessed in
   * blocking or non-blocking mode.
   */

  block = !(flags & O_NONBLOCK);
  81485c:	e0bfff17 	ldw	r2,-4(fp)
  814860:	1090000c 	andi	r2,r2,16384
  814864:	1005003a 	cmpeq	r2,r2,zero
  814868:	10803fcc 	andi	r2,r2,255
  81486c:	e0bff615 	stw	r2,-40(fp)
    /*
     * Read the required amount of data, until the circular buffer runs
     * empty
     */

    while ((count < len) && (sp->rx_start != sp->rx_end))
  814870:	00001306 	br	8148c0 <altera_avalon_uart_read+0x8c>
    {
      count++;
  814874:	e0bff517 	ldw	r2,-44(fp)
  814878:	10800044 	addi	r2,r2,1
  81487c:	e0bff515 	stw	r2,-44(fp)
      *ptr++ = sp->rx_buf[sp->rx_start];
  814880:	e0bffd17 	ldw	r2,-12(fp)
  814884:	10c00044 	addi	r3,r2,1
  814888:	e0fffd15 	stw	r3,-12(fp)
  81488c:	e0fffc17 	ldw	r3,-16(fp)
  814890:	18c00217 	ldw	r3,8(r3)
  814894:	e13ffc17 	ldw	r4,-16(fp)
  814898:	20c7883a 	add	r3,r4,r3
  81489c:	18c00704 	addi	r3,r3,28
  8148a0:	18c00003 	ldbu	r3,0(r3)
  8148a4:	10c00005 	stb	r3,0(r2)
      
      sp->rx_start = (sp->rx_start+1) & ALT_AVALON_UART_BUF_MSK;
  8148a8:	e0bffc17 	ldw	r2,-16(fp)
  8148ac:	10800217 	ldw	r2,8(r2)
  8148b0:	10800044 	addi	r2,r2,1
  8148b4:	10c00fcc 	andi	r3,r2,63
  8148b8:	e0bffc17 	ldw	r2,-16(fp)
  8148bc:	10c00215 	stw	r3,8(r2)
    /*
     * Read the required amount of data, until the circular buffer runs
     * empty
     */

    while ((count < len) && (sp->rx_start != sp->rx_end))
  8148c0:	e0fff517 	ldw	r3,-44(fp)
  8148c4:	e0bffe17 	ldw	r2,-8(fp)
  8148c8:	1880050e 	bge	r3,r2,8148e0 <altera_avalon_uart_read+0xac>
  8148cc:	e0bffc17 	ldw	r2,-16(fp)
  8148d0:	10c00217 	ldw	r3,8(r2)
  8148d4:	e0bffc17 	ldw	r2,-16(fp)
  8148d8:	10800317 	ldw	r2,12(r2)
  8148dc:	18bfe51e 	bne	r3,r2,814874 <__alt_mem_onchip_mem+0xff80c874>
    /*
     * If no data has been transferred, the circular buffer is empty, and
     * this is not a non-blocking access, block waiting for data to arrive.
     */

    if (!count && (sp->rx_start == sp->rx_end))
  8148e0:	e0bff517 	ldw	r2,-44(fp)
  8148e4:	1000251e 	bne	r2,zero,81497c <altera_avalon_uart_read+0x148>
  8148e8:	e0bffc17 	ldw	r2,-16(fp)
  8148ec:	10c00217 	ldw	r3,8(r2)
  8148f0:	e0bffc17 	ldw	r2,-16(fp)
  8148f4:	10800317 	ldw	r2,12(r2)
  8148f8:	1880201e 	bne	r3,r2,81497c <altera_avalon_uart_read+0x148>
    {
      if (!block)
  8148fc:	e0bff617 	ldw	r2,-40(fp)
  814900:	1000071e 	bne	r2,zero,814920 <altera_avalon_uart_read+0xec>
      {
        /* Set errno to indicate the reason we're not returning any data */

        ALT_ERRNO = EWOULDBLOCK;
  814904:	08147f80 	call	8147f8 <alt_get_errno>
  814908:	1007883a 	mov	r3,r2
  81490c:	008002c4 	movi	r2,11
  814910:	18800015 	stw	r2,0(r3)
        read_would_block = 1;
  814914:	00800044 	movi	r2,1
  814918:	e0bff405 	stb	r2,-48(fp)
        break;
  81491c:	00001b06 	br	81498c <altera_avalon_uart_read+0x158>
static ALT_INLINE alt_irq_context ALT_ALWAYS_INLINE 
       alt_irq_disable_all (void)
{
  alt_irq_context context;

  NIOS2_READ_STATUS (context);
  814920:	0005303a 	rdctl	r2,status
  814924:	e0bff915 	stw	r2,-28(fp)

  NIOS2_WRITE_STATUS (context & ~NIOS2_STATUS_PIE_MSK);
  814928:	e0fff917 	ldw	r3,-28(fp)
  81492c:	00bfff84 	movi	r2,-2
  814930:	1884703a 	and	r2,r3,r2
  814934:	1001703a 	wrctl	status,r2
  
  return context;
  814938:	e0bff917 	ldw	r2,-28(fp)
      {
       /* Block waiting for some data to arrive */

       /* First, ensure read interrupts are enabled to avoid deadlock */

       context = alt_irq_disable_all ();
  81493c:	e0bff815 	stw	r2,-32(fp)
       sp->ctrl |= ALTERA_AVALON_UART_CONTROL_RRDY_MSK;
  814940:	e0bffc17 	ldw	r2,-16(fp)
  814944:	10800117 	ldw	r2,4(r2)
  814948:	10c02014 	ori	r3,r2,128
  81494c:	e0bffc17 	ldw	r2,-16(fp)
  814950:	10c00115 	stw	r3,4(r2)
       IOWR_ALTERA_AVALON_UART_CONTROL(sp->base, sp->ctrl);
  814954:	e0bffc17 	ldw	r2,-16(fp)
  814958:	10800017 	ldw	r2,0(r2)
  81495c:	10800304 	addi	r2,r2,12
  814960:	e0fffc17 	ldw	r3,-16(fp)
  814964:	18c00117 	ldw	r3,4(r3)
  814968:	10c00035 	stwio	r3,0(r2)
  81496c:	e0bff817 	ldw	r2,-32(fp)
  814970:	e0bffa15 	stw	r2,-24(fp)
  status &= ~NIOS2_STATUS_PIE_MSK;
  status |= (context & NIOS2_STATUS_PIE_MSK);
  
  NIOS2_WRITE_STATUS (status);
#else
  NIOS2_WRITE_STATUS (context);
  814974:	e0bffa17 	ldw	r2,-24(fp)
  814978:	1001703a 	wrctl	status,r2
                      OS_FLAG_WAIT_SET_ANY + OS_FLAG_CONSUME,
                      0);
      }
    }
  }
  while (!count && len);
  81497c:	e0bff517 	ldw	r2,-44(fp)
  814980:	1000021e 	bne	r2,zero,81498c <altera_avalon_uart_read+0x158>
  814984:	e0bffe17 	ldw	r2,-8(fp)
  814988:	103fcd1e 	bne	r2,zero,8148c0 <__alt_mem_onchip_mem+0xff80c8c0>
static ALT_INLINE alt_irq_context ALT_ALWAYS_INLINE 
       alt_irq_disable_all (void)
{
  alt_irq_context context;

  NIOS2_READ_STATUS (context);
  81498c:	0005303a 	rdctl	r2,status
  814990:	e0bffb15 	stw	r2,-20(fp)

  NIOS2_WRITE_STATUS (context & ~NIOS2_STATUS_PIE_MSK);
  814994:	e0fffb17 	ldw	r3,-20(fp)
  814998:	00bfff84 	movi	r2,-2
  81499c:	1884703a 	and	r2,r3,r2
  8149a0:	1001703a 	wrctl	status,r2
  
  return context;
  8149a4:	e0bffb17 	ldw	r2,-20(fp)
  /*
   * Ensure that interrupts are enabled, so that the circular buffer can
   * re-fill.
   */

  context = alt_irq_disable_all ();
  8149a8:	e0bff815 	stw	r2,-32(fp)
  sp->ctrl |= ALTERA_AVALON_UART_CONTROL_RRDY_MSK;
  8149ac:	e0bffc17 	ldw	r2,-16(fp)
  8149b0:	10800117 	ldw	r2,4(r2)
  8149b4:	10c02014 	ori	r3,r2,128
  8149b8:	e0bffc17 	ldw	r2,-16(fp)
  8149bc:	10c00115 	stw	r3,4(r2)
  IOWR_ALTERA_AVALON_UART_CONTROL(sp->base, sp->ctrl);
  8149c0:	e0bffc17 	ldw	r2,-16(fp)
  8149c4:	10800017 	ldw	r2,0(r2)
  8149c8:	10800304 	addi	r2,r2,12
  8149cc:	e0fffc17 	ldw	r3,-16(fp)
  8149d0:	18c00117 	ldw	r3,4(r3)
  8149d4:	10c00035 	stwio	r3,0(r2)
  8149d8:	e0bff817 	ldw	r2,-32(fp)
  8149dc:	e0bff715 	stw	r2,-36(fp)
  status &= ~NIOS2_STATUS_PIE_MSK;
  status |= (context & NIOS2_STATUS_PIE_MSK);
  
  NIOS2_WRITE_STATUS (status);
#else
  NIOS2_WRITE_STATUS (context);
  8149e0:	e0bff717 	ldw	r2,-36(fp)
  8149e4:	1001703a 	wrctl	status,r2
  alt_irq_enable_all (context);

  /* Return the number of bytes read */
  if(read_would_block) {
  8149e8:	e0bff403 	ldbu	r2,-48(fp)
  8149ec:	10000226 	beq	r2,zero,8149f8 <altera_avalon_uart_read+0x1c4>
    return -EWOULDBLOCK;
  8149f0:	00bffd44 	movi	r2,-11
  8149f4:	00000106 	br	8149fc <altera_avalon_uart_read+0x1c8>
  }
  else {
    return count;
  8149f8:	e0bff517 	ldw	r2,-44(fp)
  }
}
  8149fc:	e037883a 	mov	sp,fp
  814a00:	dfc00117 	ldw	ra,4(sp)
  814a04:	df000017 	ldw	fp,0(sp)
  814a08:	dec00204 	addi	sp,sp,8
  814a0c:	f800283a 	ret

00814a10 <alt_get_errno>:
#undef errno

extern int errno;

static ALT_INLINE int* alt_get_errno(void)
{
  814a10:	defffe04 	addi	sp,sp,-8
  814a14:	dfc00115 	stw	ra,4(sp)
  814a18:	df000015 	stw	fp,0(sp)
  814a1c:	d839883a 	mov	fp,sp
  return ((alt_errno) ? alt_errno() : &errno);
  814a20:	d0a00b17 	ldw	r2,-32724(gp)
  814a24:	10000326 	beq	r2,zero,814a34 <alt_get_errno+0x24>
  814a28:	d0a00b17 	ldw	r2,-32724(gp)
  814a2c:	103ee83a 	callr	r2
  814a30:	00000106 	br	814a38 <alt_get_errno+0x28>
  814a34:	d0a75b04 	addi	r2,gp,-25236
}
  814a38:	e037883a 	mov	sp,fp
  814a3c:	dfc00117 	ldw	ra,4(sp)
  814a40:	df000017 	ldw	fp,0(sp)
  814a44:	dec00204 	addi	sp,sp,8
  814a48:	f800283a 	ret

00814a4c <altera_avalon_uart_write>:
 */

int
altera_avalon_uart_write(altera_avalon_uart_state* sp, const char* ptr, int len,
  int flags)
{
  814a4c:	defff204 	addi	sp,sp,-56
  814a50:	dfc00d15 	stw	ra,52(sp)
  814a54:	df000c15 	stw	fp,48(sp)
  814a58:	df000c04 	addi	fp,sp,48
  814a5c:	e13ffc15 	stw	r4,-16(fp)
  814a60:	e17ffd15 	stw	r5,-12(fp)
  814a64:	e1bffe15 	stw	r6,-8(fp)
  814a68:	e1ffff15 	stw	r7,-4(fp)
  alt_irq_context context;
  int             no_block;
  alt_u32         next;
  int             count = len;
  814a6c:	e0bffe17 	ldw	r2,-8(fp)
  814a70:	e0bff415 	stw	r2,-48(fp)
  /* 
   * Construct a flag to indicate whether the device is being accessed in
   * blocking or non-blocking mode.
   */

  no_block = (flags & O_NONBLOCK);
  814a74:	e0bfff17 	ldw	r2,-4(fp)
  814a78:	1090000c 	andi	r2,r2,16384
  814a7c:	e0bff515 	stw	r2,-44(fp)
   * Loop transferring data from the input buffer to the transmit circular
   * buffer. The loop is terminated once all the data has been transferred,
   * or, (if in non-blocking mode) the buffer becomes full.
   */

  while (count)
  814a80:	00003c06 	br	814b74 <altera_avalon_uart_write+0x128>
  {
    /* Determine the next slot in the buffer to access */

    next = (sp->tx_end + 1) & ALT_AVALON_UART_BUF_MSK;
  814a84:	e0bffc17 	ldw	r2,-16(fp)
  814a88:	10800517 	ldw	r2,20(r2)
  814a8c:	10800044 	addi	r2,r2,1
  814a90:	10800fcc 	andi	r2,r2,63
  814a94:	e0bff715 	stw	r2,-36(fp)

    /* block waiting for space if necessary */

    if (next == sp->tx_start)
  814a98:	e0bffc17 	ldw	r2,-16(fp)
  814a9c:	10c00417 	ldw	r3,16(r2)
  814aa0:	e0bff717 	ldw	r2,-36(fp)
  814aa4:	1880221e 	bne	r3,r2,814b30 <altera_avalon_uart_write+0xe4>
    {
      if (no_block)
  814aa8:	e0bff517 	ldw	r2,-44(fp)
  814aac:	10000526 	beq	r2,zero,814ac4 <altera_avalon_uart_write+0x78>
      {
        /* Set errno to indicate why this function returned early */
 
        ALT_ERRNO = EWOULDBLOCK;
  814ab0:	0814a100 	call	814a10 <alt_get_errno>
  814ab4:	1007883a 	mov	r3,r2
  814ab8:	008002c4 	movi	r2,11
  814abc:	18800015 	stw	r2,0(r3)
        break;
  814ac0:	00002e06 	br	814b7c <altera_avalon_uart_write+0x130>
static ALT_INLINE alt_irq_context ALT_ALWAYS_INLINE 
       alt_irq_disable_all (void)
{
  alt_irq_context context;

  NIOS2_READ_STATUS (context);
  814ac4:	0005303a 	rdctl	r2,status
  814ac8:	e0bff915 	stw	r2,-28(fp)

  NIOS2_WRITE_STATUS (context & ~NIOS2_STATUS_PIE_MSK);
  814acc:	e0fff917 	ldw	r3,-28(fp)
  814ad0:	00bfff84 	movi	r2,-2
  814ad4:	1884703a 	and	r2,r3,r2
  814ad8:	1001703a 	wrctl	status,r2
  
  return context;
  814adc:	e0bff917 	ldw	r2,-28(fp)
      {
        /* Block waiting for space in the circular buffer */

        /* First, ensure transmit interrupts are enabled to avoid deadlock */

        context = alt_irq_disable_all ();
  814ae0:	e0bff815 	stw	r2,-32(fp)
        sp->ctrl |= (ALTERA_AVALON_UART_CONTROL_TRDY_MSK |
  814ae4:	e0bffc17 	ldw	r2,-16(fp)
  814ae8:	10800117 	ldw	r2,4(r2)
  814aec:	10c11014 	ori	r3,r2,1088
  814af0:	e0bffc17 	ldw	r2,-16(fp)
  814af4:	10c00115 	stw	r3,4(r2)
                        ALTERA_AVALON_UART_CONTROL_DCTS_MSK);
        IOWR_ALTERA_AVALON_UART_CONTROL(sp->base, sp->ctrl);
  814af8:	e0bffc17 	ldw	r2,-16(fp)
  814afc:	10800017 	ldw	r2,0(r2)
  814b00:	10800304 	addi	r2,r2,12
  814b04:	e0fffc17 	ldw	r3,-16(fp)
  814b08:	18c00117 	ldw	r3,4(r3)
  814b0c:	10c00035 	stwio	r3,0(r2)
  814b10:	e0bff817 	ldw	r2,-32(fp)
  814b14:	e0bff615 	stw	r2,-40(fp)
  status &= ~NIOS2_STATUS_PIE_MSK;
  status |= (context & NIOS2_STATUS_PIE_MSK);
  
  NIOS2_WRITE_STATUS (status);
#else
  NIOS2_WRITE_STATUS (context);
  814b18:	e0bff617 	ldw	r2,-40(fp)
  814b1c:	1001703a 	wrctl	status,r2
          ALT_FLAG_PEND (sp->events, 
                         ALT_UART_WRITE_RDY,
                         OS_FLAG_WAIT_SET_ANY + OS_FLAG_CONSUME,
                         0);
        }
        while ((next == sp->tx_start));
  814b20:	e0bffc17 	ldw	r2,-16(fp)
  814b24:	10c00417 	ldw	r3,16(r2)
  814b28:	e0bff717 	ldw	r2,-36(fp)
  814b2c:	18bffc26 	beq	r3,r2,814b20 <__alt_mem_onchip_mem+0xff80cb20>
      }
    }

    count--;
  814b30:	e0bff417 	ldw	r2,-48(fp)
  814b34:	10bfffc4 	addi	r2,r2,-1
  814b38:	e0bff415 	stw	r2,-48(fp)

    /* Add the next character to the transmit buffer */

    sp->tx_buf[sp->tx_end] = *ptr++;
  814b3c:	e0bffc17 	ldw	r2,-16(fp)
  814b40:	10c00517 	ldw	r3,20(r2)
  814b44:	e0bffd17 	ldw	r2,-12(fp)
  814b48:	11000044 	addi	r4,r2,1
  814b4c:	e13ffd15 	stw	r4,-12(fp)
  814b50:	10800003 	ldbu	r2,0(r2)
  814b54:	1009883a 	mov	r4,r2
  814b58:	e0bffc17 	ldw	r2,-16(fp)
  814b5c:	10c5883a 	add	r2,r2,r3
  814b60:	10801704 	addi	r2,r2,92
  814b64:	11000005 	stb	r4,0(r2)
    sp->tx_end = next;
  814b68:	e0bffc17 	ldw	r2,-16(fp)
  814b6c:	e0fff717 	ldw	r3,-36(fp)
  814b70:	10c00515 	stw	r3,20(r2)
   * Loop transferring data from the input buffer to the transmit circular
   * buffer. The loop is terminated once all the data has been transferred,
   * or, (if in non-blocking mode) the buffer becomes full.
   */

  while (count)
  814b74:	e0bff417 	ldw	r2,-48(fp)
  814b78:	103fc21e 	bne	r2,zero,814a84 <__alt_mem_onchip_mem+0xff80ca84>
static ALT_INLINE alt_irq_context ALT_ALWAYS_INLINE 
       alt_irq_disable_all (void)
{
  alt_irq_context context;

  NIOS2_READ_STATUS (context);
  814b7c:	0005303a 	rdctl	r2,status
  814b80:	e0bffb15 	stw	r2,-20(fp)

  NIOS2_WRITE_STATUS (context & ~NIOS2_STATUS_PIE_MSK);
  814b84:	e0fffb17 	ldw	r3,-20(fp)
  814b88:	00bfff84 	movi	r2,-2
  814b8c:	1884703a 	and	r2,r3,r2
  814b90:	1001703a 	wrctl	status,r2
  
  return context;
  814b94:	e0bffb17 	ldw	r2,-20(fp)
  /* 
   * Ensure that interrupts are enabled, so that the circular buffer can 
   * drain.
   */

  context = alt_irq_disable_all ();
  814b98:	e0bff815 	stw	r2,-32(fp)
  sp->ctrl |= ALTERA_AVALON_UART_CONTROL_TRDY_MSK |
  814b9c:	e0bffc17 	ldw	r2,-16(fp)
  814ba0:	10800117 	ldw	r2,4(r2)
  814ba4:	10c11014 	ori	r3,r2,1088
  814ba8:	e0bffc17 	ldw	r2,-16(fp)
  814bac:	10c00115 	stw	r3,4(r2)
                 ALTERA_AVALON_UART_CONTROL_DCTS_MSK;
  IOWR_ALTERA_AVALON_UART_CONTROL(sp->base, sp->ctrl);
  814bb0:	e0bffc17 	ldw	r2,-16(fp)
  814bb4:	10800017 	ldw	r2,0(r2)
  814bb8:	10800304 	addi	r2,r2,12
  814bbc:	e0fffc17 	ldw	r3,-16(fp)
  814bc0:	18c00117 	ldw	r3,4(r3)
  814bc4:	10c00035 	stwio	r3,0(r2)
  814bc8:	e0bff817 	ldw	r2,-32(fp)
  814bcc:	e0bffa15 	stw	r2,-24(fp)
  status &= ~NIOS2_STATUS_PIE_MSK;
  status |= (context & NIOS2_STATUS_PIE_MSK);
  
  NIOS2_WRITE_STATUS (status);
#else
  NIOS2_WRITE_STATUS (context);
  814bd0:	e0bffa17 	ldw	r2,-24(fp)
  814bd4:	1001703a 	wrctl	status,r2
  alt_irq_enable_all (context);

  /* return the number of bytes written */

  return (len - count);
  814bd8:	e0fffe17 	ldw	r3,-8(fp)
  814bdc:	e0bff417 	ldw	r2,-48(fp)
  814be0:	1885c83a 	sub	r2,r3,r2
}
  814be4:	e037883a 	mov	sp,fp
  814be8:	dfc00117 	ldw	ra,4(sp)
  814bec:	df000017 	ldw	fp,0(sp)
  814bf0:	dec00204 	addi	sp,sp,8
  814bf4:	f800283a 	ret

00814bf8 <alt_dcache_flush_all>:
/*
 * alt_dcache_flush_all() is called to flush the entire data cache.
 */

void alt_dcache_flush_all (void)
{
  814bf8:	defffe04 	addi	sp,sp,-8
  814bfc:	df000115 	stw	fp,4(sp)
  814c00:	df000104 	addi	fp,sp,4
#if NIOS2_DCACHE_SIZE > 0
  char* i;
  
  for (i = (char*) 0; i < (char*) NIOS2_DCACHE_SIZE; i+= NIOS2_DCACHE_LINE_SIZE)
  814c04:	e03fff15 	stw	zero,-4(fp)
  814c08:	00000506 	br	814c20 <alt_dcache_flush_all+0x28>
  { 
    __asm__ volatile ("flushd (%0)" :: "r" (i));
  814c0c:	e0bfff17 	ldw	r2,-4(fp)
  814c10:	1000003b 	flushd	0(r2)
void alt_dcache_flush_all (void)
{
#if NIOS2_DCACHE_SIZE > 0
  char* i;
  
  for (i = (char*) 0; i < (char*) NIOS2_DCACHE_SIZE; i+= NIOS2_DCACHE_LINE_SIZE)
  814c14:	e0bfff17 	ldw	r2,-4(fp)
  814c18:	10800804 	addi	r2,r2,32
  814c1c:	e0bfff15 	stw	r2,-4(fp)
  814c20:	e0bfff17 	ldw	r2,-4(fp)
  814c24:	10820030 	cmpltui	r2,r2,2048
  814c28:	103ff81e 	bne	r2,zero,814c0c <__alt_mem_onchip_mem+0xff80cc0c>
  { 
    __asm__ volatile ("flushd (%0)" :: "r" (i));
  }
#endif /* NIOS2_DCACHE_SIZE > 0 */
}
  814c2c:	0001883a 	nop
  814c30:	e037883a 	mov	sp,fp
  814c34:	df000017 	ldw	fp,0(sp)
  814c38:	dec00104 	addi	sp,sp,4
  814c3c:	f800283a 	ret

00814c40 <alt_get_errno>:
#undef errno

extern int errno;

static ALT_INLINE int* alt_get_errno(void)
{
  814c40:	defffe04 	addi	sp,sp,-8
  814c44:	dfc00115 	stw	ra,4(sp)
  814c48:	df000015 	stw	fp,0(sp)
  814c4c:	d839883a 	mov	fp,sp
  return ((alt_errno) ? alt_errno() : &errno);
  814c50:	d0a00b17 	ldw	r2,-32724(gp)
  814c54:	10000326 	beq	r2,zero,814c64 <alt_get_errno+0x24>
  814c58:	d0a00b17 	ldw	r2,-32724(gp)
  814c5c:	103ee83a 	callr	r2
  814c60:	00000106 	br	814c68 <alt_get_errno+0x28>
  814c64:	d0a75b04 	addi	r2,gp,-25236
}
  814c68:	e037883a 	mov	sp,fp
  814c6c:	dfc00117 	ldw	ra,4(sp)
  814c70:	df000017 	ldw	fp,0(sp)
  814c74:	dec00204 	addi	sp,sp,8
  814c78:	f800283a 	ret

00814c7c <alt_dev_llist_insert>:
/*
 *
 */

int alt_dev_llist_insert (alt_dev_llist* dev, alt_llist* list)
{
  814c7c:	defffa04 	addi	sp,sp,-24
  814c80:	dfc00515 	stw	ra,20(sp)
  814c84:	df000415 	stw	fp,16(sp)
  814c88:	df000404 	addi	fp,sp,16
  814c8c:	e13ffe15 	stw	r4,-8(fp)
  814c90:	e17fff15 	stw	r5,-4(fp)
  /*
   * check that the device exists, and that it has a valid name.
   */

  if (!dev || !dev->name)
  814c94:	e0bffe17 	ldw	r2,-8(fp)
  814c98:	10000326 	beq	r2,zero,814ca8 <alt_dev_llist_insert+0x2c>
  814c9c:	e0bffe17 	ldw	r2,-8(fp)
  814ca0:	10800217 	ldw	r2,8(r2)
  814ca4:	1000061e 	bne	r2,zero,814cc0 <alt_dev_llist_insert+0x44>
  {
    ALT_ERRNO = EINVAL;
  814ca8:	0814c400 	call	814c40 <alt_get_errno>
  814cac:	1007883a 	mov	r3,r2
  814cb0:	00800584 	movi	r2,22
  814cb4:	18800015 	stw	r2,0(r3)
    return -EINVAL;
  814cb8:	00bffa84 	movi	r2,-22
  814cbc:	00001306 	br	814d0c <alt_dev_llist_insert+0x90>
  
  /*
   * register the device.
   */
  
  alt_llist_insert(list, &dev->llist);
  814cc0:	e0bffe17 	ldw	r2,-8(fp)
  814cc4:	e0ffff17 	ldw	r3,-4(fp)
  814cc8:	e0fffc15 	stw	r3,-16(fp)
  814ccc:	e0bffd15 	stw	r2,-12(fp)
 */

static ALT_INLINE void ALT_ALWAYS_INLINE alt_llist_insert(alt_llist* list, 
                alt_llist* entry)
{
  entry->previous = list;
  814cd0:	e0bffd17 	ldw	r2,-12(fp)
  814cd4:	e0fffc17 	ldw	r3,-16(fp)
  814cd8:	10c00115 	stw	r3,4(r2)
  entry->next     = list->next;
  814cdc:	e0bffc17 	ldw	r2,-16(fp)
  814ce0:	10c00017 	ldw	r3,0(r2)
  814ce4:	e0bffd17 	ldw	r2,-12(fp)
  814ce8:	10c00015 	stw	r3,0(r2)

  list->next->previous = entry;
  814cec:	e0bffc17 	ldw	r2,-16(fp)
  814cf0:	10800017 	ldw	r2,0(r2)
  814cf4:	e0fffd17 	ldw	r3,-12(fp)
  814cf8:	10c00115 	stw	r3,4(r2)
  list->next           = entry;
  814cfc:	e0bffc17 	ldw	r2,-16(fp)
  814d00:	e0fffd17 	ldw	r3,-12(fp)
  814d04:	10c00015 	stw	r3,0(r2)

  return 0;  
  814d08:	0005883a 	mov	r2,zero
}
  814d0c:	e037883a 	mov	sp,fp
  814d10:	dfc00117 	ldw	ra,4(sp)
  814d14:	df000017 	ldw	fp,0(sp)
  814d18:	dec00204 	addi	sp,sp,8
  814d1c:	f800283a 	ret

00814d20 <_do_ctors>:
/*
 * Run the C++ static constructors.
 */

void _do_ctors(void)
{
  814d20:	defffd04 	addi	sp,sp,-12
  814d24:	dfc00215 	stw	ra,8(sp)
  814d28:	df000115 	stw	fp,4(sp)
  814d2c:	df000104 	addi	fp,sp,4
  constructor* ctor;

  for (ctor = &__CTOR_END__[-1]; ctor >= __CTOR_LIST__; ctor--)
  814d30:	00802074 	movhi	r2,129
  814d34:	10969304 	addi	r2,r2,23116
  814d38:	e0bfff15 	stw	r2,-4(fp)
  814d3c:	00000606 	br	814d58 <_do_ctors+0x38>
        (*ctor) (); 
  814d40:	e0bfff17 	ldw	r2,-4(fp)
  814d44:	10800017 	ldw	r2,0(r2)
  814d48:	103ee83a 	callr	r2

void _do_ctors(void)
{
  constructor* ctor;

  for (ctor = &__CTOR_END__[-1]; ctor >= __CTOR_LIST__; ctor--)
  814d4c:	e0bfff17 	ldw	r2,-4(fp)
  814d50:	10bfff04 	addi	r2,r2,-4
  814d54:	e0bfff15 	stw	r2,-4(fp)
  814d58:	e0ffff17 	ldw	r3,-4(fp)
  814d5c:	00802074 	movhi	r2,129
  814d60:	10969404 	addi	r2,r2,23120
  814d64:	18bff62e 	bgeu	r3,r2,814d40 <__alt_mem_onchip_mem+0xff80cd40>
        (*ctor) (); 
}
  814d68:	0001883a 	nop
  814d6c:	e037883a 	mov	sp,fp
  814d70:	dfc00117 	ldw	ra,4(sp)
  814d74:	df000017 	ldw	fp,0(sp)
  814d78:	dec00204 	addi	sp,sp,8
  814d7c:	f800283a 	ret

00814d80 <_do_dtors>:
/*
 * Run the C++ static destructors.
 */

void _do_dtors(void)
{
  814d80:	defffd04 	addi	sp,sp,-12
  814d84:	dfc00215 	stw	ra,8(sp)
  814d88:	df000115 	stw	fp,4(sp)
  814d8c:	df000104 	addi	fp,sp,4
  destructor* dtor;

  for (dtor = &__DTOR_END__[-1]; dtor >= __DTOR_LIST__; dtor--)
  814d90:	00802074 	movhi	r2,129
  814d94:	10969304 	addi	r2,r2,23116
  814d98:	e0bfff15 	stw	r2,-4(fp)
  814d9c:	00000606 	br	814db8 <_do_dtors+0x38>
        (*dtor) (); 
  814da0:	e0bfff17 	ldw	r2,-4(fp)
  814da4:	10800017 	ldw	r2,0(r2)
  814da8:	103ee83a 	callr	r2

void _do_dtors(void)
{
  destructor* dtor;

  for (dtor = &__DTOR_END__[-1]; dtor >= __DTOR_LIST__; dtor--)
  814dac:	e0bfff17 	ldw	r2,-4(fp)
  814db0:	10bfff04 	addi	r2,r2,-4
  814db4:	e0bfff15 	stw	r2,-4(fp)
  814db8:	e0ffff17 	ldw	r3,-4(fp)
  814dbc:	00802074 	movhi	r2,129
  814dc0:	10969404 	addi	r2,r2,23120
  814dc4:	18bff62e 	bgeu	r3,r2,814da0 <__alt_mem_onchip_mem+0xff80cda0>
        (*dtor) (); 
}
  814dc8:	0001883a 	nop
  814dcc:	e037883a 	mov	sp,fp
  814dd0:	dfc00117 	ldw	ra,4(sp)
  814dd4:	df000017 	ldw	fp,0(sp)
  814dd8:	dec00204 	addi	sp,sp,8
  814ddc:	f800283a 	ret

00814de0 <alt_icache_flush_all>:
/*
 * alt_icache_flush_all() is called to flush the entire instruction cache.
 */

void alt_icache_flush_all (void)
{
  814de0:	defffe04 	addi	sp,sp,-8
  814de4:	dfc00115 	stw	ra,4(sp)
  814de8:	df000015 	stw	fp,0(sp)
  814dec:	d839883a 	mov	fp,sp
#if NIOS2_ICACHE_SIZE > 0
  alt_icache_flush (0, NIOS2_ICACHE_SIZE);
  814df0:	01440004 	movi	r5,4096
  814df4:	0009883a 	mov	r4,zero
  814df8:	081562c0 	call	81562c <alt_icache_flush>
#endif
}
  814dfc:	0001883a 	nop
  814e00:	e037883a 	mov	sp,fp
  814e04:	dfc00117 	ldw	ra,4(sp)
  814e08:	df000017 	ldw	fp,0(sp)
  814e0c:	dec00204 	addi	sp,sp,8
  814e10:	f800283a 	ret

00814e14 <alt_exception_cause_generated_bad_addr>:
 * Return: 1: BADADDR (bad_addr argument to handler) is valid
 *         0: BADADDR is not valid
 */
int 
alt_exception_cause_generated_bad_addr(alt_exception_cause cause)
{
  814e14:	defffe04 	addi	sp,sp,-8
  814e18:	df000115 	stw	fp,4(sp)
  814e1c:	df000104 	addi	fp,sp,4
  814e20:	e13fff15 	stw	r4,-4(fp)
  switch (cause) {
  814e24:	e0bfff17 	ldw	r2,-4(fp)
  814e28:	10bffe84 	addi	r2,r2,-6
  814e2c:	10c00428 	cmpgeui	r3,r2,16
  814e30:	18001a1e 	bne	r3,zero,814e9c <alt_exception_cause_generated_bad_addr+0x88>
  814e34:	100690ba 	slli	r3,r2,2
  814e38:	00802074 	movhi	r2,129
  814e3c:	10939304 	addi	r2,r2,20044
  814e40:	1885883a 	add	r2,r3,r2
  814e44:	10800017 	ldw	r2,0(r2)
  814e48:	1000683a 	jmp	r2
  814e4c:	00814e8c 	andi	r2,zero,1338
  814e50:	00814e8c 	andi	r2,zero,1338
  814e54:	00814e9c 	xori	r2,zero,1338
  814e58:	00814e9c 	xori	r2,zero,1338
  814e5c:	00814e9c 	xori	r2,zero,1338
  814e60:	00814e8c 	andi	r2,zero,1338
  814e64:	00814e94 	movui	r2,1338
  814e68:	00814e9c 	xori	r2,zero,1338
  814e6c:	00814e8c 	andi	r2,zero,1338
  814e70:	00814e8c 	andi	r2,zero,1338
  814e74:	00814e9c 	xori	r2,zero,1338
  814e78:	00814e8c 	andi	r2,zero,1338
  814e7c:	00814e94 	movui	r2,1338
  814e80:	00814e9c 	xori	r2,zero,1338
  814e84:	00814e9c 	xori	r2,zero,1338
  814e88:	00814e8c 	andi	r2,zero,1338
  case NIOS2_EXCEPTION_MISALIGNED_TARGET_PC:
  case NIOS2_EXCEPTION_TLB_READ_PERM_VIOLATION:
  case NIOS2_EXCEPTION_TLB_WRITE_PERM_VIOLATION:
  case NIOS2_EXCEPTION_MPU_DATA_REGION_VIOLATION:
  case NIOS2_EXCEPTION_ECC_DATA_ERR:
    return 1;
  814e8c:	00800044 	movi	r2,1
  814e90:	00000306 	br	814ea0 <alt_exception_cause_generated_bad_addr+0x8c>

  case NIOS2_EXCEPTION_TLB_MISS:
  case NIOS2_EXCEPTION_ECC_TLB_ERR:
    return 0;
  814e94:	0005883a 	mov	r2,zero
  814e98:	00000106 	br	814ea0 <alt_exception_cause_generated_bad_addr+0x8c>

  default:
    return 0;
  814e9c:	0005883a 	mov	r2,zero
  }
}
  814ea0:	e037883a 	mov	sp,fp
  814ea4:	df000017 	ldw	fp,0(sp)
  814ea8:	dec00104 	addi	sp,sp,4
  814eac:	f800283a 	ret

00814eb0 <alt_open_fd>:
 * If the device can not be succesfully opened, then the input file descriptor
 * remains unchanged.
 */

static void alt_open_fd(alt_fd* fd, const char* name, int flags, int mode)
{
  814eb0:	defff904 	addi	sp,sp,-28
  814eb4:	dfc00615 	stw	ra,24(sp)
  814eb8:	df000515 	stw	fp,20(sp)
  814ebc:	df000504 	addi	fp,sp,20
  814ec0:	e13ffc15 	stw	r4,-16(fp)
  814ec4:	e17ffd15 	stw	r5,-12(fp)
  814ec8:	e1bffe15 	stw	r6,-8(fp)
  814ecc:	e1ffff15 	stw	r7,-4(fp)
  int old;

  old = open (name, flags, mode);
  814ed0:	e1bfff17 	ldw	r6,-4(fp)
  814ed4:	e17ffe17 	ldw	r5,-8(fp)
  814ed8:	e13ffd17 	ldw	r4,-12(fp)
  814edc:	08150f00 	call	8150f0 <open>
  814ee0:	e0bffb15 	stw	r2,-20(fp)

  if (old >= 0)
  814ee4:	e0bffb17 	ldw	r2,-20(fp)
  814ee8:	10001c16 	blt	r2,zero,814f5c <alt_open_fd+0xac>
  {
    fd->dev      = alt_fd_list[old].dev;
  814eec:	00802074 	movhi	r2,129
  814ef0:	109a3e04 	addi	r2,r2,26872
  814ef4:	e0fffb17 	ldw	r3,-20(fp)
  814ef8:	18c00324 	muli	r3,r3,12
  814efc:	10c5883a 	add	r2,r2,r3
  814f00:	10c00017 	ldw	r3,0(r2)
  814f04:	e0bffc17 	ldw	r2,-16(fp)
  814f08:	10c00015 	stw	r3,0(r2)
    fd->priv     = alt_fd_list[old].priv;
  814f0c:	00802074 	movhi	r2,129
  814f10:	109a3e04 	addi	r2,r2,26872
  814f14:	e0fffb17 	ldw	r3,-20(fp)
  814f18:	18c00324 	muli	r3,r3,12
  814f1c:	10c5883a 	add	r2,r2,r3
  814f20:	10800104 	addi	r2,r2,4
  814f24:	10c00017 	ldw	r3,0(r2)
  814f28:	e0bffc17 	ldw	r2,-16(fp)
  814f2c:	10c00115 	stw	r3,4(r2)
    fd->fd_flags = alt_fd_list[old].fd_flags;
  814f30:	00802074 	movhi	r2,129
  814f34:	109a3e04 	addi	r2,r2,26872
  814f38:	e0fffb17 	ldw	r3,-20(fp)
  814f3c:	18c00324 	muli	r3,r3,12
  814f40:	10c5883a 	add	r2,r2,r3
  814f44:	10800204 	addi	r2,r2,8
  814f48:	10c00017 	ldw	r3,0(r2)
  814f4c:	e0bffc17 	ldw	r2,-16(fp)
  814f50:	10c00215 	stw	r3,8(r2)

    alt_release_fd (old);
  814f54:	e13ffb17 	ldw	r4,-20(fp)
  814f58:	08123f80 	call	8123f8 <alt_release_fd>
  }
} 
  814f5c:	0001883a 	nop
  814f60:	e037883a 	mov	sp,fp
  814f64:	dfc00117 	ldw	ra,4(sp)
  814f68:	df000017 	ldw	fp,0(sp)
  814f6c:	dec00204 	addi	sp,sp,8
  814f70:	f800283a 	ret

00814f74 <alt_io_redirect>:
 */
 
void alt_io_redirect(const char* stdout_dev, 
                     const char* stdin_dev, 
                     const char* stderr_dev)
{
  814f74:	defffb04 	addi	sp,sp,-20
  814f78:	dfc00415 	stw	ra,16(sp)
  814f7c:	df000315 	stw	fp,12(sp)
  814f80:	df000304 	addi	fp,sp,12
  814f84:	e13ffd15 	stw	r4,-12(fp)
  814f88:	e17ffe15 	stw	r5,-8(fp)
  814f8c:	e1bfff15 	stw	r6,-4(fp)
  /* Redirect the channels */

  alt_open_fd (&alt_fd_list[STDOUT_FILENO], stdout_dev, O_WRONLY, 0777);
  814f90:	01c07fc4 	movi	r7,511
  814f94:	01800044 	movi	r6,1
  814f98:	e17ffd17 	ldw	r5,-12(fp)
  814f9c:	01002074 	movhi	r4,129
  814fa0:	211a4104 	addi	r4,r4,26884
  814fa4:	0814eb00 	call	814eb0 <alt_open_fd>
  alt_open_fd (&alt_fd_list[STDIN_FILENO], stdin_dev, O_RDONLY, 0777);
  814fa8:	01c07fc4 	movi	r7,511
  814fac:	000d883a 	mov	r6,zero
  814fb0:	e17ffe17 	ldw	r5,-8(fp)
  814fb4:	01002074 	movhi	r4,129
  814fb8:	211a3e04 	addi	r4,r4,26872
  814fbc:	0814eb00 	call	814eb0 <alt_open_fd>
  alt_open_fd (&alt_fd_list[STDERR_FILENO], stderr_dev, O_WRONLY, 0777);
  814fc0:	01c07fc4 	movi	r7,511
  814fc4:	01800044 	movi	r6,1
  814fc8:	e17fff17 	ldw	r5,-4(fp)
  814fcc:	01002074 	movhi	r4,129
  814fd0:	211a4404 	addi	r4,r4,26896
  814fd4:	0814eb00 	call	814eb0 <alt_open_fd>
}  
  814fd8:	0001883a 	nop
  814fdc:	e037883a 	mov	sp,fp
  814fe0:	dfc00117 	ldw	ra,4(sp)
  814fe4:	df000017 	ldw	fp,0(sp)
  814fe8:	dec00204 	addi	sp,sp,8
  814fec:	f800283a 	ret

00814ff0 <alt_get_errno>:
#undef errno

extern int errno;

static ALT_INLINE int* alt_get_errno(void)
{
  814ff0:	defffe04 	addi	sp,sp,-8
  814ff4:	dfc00115 	stw	ra,4(sp)
  814ff8:	df000015 	stw	fp,0(sp)
  814ffc:	d839883a 	mov	fp,sp
  return ((alt_errno) ? alt_errno() : &errno);
  815000:	d0a00b17 	ldw	r2,-32724(gp)
  815004:	10000326 	beq	r2,zero,815014 <alt_get_errno+0x24>
  815008:	d0a00b17 	ldw	r2,-32724(gp)
  81500c:	103ee83a 	callr	r2
  815010:	00000106 	br	815018 <alt_get_errno+0x28>
  815014:	d0a75b04 	addi	r2,gp,-25236
}
  815018:	e037883a 	mov	sp,fp
  81501c:	dfc00117 	ldw	ra,4(sp)
  815020:	df000017 	ldw	fp,0(sp)
  815024:	dec00204 	addi	sp,sp,8
  815028:	f800283a 	ret

0081502c <alt_file_locked>:
 * performed for devices. Filesystems are required to handle the ioctl() call
 * themselves, and report the error from the filesystems open() function. 
 */ 

static int alt_file_locked (alt_fd* fd)
{
  81502c:	defffd04 	addi	sp,sp,-12
  815030:	df000215 	stw	fp,8(sp)
  815034:	df000204 	addi	fp,sp,8
  815038:	e13fff15 	stw	r4,-4(fp)

  /*
   * Mark the file descriptor as belonging to a device.
   */

  fd->fd_flags |= ALT_FD_DEV;
  81503c:	e0bfff17 	ldw	r2,-4(fp)
  815040:	10800217 	ldw	r2,8(r2)
  815044:	10d00034 	orhi	r3,r2,16384
  815048:	e0bfff17 	ldw	r2,-4(fp)
  81504c:	10c00215 	stw	r3,8(r2)
  /*
   * Loop through all current file descriptors searching for one that's locked
   * for exclusive access. If a match is found, generate an error.
   */

  for (i = 0; i <= alt_max_fd; i++)
  815050:	e03ffe15 	stw	zero,-8(fp)
  815054:	00001d06 	br	8150cc <alt_file_locked+0xa0>
  {
    if ((alt_fd_list[i].dev == fd->dev) &&
  815058:	00802074 	movhi	r2,129
  81505c:	109a3e04 	addi	r2,r2,26872
  815060:	e0fffe17 	ldw	r3,-8(fp)
  815064:	18c00324 	muli	r3,r3,12
  815068:	10c5883a 	add	r2,r2,r3
  81506c:	10c00017 	ldw	r3,0(r2)
  815070:	e0bfff17 	ldw	r2,-4(fp)
  815074:	10800017 	ldw	r2,0(r2)
  815078:	1880111e 	bne	r3,r2,8150c0 <alt_file_locked+0x94>
        (alt_fd_list[i].fd_flags & ALT_FD_EXCL) &&
  81507c:	00802074 	movhi	r2,129
  815080:	109a3e04 	addi	r2,r2,26872
  815084:	e0fffe17 	ldw	r3,-8(fp)
  815088:	18c00324 	muli	r3,r3,12
  81508c:	10c5883a 	add	r2,r2,r3
  815090:	10800204 	addi	r2,r2,8
  815094:	10800017 	ldw	r2,0(r2)
   * for exclusive access. If a match is found, generate an error.
   */

  for (i = 0; i <= alt_max_fd; i++)
  {
    if ((alt_fd_list[i].dev == fd->dev) &&
  815098:	1000090e 	bge	r2,zero,8150c0 <alt_file_locked+0x94>
        (alt_fd_list[i].fd_flags & ALT_FD_EXCL) &&
        (&alt_fd_list[i] != fd))
  81509c:	e0bffe17 	ldw	r2,-8(fp)
  8150a0:	10c00324 	muli	r3,r2,12
  8150a4:	00802074 	movhi	r2,129
  8150a8:	109a3e04 	addi	r2,r2,26872
  8150ac:	1887883a 	add	r3,r3,r2
   */

  for (i = 0; i <= alt_max_fd; i++)
  {
    if ((alt_fd_list[i].dev == fd->dev) &&
        (alt_fd_list[i].fd_flags & ALT_FD_EXCL) &&
  8150b0:	e0bfff17 	ldw	r2,-4(fp)
  8150b4:	18800226 	beq	r3,r2,8150c0 <alt_file_locked+0x94>
        (&alt_fd_list[i] != fd))
    {
      return -EACCES;
  8150b8:	00bffcc4 	movi	r2,-13
  8150bc:	00000806 	br	8150e0 <alt_file_locked+0xb4>
  /*
   * Loop through all current file descriptors searching for one that's locked
   * for exclusive access. If a match is found, generate an error.
   */

  for (i = 0; i <= alt_max_fd; i++)
  8150c0:	e0bffe17 	ldw	r2,-8(fp)
  8150c4:	10800044 	addi	r2,r2,1
  8150c8:	e0bffe15 	stw	r2,-8(fp)
  8150cc:	d0a00a17 	ldw	r2,-32728(gp)
  8150d0:	1007883a 	mov	r3,r2
  8150d4:	e0bffe17 	ldw	r2,-8(fp)
  8150d8:	18bfdf2e 	bgeu	r3,r2,815058 <__alt_mem_onchip_mem+0xff80d058>
    }
  }
  
  /* The device is not locked */
 
  return 0;
  8150dc:	0005883a 	mov	r2,zero
}
  8150e0:	e037883a 	mov	sp,fp
  8150e4:	df000017 	ldw	fp,0(sp)
  8150e8:	dec00104 	addi	sp,sp,4
  8150ec:	f800283a 	ret

008150f0 <open>:
 *
 * ALT_OPEN is mapped onto the open() system call in alt_syscall.h
 */
 
int ALT_OPEN (const char* file, int flags, int mode)
{ 
  8150f0:	defff604 	addi	sp,sp,-40
  8150f4:	dfc00915 	stw	ra,36(sp)
  8150f8:	df000815 	stw	fp,32(sp)
  8150fc:	df000804 	addi	fp,sp,32
  815100:	e13ffd15 	stw	r4,-12(fp)
  815104:	e17ffe15 	stw	r5,-8(fp)
  815108:	e1bfff15 	stw	r6,-4(fp)
  alt_dev* dev;
  alt_fd*  fd;
  int index  = -1;
  81510c:	00bfffc4 	movi	r2,-1
  815110:	e0bff915 	stw	r2,-28(fp)
  int status = -ENODEV;
  815114:	00bffb44 	movi	r2,-19
  815118:	e0bffa15 	stw	r2,-24(fp)
  int isafs = 0;
  81511c:	e03ffb15 	stw	zero,-20(fp)
  /* 
   * Check the device list, to see if a device with a matching name is 
   * registered.
   */
  
  if (!(dev = alt_find_dev (file, &alt_dev_list)))
  815120:	d1600804 	addi	r5,gp,-32736
  815124:	e13ffd17 	ldw	r4,-12(fp)
  815128:	08153f00 	call	8153f0 <alt_find_dev>
  81512c:	e0bff815 	stw	r2,-32(fp)
  815130:	e0bff817 	ldw	r2,-32(fp)
  815134:	1000051e 	bne	r2,zero,81514c <open+0x5c>
  {
    /* No matching device, so try the filesystem list */

    dev   = alt_find_file (file);
  815138:	e13ffd17 	ldw	r4,-12(fp)
  81513c:	08154800 	call	815480 <alt_find_file>
  815140:	e0bff815 	stw	r2,-32(fp)
    isafs = 1;
  815144:	00800044 	movi	r2,1
  815148:	e0bffb15 	stw	r2,-20(fp)

  /* 
   * If a matching device or filesystem is found, allocate a file descriptor. 
   */

  if (dev)
  81514c:	e0bff817 	ldw	r2,-32(fp)
  815150:	10002926 	beq	r2,zero,8151f8 <open+0x108>
  {
    if ((index = alt_get_fd (dev)) < 0)
  815154:	e13ff817 	ldw	r4,-32(fp)
  815158:	08155880 	call	815588 <alt_get_fd>
  81515c:	e0bff915 	stw	r2,-28(fp)
  815160:	e0bff917 	ldw	r2,-28(fp)
  815164:	1000030e 	bge	r2,zero,815174 <open+0x84>
    {
      status = index;
  815168:	e0bff917 	ldw	r2,-28(fp)
  81516c:	e0bffa15 	stw	r2,-24(fp)
  815170:	00002306 	br	815200 <open+0x110>
    }
    else
    {
      fd = &alt_fd_list[index];
  815174:	e0bff917 	ldw	r2,-28(fp)
  815178:	10c00324 	muli	r3,r2,12
  81517c:	00802074 	movhi	r2,129
  815180:	109a3e04 	addi	r2,r2,26872
  815184:	1885883a 	add	r2,r3,r2
  815188:	e0bffc15 	stw	r2,-16(fp)
      fd->fd_flags = (flags & ~ALT_FD_FLAGS_MASK);
  81518c:	e0fffe17 	ldw	r3,-8(fp)
  815190:	00900034 	movhi	r2,16384
  815194:	10bfffc4 	addi	r2,r2,-1
  815198:	1886703a 	and	r3,r3,r2
  81519c:	e0bffc17 	ldw	r2,-16(fp)
  8151a0:	10c00215 	stw	r3,8(r2)
      
      /* If this is a device, ensure it isn't already locked */

      if (isafs || ((status = alt_file_locked (fd)) >= 0))
  8151a4:	e0bffb17 	ldw	r2,-20(fp)
  8151a8:	1000051e 	bne	r2,zero,8151c0 <open+0xd0>
  8151ac:	e13ffc17 	ldw	r4,-16(fp)
  8151b0:	081502c0 	call	81502c <alt_file_locked>
  8151b4:	e0bffa15 	stw	r2,-24(fp)
  8151b8:	e0bffa17 	ldw	r2,-24(fp)
  8151bc:	10001016 	blt	r2,zero,815200 <open+0x110>
        /* 
         * If the device or filesystem provides an open() callback function,
         * call it now to perform any device/filesystem specific operations.
         */
    
        status = (dev->open) ? dev->open(fd, file, flags, mode): 0;
  8151c0:	e0bff817 	ldw	r2,-32(fp)
  8151c4:	10800317 	ldw	r2,12(r2)
  8151c8:	10000826 	beq	r2,zero,8151ec <open+0xfc>
  8151cc:	e0bff817 	ldw	r2,-32(fp)
  8151d0:	10800317 	ldw	r2,12(r2)
  8151d4:	e1ffff17 	ldw	r7,-4(fp)
  8151d8:	e1bffe17 	ldw	r6,-8(fp)
  8151dc:	e17ffd17 	ldw	r5,-12(fp)
  8151e0:	e13ffc17 	ldw	r4,-16(fp)
  8151e4:	103ee83a 	callr	r2
  8151e8:	00000106 	br	8151f0 <open+0x100>
  8151ec:	0005883a 	mov	r2,zero
  8151f0:	e0bffa15 	stw	r2,-24(fp)
  8151f4:	00000206 	br	815200 <open+0x110>
      }
    }
  }
  else
  {
    status = -ENODEV;
  8151f8:	00bffb44 	movi	r2,-19
  8151fc:	e0bffa15 	stw	r2,-24(fp)
  }

  /* Allocation failed, so clean up and return an error */ 

  if (status < 0)
  815200:	e0bffa17 	ldw	r2,-24(fp)
  815204:	1000090e 	bge	r2,zero,81522c <open+0x13c>
  {
    alt_release_fd (index);  
  815208:	e13ff917 	ldw	r4,-28(fp)
  81520c:	08123f80 	call	8123f8 <alt_release_fd>
    ALT_ERRNO = -status;
  815210:	0814ff00 	call	814ff0 <alt_get_errno>
  815214:	1007883a 	mov	r3,r2
  815218:	e0bffa17 	ldw	r2,-24(fp)
  81521c:	0085c83a 	sub	r2,zero,r2
  815220:	18800015 	stw	r2,0(r3)
    return -1;
  815224:	00bfffc4 	movi	r2,-1
  815228:	00000106 	br	815230 <open+0x140>
  }
  
  /* return the reference upon success */

  return index;
  81522c:	e0bff917 	ldw	r2,-28(fp)
}
  815230:	e037883a 	mov	sp,fp
  815234:	dfc00117 	ldw	ra,4(sp)
  815238:	df000017 	ldw	fp,0(sp)
  81523c:	dec00204 	addi	sp,sp,8
  815240:	f800283a 	ret

00815244 <usleep>:
#if defined (__GNUC__) && __GNUC__ >= 4
int ALT_USLEEP (useconds_t us)
#else
unsigned int ALT_USLEEP (unsigned int us)
#endif
{
  815244:	defffd04 	addi	sp,sp,-12
  815248:	dfc00215 	stw	ra,8(sp)
  81524c:	df000115 	stw	fp,4(sp)
  815250:	df000104 	addi	fp,sp,4
  815254:	e13fff15 	stw	r4,-4(fp)
  return alt_busy_sleep(us);
  815258:	e13fff17 	ldw	r4,-4(fp)
  81525c:	08152980 	call	815298 <alt_busy_sleep>
}
  815260:	e037883a 	mov	sp,fp
  815264:	dfc00117 	ldw	ra,4(sp)
  815268:	df000017 	ldw	fp,0(sp)
  81526c:	dec00204 	addi	sp,sp,8
  815270:	f800283a 	ret

00815274 <altera_nios2_gen2_irq_init>:
/*
 * To initialize the internal interrupt controller, just clear the IENABLE
 * register so that all possible IRQs are disabled.
 */
void altera_nios2_gen2_irq_init(void) 
{
  815274:	deffff04 	addi	sp,sp,-4
  815278:	df000015 	stw	fp,0(sp)
  81527c:	d839883a 	mov	fp,sp
    NIOS2_WRITE_IENABLE(0);
  815280:	000170fa 	wrctl	ienable,zero
}
  815284:	0001883a 	nop
  815288:	e037883a 	mov	sp,fp
  81528c:	df000017 	ldw	fp,0(sp)
  815290:	dec00104 	addi	sp,sp,4
  815294:	f800283a 	ret

00815298 <alt_busy_sleep>:
#include "alt_types.h"

#include "priv/alt_busy_sleep.h"

unsigned int alt_busy_sleep (unsigned int us)
{
  815298:	defffa04 	addi	sp,sp,-24
  81529c:	dfc00515 	stw	ra,20(sp)
  8152a0:	df000415 	stw	fp,16(sp)
  8152a4:	df000404 	addi	fp,sp,16
  8152a8:	e13fff15 	stw	r4,-4(fp)
  {
    cycles_per_loop = 9;
  }
  else  
  {
    cycles_per_loop = 3;
  8152ac:	008000c4 	movi	r2,3
  8152b0:	e0bffd15 	stw	r2,-12(fp)
  }
  

  big_loops = us / (INT_MAX/
  (ALT_CPU_FREQ/(cycles_per_loop * 1000000)));
  8152b4:	e0fffd17 	ldw	r3,-12(fp)
  8152b8:	008003f4 	movhi	r2,15
  8152bc:	10909004 	addi	r2,r2,16960
  8152c0:	1885383a 	mul	r2,r3,r2
  8152c4:	100b883a 	mov	r5,r2
  8152c8:	0100bef4 	movhi	r4,763
  8152cc:	213c2004 	addi	r4,r4,-3968
  8152d0:	0810e840 	call	810e84 <__udivsi3>
  {
    cycles_per_loop = 3;
  }
  

  big_loops = us / (INT_MAX/
  8152d4:	100b883a 	mov	r5,r2
  8152d8:	01200034 	movhi	r4,32768
  8152dc:	213fffc4 	addi	r4,r4,-1
  8152e0:	0810e840 	call	810e84 <__udivsi3>
  8152e4:	100b883a 	mov	r5,r2
  8152e8:	e13fff17 	ldw	r4,-4(fp)
  8152ec:	0810e840 	call	810e84 <__udivsi3>
  8152f0:	e0bffe15 	stw	r2,-8(fp)
  (ALT_CPU_FREQ/(cycles_per_loop * 1000000)));

  if (big_loops)
  8152f4:	e0bffe17 	ldw	r2,-8(fp)
  8152f8:	10002a26 	beq	r2,zero,8153a4 <alt_busy_sleep+0x10c>
  {
    for(i=0;i<big_loops;i++)
  8152fc:	e03ffc15 	stw	zero,-16(fp)
  815300:	00001706 	br	815360 <alt_busy_sleep+0xc8>
      /*
      * Do NOT Try to single step the asm statement below 
      * (single step will never return)
      * Step out of this function or set a breakpoint after the asm statements
      */
      __asm__ volatile (
  815304:	00a00034 	movhi	r2,32768
  815308:	10bfffc4 	addi	r2,r2,-1
  81530c:	10bfffc4 	addi	r2,r2,-1
  815310:	103ffe1e 	bne	r2,zero,81530c <__alt_mem_onchip_mem+0xff80d30c>
        "\n\t.pushsection .debug_alt_sim_info"
        "\n\t.int 4, 0, 0b, 1b"
        "\n\t.popsection"
        :: "r" (INT_MAX));
      us -= (INT_MAX/(ALT_CPU_FREQ/
      (cycles_per_loop * 1000000)));
  815314:	e0fffd17 	ldw	r3,-12(fp)
  815318:	008003f4 	movhi	r2,15
  81531c:	10909004 	addi	r2,r2,16960
  815320:	1885383a 	mul	r2,r3,r2
        "\n1:"
        "\n\t.pushsection .debug_alt_sim_info"
        "\n\t.int 4, 0, 0b, 1b"
        "\n\t.popsection"
        :: "r" (INT_MAX));
      us -= (INT_MAX/(ALT_CPU_FREQ/
  815324:	100b883a 	mov	r5,r2
  815328:	0100bef4 	movhi	r4,763
  81532c:	213c2004 	addi	r4,r4,-3968
  815330:	0810e840 	call	810e84 <__udivsi3>
  815334:	100b883a 	mov	r5,r2
  815338:	01200034 	movhi	r4,32768
  81533c:	213fffc4 	addi	r4,r4,-1
  815340:	0810e840 	call	810e84 <__udivsi3>
  815344:	1007883a 	mov	r3,r2
  815348:	e0bfff17 	ldw	r2,-4(fp)
  81534c:	10c5c83a 	sub	r2,r2,r3
  815350:	e0bfff15 	stw	r2,-4(fp)
  big_loops = us / (INT_MAX/
  (ALT_CPU_FREQ/(cycles_per_loop * 1000000)));

  if (big_loops)
  {
    for(i=0;i<big_loops;i++)
  815354:	e0bffc17 	ldw	r2,-16(fp)
  815358:	10800044 	addi	r2,r2,1
  81535c:	e0bffc15 	stw	r2,-16(fp)
  815360:	e0fffc17 	ldw	r3,-16(fp)
  815364:	e0bffe17 	ldw	r2,-8(fp)
  815368:	18bfe616 	blt	r3,r2,815304 <__alt_mem_onchip_mem+0xff80d304>
      "\n\tbne %0,zero,0b"
      "\n1:"
      "\n\t.pushsection .debug_alt_sim_info"
      "\n\t.int 4, 0, 0b, 1b"
      "\n\t.popsection"
      :: "r" (us*(ALT_CPU_FREQ/(cycles_per_loop * 1000000))));
  81536c:	e0fffd17 	ldw	r3,-12(fp)
  815370:	008003f4 	movhi	r2,15
  815374:	10909004 	addi	r2,r2,16960
  815378:	1885383a 	mul	r2,r3,r2
  81537c:	100b883a 	mov	r5,r2
  815380:	0100bef4 	movhi	r4,763
  815384:	213c2004 	addi	r4,r4,-3968
  815388:	0810e840 	call	810e84 <__udivsi3>
  81538c:	1007883a 	mov	r3,r2
  815390:	e0bfff17 	ldw	r2,-4(fp)
  815394:	1885383a 	mul	r2,r3,r2
    /*
    * Do NOT Try to single step the asm statement below 
    * (single step will never return)
    * Step out of this function or set a breakpoint after the asm statements
    */
    __asm__ volatile (
  815398:	10bfffc4 	addi	r2,r2,-1
  81539c:	103ffe1e 	bne	r2,zero,815398 <__alt_mem_onchip_mem+0xff80d398>
  8153a0:	00000d06 	br	8153d8 <alt_busy_sleep+0x140>
      "\n\tbgt %0,zero,0b"
      "\n1:"
      "\n\t.pushsection .debug_alt_sim_info"
      "\n\t.int 4, 0, 0b, 1b"
      "\n\t.popsection"
      :: "r" (us*(ALT_CPU_FREQ/(cycles_per_loop * 1000000))));
  8153a4:	e0fffd17 	ldw	r3,-12(fp)
  8153a8:	008003f4 	movhi	r2,15
  8153ac:	10909004 	addi	r2,r2,16960
  8153b0:	1885383a 	mul	r2,r3,r2
  8153b4:	100b883a 	mov	r5,r2
  8153b8:	0100bef4 	movhi	r4,763
  8153bc:	213c2004 	addi	r4,r4,-3968
  8153c0:	0810e840 	call	810e84 <__udivsi3>
  8153c4:	1007883a 	mov	r3,r2
  8153c8:	e0bfff17 	ldw	r2,-4(fp)
  8153cc:	1885383a 	mul	r2,r3,r2
    /*
    * Do NOT Try to single step the asm statement below 
    * (single step will never return)
    * Step out of this function or set a breakpoint after the asm statements
    */
    __asm__ volatile (
  8153d0:	10bfffc4 	addi	r2,r2,-1
  8153d4:	00bffe16 	blt	zero,r2,8153d0 <__alt_mem_onchip_mem+0xff80d3d0>
      "\n\t.int 4, 0, 0b, 1b"
      "\n\t.popsection"
      :: "r" (us*(ALT_CPU_FREQ/(cycles_per_loop * 1000000))));
  }
#endif /* #ifndef ALT_SIM_OPTIMIZE */
  return 0;
  8153d8:	0005883a 	mov	r2,zero
}
  8153dc:	e037883a 	mov	sp,fp
  8153e0:	dfc00117 	ldw	ra,4(sp)
  8153e4:	df000017 	ldw	fp,0(sp)
  8153e8:	dec00204 	addi	sp,sp,8
  8153ec:	f800283a 	ret

008153f0 <alt_find_dev>:
 * "name" must be an exact match for the devices registered name for a match to
 * be found.
 */
 
alt_dev* alt_find_dev(const char* name, alt_llist* llist)
{
  8153f0:	defffa04 	addi	sp,sp,-24
  8153f4:	dfc00515 	stw	ra,20(sp)
  8153f8:	df000415 	stw	fp,16(sp)
  8153fc:	df000404 	addi	fp,sp,16
  815400:	e13ffe15 	stw	r4,-8(fp)
  815404:	e17fff15 	stw	r5,-4(fp)
  alt_dev* next = (alt_dev*) llist->next;
  815408:	e0bfff17 	ldw	r2,-4(fp)
  81540c:	10800017 	ldw	r2,0(r2)
  815410:	e0bffc15 	stw	r2,-16(fp)
  alt_32 len;

  len  = strlen(name) + 1;
  815414:	e13ffe17 	ldw	r4,-8(fp)
  815418:	080d74c0 	call	80d74c <strlen>
  81541c:	10800044 	addi	r2,r2,1
  815420:	e0bffd15 	stw	r2,-12(fp)
  /*
   * Check each list entry in turn, until a match is found, or we reach the
   * end of the list (i.e. next winds up pointing back to the list head).
   */ 

  while (next != (alt_dev*) llist)
  815424:	00000d06 	br	81545c <alt_find_dev+0x6c>
    /* 
     * memcmp() is used here rather than strcmp() in order to reduce the size
     * of the executable.
     */

    if (!memcmp (next->name, name, len))
  815428:	e0bffc17 	ldw	r2,-16(fp)
  81542c:	10800217 	ldw	r2,8(r2)
  815430:	e0fffd17 	ldw	r3,-12(fp)
  815434:	180d883a 	mov	r6,r3
  815438:	e17ffe17 	ldw	r5,-8(fp)
  81543c:	1009883a 	mov	r4,r2
  815440:	08157080 	call	815708 <memcmp>
  815444:	1000021e 	bne	r2,zero,815450 <alt_find_dev+0x60>
    {
      /* match found */

      return next;
  815448:	e0bffc17 	ldw	r2,-16(fp)
  81544c:	00000706 	br	81546c <alt_find_dev+0x7c>
    }
    next = (alt_dev*) next->llist.next;
  815450:	e0bffc17 	ldw	r2,-16(fp)
  815454:	10800017 	ldw	r2,0(r2)
  815458:	e0bffc15 	stw	r2,-16(fp)
  /*
   * Check each list entry in turn, until a match is found, or we reach the
   * end of the list (i.e. next winds up pointing back to the list head).
   */ 

  while (next != (alt_dev*) llist)
  81545c:	e0fffc17 	ldw	r3,-16(fp)
  815460:	e0bfff17 	ldw	r2,-4(fp)
  815464:	18bff01e 	bne	r3,r2,815428 <__alt_mem_onchip_mem+0xff80d428>
    next = (alt_dev*) next->llist.next;
  }
  
  /* No match found */
  
  return NULL;
  815468:	0005883a 	mov	r2,zero
}
  81546c:	e037883a 	mov	sp,fp
  815470:	dfc00117 	ldw	ra,4(sp)
  815474:	df000017 	ldw	fp,0(sp)
  815478:	dec00204 	addi	sp,sp,8
  81547c:	f800283a 	ret

00815480 <alt_find_file>:
 * either '/' or '\0' is the prefix of the filename. For example the filename:
 * "/myfilesystem/junk.txt" would match: "/myfilesystem", but not: "/myfile". 
 */
 
alt_dev* alt_find_file (const char* name)
{
  815480:	defffb04 	addi	sp,sp,-20
  815484:	dfc00415 	stw	ra,16(sp)
  815488:	df000315 	stw	fp,12(sp)
  81548c:	df000304 	addi	fp,sp,12
  815490:	e13fff15 	stw	r4,-4(fp)
  alt_dev* next = (alt_dev*) alt_fs_list.next;   
  815494:	d0a00617 	ldw	r2,-32744(gp)
  815498:	e0bffd15 	stw	r2,-12(fp)
  /*
   * Check each list entry in turn, until a match is found, or we reach the
   * end of the list (i.e. next winds up pointing back to the list head).
   */ 
 
  while (next != (alt_dev*) &alt_fs_list)
  81549c:	00003106 	br	815564 <alt_find_file+0xe4>
  {
    len = strlen(next->name);
  8154a0:	e0bffd17 	ldw	r2,-12(fp)
  8154a4:	10800217 	ldw	r2,8(r2)
  8154a8:	1009883a 	mov	r4,r2
  8154ac:	080d74c0 	call	80d74c <strlen>
  8154b0:	e0bffe15 	stw	r2,-8(fp)
    
    if (next->name[len-1] == '/')
  8154b4:	e0bffd17 	ldw	r2,-12(fp)
  8154b8:	10c00217 	ldw	r3,8(r2)
  8154bc:	e0bffe17 	ldw	r2,-8(fp)
  8154c0:	10bfffc4 	addi	r2,r2,-1
  8154c4:	1885883a 	add	r2,r3,r2
  8154c8:	10800003 	ldbu	r2,0(r2)
  8154cc:	10803fcc 	andi	r2,r2,255
  8154d0:	1080201c 	xori	r2,r2,128
  8154d4:	10bfe004 	addi	r2,r2,-128
  8154d8:	10800bd8 	cmpnei	r2,r2,47
  8154dc:	1000031e 	bne	r2,zero,8154ec <alt_find_file+0x6c>
    {
      len -= 1;
  8154e0:	e0bffe17 	ldw	r2,-8(fp)
  8154e4:	10bfffc4 	addi	r2,r2,-1
  8154e8:	e0bffe15 	stw	r2,-8(fp)
    }

    if (((name[len] == '/') || (name[len] == '\0')) && 
  8154ec:	e0bffe17 	ldw	r2,-8(fp)
  8154f0:	e0ffff17 	ldw	r3,-4(fp)
  8154f4:	1885883a 	add	r2,r3,r2
  8154f8:	10800003 	ldbu	r2,0(r2)
  8154fc:	10803fcc 	andi	r2,r2,255
  815500:	1080201c 	xori	r2,r2,128
  815504:	10bfe004 	addi	r2,r2,-128
  815508:	10800be0 	cmpeqi	r2,r2,47
  81550c:	1000081e 	bne	r2,zero,815530 <alt_find_file+0xb0>
  815510:	e0bffe17 	ldw	r2,-8(fp)
  815514:	e0ffff17 	ldw	r3,-4(fp)
  815518:	1885883a 	add	r2,r3,r2
  81551c:	10800003 	ldbu	r2,0(r2)
  815520:	10803fcc 	andi	r2,r2,255
  815524:	1080201c 	xori	r2,r2,128
  815528:	10bfe004 	addi	r2,r2,-128
  81552c:	10000a1e 	bne	r2,zero,815558 <alt_find_file+0xd8>
        !memcmp (next->name, name, len))
  815530:	e0bffd17 	ldw	r2,-12(fp)
  815534:	10800217 	ldw	r2,8(r2)
  815538:	e0fffe17 	ldw	r3,-8(fp)
  81553c:	180d883a 	mov	r6,r3
  815540:	e17fff17 	ldw	r5,-4(fp)
  815544:	1009883a 	mov	r4,r2
  815548:	08157080 	call	815708 <memcmp>
    if (next->name[len-1] == '/')
    {
      len -= 1;
    }

    if (((name[len] == '/') || (name[len] == '\0')) && 
  81554c:	1000021e 	bne	r2,zero,815558 <alt_find_file+0xd8>
        !memcmp (next->name, name, len))
    {
      /* match found */

      return next;
  815550:	e0bffd17 	ldw	r2,-12(fp)
  815554:	00000706 	br	815574 <alt_find_file+0xf4>
    }
    next = (alt_dev*) next->llist.next;
  815558:	e0bffd17 	ldw	r2,-12(fp)
  81555c:	10800017 	ldw	r2,0(r2)
  815560:	e0bffd15 	stw	r2,-12(fp)
  /*
   * Check each list entry in turn, until a match is found, or we reach the
   * end of the list (i.e. next winds up pointing back to the list head).
   */ 
 
  while (next != (alt_dev*) &alt_fs_list)
  815564:	e0fffd17 	ldw	r3,-12(fp)
  815568:	d0a00604 	addi	r2,gp,-32744
  81556c:	18bfcc1e 	bne	r3,r2,8154a0 <__alt_mem_onchip_mem+0xff80d4a0>
    next = (alt_dev*) next->llist.next;
  }
  
  /* No match found */
  
  return NULL;     
  815570:	0005883a 	mov	r2,zero
}
  815574:	e037883a 	mov	sp,fp
  815578:	dfc00117 	ldw	ra,4(sp)
  81557c:	df000017 	ldw	fp,0(sp)
  815580:	dec00204 	addi	sp,sp,8
  815584:	f800283a 	ret

00815588 <alt_get_fd>:
 * the offset of the file descriptor within the file descriptor array). A
 * negative value indicates failure.
 */

int alt_get_fd (alt_dev* dev)
{
  815588:	defffc04 	addi	sp,sp,-16
  81558c:	df000315 	stw	fp,12(sp)
  815590:	df000304 	addi	fp,sp,12
  815594:	e13fff15 	stw	r4,-4(fp)
  alt_32 i;
  int rc = -EMFILE;
  815598:	00bffa04 	movi	r2,-24
  81559c:	e0bffe15 	stw	r2,-8(fp)
   * indicates the highest file descriptor ever allocated. This is used to
   * improve efficency when searching the file descriptor list, and 
   * therefore reduce contention on the alt_fd_list_lock semaphore. 
   */

  for (i = 0; i < ALT_MAX_FD; i++)
  8155a0:	e03ffd15 	stw	zero,-12(fp)
  8155a4:	00001906 	br	81560c <alt_get_fd+0x84>
  {
    if (!alt_fd_list[i].dev)
  8155a8:	00802074 	movhi	r2,129
  8155ac:	109a3e04 	addi	r2,r2,26872
  8155b0:	e0fffd17 	ldw	r3,-12(fp)
  8155b4:	18c00324 	muli	r3,r3,12
  8155b8:	10c5883a 	add	r2,r2,r3
  8155bc:	10800017 	ldw	r2,0(r2)
  8155c0:	10000f1e 	bne	r2,zero,815600 <alt_get_fd+0x78>
    {
      alt_fd_list[i].dev = dev;
  8155c4:	00802074 	movhi	r2,129
  8155c8:	109a3e04 	addi	r2,r2,26872
  8155cc:	e0fffd17 	ldw	r3,-12(fp)
  8155d0:	18c00324 	muli	r3,r3,12
  8155d4:	10c5883a 	add	r2,r2,r3
  8155d8:	e0ffff17 	ldw	r3,-4(fp)
  8155dc:	10c00015 	stw	r3,0(r2)
      if (i > alt_max_fd)
  8155e0:	d0e00a17 	ldw	r3,-32728(gp)
  8155e4:	e0bffd17 	ldw	r2,-12(fp)
  8155e8:	1880020e 	bge	r3,r2,8155f4 <alt_get_fd+0x6c>
      {
        alt_max_fd = i;
  8155ec:	e0bffd17 	ldw	r2,-12(fp)
  8155f0:	d0a00a15 	stw	r2,-32728(gp)
      }
      rc = i;
  8155f4:	e0bffd17 	ldw	r2,-12(fp)
  8155f8:	e0bffe15 	stw	r2,-8(fp)
      goto alt_get_fd_exit;
  8155fc:	00000606 	br	815618 <alt_get_fd+0x90>
   * indicates the highest file descriptor ever allocated. This is used to
   * improve efficency when searching the file descriptor list, and 
   * therefore reduce contention on the alt_fd_list_lock semaphore. 
   */

  for (i = 0; i < ALT_MAX_FD; i++)
  815600:	e0bffd17 	ldw	r2,-12(fp)
  815604:	10800044 	addi	r2,r2,1
  815608:	e0bffd15 	stw	r2,-12(fp)
  81560c:	e0bffd17 	ldw	r2,-12(fp)
  815610:	10800810 	cmplti	r2,r2,32
  815614:	103fe41e 	bne	r2,zero,8155a8 <__alt_mem_onchip_mem+0xff80d5a8>
   * file descriptor pool.
   */

  ALT_SEM_POST(alt_fd_list_lock);

  return rc;
  815618:	e0bffe17 	ldw	r2,-8(fp)
}
  81561c:	e037883a 	mov	sp,fp
  815620:	df000017 	ldw	fp,0(sp)
  815624:	dec00104 	addi	sp,sp,4
  815628:	f800283a 	ret

0081562c <alt_icache_flush>:
 * alt_icache_flush() is called to flush the instruction cache for a memory
 * region of length "len" bytes, starting at address "start".
 */

void alt_icache_flush (void* start, alt_u32 len)
{
  81562c:	defffb04 	addi	sp,sp,-20
  815630:	df000415 	stw	fp,16(sp)
  815634:	df000404 	addi	fp,sp,16
  815638:	e13ffe15 	stw	r4,-8(fp)
  81563c:	e17fff15 	stw	r5,-4(fp)

  /*
   * This is the most we would ever need to flush.
   */
 
  if (len > NIOS2_ICACHE_SIZE)
  815640:	e0bfff17 	ldw	r2,-4(fp)
  815644:	10840070 	cmpltui	r2,r2,4097
  815648:	1000021e 	bne	r2,zero,815654 <alt_icache_flush+0x28>
  {
    len = NIOS2_ICACHE_SIZE;
  81564c:	00840004 	movi	r2,4096
  815650:	e0bfff15 	stw	r2,-4(fp)
  }

  end = ((char*) start) + len;
  815654:	e0fffe17 	ldw	r3,-8(fp)
  815658:	e0bfff17 	ldw	r2,-4(fp)
  81565c:	1885883a 	add	r2,r3,r2
  815660:	e0bffd15 	stw	r2,-12(fp)

  for (i = start; i < end; i+= NIOS2_ICACHE_LINE_SIZE)
  815664:	e0bffe17 	ldw	r2,-8(fp)
  815668:	e0bffc15 	stw	r2,-16(fp)
  81566c:	00000506 	br	815684 <alt_icache_flush+0x58>
  { 
    __asm__ volatile ("flushi %0" :: "r" (i)); 
  815670:	e0bffc17 	ldw	r2,-16(fp)
  815674:	1000603a 	flushi	r2
    len = NIOS2_ICACHE_SIZE;
  }

  end = ((char*) start) + len;

  for (i = start; i < end; i+= NIOS2_ICACHE_LINE_SIZE)
  815678:	e0bffc17 	ldw	r2,-16(fp)
  81567c:	10800804 	addi	r2,r2,32
  815680:	e0bffc15 	stw	r2,-16(fp)
  815684:	e0fffc17 	ldw	r3,-16(fp)
  815688:	e0bffd17 	ldw	r2,-12(fp)
  81568c:	18bff836 	bltu	r3,r2,815670 <__alt_mem_onchip_mem+0xff80d670>
   * For an unaligned flush request, we've got one more line left.
   * Note that this is dependent on NIOS2_ICACHE_LINE_SIZE to be a 
   * multiple of 2 (which it always is).
   */

  if (((alt_u32) start) & (NIOS2_ICACHE_LINE_SIZE - 1))
  815690:	e0bffe17 	ldw	r2,-8(fp)
  815694:	108007cc 	andi	r2,r2,31
  815698:	10000226 	beq	r2,zero,8156a4 <alt_icache_flush+0x78>
  {
    __asm__ volatile ("flushi %0" :: "r" (i));
  81569c:	e0bffc17 	ldw	r2,-16(fp)
  8156a0:	1000603a 	flushi	r2
  /* 
   * Having flushed the cache, flush any stale instructions in the 
   * pipeline 
   */

  __asm__ volatile ("flushp");
  8156a4:	0000203a 	flushp

#endif /* NIOS2_ICACHE_SIZE > 0 */
}
  8156a8:	0001883a 	nop
  8156ac:	e037883a 	mov	sp,fp
  8156b0:	df000017 	ldw	fp,0(sp)
  8156b4:	dec00104 	addi	sp,sp,4
  8156b8:	f800283a 	ret

008156bc <atexit>:
  8156bc:	200b883a 	mov	r5,r4
  8156c0:	000f883a 	mov	r7,zero
  8156c4:	000d883a 	mov	r6,zero
  8156c8:	0009883a 	mov	r4,zero
  8156cc:	08157841 	jmpi	815784 <__register_exitproc>

008156d0 <exit>:
  8156d0:	defffe04 	addi	sp,sp,-8
  8156d4:	000b883a 	mov	r5,zero
  8156d8:	dc000015 	stw	r16,0(sp)
  8156dc:	dfc00115 	stw	ra,4(sp)
  8156e0:	2021883a 	mov	r16,r4
  8156e4:	081589c0 	call	81589c <__call_exitprocs>
  8156e8:	00802074 	movhi	r2,129
  8156ec:	109f2f04 	addi	r2,r2,31932
  8156f0:	11000017 	ldw	r4,0(r2)
  8156f4:	20800f17 	ldw	r2,60(r4)
  8156f8:	10000126 	beq	r2,zero,815700 <exit+0x30>
  8156fc:	103ee83a 	callr	r2
  815700:	8009883a 	mov	r4,r16
  815704:	0815a1c0 	call	815a1c <_exit>

00815708 <memcmp>:
  815708:	01c000c4 	movi	r7,3
  81570c:	3980192e 	bgeu	r7,r6,815774 <memcmp+0x6c>
  815710:	2144b03a 	or	r2,r4,r5
  815714:	11c4703a 	and	r2,r2,r7
  815718:	10000f26 	beq	r2,zero,815758 <memcmp+0x50>
  81571c:	20800003 	ldbu	r2,0(r4)
  815720:	28c00003 	ldbu	r3,0(r5)
  815724:	10c0151e 	bne	r2,r3,81577c <memcmp+0x74>
  815728:	31bfff84 	addi	r6,r6,-2
  81572c:	01ffffc4 	movi	r7,-1
  815730:	00000406 	br	815744 <memcmp+0x3c>
  815734:	20800003 	ldbu	r2,0(r4)
  815738:	28c00003 	ldbu	r3,0(r5)
  81573c:	31bfffc4 	addi	r6,r6,-1
  815740:	10c00e1e 	bne	r2,r3,81577c <memcmp+0x74>
  815744:	21000044 	addi	r4,r4,1
  815748:	29400044 	addi	r5,r5,1
  81574c:	31fff91e 	bne	r6,r7,815734 <__alt_mem_onchip_mem+0xff80d734>
  815750:	0005883a 	mov	r2,zero
  815754:	f800283a 	ret
  815758:	20c00017 	ldw	r3,0(r4)
  81575c:	28800017 	ldw	r2,0(r5)
  815760:	18bfee1e 	bne	r3,r2,81571c <__alt_mem_onchip_mem+0xff80d71c>
  815764:	31bfff04 	addi	r6,r6,-4
  815768:	21000104 	addi	r4,r4,4
  81576c:	29400104 	addi	r5,r5,4
  815770:	39bff936 	bltu	r7,r6,815758 <__alt_mem_onchip_mem+0xff80d758>
  815774:	303fe91e 	bne	r6,zero,81571c <__alt_mem_onchip_mem+0xff80d71c>
  815778:	003ff506 	br	815750 <__alt_mem_onchip_mem+0xff80d750>
  81577c:	10c5c83a 	sub	r2,r2,r3
  815780:	f800283a 	ret

00815784 <__register_exitproc>:
  815784:	defffa04 	addi	sp,sp,-24
  815788:	dc000315 	stw	r16,12(sp)
  81578c:	04002074 	movhi	r16,129
  815790:	841f2f04 	addi	r16,r16,31932
  815794:	80c00017 	ldw	r3,0(r16)
  815798:	dc400415 	stw	r17,16(sp)
  81579c:	dfc00515 	stw	ra,20(sp)
  8157a0:	18805217 	ldw	r2,328(r3)
  8157a4:	2023883a 	mov	r17,r4
  8157a8:	10003726 	beq	r2,zero,815888 <__register_exitproc+0x104>
  8157ac:	10c00117 	ldw	r3,4(r2)
  8157b0:	010007c4 	movi	r4,31
  8157b4:	20c00e16 	blt	r4,r3,8157f0 <__register_exitproc+0x6c>
  8157b8:	1a000044 	addi	r8,r3,1
  8157bc:	8800221e 	bne	r17,zero,815848 <__register_exitproc+0xc4>
  8157c0:	18c00084 	addi	r3,r3,2
  8157c4:	18c7883a 	add	r3,r3,r3
  8157c8:	18c7883a 	add	r3,r3,r3
  8157cc:	12000115 	stw	r8,4(r2)
  8157d0:	10c7883a 	add	r3,r2,r3
  8157d4:	19400015 	stw	r5,0(r3)
  8157d8:	0005883a 	mov	r2,zero
  8157dc:	dfc00517 	ldw	ra,20(sp)
  8157e0:	dc400417 	ldw	r17,16(sp)
  8157e4:	dc000317 	ldw	r16,12(sp)
  8157e8:	dec00604 	addi	sp,sp,24
  8157ec:	f800283a 	ret
  8157f0:	00800034 	movhi	r2,0
  8157f4:	10800004 	addi	r2,r2,0
  8157f8:	10002626 	beq	r2,zero,815894 <__register_exitproc+0x110>
  8157fc:	01006404 	movi	r4,400
  815800:	d9400015 	stw	r5,0(sp)
  815804:	d9800115 	stw	r6,4(sp)
  815808:	d9c00215 	stw	r7,8(sp)
  81580c:	00000000 	call	0 <__alt_mem_sdram-0x800000>
  815810:	d9400017 	ldw	r5,0(sp)
  815814:	d9800117 	ldw	r6,4(sp)
  815818:	d9c00217 	ldw	r7,8(sp)
  81581c:	10001d26 	beq	r2,zero,815894 <__register_exitproc+0x110>
  815820:	81000017 	ldw	r4,0(r16)
  815824:	10000115 	stw	zero,4(r2)
  815828:	02000044 	movi	r8,1
  81582c:	22405217 	ldw	r9,328(r4)
  815830:	0007883a 	mov	r3,zero
  815834:	12400015 	stw	r9,0(r2)
  815838:	20805215 	stw	r2,328(r4)
  81583c:	10006215 	stw	zero,392(r2)
  815840:	10006315 	stw	zero,396(r2)
  815844:	883fde26 	beq	r17,zero,8157c0 <__alt_mem_onchip_mem+0xff80d7c0>
  815848:	18c9883a 	add	r4,r3,r3
  81584c:	2109883a 	add	r4,r4,r4
  815850:	1109883a 	add	r4,r2,r4
  815854:	21802215 	stw	r6,136(r4)
  815858:	01800044 	movi	r6,1
  81585c:	12406217 	ldw	r9,392(r2)
  815860:	30cc983a 	sll	r6,r6,r3
  815864:	4992b03a 	or	r9,r9,r6
  815868:	12406215 	stw	r9,392(r2)
  81586c:	21c04215 	stw	r7,264(r4)
  815870:	01000084 	movi	r4,2
  815874:	893fd21e 	bne	r17,r4,8157c0 <__alt_mem_onchip_mem+0xff80d7c0>
  815878:	11006317 	ldw	r4,396(r2)
  81587c:	218cb03a 	or	r6,r4,r6
  815880:	11806315 	stw	r6,396(r2)
  815884:	003fce06 	br	8157c0 <__alt_mem_onchip_mem+0xff80d7c0>
  815888:	18805304 	addi	r2,r3,332
  81588c:	18805215 	stw	r2,328(r3)
  815890:	003fc606 	br	8157ac <__alt_mem_onchip_mem+0xff80d7ac>
  815894:	00bfffc4 	movi	r2,-1
  815898:	003fd006 	br	8157dc <__alt_mem_onchip_mem+0xff80d7dc>

0081589c <__call_exitprocs>:
  81589c:	defff504 	addi	sp,sp,-44
  8158a0:	df000915 	stw	fp,36(sp)
  8158a4:	dd400615 	stw	r21,24(sp)
  8158a8:	dc800315 	stw	r18,12(sp)
  8158ac:	dfc00a15 	stw	ra,40(sp)
  8158b0:	ddc00815 	stw	r23,32(sp)
  8158b4:	dd800715 	stw	r22,28(sp)
  8158b8:	dd000515 	stw	r20,20(sp)
  8158bc:	dcc00415 	stw	r19,16(sp)
  8158c0:	dc400215 	stw	r17,8(sp)
  8158c4:	dc000115 	stw	r16,4(sp)
  8158c8:	d9000015 	stw	r4,0(sp)
  8158cc:	2839883a 	mov	fp,r5
  8158d0:	04800044 	movi	r18,1
  8158d4:	057fffc4 	movi	r21,-1
  8158d8:	00802074 	movhi	r2,129
  8158dc:	109f2f04 	addi	r2,r2,31932
  8158e0:	12000017 	ldw	r8,0(r2)
  8158e4:	45005217 	ldw	r20,328(r8)
  8158e8:	44c05204 	addi	r19,r8,328
  8158ec:	a0001c26 	beq	r20,zero,815960 <__call_exitprocs+0xc4>
  8158f0:	a0800117 	ldw	r2,4(r20)
  8158f4:	15ffffc4 	addi	r23,r2,-1
  8158f8:	b8000d16 	blt	r23,zero,815930 <__call_exitprocs+0x94>
  8158fc:	14000044 	addi	r16,r2,1
  815900:	8421883a 	add	r16,r16,r16
  815904:	8421883a 	add	r16,r16,r16
  815908:	84402004 	addi	r17,r16,128
  81590c:	a463883a 	add	r17,r20,r17
  815910:	a421883a 	add	r16,r20,r16
  815914:	e0001e26 	beq	fp,zero,815990 <__call_exitprocs+0xf4>
  815918:	80804017 	ldw	r2,256(r16)
  81591c:	e0801c26 	beq	fp,r2,815990 <__call_exitprocs+0xf4>
  815920:	bdffffc4 	addi	r23,r23,-1
  815924:	843fff04 	addi	r16,r16,-4
  815928:	8c7fff04 	addi	r17,r17,-4
  81592c:	bd7ff91e 	bne	r23,r21,815914 <__alt_mem_onchip_mem+0xff80d914>
  815930:	00800034 	movhi	r2,0
  815934:	10800004 	addi	r2,r2,0
  815938:	10000926 	beq	r2,zero,815960 <__call_exitprocs+0xc4>
  81593c:	a0800117 	ldw	r2,4(r20)
  815940:	1000301e 	bne	r2,zero,815a04 <__call_exitprocs+0x168>
  815944:	a0800017 	ldw	r2,0(r20)
  815948:	10003226 	beq	r2,zero,815a14 <__call_exitprocs+0x178>
  81594c:	a009883a 	mov	r4,r20
  815950:	98800015 	stw	r2,0(r19)
  815954:	00000000 	call	0 <__alt_mem_sdram-0x800000>
  815958:	9d000017 	ldw	r20,0(r19)
  81595c:	a03fe41e 	bne	r20,zero,8158f0 <__alt_mem_onchip_mem+0xff80d8f0>
  815960:	dfc00a17 	ldw	ra,40(sp)
  815964:	df000917 	ldw	fp,36(sp)
  815968:	ddc00817 	ldw	r23,32(sp)
  81596c:	dd800717 	ldw	r22,28(sp)
  815970:	dd400617 	ldw	r21,24(sp)
  815974:	dd000517 	ldw	r20,20(sp)
  815978:	dcc00417 	ldw	r19,16(sp)
  81597c:	dc800317 	ldw	r18,12(sp)
  815980:	dc400217 	ldw	r17,8(sp)
  815984:	dc000117 	ldw	r16,4(sp)
  815988:	dec00b04 	addi	sp,sp,44
  81598c:	f800283a 	ret
  815990:	a0800117 	ldw	r2,4(r20)
  815994:	80c00017 	ldw	r3,0(r16)
  815998:	10bfffc4 	addi	r2,r2,-1
  81599c:	15c01426 	beq	r2,r23,8159f0 <__call_exitprocs+0x154>
  8159a0:	80000015 	stw	zero,0(r16)
  8159a4:	183fde26 	beq	r3,zero,815920 <__alt_mem_onchip_mem+0xff80d920>
  8159a8:	95c8983a 	sll	r4,r18,r23
  8159ac:	a0806217 	ldw	r2,392(r20)
  8159b0:	a5800117 	ldw	r22,4(r20)
  8159b4:	2084703a 	and	r2,r4,r2
  8159b8:	10000b26 	beq	r2,zero,8159e8 <__call_exitprocs+0x14c>
  8159bc:	a0806317 	ldw	r2,396(r20)
  8159c0:	2088703a 	and	r4,r4,r2
  8159c4:	20000c1e 	bne	r4,zero,8159f8 <__call_exitprocs+0x15c>
  8159c8:	89400017 	ldw	r5,0(r17)
  8159cc:	d9000017 	ldw	r4,0(sp)
  8159d0:	183ee83a 	callr	r3
  8159d4:	a0800117 	ldw	r2,4(r20)
  8159d8:	15bfbf1e 	bne	r2,r22,8158d8 <__alt_mem_onchip_mem+0xff80d8d8>
  8159dc:	98800017 	ldw	r2,0(r19)
  8159e0:	153fcf26 	beq	r2,r20,815920 <__alt_mem_onchip_mem+0xff80d920>
  8159e4:	003fbc06 	br	8158d8 <__alt_mem_onchip_mem+0xff80d8d8>
  8159e8:	183ee83a 	callr	r3
  8159ec:	003ff906 	br	8159d4 <__alt_mem_onchip_mem+0xff80d9d4>
  8159f0:	a5c00115 	stw	r23,4(r20)
  8159f4:	003feb06 	br	8159a4 <__alt_mem_onchip_mem+0xff80d9a4>
  8159f8:	89000017 	ldw	r4,0(r17)
  8159fc:	183ee83a 	callr	r3
  815a00:	003ff406 	br	8159d4 <__alt_mem_onchip_mem+0xff80d9d4>
  815a04:	a0800017 	ldw	r2,0(r20)
  815a08:	a027883a 	mov	r19,r20
  815a0c:	1029883a 	mov	r20,r2
  815a10:	003fb606 	br	8158ec <__alt_mem_onchip_mem+0xff80d8ec>
  815a14:	0005883a 	mov	r2,zero
  815a18:	003ffb06 	br	815a08 <__alt_mem_onchip_mem+0xff80da08>

00815a1c <_exit>:
 *
 * ALT_EXIT is mapped onto the _exit() system call in alt_syscall.h
 */

void ALT_EXIT (int exit_code)
{
  815a1c:	defffd04 	addi	sp,sp,-12
  815a20:	df000215 	stw	fp,8(sp)
  815a24:	df000204 	addi	fp,sp,8
  815a28:	e13fff15 	stw	r4,-4(fp)
  ALT_LOG_PRINT_BOOT("[alt_exit.c] Entering _exit() function.\r\n");
  ALT_LOG_PRINT_BOOT("[alt_exit.c] Exit code from main was %d.\r\n",exit_code);
  /* Stop all other threads */

  ALT_LOG_PRINT_BOOT("[alt_exit.c] Calling ALT_OS_STOP().\r\n");
  ALT_OS_STOP();
  815a2c:	0001883a 	nop
  815a30:	e0bfff17 	ldw	r2,-4(fp)
  815a34:	e0bffe15 	stw	r2,-8(fp)
/*
 * Routine called on exit.
 */
static ALT_INLINE ALT_ALWAYS_INLINE void alt_sim_halt(int exit_code)
{
  register int r2 asm ("r2") = exit_code;
  815a38:	e0bffe17 	ldw	r2,-8(fp)
  __asm__ volatile ("\n0:\n\taddi %0,%0, -1\n\tbgt %0,zero,0b" : : "r" (ALT_CPU_FREQ/100) ); /* Delay for >30ms */

  __asm__ volatile ("break 2" : : "r"(r2), "r"(r3) ALT_GMON_DATA );

#else /* !DEBUG_STUB */
  if (r2) {
  815a3c:	10000226 	beq	r2,zero,815a48 <_exit+0x2c>
    ALT_SIM_FAIL();
  815a40:	002af070 	cmpltui	zero,zero,43969
  815a44:	00000106 	br	815a4c <_exit+0x30>
  } else {
    ALT_SIM_PASS();
  815a48:	002af0b0 	cmpltui	zero,zero,43970
  ALT_SIM_HALT(exit_code);

  /* spin forever, since there's no where to go back to */

  ALT_LOG_PRINT_BOOT("[alt_exit.c] Spinning forever.\r\n");
  while (1);
  815a4c:	003fff06 	br	815a4c <__alt_mem_onchip_mem+0xff80da4c>
