
pacemaker.elf:     file format elf32-littlenios2
pacemaker.elf
architecture: nios2:r1, flags 0x00000112:
EXEC_P, HAS_SYMS, D_PAGED
start address 0x00800244

Program Header:
    LOAD off    0x00001000 vaddr 0x00800000 paddr 0x00800000 align 2**12
         filesz 0x00000020 memsz 0x00000020 flags r-x
    LOAD off    0x00001020 vaddr 0x00800020 paddr 0x00800020 align 2**12
         filesz 0x0001600c memsz 0x0001600c flags r-x
    LOAD off    0x0001702c vaddr 0x0081602c paddr 0x00817d04 align 2**12
         filesz 0x00001cd8 memsz 0x00001cd8 flags rw-
    LOAD off    0x000199dc vaddr 0x008199dc paddr 0x008199dc align 2**12
         filesz 0x00000000 memsz 0x00000194 flags rw-

Sections:
Idx Name          Size      VMA       LMA       File off  Algn
  0 .entry        00000020  00800000  00800000  00001000  2**5
                  CONTENTS, ALLOC, LOAD, READONLY, CODE
  1 .exceptions   00000224  00800020  00800020  00001020  2**2
                  CONTENTS, ALLOC, LOAD, READONLY, CODE
  2 .text         0001580c  00800244  00800244  00001244  2**2
                  CONTENTS, ALLOC, LOAD, READONLY, CODE
  3 .rodata       000005dc  00815a50  00815a50  00016a50  2**2
                  CONTENTS, ALLOC, LOAD, READONLY, DATA
  4 .rwdata       00001cd8  0081602c  00817d04  0001702c  2**2
                  CONTENTS, ALLOC, LOAD, DATA, SMALL_DATA
  5 .bss          00000194  008199dc  008199dc  000199dc  2**2
                  ALLOC, SMALL_DATA
  6 .sdram        00000000  00819b70  00819b70  00018d04  2**0
                  CONTENTS
  7 .onchip_mem   00000000  01008000  01008000  00018d04  2**0
                  CONTENTS
  8 .comment      00000023  00000000  00000000  00018d04  2**0
                  CONTENTS, READONLY
  9 .debug_aranges 00000fe8  00000000  00000000  00018d28  2**3
                  CONTENTS, READONLY, DEBUGGING
 10 .debug_info   000263f9  00000000  00000000  00019d10  2**0
                  CONTENTS, READONLY, DEBUGGING
 11 .debug_abbrev 00009a3c  00000000  00000000  00040109  2**0
                  CONTENTS, READONLY, DEBUGGING
 12 .debug_line   0000d2d0  00000000  00000000  00049b45  2**0
                  CONTENTS, READONLY, DEBUGGING
 13 .debug_frame  00002604  00000000  00000000  00056e18  2**2
                  CONTENTS, READONLY, DEBUGGING
 14 .debug_str    00004562  00000000  00000000  0005941c  2**0
                  CONTENTS, READONLY, DEBUGGING
 15 .debug_loc    00017791  00000000  00000000  0005d97e  2**0
                  CONTENTS, READONLY, DEBUGGING
 16 .debug_alt_sim_info 00000060  00000000  00000000  00075110  2**2
                  CONTENTS, READONLY, DEBUGGING
 17 .debug_ranges 000018c0  00000000  00000000  00075170  2**3
                  CONTENTS, READONLY, DEBUGGING
 18 .thread_model 00000003  00000000  00000000  0007a2d9  2**0
                  CONTENTS, READONLY
 19 .cpu          00000003  00000000  00000000  0007a2dc  2**0
                  CONTENTS, READONLY
 20 .qsys         00000001  00000000  00000000  0007a2df  2**0
                  CONTENTS, READONLY
 21 .simulation_enabled 00000001  00000000  00000000  0007a2e0  2**0
                  CONTENTS, READONLY
 22 .stderr_dev   00000009  00000000  00000000  0007a2e1  2**0
                  CONTENTS, READONLY
 23 .stdin_dev    00000009  00000000  00000000  0007a2ea  2**0
                  CONTENTS, READONLY
 24 .stdout_dev   00000009  00000000  00000000  0007a2f3  2**0
                  CONTENTS, READONLY
 25 .sopc_system_name 0000000c  00000000  00000000  0007a2fc  2**0
                  CONTENTS, READONLY
 26 .quartus_project_dir 0000002d  00000000  00000000  0007a308  2**0
                  CONTENTS, READONLY
 27 .sopcinfo     0006b17b  00000000  00000000  0007a335  2**0
                  CONTENTS, READONLY
SYMBOL TABLE:
00800000 l    d  .entry	00000000 .entry
00800020 l    d  .exceptions	00000000 .exceptions
00800244 l    d  .text	00000000 .text
00815a50 l    d  .rodata	00000000 .rodata
0081602c l    d  .rwdata	00000000 .rwdata
008199dc l    d  .bss	00000000 .bss
00819b70 l    d  .sdram	00000000 .sdram
01008000 l    d  .onchip_mem	00000000 .onchip_mem
00000000 l    d  .comment	00000000 .comment
00000000 l    d  .debug_aranges	00000000 .debug_aranges
00000000 l    d  .debug_info	00000000 .debug_info
00000000 l    d  .debug_abbrev	00000000 .debug_abbrev
00000000 l    d  .debug_line	00000000 .debug_line
00000000 l    d  .debug_frame	00000000 .debug_frame
00000000 l    d  .debug_str	00000000 .debug_str
00000000 l    d  .debug_loc	00000000 .debug_loc
00000000 l    d  .debug_alt_sim_info	00000000 .debug_alt_sim_info
00000000 l    d  .debug_ranges	00000000 .debug_ranges
00000000 l    df *ABS*	00000000 ../pacemaker_bsp//obj/HAL/src/crt0.o
0080028c l       .text	00000000 alt_after_alt_main
00000000 l    df *ABS*	00000000 alt_irq_handler.c
00000000 l    df *ABS*	00000000 alt_instruction_exception_entry.c
00000000 l    df *ABS*	00000000 main.c
00000000 l    df *ABS*	00000000 sccharts.c
00000000 l    df *ABS*	00000000 libgcc2.c
00000000 l    df *ABS*	00000000 adddf3.c
00000000 l    df *ABS*	00000000 gedf2.c
00000000 l    df *ABS*	00000000 ledf2.c
00000000 l    df *ABS*	00000000 muldf3.c
00000000 l    df *ABS*	00000000 subdf3.c
00000000 l    df *ABS*	00000000 floatsidf.c
00000000 l    df *ABS*	00000000 floatunsidf.c
00000000 l    df *ABS*	00000000 libgcc2.c
00000000 l    df *ABS*	00000000 libgcc2.c
00000000 l    df *ABS*	00000000 printf.c
00000000 l    df *ABS*	00000000 vfprintf.c
00815be2 l     O .rodata	00000010 zeroes.4404
00808fdc l     F .text	000000bc __sbprintf
00815bf2 l     O .rodata	00000010 blanks.4403
00000000 l    df *ABS*	00000000 wsetup.c
00000000 l    df *ABS*	00000000 dtoa.c
008091ec l     F .text	00000200 quorem
00000000 l    df *ABS*	00000000 fflush.c
00000000 l    df *ABS*	00000000 findfp.c
0080ad1c l     F .text	00000008 __fp_unlock
0080ad30 l     F .text	0000019c __sinit.part.1
0080aecc l     F .text	00000008 __fp_lock
00000000 l    df *ABS*	00000000 mallocr.c
00000000 l    df *ABS*	00000000 fwalk.c
00000000 l    df *ABS*	00000000 impure.c
0081602c l     O .rwdata	00000424 impure_data
00000000 l    df *ABS*	00000000 locale.c
00816470 l     O .rwdata	00000020 lc_ctype_charset
00816450 l     O .rwdata	00000020 lc_message_charset
00816490 l     O .rwdata	00000038 lconv
00000000 l    df *ABS*	00000000 makebuf.c
00000000 l    df *ABS*	00000000 mallocr.c
00000000 l    df *ABS*	00000000 memchr.c
00000000 l    df *ABS*	00000000 memcpy.c
00000000 l    df *ABS*	00000000 memset.c
00000000 l    df *ABS*	00000000 mprec.c
00815c24 l     O .rodata	0000000c p05.2768
00000000 l    df *ABS*	00000000 s_fpclassify.c
00000000 l    df *ABS*	00000000 sbrkr.c
00000000 l    df *ABS*	00000000 stdio.c
00000000 l    df *ABS*	00000000 strcmp.c
00000000 l    df *ABS*	00000000 strlen.c
00000000 l    df *ABS*	00000000 vfprintf.c
0080d7e4 l     F .text	000000fc __sprint_r.part.0
00815d58 l     O .rodata	00000010 blanks.4348
00815d48 l     O .rodata	00000010 zeroes.4349
0080ed70 l     F .text	000000bc __sbprintf
00000000 l    df *ABS*	00000000 writer.c
00000000 l    df *ABS*	00000000 closer.c
00000000 l    df *ABS*	00000000 mallocr.c
00000000 l    df *ABS*	00000000 fclose.c
00000000 l    df *ABS*	00000000 fputwc.c
00000000 l    df *ABS*	00000000 fstatr.c
00000000 l    df *ABS*	00000000 fvwrite.c
00000000 l    df *ABS*	00000000 int_errno.c
00000000 l    df *ABS*	00000000 isattyr.c
00000000 l    df *ABS*	00000000 lseekr.c
00000000 l    df *ABS*	00000000 memmove.c
00000000 l    df *ABS*	00000000 readr.c
00000000 l    df *ABS*	00000000 mallocr.c
00000000 l    df *ABS*	00000000 wbuf.c
00000000 l    df *ABS*	00000000 wcrtomb.c
00000000 l    df *ABS*	00000000 wctomb_r.c
00000000 l    df *ABS*	00000000 libgcc2.c
00000000 l    df *ABS*	00000000 libgcc2.c
00000000 l    df *ABS*	00000000 lib2-divmod.c
00000000 l    df *ABS*	00000000 divdf3.c
00000000 l    df *ABS*	00000000 eqdf2.c
00000000 l    df *ABS*	00000000 fixdfsi.c
00000000 l    df *ABS*	00000000 alt_alarm_start.c
00000000 l    df *ABS*	00000000 alt_close.c
00811a5c l     F .text	0000003c alt_get_errno
00000000 l    df *ABS*	00000000 alt_dev.c
00811b68 l     F .text	0000002c alt_dev_null_write
00000000 l    df *ABS*	00000000 alt_errno.c
00000000 l    df *ABS*	00000000 alt_fstat.c
00811b94 l     F .text	0000003c alt_get_errno
00000000 l    df *ABS*	00000000 alt_iic.c
00000000 l    df *ABS*	00000000 alt_iic_isr_register.c
00000000 l    df *ABS*	00000000 alt_irq_vars.c
00000000 l    df *ABS*	00000000 alt_isatty.c
00811f20 l     F .text	0000003c alt_get_errno
00000000 l    df *ABS*	00000000 alt_load.c
00812000 l     F .text	00000068 alt_load_section
00000000 l    df *ABS*	00000000 alt_lseek.c
008120ec l     F .text	0000003c alt_get_errno
00000000 l    df *ABS*	00000000 alt_main.c
00000000 l    df *ABS*	00000000 alt_malloc_lock.c
00000000 l    df *ABS*	00000000 alt_read.c
008122c0 l     F .text	0000003c alt_get_errno
00000000 l    df *ABS*	00000000 alt_release_fd.c
00000000 l    df *ABS*	00000000 alt_sbrk.c
00817cf0 l     O .rwdata	00000004 heap_end
00000000 l    df *ABS*	00000000 alt_tick.c
00000000 l    df *ABS*	00000000 alt_write.c
008126b0 l     F .text	0000003c alt_get_errno
00000000 l    df *ABS*	00000000 alt_sys_init.c
008127e4 l     F .text	00000034 alt_dev_reg
00816a78 l     O .rwdata	00001060 jtag_uart
00817ad8 l     O .rwdata	00000120 lcd
00817bf8 l     O .rwdata	000000c4 uart
00000000 l    df *ABS*	00000000 altera_avalon_jtag_uart_fd.c
00000000 l    df *ABS*	00000000 altera_avalon_jtag_uart_init.c
00812b0c l     F .text	0000020c altera_avalon_jtag_uart_irq
00812d18 l     F .text	000000a0 altera_avalon_jtag_uart_timeout
00000000 l    df *ABS*	00000000 altera_avalon_jtag_uart_ioctl.c
00000000 l    df *ABS*	00000000 altera_avalon_jtag_uart_read.c
00000000 l    df *ABS*	00000000 altera_avalon_jtag_uart_write.c
00000000 l    df *ABS*	00000000 altera_avalon_lcd_16207.c
00817cfc l     O .rwdata	00000004 colstart
00813350 l     F .text	000000b8 lcd_write_command
00813408 l     F .text	000000d8 lcd_write_data
008134e0 l     F .text	000000d0 lcd_clear_screen
008135b0 l     F .text	000001ec lcd_repaint_screen
0081379c l     F .text	000000cc lcd_scroll_up
00813868 l     F .text	000002ac lcd_handle_escape
00813fec l     F .text	000000ac alt_lcd_16207_timeout
00000000 l    df *ABS*	00000000 altera_avalon_lcd_16207_fd.c
00000000 l    df *ABS*	00000000 altera_avalon_timer_sc.c
0081422c l     F .text	00000078 alt_avalon_timer_sc_irq
00000000 l    df *ABS*	00000000 altera_avalon_uart_fd.c
00000000 l    df *ABS*	00000000 altera_avalon_uart_init.c
008144dc l     F .text	0000009c altera_avalon_uart_irq
00814578 l     F .text	000000e4 altera_avalon_uart_rxirq
0081465c l     F .text	00000148 altera_avalon_uart_txirq
00000000 l    df *ABS*	00000000 altera_avalon_uart_read.c
008147f8 l     F .text	0000003c alt_get_errno
00000000 l    df *ABS*	00000000 altera_avalon_uart_write.c
00814a10 l     F .text	0000003c alt_get_errno
00000000 l    df *ABS*	00000000 alt_dcache_flush_all.c
00000000 l    df *ABS*	00000000 alt_dev_llist_insert.c
00814c40 l     F .text	0000003c alt_get_errno
00000000 l    df *ABS*	00000000 alt_do_ctors.c
00000000 l    df *ABS*	00000000 alt_do_dtors.c
00000000 l    df *ABS*	00000000 alt_icache_flush_all.c
00000000 l    df *ABS*	00000000 alt_io_redirect.c
00814eb0 l     F .text	000000c4 alt_open_fd
00000000 l    df *ABS*	00000000 alt_open.c
00814ff0 l     F .text	0000003c alt_get_errno
0081502c l     F .text	000000c4 alt_file_locked
00000000 l    df *ABS*	00000000 alt_usleep.c
00000000 l    df *ABS*	00000000 altera_nios2_gen2_irq.c
00000000 l    df *ABS*	00000000 alt_busy_sleep.c
00000000 l    df *ABS*	00000000 alt_find_dev.c
00000000 l    df *ABS*	00000000 alt_find_file.c
00000000 l    df *ABS*	00000000 alt_get_fd.c
00000000 l    df *ABS*	00000000 alt_icache_flush.c
00000000 l    df *ABS*	00000000 atexit.c
00000000 l    df *ABS*	00000000 ctype_.c
00815eab l     O .rodata	00000180 _ctype_b
00000000 l    df *ABS*	00000000 exit.c
00000000 l    df *ABS*	00000000 memcmp.c
00000000 l    df *ABS*	00000000 __atexit.c
00000000 l    df *ABS*	00000000 __call_atexit.c
00000000 l    df *ABS*	00000000 alt_exit.c
00819a44 g     O .bss	00000004 alt_instruction_exception_handler
0080d2f4 g     F .text	00000074 _mprec_log10
0080d3e0 g     F .text	0000008c __any_on
0080f7c8 g     F .text	00000054 _isatty_r
00815c30 g     O .rodata	00000028 __mprec_tinytens
008121fc g     F .text	0000007c alt_main
00819a70 g     O .bss	00000100 alt_irq
0080f81c g     F .text	00000060 _lseek_r
00817d04 g       *ABS*	00000000 __flash_rwdata_start
00811828 g     F .text	00000088 .hidden __eqdf2
00819b70 g       *ABS*	00000000 __alt_heap_start
00806d8c g     F .text	0000003c printf
008100f4 g     F .text	0000009c _wcrtomb_r
0080d60c g     F .text	0000005c __sseek
0080b06c g     F .text	00000010 __sinit
0080ff9c g     F .text	00000140 __swbuf_r
0080b678 g     F .text	0000007c _setlocale_r
0080aed4 g     F .text	00000068 __sfmoreglue
0081229c g     F .text	00000024 __malloc_unlock
008199dc g     O .bss	00000001 LRI_state
008199dd g     O .bss	00000001 URI_state
0080f87c g     F .text	0000015c memmove
0080b054 g     F .text	00000018 _cleanup
0080c470 g     F .text	000000a8 _Balloc
00805990 g     F .text	000000dc .hidden __gtdf2
00815274 g     F .text	00000024 altera_nios2_gen2_irq_init
00800000 g     F .entry	0000001c __reset
00800020 g       *ABS*	00000000 __flash_exceptions_start
0080f2b0 g     F .text	0000005c _fstat_r
00819a28 g     O .bss	00000004 errno
0080d588 g     F .text	00000008 __seofread
00819a34 g     O .bss	00000004 alt_argv
0081fcbc g       *ABS*	00000000 _gp
00815244 g     F .text	00000030 usleep
00804c08 g     F .text	00000220 reset
008168f8 g     O .rwdata	00000180 alt_fd_list
008153f0 g     F .text	00000090 alt_find_dev
0080c200 g     F .text	00000148 memcpy
0080ad24 g     F .text	0000000c _cleanup_r
00806b74 g     F .text	000000dc .hidden __floatsidf
00814f74 g     F .text	0000007c alt_io_redirect
00805a6c g     F .text	000000f4 .hidden __ltdf2
00815a50 g       *ABS*	00000000 __DTOR_END__
008199ec g     O .bss	00000001 VS_temp
00814e14 g     F .text	0000009c alt_exception_cause_generated_bad_addr
0080d46c g     F .text	00000074 __fpclassifyd
0080d250 g     F .text	000000a4 __ratio
0080ed54 g     F .text	0000001c __vfiprintf_internal
00812f10 g     F .text	0000021c altera_avalon_jtag_uart_read
00806d5c g     F .text	00000030 _printf_r
00810e84 g     F .text	00000064 .hidden __udivsi3
00811f5c g     F .text	000000a4 isatty
00815c80 g     O .rodata	000000c8 __mprec_tens
0080b6f4 g     F .text	0000000c __locale_charset
0081562c g     F .text	00000090 alt_icache_flush
00819a24 g     O .bss	00000004 __malloc_top_pad
00817cc4 g     O .rwdata	00000004 __mb_cur_max
0080b724 g     F .text	0000000c _localeconv_r
0080f30c g     F .text	000004bc __sfvwrite_r
0080c87c g     F .text	0000003c __i2b
008199f0 g     O .bss	00000004 PVARP_timer
0080d4e0 g     F .text	00000054 _sbrk_r
0080f9d8 g     F .text	00000060 _read_r
00817ce4 g     O .rwdata	00000004 alt_max_fd
0080efa4 g     F .text	000000f0 _fclose_r
0080acec g     F .text	00000030 fflush
00819a20 g     O .bss	00000004 __malloc_max_sbrked_mem
008199f4 g     O .bss	00000004 VRP_timer
008050e4 g     F .text	000008ac .hidden __adddf3
0080cff8 g     F .text	0000010c __b2d
00810854 g     F .text	00000538 .hidden __umoddi3
00812128 g     F .text	000000d4 lseek
00817cbc g     O .rwdata	00000004 _global_impure_ptr
0080fa38 g     F .text	00000564 _realloc_r
00819b70 g       *ABS*	00000000 __bss_end
00811e30 g     F .text	000000f0 alt_iic_isr_register
008125a8 g     F .text	00000108 alt_tick
008102dc g     F .text	00000578 .hidden __udivdi3
0080f20c g     F .text	00000024 _fputwc_r
00815c58 g     O .rodata	00000028 __mprec_bigtens
0080c660 g     F .text	00000104 __s2b
00806c50 g     F .text	000000a8 .hidden __floatunsidf
0080cd38 g     F .text	00000060 __mcmp
00814430 g     F .text	000000ac altera_avalon_uart_init
0080b08c g     F .text	00000018 __fp_lock_all
00811de4 g     F .text	0000004c alt_ic_irq_enabled
0081250c g     F .text	0000009c alt_alarm_stop
00819a2c g     O .bss	00000004 alt_irq_active
01008000 g       *ABS*	00000000 __alt_mem_onchip_mem
008000fc g     F .exceptions	000000d4 alt_irq_handler
008168d0 g     O .rwdata	00000028 alt_dev_null
00814bf8 g     F .text	00000048 alt_dcache_flush_all
0080c764 g     F .text	00000068 __hi0bits
008118b0 g     F .text	00000080 .hidden __fixdfsi
008199f8 g     O .bss	00000001 AP_output
00817d04 g       *ABS*	00000000 __ram_rwdata_end
00817cdc g     O .rwdata	00000008 alt_dev_list
008126ec g     F .text	000000f8 write
00800318 g     F .text	00000070 uart_isr
008199f9 g     O .bss	00000001 VS_input
0081602c g       *ABS*	00000000 __ram_rodata_end
00811bd0 g     F .text	000000b0 fstat
00805a6c g     F .text	000000f4 .hidden __ledf2
0080cab0 g     F .text	00000140 __pow5mult
0080d8f8 g     F .text	0000145c ___vfiprintf_internal_r
00819a18 g     O .bss	00000004 __nlocale_changed
00810ee8 g     F .text	00000058 .hidden __umodsi3
00819b70 g       *ABS*	00000000 end
00813b14 g     F .text	000004d8 altera_avalon_lcd_16207_write
00814a4c g     F .text	000001ac altera_avalon_uart_write
008003ec g     F .text	00000050 send_uart
00812a4c g     F .text	000000c0 altera_avalon_jtag_uart_init
008001d0 g     F .exceptions	00000074 alt_instruction_exception_entry
00815a50 g       *ABS*	00000000 __CTOR_LIST__
01000000 g       *ABS*	00000000 __alt_stack_pointer
008142a4 g     F .text	0000007c alt_avalon_timer_sc_init
00814380 g     F .text	00000060 altera_avalon_uart_write_fd
00806cf8 g     F .text	00000064 .hidden __clzsi2
008143e0 g     F .text	00000050 altera_avalon_uart_close_fd
0081312c g     F .text	00000224 altera_avalon_jtag_uart_write
00800388 g     F .text	00000064 uart_init
0080b07c g     F .text	00000004 __sfp_lock_acquire
0080c11c g     F .text	000000e4 memchr
00806dc8 g     F .text	000021f8 ___vfprintf_internal_r
0080b1e0 g     F .text	00000310 _free_r
0080b700 g     F .text	00000010 __locale_mb_cur_max
0081589c g     F .text	00000180 __call_exitprocs
00819a14 g     O .bss	00000004 __mlocale_changed
00817cc8 g     O .rwdata	00000004 __malloc_sbrk_base
00800244 g     F .text	0000004c _start
00819a3c g     O .bss	00000004 _alt_tick_rate
00805074 g     F .text	00000070 .hidden __floatundidf
0080cbf0 g     F .text	00000148 __lshift
00819a40 g     O .bss	00000004 _alt_nticks
008122fc g     F .text	000000fc read
0080043c g     F .text	00000044 resetHeartEvents
00812850 g     F .text	00000098 alt_sys_init
008199df g     O .bss	00000001 PVARP_state
00815784 g     F .text	00000118 __register_exitproc
0080c8b8 g     F .text	000001f8 __multiply
00812db8 g     F .text	00000068 altera_avalon_jtag_uart_close
008199e1 g     O .bss	00000001 VRP_state
0081602c g       *ABS*	00000000 __ram_rwdata_start
00815a50 g       *ABS*	00000000 __ram_rodata_start
00819a48 g     O .bss	00000028 __malloc_current_mallinfo
0080d104 g     F .text	0000014c __d2b
008199fc g     O .bss	00000004 AVI_timer
008199de g     O .bss	00000001 URI_timeout
00819a00 g     O .bss	00000004 LRI_timer
008128e8 g     F .text	00000060 altera_avalon_jtag_uart_read_fd
00815588 g     F .text	000000a4 alt_get_fd
00815298 g     F .text	00000158 alt_busy_sleep
0080ee8c g     F .text	00000054 _close_r
00815708 g     F .text	0000007c memcmp
008129a8 g     F .text	00000050 altera_avalon_jtag_uart_close_fd
00819b70 g       *ABS*	00000000 __alt_stack_base
008129f8 g     F .text	00000054 altera_avalon_jtag_uart_ioctl_fd
00809098 g     F .text	00000154 __swsetup_r
00804e28 g     F .text	0000024c tick
00810f40 g     F .text	000008e8 .hidden __divdf3
0080af3c g     F .text	00000118 __sfp
0080d368 g     F .text	00000078 __copybits
008164c8 g     O .rwdata	00000408 __malloc_av_
0080b088 g     F .text	00000004 __sinit_lock_release
00805b60 g     F .text	00000718 .hidden __muldf3
0080d534 g     F .text	00000054 __sread
008199e8 g     O .bss	00000004 AEI_timer
00815480 g     F .text	00000108 alt_find_file
00814c7c g     F .text	000000a4 alt_dev_llist_insert
00812278 g     F .text	00000024 __malloc_lock
0081245c g     F .text	000000b0 sbrk
00819a04 g     O .bss	00000001 AS_input
0080ac90 g     F .text	0000005c _fflush_r
0080eee0 g     F .text	000000c4 _calloc_r
00819a05 g     O .bss	00000001 VP_output
008199dc g       *ABS*	00000000 __bss_start
0080c348 g     F .text	00000128 memset
008006f8 g     F .text	00000484 main
00819a38 g     O .bss	00000004 alt_envp
00819a1c g     O .bss	00000004 __malloc_max_total_mem
00812948 g     F .text	00000060 altera_avalon_jtag_uart_write_fd
008100dc g     F .text	00000018 __swbuf
00814098 g     F .text	00000134 altera_avalon_lcd_16207_init
00819a08 g     O .bss	00000004 URI_timer
0080d668 g     F .text	00000008 __sclose
01000000 g       *ABS*	00000000 __alt_heap_limit
0080f094 g     F .text	00000014 fclose
008093ec g     F .text	00001688 _dtoa_r
0080b910 g     F .text	0000080c _malloc_r
00810250 g     F .text	00000030 __ascii_wctomb
008199e4 g     O .bss	00000001 AEI_state
00817ce8 g     O .rwdata	00000004 alt_errno
0080b4f0 g     F .text	000000c4 _fwalk
00810d8c g     F .text	00000084 .hidden __divsi3
008199e0 g     O .bss	00000001 PVARP_timeout
0080b0bc g     F .text	00000124 _malloc_trim_r
00815a50 g       *ABS*	00000000 __CTOR_END__
0080d670 g     F .text	000000dc strcmp
00815a50 g       *ABS*	00000000 __flash_rodata_start
00815a50 g       *ABS*	00000000 __DTOR_LIST__
00811828 g     F .text	00000088 .hidden __nedf2
00812818 g     F .text	00000038 alt_irq_init
008123f8 g     F .text	00000064 alt_release_fd
00815aa0 g     O .rodata	00000100 .hidden __clz_tab
00819a10 g     O .bss	00000004 _PathLocale
008156bc g     F .text	00000014 atexit
0080ee2c g     F .text	00000060 _write_r
008199e2 g     O .bss	00000001 VRP_timeout
0080b730 g     F .text	00000018 setlocale
00817cc0 g     O .rwdata	00000004 _impure_ptr
00819a30 g     O .bss	00000004 alt_argc
0080aa74 g     F .text	0000021c __sflush_r
00814d80 g     F .text	00000060 _do_dtors
0080b71c g     F .text	00000008 __locale_cjk_lang
00800020 g       .exceptions	00000000 alt_irq_entry
0080cf94 g     F .text	00000064 __ulp
0080b0a4 g     F .text	00000018 __fp_unlock_all
008141cc g     F .text	00000060 altera_avalon_lcd_16207_write_fd
00817cd4 g     O .rwdata	00000008 alt_fs_list
00800020 g       *ABS*	00000000 __ram_exceptions_start
0080b748 g     F .text	0000000c localeconv
00800290 g     F .text	00000088 timerISR
00811c80 g     F .text	00000050 alt_ic_isr_register
00817d04 g       *ABS*	00000000 _edata
00814320 g     F .text	00000060 altera_avalon_uart_read_fd
00819b70 g       *ABS*	00000000 _end
0080f0a8 g     F .text	00000164 __fputwc
00800244 g       *ABS*	00000000 __ram_exceptions_end
00812e20 g     F .text	000000f0 altera_avalon_jtag_uart_ioctl
00811d58 g     F .text	0000008c alt_ic_irq_disable
0080d590 g     F .text	0000007c __swrite
00817ccc g     O .rwdata	00000004 __malloc_trim_threshold
0080b710 g     F .text	0000000c __locale_msgcharset
008156d0 g     F .text	00000038 exit
0080b5b4 g     F .text	000000c4 _fwalk_reent
0080cd98 g     F .text	000001fc __mdiff
00800480 g     F .text	00000278 c_implementation
00810e10 g     F .text	00000074 .hidden __modsi3
00800b7c g     F .text	0000408c logic
00817d00 g     O .rwdata	00000004 __ctype_ptr__
01000000 g       *ABS*	00000000 __alt_data_end
00800020 g     F .exceptions	00000000 alt_exception
0080b080 g     F .text	00000004 __sfp_lock_release
00800000 g       *ABS*	00000000 __alt_mem_sdram
00815daa g     O .rodata	00000101 _ctype_
008147a4 g     F .text	00000054 altera_avalon_uart_close
00815a1c g     F .text	00000034 _exit
00811930 g     F .text	0000012c alt_alarm_start
0080b754 g     F .text	000001bc __smakebuf_r
008199e3 g     O .bss	00000001 AVI_state
0080d74c g     F .text	00000098 strlen
008150f0 g     F .text	00000154 open
00805990 g     F .text	000000dc .hidden __gedf2
00817cd0 g     O .rwdata	00000004 __wctomb
0080d8e0 g     F .text	00000018 __sprint_r
00814de0 g     F .text	00000034 alt_icache_flush_all
00817cec g     O .rwdata	00000004 alt_priority_mask
00811cd0 g     F .text	00000088 alt_ic_irq_enable
00808fc0 g     F .text	0000001c __vfprintf_internal
00814834 g     F .text	000001dc altera_avalon_uart_read
00810280 g     F .text	0000005c _wctomb_r
00806278 g     F .text	000008fc .hidden __subdf3
0080c7cc g     F .text	000000b0 __lo0bits
00817cf4 g     O .rwdata	00000008 alt_alarm_list
00814d20 g     F .text	00000060 _do_ctors
00819a0c g     O .bss	00000001 AS_temp
00810190 g     F .text	000000c0 wcrtomb
00811a98 g     F .text	000000d0 close
00812068 g     F .text	00000084 alt_load
0080f230 g     F .text	00000080 fputwc
0080b084 g     F .text	00000004 __sinit_lock_acquire
0080c540 g     F .text	00000120 __multadd
0080c518 g     F .text	00000028 _Bfree



Disassembly of section .entry:

00800000 <__reset>:
#if NIOS2_ICACHE_SIZE > 0 && defined(ALT_ALLOW_CODE_AT_RESET) && (!defined(ALT_SIM_OPTIMIZE) || defined(NIOS2_ECC_PRESENT))
    /* Assume the instruction cache size is always a power of two. */
#if NIOS2_ICACHE_SIZE > 0x8000
    movhi r2, %hi(NIOS2_ICACHE_SIZE)
#else
    movui r2, NIOS2_ICACHE_SIZE
  800000:	00840014 	movui	r2,4096
#endif

0:
    initi r2
  800004:	1001483a 	initi	r2
    addi r2, r2, -NIOS2_ICACHE_LINE_SIZE
  800008:	10bff804 	addi	r2,r2,-32
    bgt r2, zero, 0b
  80000c:	00bffd16 	blt	zero,r2,800004 <__alt_mem_onchip_mem+0xff7f8004>
 * Jump to the _start entry point in the .text section if reset code
 * is allowed or if optimizing for RTL simulation.
 */
#if defined(ALT_ALLOW_CODE_AT_RESET) || defined(ALT_SIM_OPTIMIZE)
    /* Jump to the _start entry point in the .text section. */
    movhi r1, %hi(_start)
  800010:	00402034 	movhi	at,128
    ori r1, r1, %lo(_start)
  800014:	08409114 	ori	at,at,580
    jmp r1
  800018:	0800683a 	jmp	at
  80001c:	00000000 	call	0 <__alt_mem_sdram-0x800000>

Disassembly of section .exceptions:

00800020 <alt_exception>:

#else /* ALT_EXCEPTION_STACK disabled */
        /* 
         * Reserve space on normal stack for registers about to be pushed.
         */
        addi  sp, sp, -76
  800020:	deffed04 	addi	sp,sp,-76
         * documentation for details).
         *
         * Leave a gap in the stack frame at 4(sp) for the muldiv handler to
         * store zero into.
         */
        stw   ra,  0(sp)
  800024:	dfc00015 	stw	ra,0(sp)
        stw   r1,   8(sp)
  800028:	d8400215 	stw	at,8(sp)
        stw   r2,  12(sp)
  80002c:	d8800315 	stw	r2,12(sp)
        stw   r3,  16(sp)
  800030:	d8c00415 	stw	r3,16(sp)
        stw   r4,  20(sp)
  800034:	d9000515 	stw	r4,20(sp)
        stw   r5,  24(sp)
  800038:	d9400615 	stw	r5,24(sp)
        stw   r6,  28(sp)
  80003c:	d9800715 	stw	r6,28(sp)
        stw   r7,  32(sp)
  800040:	d9c00815 	stw	r7,32(sp)
        rdctl r5, estatus   /* Read early to avoid usage stall */
  800044:	000b307a 	rdctl	r5,estatus
        stw   r8,  36(sp)
  800048:	da000915 	stw	r8,36(sp)
        stw   r9,  40(sp)
  80004c:	da400a15 	stw	r9,40(sp)
        stw   r10, 44(sp)
  800050:	da800b15 	stw	r10,44(sp)
        stw   r11, 48(sp)
  800054:	dac00c15 	stw	r11,48(sp)
        stw   r12, 52(sp)
  800058:	db000d15 	stw	r12,52(sp)
        stw   r13, 56(sp)
  80005c:	db400e15 	stw	r13,56(sp)
        stw   r14, 60(sp)
  800060:	db800f15 	stw	r14,60(sp)
        stw   r15, 64(sp)
  800064:	dbc01015 	stw	r15,64(sp)
        /*
         * ea-4 contains the address of the instruction being executed
         * when the exception occured. For interrupt exceptions, we will
         * will be re-issue the isntruction. Store it in 72(sp)
         */
        stw   r5,  68(sp)  /* estatus */
  800068:	d9401115 	stw	r5,68(sp)
        addi  r15, ea, -4  /* instruction that caused exception */
  80006c:	ebffff04 	addi	r15,ea,-4
        stw   r15,  72(sp)
  800070:	dbc01215 	stw	r15,72(sp)
#else
        /*
         * Test to see if the exception was a software exception or caused 
         * by an external interrupt, and vector accordingly.
         */
        rdctl r4, ipending
  800074:	0009313a 	rdctl	r4,ipending
        andi  r2, r5, 1
  800078:	2880004c 	andi	r2,r5,1
        beq   r2, zero, .Lnot_irq
  80007c:	10000326 	beq	r2,zero,80008c <alt_exception+0x6c>
        beq   r4, zero, .Lnot_irq
  800080:	20000226 	beq	r4,zero,80008c <alt_exception+0x6c>
        /*
         * Now that all necessary registers have been preserved, call 
         * alt_irq_handler() to process the interrupts.
         */

        call alt_irq_handler
  800084:	08000fc0 	call	8000fc <alt_irq_handler>

        .section .exceptions.irqreturn, "xa"

        br    .Lexception_exit
  800088:	00000706 	br	8000a8 <alt_exception+0x88>
         * upon completion, so we write ea (address of instruction *after*
         * the one where the exception occured) into 72(sp). The actual
         * instruction that caused the exception is written in r2, which these
         * handlers will utilize.
         */
        stw ea, 72(sp) /* EA is PC+4 so will skip over instruction causing exception */
  80008c:	df401215 	stw	ea,72(sp)
.Lunknown_16bit:
        addi.n r4, r4, 2 /* Need PC+2 to skip over instruction causing exception */
        stw r4, 72(sp)

#else /* CDX is not Enabled and all instructions are 32bits */
        ldw r2, -4(ea) /* Instruction value that caused exception */
  800090:	e8bfff17 	ldw	r2,-4(ea)
         * debugger is present) or go into an infinite loop since the
         * handling behavior is undefined; in that case we will not return here.
         */

        /* Load exception-causing address as first argument (r4) */
        addi   r4, ea, -4
  800094:	e93fff04 	addi	r4,ea,-4

        /* Call the instruction-exception entry */
        call   alt_instruction_exception_entry
  800098:	08001d00 	call	8001d0 <alt_instruction_exception_entry>
         * instruction
         *
         * Return code was 0: Skip. The instruction after the exception is
         * already stored in 72(sp).
         */
        bne   r2, r0, .Lexception_exit
  80009c:	1000021e 	bne	r2,zero,8000a8 <alt_exception+0x88>

        /*
         * Otherwise, modify 72(sp) to re-issue the instruction that caused the
         * exception.
         */
        addi  r15, ea, -4  /* instruction that caused exception */
  8000a0:	ebffff04 	addi	r15,ea,-4
        stw   r15,  72(sp)
  8000a4:	dbc01215 	stw	r15,72(sp)
        /* 
         * Restore the saved registers, so that all general purpose registers 
         * have been restored to their state at the time the interrupt occured.
         */

        ldw   r5,  68(sp)
  8000a8:	d9401117 	ldw	r5,68(sp)
        ldw   ea,  72(sp)  /* This becomes the PC once eret is executed */
  8000ac:	df401217 	ldw	ea,72(sp)
        ldw   ra,   0(sp)
  8000b0:	dfc00017 	ldw	ra,0(sp)

        wrctl estatus, r5
  8000b4:	2801707a 	wrctl	estatus,r5

        ldw   r1,   8(sp)
  8000b8:	d8400217 	ldw	at,8(sp)
        ldw   r2,  12(sp)
  8000bc:	d8800317 	ldw	r2,12(sp)
        ldw   r3,  16(sp)
  8000c0:	d8c00417 	ldw	r3,16(sp)
        ldw   r4,  20(sp)
  8000c4:	d9000517 	ldw	r4,20(sp)
        ldw   r5,  24(sp)
  8000c8:	d9400617 	ldw	r5,24(sp)
        ldw   r6,  28(sp)
  8000cc:	d9800717 	ldw	r6,28(sp)
        ldw   r7,  32(sp)
  8000d0:	d9c00817 	ldw	r7,32(sp)

#if defined(ALT_EXCEPTION_STACK) && defined(ALT_STACK_CHECK)
        ldw   et, %gprel(alt_exception_old_stack_limit)(gp)
#endif

        ldw   r8,  36(sp)
  8000d4:	da000917 	ldw	r8,36(sp)
        ldw   r9,  40(sp)
  8000d8:	da400a17 	ldw	r9,40(sp)
        ldw   r10, 44(sp)
  8000dc:	da800b17 	ldw	r10,44(sp)
        ldw   r11, 48(sp)
  8000e0:	dac00c17 	ldw	r11,48(sp)
        ldw   r12, 52(sp)
  8000e4:	db000d17 	ldw	r12,52(sp)
        ldw   r13, 56(sp)
  8000e8:	db400e17 	ldw	r13,56(sp)
        ldw   r14, 60(sp)
  8000ec:	db800f17 	ldw	r14,60(sp)
        ldw   r15, 64(sp)
  8000f0:	dbc01017 	ldw	r15,64(sp)
        stw   et, %gprel(alt_stack_limit_value)(gp)
        stw   zero, %gprel(alt_exception_old_stack_limit)(gp)
#endif /* ALT_STACK_CHECK */
        ldw   sp,  76(sp)
#else /* ALT_EXCEPTION_STACK disabled */
        addi  sp, sp, 76
  8000f4:	dec01304 	addi	sp,sp,76

        /*
         * Return to the interrupted instruction.
         */

        eret
  8000f8:	ef80083a 	eret

008000fc <alt_irq_handler>:
 * instruction is present if the macro ALT_CI_INTERRUPT_VECTOR defined.
 */

void alt_irq_handler (void) __attribute__ ((section (".exceptions")));
void alt_irq_handler (void)
{
  8000fc:	defff904 	addi	sp,sp,-28
  800100:	dfc00615 	stw	ra,24(sp)
  800104:	df000515 	stw	fp,20(sp)
  800108:	df000504 	addi	fp,sp,20
  
  /*
   * Notify the operating system that we are at interrupt level.
   */ 
  
  ALT_OS_INT_ENTER();
  80010c:	0001883a 	nop
#ifndef NIOS2_EIC_PRESENT
static ALT_INLINE alt_u32 ALT_ALWAYS_INLINE alt_irq_pending (void)
{
  alt_u32 active;

  NIOS2_READ_IPENDING (active);
  800110:	0005313a 	rdctl	r2,ipending
  800114:	e0bffe15 	stw	r2,-8(fp)

  return active;
  800118:	e0bffe17 	ldw	r2,-8(fp)
   * Consider the case where the high priority interupt is asserted during
   * the interrupt entry sequence for a lower priority interrupt to see why
   * this is the case.
   */

  active = alt_irq_pending ();
  80011c:	e0bffb15 	stw	r2,-20(fp)

  do
  {
    i = 0;
  800120:	e03ffd15 	stw	zero,-12(fp)
    mask = 1;
  800124:	00800044 	movi	r2,1
  800128:	e0bffc15 	stw	r2,-16(fp)
     * called to clear the interrupt condition.
     */

    do
    {
      if (active & mask)
  80012c:	e0fffb17 	ldw	r3,-20(fp)
  800130:	e0bffc17 	ldw	r2,-16(fp)
  800134:	1884703a 	and	r2,r3,r2
  800138:	10001426 	beq	r2,zero,80018c <alt_irq_handler+0x90>
      { 
#ifdef ALT_ENHANCED_INTERRUPT_API_PRESENT
        alt_irq[i].handler(alt_irq[i].context); 
  80013c:	008020b4 	movhi	r2,130
  800140:	10a69c04 	addi	r2,r2,-26000
  800144:	e0fffd17 	ldw	r3,-12(fp)
  800148:	180690fa 	slli	r3,r3,3
  80014c:	10c5883a 	add	r2,r2,r3
  800150:	10c00017 	ldw	r3,0(r2)
  800154:	008020b4 	movhi	r2,130
  800158:	10a69c04 	addi	r2,r2,-26000
  80015c:	e13ffd17 	ldw	r4,-12(fp)
  800160:	200890fa 	slli	r4,r4,3
  800164:	1105883a 	add	r2,r2,r4
  800168:	10800104 	addi	r2,r2,4
  80016c:	10800017 	ldw	r2,0(r2)
  800170:	1009883a 	mov	r4,r2
  800174:	183ee83a 	callr	r3
#else
        alt_irq[i].handler(alt_irq[i].context, i); 
#endif
        break;
  800178:	0001883a 	nop
#ifndef NIOS2_EIC_PRESENT
static ALT_INLINE alt_u32 ALT_ALWAYS_INLINE alt_irq_pending (void)
{
  alt_u32 active;

  NIOS2_READ_IPENDING (active);
  80017c:	0005313a 	rdctl	r2,ipending
  800180:	e0bfff15 	stw	r2,-4(fp)

  return active;
  800184:	e0bfff17 	ldw	r2,-4(fp)
  800188:	00000706 	br	8001a8 <alt_irq_handler+0xac>
      }
      mask <<= 1;
  80018c:	e0bffc17 	ldw	r2,-16(fp)
  800190:	1085883a 	add	r2,r2,r2
  800194:	e0bffc15 	stw	r2,-16(fp)
      i++;
  800198:	e0bffd17 	ldw	r2,-12(fp)
  80019c:	10800044 	addi	r2,r2,1
  8001a0:	e0bffd15 	stw	r2,-12(fp)

    } while (1);
  8001a4:	003fe106 	br	80012c <__alt_mem_onchip_mem+0xff7f812c>

    active = alt_irq_pending ();
  8001a8:	e0bffb15 	stw	r2,-20(fp)
    
  } while (active);
  8001ac:	e0bffb17 	ldw	r2,-20(fp)
  8001b0:	103fdb1e 	bne	r2,zero,800120 <__alt_mem_onchip_mem+0xff7f8120>

  /*
   * Notify the operating system that interrupt processing is complete.
   */ 

  ALT_OS_INT_EXIT();
  8001b4:	0001883a 	nop
}
  8001b8:	0001883a 	nop
  8001bc:	e037883a 	mov	sp,fp
  8001c0:	dfc00117 	ldw	ra,4(sp)
  8001c4:	df000017 	ldw	fp,0(sp)
  8001c8:	dec00204 	addi	sp,sp,8
  8001cc:	f800283a 	ret

008001d0 <alt_instruction_exception_entry>:
 * that handler if it has been registered. Absent a handler, it will
 * break break or hang as discussed below.
 */
int 
alt_instruction_exception_entry (alt_u32 exception_pc)
{
  8001d0:	defffb04 	addi	sp,sp,-20
  8001d4:	dfc00415 	stw	ra,16(sp)
  8001d8:	df000315 	stw	fp,12(sp)
  8001dc:	df000304 	addi	fp,sp,12
  8001e0:	e13fff15 	stw	r4,-4(fp)
 * NIOS2_EXCEPTION_CAUSE_NOT_PRESENT. Your handling routine should
 * check the validity of the cause argument before proceeding.
 */
#ifdef NIOS2_HAS_EXTRA_EXCEPTION_INFO
  /* Get exception cause & "badaddr" */
  NIOS2_READ_EXCEPTION(cause);
  8001e4:	000531fa 	rdctl	r2,exception
  8001e8:	e0bffd15 	stw	r2,-12(fp)
  cause = ( (cause & NIOS2_EXCEPTION_REG_CAUSE_MASK) >>
  8001ec:	e0bffd17 	ldw	r2,-12(fp)
  8001f0:	10801f0c 	andi	r2,r2,124
  8001f4:	1004d0ba 	srli	r2,r2,2
  8001f8:	e0bffd15 	stw	r2,-12(fp)
              NIOS2_EXCEPTION_REG_CAUSE_OFST );

  NIOS2_READ_BADADDR(badaddr);
  8001fc:	0005333a 	rdctl	r2,badaddr
  800200:	e0bffe15 	stw	r2,-8(fp)
#else
  cause = NIOS2_EXCEPTION_CAUSE_NOT_PRESENT;
  badaddr = 0;
#endif /* NIOS2_HAS_EXTRA_EXCEPTION_INFO */

  if(alt_instruction_exception_handler) {
  800204:	d0a76217 	ldw	r2,-25208(gp)
  800208:	10000726 	beq	r2,zero,800228 <alt_instruction_exception_entry+0x58>
     * Call handler. Its return value indicates whether the exception-causing
     * instruction should be re-issued. The code that called us,
     * alt_eceptions_entry.S, will look at this value and adjust the ea
     * register as necessary
     */
    return alt_instruction_exception_handler(cause, exception_pc, badaddr);
  80020c:	d0a76217 	ldw	r2,-25208(gp)
  800210:	e0fffd17 	ldw	r3,-12(fp)
  800214:	e1bffe17 	ldw	r6,-8(fp)
  800218:	e17fff17 	ldw	r5,-4(fp)
  80021c:	1809883a 	mov	r4,r3
  800220:	103ee83a 	callr	r2
  800224:	00000206 	br	800230 <alt_instruction_exception_entry+0x60>
   *    (a peripheral which negates its interrupt output before its
   *    interrupt handler has been executed will cause spurious interrupts)
   */
  else {
#ifdef NIOS2_HAS_DEBUG_STUB
    NIOS2_BREAK();
  800228:	003da03a 	break	0
      ;
#endif /* NIOS2_HAS_DEBUG_STUB */
  }

  /* We should not get here. Remove compiler warning. */
  return NIOS2_EXCEPTION_RETURN_REISSUE_INST;
  80022c:	0005883a 	mov	r2,zero
}
  800230:	e037883a 	mov	sp,fp
  800234:	dfc00117 	ldw	ra,4(sp)
  800238:	df000017 	ldw	fp,0(sp)
  80023c:	dec00204 	addi	sp,sp,8
  800240:	f800283a 	ret

Disassembly of section .text:

00800244 <_start>:

    /* Assume the data cache size is always a power of two. */
#if NIOS2_DCACHE_SIZE > 0x8000
    movhi r2, %hi(NIOS2_DCACHE_SIZE)
#else
    movui r2, NIOS2_DCACHE_SIZE
  800244:	00820014 	movui	r2,2048
#endif

0:
    initd 0(r2)
  800248:	10000033 	initd	0(r2)
#ifdef NIOS2_ECC_PRESENT
    addi r2, r2, -4
#else
    addi r2, r2, -NIOS2_DCACHE_LINE_SIZE
  80024c:	10bff804 	addi	r2,r2,-32
#endif
    bgt r2, zero, 0b
  800250:	00bffd16 	blt	zero,r2,800248 <__alt_mem_onchip_mem+0xff7f8248>

    /*
     * Now that the caches are initialized, set up the stack pointer and global pointer.
     * The values provided by the linker are assumed to be correctly aligned.
     */
    movhi sp, %hi(__alt_stack_pointer)
  800254:	06c04034 	movhi	sp,256
    ori sp, sp, %lo(__alt_stack_pointer)
  800258:	dec00014 	ori	sp,sp,0
    movhi gp, %hi(_gp)
  80025c:	06802074 	movhi	gp,129
    ori gp, gp, %lo(_gp)
  800260:	d6bf2f14 	ori	gp,gp,64700
 */
#ifndef ALT_SIM_OPTIMIZE
    /* Log that the BSS is about to be cleared. */
    ALT_LOG_PUTS(alt_log_msg_bss)

    movhi r2, %hi(__bss_start)
  800264:	00802074 	movhi	r2,129
    ori r2, r2, %lo(__bss_start)
  800268:	10a67714 	ori	r2,r2,39388

    movhi r3, %hi(__bss_end)
  80026c:	00c02074 	movhi	r3,129
    ori r3, r3, %lo(__bss_end)
  800270:	18e6dc14 	ori	r3,r3,39792

    beq r2, r3, 1f
  800274:	10c00326 	beq	r2,r3,800284 <_start+0x40>

0:
    stw zero, (r2)
  800278:	10000015 	stw	zero,0(r2)
    addi r2, r2, 4
  80027c:	10800104 	addi	r2,r2,4
    bltu r2, r3, 0b
  800280:	10fffd36 	bltu	r2,r3,800278 <__alt_mem_onchip_mem+0xff7f8278>
     * section aren't defined until alt_load() has been called).
     */
    mov   et, zero
#endif

    call alt_load
  800284:	08120680 	call	812068 <alt_load>

    /* Log that alt_main is about to be called. */
    ALT_LOG_PUTS(alt_log_msg_alt_main)

    /* Call the C entry point. It should never return. */
    call alt_main
  800288:	08121fc0 	call	8121fc <alt_main>

0080028c <alt_after_alt_main>:

    /* Wait in infinite loop in case alt_main does return. */
alt_after_alt_main:
    br alt_after_alt_main
  80028c:	003fff06 	br	80028c <__alt_mem_onchip_mem+0xff7f828c>

00800290 <timerISR>:
volatile uint8_t AEI_state = 0;

volatile int LRI_timer, URI_timer, PVARP_timer, VRP_timer, AVI_timer, AEI_timer = 0;

// System time ISR
alt_u32 timerISR(void* context) {
  800290:	defffd04 	addi	sp,sp,-12
  800294:	df000215 	stw	fp,8(sp)
  800298:	df000204 	addi	fp,sp,8
  80029c:	e13fff15 	stw	r4,-4(fp)
    int* timecount = (int*)context;
  8002a0:	e0bfff17 	ldw	r2,-4(fp)
  8002a4:	e0bffe15 	stw	r2,-8(fp)
    (*timecount)++;
  8002a8:	e0bffe17 	ldw	r2,-8(fp)
  8002ac:	10800017 	ldw	r2,0(r2)
  8002b0:	10c00044 	addi	r3,r2,1
  8002b4:	e0bffe17 	ldw	r2,-8(fp)
  8002b8:	10c00015 	stw	r3,0(r2)

    LRI_timer++;
  8002bc:	d0a75117 	ldw	r2,-25276(gp)
  8002c0:	10800044 	addi	r2,r2,1
  8002c4:	d0a75115 	stw	r2,-25276(gp)
    URI_timer++;
  8002c8:	d0a75317 	ldw	r2,-25268(gp)
  8002cc:	10800044 	addi	r2,r2,1
  8002d0:	d0a75315 	stw	r2,-25268(gp)
    PVARP_timer++;
  8002d4:	d0a74d17 	ldw	r2,-25292(gp)
  8002d8:	10800044 	addi	r2,r2,1
  8002dc:	d0a74d15 	stw	r2,-25292(gp)
    VRP_timer++;
  8002e0:	d0a74e17 	ldw	r2,-25288(gp)
  8002e4:	10800044 	addi	r2,r2,1
  8002e8:	d0a74e15 	stw	r2,-25288(gp)
    AVI_timer++;
  8002ec:	d0a75017 	ldw	r2,-25280(gp)
  8002f0:	10800044 	addi	r2,r2,1
  8002f4:	d0a75015 	stw	r2,-25280(gp)
    AEI_timer++;
  8002f8:	d0a74b17 	ldw	r2,-25300(gp)
  8002fc:	10800044 	addi	r2,r2,1
  800300:	d0a74b15 	stw	r2,-25300(gp)

    return 1;
  800304:	00800044 	movi	r2,1
}
  800308:	e037883a 	mov	sp,fp
  80030c:	df000017 	ldw	fp,0(sp)
  800310:	dec00104 	addi	sp,sp,4
  800314:	f800283a 	ret

00800318 <uart_isr>:


// assigning temporary variables when receiving UART inputs
void uart_isr() {
  800318:	defffe04 	addi	sp,sp,-8
  80031c:	df000115 	stw	fp,4(sp)
  800320:	df000104 	addi	fp,sp,4
	 if (IORD_ALTERA_AVALON_UART_STATUS(UART_BASE) & ALTERA_AVALON_UART_STATUS_RRDY_MSK) {
  800324:	00804074 	movhi	r2,257
  800328:	10841204 	addi	r2,r2,4168
  80032c:	10800037 	ldwio	r2,0(r2)
  800330:	1080200c 	andi	r2,r2,128
  800334:	10000f26 	beq	r2,zero,800374 <uart_isr+0x5c>
		 char received = IORD_ALTERA_AVALON_UART_RXDATA(UART_BASE);
  800338:	00804074 	movhi	r2,257
  80033c:	10841004 	addi	r2,r2,4160
  800340:	10800037 	ldwio	r2,0(r2)
  800344:	e0bfff05 	stb	r2,-4(fp)
		 if (received == 'A') {
  800348:	e0bfff07 	ldb	r2,-4(fp)
  80034c:	10801058 	cmpnei	r2,r2,65
  800350:	1000031e 	bne	r2,zero,800360 <uart_isr+0x48>
			 AS_temp = 1;
  800354:	00800044 	movi	r2,1
  800358:	d0a75405 	stb	r2,-25264(gp)
		 } else if (received == 'V') {
			 VS_temp = 1;
		 }
	 }
}
  80035c:	00000506 	br	800374 <uart_isr+0x5c>
void uart_isr() {
	 if (IORD_ALTERA_AVALON_UART_STATUS(UART_BASE) & ALTERA_AVALON_UART_STATUS_RRDY_MSK) {
		 char received = IORD_ALTERA_AVALON_UART_RXDATA(UART_BASE);
		 if (received == 'A') {
			 AS_temp = 1;
		 } else if (received == 'V') {
  800360:	e0bfff07 	ldb	r2,-4(fp)
  800364:	10801598 	cmpnei	r2,r2,86
  800368:	1000021e 	bne	r2,zero,800374 <uart_isr+0x5c>
			 VS_temp = 1;
  80036c:	00800044 	movi	r2,1
  800370:	d0a74c05 	stb	r2,-25296(gp)
		 }
	 }
}
  800374:	0001883a 	nop
  800378:	e037883a 	mov	sp,fp
  80037c:	df000017 	ldw	fp,0(sp)
  800380:	dec00104 	addi	sp,sp,4
  800384:	f800283a 	ret

00800388 <uart_init>:

// register the UART
void uart_init() {
  800388:	defffd04 	addi	sp,sp,-12
  80038c:	dfc00215 	stw	ra,8(sp)
  800390:	df000115 	stw	fp,4(sp)
  800394:	df000104 	addi	fp,sp,4
    IOWR_ALTERA_AVALON_UART_CONTROL(UART_BASE,0);
  800398:	0007883a 	mov	r3,zero
  80039c:	00804074 	movhi	r2,257
  8003a0:	10841304 	addi	r2,r2,4172
  8003a4:	10c00035 	stwio	r3,0(r2)
    IOWR_ALTERA_AVALON_UART_CONTROL(UART_BASE, ALTERA_AVALON_UART_CONTROL_RRDY_MSK);
  8003a8:	00c02004 	movi	r3,128
  8003ac:	00804074 	movhi	r2,257
  8003b0:	10841304 	addi	r2,r2,4172
  8003b4:	10c00035 	stwio	r3,0(r2)
    alt_ic_isr_register(UART_IRQ_INTERRUPT_CONTROLLER_ID, UART_IRQ, uart_isr, NULL, NULL);
  8003b8:	d8000015 	stw	zero,0(sp)
  8003bc:	000f883a 	mov	r7,zero
  8003c0:	01802034 	movhi	r6,128
  8003c4:	3180c604 	addi	r6,r6,792
  8003c8:	000b883a 	mov	r5,zero
  8003cc:	0009883a 	mov	r4,zero
  8003d0:	0811c800 	call	811c80 <alt_ic_isr_register>
}
  8003d4:	0001883a 	nop
  8003d8:	e037883a 	mov	sp,fp
  8003dc:	dfc00117 	ldw	ra,4(sp)
  8003e0:	df000017 	ldw	fp,0(sp)
  8003e4:	dec00204 	addi	sp,sp,8
  8003e8:	f800283a 	ret

008003ec <send_uart>:

// function to send 1 character over UART
void send_uart(char c) {
  8003ec:	defffe04 	addi	sp,sp,-8
  8003f0:	df000115 	stw	fp,4(sp)
  8003f4:	df000104 	addi	fp,sp,4
  8003f8:	2005883a 	mov	r2,r4
  8003fc:	e0bfff05 	stb	r2,-4(fp)
	 while (!(IORD_ALTERA_AVALON_UART_STATUS(UART_BASE) & ALTERA_AVALON_UART_STATUS_TRDY_MSK));
  800400:	0001883a 	nop
  800404:	00804074 	movhi	r2,257
  800408:	10841204 	addi	r2,r2,4168
  80040c:	10800037 	ldwio	r2,0(r2)
  800410:	1080100c 	andi	r2,r2,64
  800414:	103ffb26 	beq	r2,zero,800404 <__alt_mem_onchip_mem+0xff7f8404>
	 IOWR_ALTERA_AVALON_UART_TXDATA(UART_BASE, c);
  800418:	e0ffff07 	ldb	r3,-4(fp)
  80041c:	00804074 	movhi	r2,257
  800420:	10841104 	addi	r2,r2,4164
  800424:	10c00035 	stwio	r3,0(r2)
}
  800428:	0001883a 	nop
  80042c:	e037883a 	mov	sp,fp
  800430:	df000017 	ldw	fp,0(sp)
  800434:	dec00104 	addi	sp,sp,4
  800438:	f800283a 	ret

0080043c <resetHeartEvents>:


// Reset all signals at end of each tick in SCCharts
void resetHeartEvents(TickData* d) {
  80043c:	defffe04 	addi	sp,sp,-8
  800440:	df000115 	stw	fp,4(sp)
  800444:	df000104 	addi	fp,sp,4
  800448:	e13fff15 	stw	r4,-4(fp)

    d->AS = 0;
  80044c:	e0bfff17 	ldw	r2,-4(fp)
  800450:	10001605 	stb	zero,88(r2)
    d->AP = 0;
  800454:	e0bfff17 	ldw	r2,-4(fp)
  800458:	10001685 	stb	zero,90(r2)
    d->VS = 0;
  80045c:	e0bfff17 	ldw	r2,-4(fp)
  800460:	10001645 	stb	zero,89(r2)
    d->VP = 0;
  800464:	e0bfff17 	ldw	r2,-4(fp)
  800468:	100016c5 	stb	zero,91(r2)
}
  80046c:	0001883a 	nop
  800470:	e037883a 	mov	sp,fp
  800474:	df000017 	ldw	fp,0(sp)
  800478:	dec00104 	addi	sp,sp,4
  80047c:	f800283a 	ret

00800480 <c_implementation>:


// C implementation logic
void c_implementation() {
  800480:	deffff04 	addi	sp,sp,-4
  800484:	df000015 	stw	fp,0(sp)
  800488:	d839883a 	mov	fp,sp

	// LRI
	// Ensures that a ventricular pacing (VP) event occurs if no ventricular sense (VS) is detected within a set interval.
	if (LRI_state == 0) {
  80048c:	d0a74803 	ldbu	r2,-25312(gp)
  800490:	10803fcc 	andi	r2,r2,255
  800494:	10000a1e 	bne	r2,zero,8004c0 <c_implementation+0x40>
		if (VS_input || VP_output) { // Reset LRI timer on VS or VP
  800498:	d0a74f43 	ldbu	r2,-25283(gp)
  80049c:	10803fcc 	andi	r2,r2,255
  8004a0:	1000031e 	bne	r2,zero,8004b0 <c_implementation+0x30>
  8004a4:	d0a75243 	ldbu	r2,-25271(gp)
  8004a8:	10803fcc 	andi	r2,r2,255
  8004ac:	10001526 	beq	r2,zero,800504 <c_implementation+0x84>
			LRI_state = 1;
  8004b0:	00800044 	movi	r2,1
  8004b4:	d0a74805 	stb	r2,-25312(gp)
			LRI_timer = 0;
  8004b8:	d0275115 	stw	zero,-25276(gp)
  8004bc:	00001106 	br	800504 <c_implementation+0x84>
		}
	} else {
		if ((LRI_timer < LRI_VALUE) && (VS_input || VP_output)) {
  8004c0:	d0a75117 	ldw	r2,-25276(gp)
  8004c4:	1080ed88 	cmpgei	r2,r2,950
  8004c8:	1000081e 	bne	r2,zero,8004ec <c_implementation+0x6c>
  8004cc:	d0a74f43 	ldbu	r2,-25283(gp)
  8004d0:	10803fcc 	andi	r2,r2,255
  8004d4:	1000031e 	bne	r2,zero,8004e4 <c_implementation+0x64>
  8004d8:	d0a75243 	ldbu	r2,-25271(gp)
  8004dc:	10803fcc 	andi	r2,r2,255
  8004e0:	10000226 	beq	r2,zero,8004ec <c_implementation+0x6c>
			LRI_timer = 0; // Reset LRI timer on VS or VP
  8004e4:	d0275115 	stw	zero,-25276(gp)
  8004e8:	00000606 	br	800504 <c_implementation+0x84>

		} else if (LRI_timer >= LRI_VALUE) { // Trigger ventricular pacing (VP) if LRI expires
  8004ec:	d0a75117 	ldw	r2,-25276(gp)
  8004f0:	1080ed90 	cmplti	r2,r2,950
  8004f4:	1000031e 	bne	r2,zero,800504 <c_implementation+0x84>
			VP_output = 1;
  8004f8:	00800044 	movi	r2,1
  8004fc:	d0a75245 	stb	r2,-25271(gp)
			LRI_timer = 0;
  800500:	d0275115 	stw	zero,-25276(gp)
		}
	}

	//URI
	// Prevents excessive ventricular pacing by ensuring a minimum delay between events
	if (URI_state == 0) {
  800504:	d0a74843 	ldbu	r2,-25311(gp)
  800508:	10803fcc 	andi	r2,r2,255
  80050c:	10000a1e 	bne	r2,zero,800538 <c_implementation+0xb8>
		if (VS_input || VP_output) { // Reset URI timer on VS or VP
  800510:	d0a74f43 	ldbu	r2,-25283(gp)
  800514:	10803fcc 	andi	r2,r2,255
  800518:	1000031e 	bne	r2,zero,800528 <c_implementation+0xa8>
  80051c:	d0a75243 	ldbu	r2,-25271(gp)
  800520:	10803fcc 	andi	r2,r2,255
  800524:	10000c26 	beq	r2,zero,800558 <c_implementation+0xd8>
			URI_timer = 0;
  800528:	d0275315 	stw	zero,-25268(gp)
			URI_state = 1;
  80052c:	00800044 	movi	r2,1
  800530:	d0a74845 	stb	r2,-25311(gp)
  800534:	00000806 	br	800558 <c_implementation+0xd8>
		}
	} else {
		if (URI_timer < URI_VALUE) {
  800538:	d0a75317 	ldw	r2,-25268(gp)
  80053c:	1080e108 	cmpgei	r2,r2,900
  800540:	1000031e 	bne	r2,zero,800550 <c_implementation+0xd0>
			URI_timeout = 1; // Enforce pacing limit
  800544:	00800044 	movi	r2,1
  800548:	d0a74885 	stb	r2,-25310(gp)
  80054c:	00000206 	br	800558 <c_implementation+0xd8>
		} else {
			URI_timeout = 0; // Allow pacing again
  800550:	d0274885 	stb	zero,-25310(gp)
			URI_state = 0;
  800554:	d0274845 	stb	zero,-25311(gp)
		}
	}

	// PVARP
	// Prevents inappropriate atrial sensing immediately after a ventricular event.
	if (PVARP_state == 0) {
  800558:	d0a748c3 	ldbu	r2,-25309(gp)
  80055c:	10803fcc 	andi	r2,r2,255
  800560:	10000a1e 	bne	r2,zero,80058c <c_implementation+0x10c>
		if (VS_input || VP_output) { // Start PVARP after a ventricular event
  800564:	d0a74f43 	ldbu	r2,-25283(gp)
  800568:	10803fcc 	andi	r2,r2,255
  80056c:	1000031e 	bne	r2,zero,80057c <c_implementation+0xfc>
  800570:	d0a75243 	ldbu	r2,-25271(gp)
  800574:	10803fcc 	andi	r2,r2,255
  800578:	10000c26 	beq	r2,zero,8005ac <c_implementation+0x12c>
			PVARP_timer = 0;
  80057c:	d0274d15 	stw	zero,-25292(gp)
			PVARP_state = 1;
  800580:	00800044 	movi	r2,1
  800584:	d0a748c5 	stb	r2,-25309(gp)
  800588:	00000806 	br	8005ac <c_implementation+0x12c>
		}
	} else {
		if (PVARP_timer < URI_VALUE) {
  80058c:	d0a74d17 	ldw	r2,-25292(gp)
  800590:	1080e108 	cmpgei	r2,r2,900
  800594:	1000031e 	bne	r2,zero,8005a4 <c_implementation+0x124>
			PVARP_timeout = 1;  // outputs a signal that inhibits atrial sensing
  800598:	00800044 	movi	r2,1
  80059c:	d0a74905 	stb	r2,-25308(gp)
  8005a0:	00000206 	br	8005ac <c_implementation+0x12c>
		} else {
			PVARP_timeout = 0; // Allow atrial sensing again
  8005a4:	d0274905 	stb	zero,-25308(gp)
			PVARP_state = 0;
  8005a8:	d02748c5 	stb	zero,-25309(gp)
		}
	}

	// VRP
	// Prevents double counting of ventricular events.
	if (VRP_state == 0) {
  8005ac:	d0a74943 	ldbu	r2,-25307(gp)
  8005b0:	10803fcc 	andi	r2,r2,255
  8005b4:	10000a1e 	bne	r2,zero,8005e0 <c_implementation+0x160>
		if (VS_input || VP_output) { // Start VRP after a ventricular event
  8005b8:	d0a74f43 	ldbu	r2,-25283(gp)
  8005bc:	10803fcc 	andi	r2,r2,255
  8005c0:	1000031e 	bne	r2,zero,8005d0 <c_implementation+0x150>
  8005c4:	d0a75243 	ldbu	r2,-25271(gp)
  8005c8:	10803fcc 	andi	r2,r2,255
  8005cc:	10000c26 	beq	r2,zero,800600 <c_implementation+0x180>
			VRP_timer = 0;
  8005d0:	d0274e15 	stw	zero,-25288(gp)
			VRP_state = 1;
  8005d4:	00800044 	movi	r2,1
  8005d8:	d0a74945 	stb	r2,-25307(gp)
  8005dc:	00000806 	br	800600 <c_implementation+0x180>
		}
	} else {
		if (VRP_timer < URI_VALUE) {
  8005e0:	d0a74e17 	ldw	r2,-25288(gp)
  8005e4:	1080e108 	cmpgei	r2,r2,900
  8005e8:	1000031e 	bne	r2,zero,8005f8 <c_implementation+0x178>
			VRP_timeout = 1; // outputs a signal that inhibits ventricular sensing
  8005ec:	00800044 	movi	r2,1
  8005f0:	d0a74985 	stb	r2,-25306(gp)
  8005f4:	00000206 	br	800600 <c_implementation+0x180>
		} else {
			VRP_timeout = 0; // Allow ventricular sensing again
  8005f8:	d0274985 	stb	zero,-25306(gp)
			VRP_state = 0;
  8005fc:	d0274945 	stb	zero,-25307(gp)
		}
	}

	// AVI
	 // Ensures a delay between an atrial event and a subsequent ventricular pacing event.
	if (AVI_state == 0) {
  800600:	d0a749c3 	ldbu	r2,-25305(gp)
  800604:	10803fcc 	andi	r2,r2,255
  800608:	10000d1e 	bne	r2,zero,800640 <c_implementation+0x1c0>
		if ((AS_input || AP_output) && (!PVARP_timeout)) { // Start AVI on atrial event when not in refractory period
  80060c:	d0a75203 	ldbu	r2,-25272(gp)
  800610:	10803fcc 	andi	r2,r2,255
  800614:	1000031e 	bne	r2,zero,800624 <c_implementation+0x1a4>
  800618:	d0a74f03 	ldbu	r2,-25284(gp)
  80061c:	10803fcc 	andi	r2,r2,255
  800620:	10001526 	beq	r2,zero,800678 <c_implementation+0x1f8>
  800624:	d0a74903 	ldbu	r2,-25308(gp)
  800628:	10803fcc 	andi	r2,r2,255
  80062c:	1000121e 	bne	r2,zero,800678 <c_implementation+0x1f8>
			AVI_timer = 0;
  800630:	d0275015 	stw	zero,-25280(gp)
			AVI_state = 1;
  800634:	00800044 	movi	r2,1
  800638:	d0a749c5 	stb	r2,-25305(gp)
  80063c:	00000e06 	br	800678 <c_implementation+0x1f8>
		}
	} else {
		if (VS_input) {
  800640:	d0a74f43 	ldbu	r2,-25283(gp)
  800644:	10803fcc 	andi	r2,r2,255
  800648:	10000226 	beq	r2,zero,800654 <c_implementation+0x1d4>
			AVI_state = 0; // Cancel AVI if a ventricular sense occurs
  80064c:	d02749c5 	stb	zero,-25305(gp)
  800650:	00000906 	br	800678 <c_implementation+0x1f8>
		} else if ((AVI_timer >= AVI_VALUE) && !URI_timeout) {
  800654:	d0a75017 	ldw	r2,-25280(gp)
  800658:	10804b10 	cmplti	r2,r2,300
  80065c:	1000061e 	bne	r2,zero,800678 <c_implementation+0x1f8>
  800660:	d0a74883 	ldbu	r2,-25310(gp)
  800664:	10803fcc 	andi	r2,r2,255
  800668:	1000031e 	bne	r2,zero,800678 <c_implementation+0x1f8>
			VP_output = 1; // Trigger ventricular pacing if AVI expires and URI is reached
  80066c:	00800044 	movi	r2,1
  800670:	d0a75245 	stb	r2,-25271(gp)
			AVI_state = 0;
  800674:	d02749c5 	stb	zero,-25305(gp)
		}
	}

	// AEI
    // Ensures a delay before triggering atrial pacing if no atrial activity is detected.
	if (AEI_state == 0) {
  800678:	d0a74a03 	ldbu	r2,-25304(gp)
  80067c:	10803fcc 	andi	r2,r2,255
  800680:	10000d1e 	bne	r2,zero,8006b8 <c_implementation+0x238>
		if ((VS_input || VP_output) && (!VRP_timeout)) {  // Start AEI on ventricular event when not in refractory period
  800684:	d0a74f43 	ldbu	r2,-25283(gp)
  800688:	10803fcc 	andi	r2,r2,255
  80068c:	1000031e 	bne	r2,zero,80069c <c_implementation+0x21c>
  800690:	d0a75243 	ldbu	r2,-25271(gp)
  800694:	10803fcc 	andi	r2,r2,255
  800698:	10001226 	beq	r2,zero,8006e4 <c_implementation+0x264>
  80069c:	d0a74983 	ldbu	r2,-25306(gp)
  8006a0:	10803fcc 	andi	r2,r2,255
  8006a4:	10000f1e 	bne	r2,zero,8006e4 <c_implementation+0x264>
			AEI_timer = 0;
  8006a8:	d0274b15 	stw	zero,-25300(gp)
			AEI_state = 1;
  8006ac:	00800044 	movi	r2,1
  8006b0:	d0a74a05 	stb	r2,-25304(gp)
		} else if (AEI_timer >= AEI_VALUE) {
			AP_output = 1; // Trigger atrial pacing if AEI expires
			AEI_state = 0;
		}
	}
}
  8006b4:	00000b06 	br	8006e4 <c_implementation+0x264>
		if ((VS_input || VP_output) && (!VRP_timeout)) {  // Start AEI on ventricular event when not in refractory period
			AEI_timer = 0;
			AEI_state = 1;
		}
	} else {
		if (AS_input) {
  8006b8:	d0a75203 	ldbu	r2,-25272(gp)
  8006bc:	10803fcc 	andi	r2,r2,255
  8006c0:	10000226 	beq	r2,zero,8006cc <c_implementation+0x24c>
			AEI_state = 0;  // Cancel AEI if an atrial sense occurs
  8006c4:	d0274a05 	stb	zero,-25304(gp)
		} else if (AEI_timer >= AEI_VALUE) {
			AP_output = 1; // Trigger atrial pacing if AEI expires
			AEI_state = 0;
		}
	}
}
  8006c8:	00000606 	br	8006e4 <c_implementation+0x264>
			AEI_state = 1;
		}
	} else {
		if (AS_input) {
			AEI_state = 0;  // Cancel AEI if an atrial sense occurs
		} else if (AEI_timer >= AEI_VALUE) {
  8006cc:	d0a74b17 	ldw	r2,-25300(gp)
  8006d0:	1080c810 	cmplti	r2,r2,800
  8006d4:	1000031e 	bne	r2,zero,8006e4 <c_implementation+0x264>
			AP_output = 1; // Trigger atrial pacing if AEI expires
  8006d8:	00800044 	movi	r2,1
  8006dc:	d0a74f05 	stb	r2,-25284(gp)
			AEI_state = 0;
  8006e0:	d0274a05 	stb	zero,-25304(gp)
		}
	}
}
  8006e4:	0001883a 	nop
  8006e8:	e037883a 	mov	sp,fp
  8006ec:	df000017 	ldw	fp,0(sp)
  8006f0:	dec00104 	addi	sp,sp,4
  8006f4:	f800283a 	ret

008006f8 <main>:

int main() {
  8006f8:	deff9f04 	addi	sp,sp,-388
  8006fc:	dfc06015 	stw	ra,384(sp)
  800700:	df005f15 	stw	fp,380(sp)
  800704:	df005f04 	addi	fp,sp,380

	// Variable declarations
    alt_alarm ticker;
    uint64_t systemTime = 0;
  800708:	e03fb015 	stw	zero,-320(fp)
  80070c:	e03fb115 	stw	zero,-316(fp)
    uint64_t prevTime = 0;
  800710:	e03fa215 	stw	zero,-376(fp)
  800714:	e03fa315 	stw	zero,-372(fp)
    uint32_t led_reset = 0x00;
  800718:	e03fa715 	stw	zero,-356(fp)
    uint8_t reset_button = 0;
  80071c:	e03fa405 	stb	zero,-368(fp)

//    unsigned int uiSwitchValue = 0;
    uint8_t rled_output = 0x00;
  800720:	e03fa445 	stb	zero,-367(fp)

    // Create the struct
    TickData data;

    // Initialise
    resetHeartEvents(&data);
  800724:	e0bfb204 	addi	r2,fp,-312
  800728:	1009883a 	mov	r4,r2
  80072c:	080043c0 	call	80043c <resetHeartEvents>
    reset(&data);
  800730:	e0bfb204 	addi	r2,fp,-312
  800734:	1009883a 	mov	r4,r2
  800738:	0804c080 	call	804c08 <reset>
    tick(&data);
  80073c:	e0bfb204 	addi	r2,fp,-312
  800740:	1009883a 	mov	r4,r2
  800744:	0804e280 	call	804e28 <tick>

    uart_init();
  800748:	08003880 	call	800388 <uart_init>

    // Initialize the system time
    void* timerContext = (void*)&systemTime;
  80074c:	e0bfb004 	addi	r2,fp,-320
  800750:	e0bfa815 	stw	r2,-352(fp)
    alt_alarm_start(&ticker, 1, timerISR, timerContext);
  800754:	e0bfaa04 	addi	r2,fp,-344
  800758:	e1ffa817 	ldw	r7,-352(fp)
  80075c:	01802034 	movhi	r6,128
  800760:	3180a404 	addi	r6,r6,656
  800764:	01400044 	movi	r5,1
  800768:	1009883a 	mov	r4,r2
  80076c:	08119300 	call	811930 <alt_alarm_start>

    // Reset leds when starting
    IOWR_ALTERA_AVALON_PIO_DATA(LEDS_GREEN_BASE, led_reset);
  800770:	e0ffa717 	ldw	r3,-356(fp)
  800774:	00804074 	movhi	r2,257
  800778:	10841c04 	addi	r2,r2,4208
  80077c:	10c00035 	stwio	r3,0(r2)

    while (1) {

    	// read switches
    	uint8_t mode = (IORD_ALTERA_AVALON_PIO_DATA(SWITCHES_BASE) & (1 << 0)) ? 1 : 0;
  800780:	00804074 	movhi	r2,257
  800784:	10842404 	addi	r2,r2,4240
  800788:	10800037 	ldwio	r2,0(r2)
  80078c:	1080004c 	andi	r2,r2,1
  800790:	1004c03a 	cmpne	r2,r2,zero
  800794:	e0bfa905 	stb	r2,-348(fp)
    	uint8_t implementation = (IORD_ALTERA_AVALON_PIO_DATA(SWITCHES_BASE) & (1 << 1)) ? 1 : 0;
  800798:	00804074 	movhi	r2,257
  80079c:	10842404 	addi	r2,r2,4240
  8007a0:	10800037 	ldwio	r2,0(r2)
  8007a4:	1080008c 	andi	r2,r2,2
  8007a8:	1004c03a 	cmpne	r2,r2,zero
  8007ac:	e0bfa945 	stb	r2,-347(fp)

    	if (mode == 0) {
  8007b0:	e0bfa903 	ldbu	r2,-348(fp)
  8007b4:	1000371e 	bne	r2,zero,800894 <main+0x19c>

    		// Set reset variable when reset button press is detected
    		if (~IORD_ALTERA_AVALON_PIO_DATA(KEYS_BASE) & (1 << 2)) {
  8007b8:	00804074 	movhi	r2,257
  8007bc:	10842804 	addi	r2,r2,4256
  8007c0:	10800037 	ldwio	r2,0(r2)
  8007c4:	1080010c 	andi	r2,r2,4
  8007c8:	1000021e 	bne	r2,zero,8007d4 <main+0xdc>
    			reset_button = 1;
  8007cc:	00800044 	movi	r2,1
  8007d0:	e0bfa405 	stb	r2,-368(fp)
    		}

    		// If reset is active reset leds and wait for heart sense input again
    		if (reset_button) {
  8007d4:	e0bfa403 	ldbu	r2,-368(fp)
  8007d8:	10001826 	beq	r2,zero,80083c <main+0x144>
    			IOWR_ALTERA_AVALON_PIO_DATA(LEDS_GREEN_BASE, led_reset);
  8007dc:	e0ffa717 	ldw	r3,-356(fp)
  8007e0:	00804074 	movhi	r2,257
  8007e4:	10841c04 	addi	r2,r2,4208
  8007e8:	10c00035 	stwio	r3,0(r2)
    			IOWR_ALTERA_AVALON_PIO_DATA(LEDS_RED_BASE, 0x08);
  8007ec:	00c00204 	movi	r3,8
  8007f0:	00804074 	movhi	r2,257
  8007f4:	10842004 	addi	r2,r2,4224
  8007f8:	10c00035 	stwio	r3,0(r2)
    			if ((~IORD_ALTERA_AVALON_PIO_DATA(KEYS_BASE) & (1 << 1)) ||
  8007fc:	00804074 	movhi	r2,257
  800800:	10842804 	addi	r2,r2,4256
  800804:	10800037 	ldwio	r2,0(r2)
  800808:	1080008c 	andi	r2,r2,2
  80080c:	10000526 	beq	r2,zero,800824 <main+0x12c>
    				(~IORD_ALTERA_AVALON_PIO_DATA(KEYS_BASE) & (1 << 0))) {
  800810:	00804074 	movhi	r2,257
  800814:	10842804 	addi	r2,r2,4256
  800818:	10800037 	ldwio	r2,0(r2)
  80081c:	1080004c 	andi	r2,r2,1

    		// If reset is active reset leds and wait for heart sense input again
    		if (reset_button) {
    			IOWR_ALTERA_AVALON_PIO_DATA(LEDS_GREEN_BASE, led_reset);
    			IOWR_ALTERA_AVALON_PIO_DATA(LEDS_RED_BASE, 0x08);
    			if ((~IORD_ALTERA_AVALON_PIO_DATA(KEYS_BASE) & (1 << 1)) ||
  800820:	1000d41e 	bne	r2,zero,800b74 <main+0x47c>
    				(~IORD_ALTERA_AVALON_PIO_DATA(KEYS_BASE) & (1 << 0))) {
    				reset_button = 0;
  800824:	e03fa405 	stb	zero,-368(fp)
    				IOWR_ALTERA_AVALON_PIO_DATA(LEDS_RED_BASE, led_reset);
  800828:	e0ffa717 	ldw	r3,-356(fp)
  80082c:	00804074 	movhi	r2,257
  800830:	10842004 	addi	r2,r2,4224
  800834:	10c00035 	stwio	r3,0(r2)
    			}
    			continue; // skip rest of the loop until input is detected
  800838:	0000ce06 	br	800b74 <main+0x47c>
    		}

    		rled_output = (rled_output & ~0x01) | 0x02;
  80083c:	e0ffa443 	ldbu	r3,-367(fp)
  800840:	00bfff04 	movi	r2,-4
  800844:	1884703a 	and	r2,r3,r2
  800848:	10800094 	ori	r2,r2,2
  80084c:	e0bfa445 	stb	r2,-367(fp)
    		IOWR_ALTERA_AVALON_PIO_DATA(LEDS_RED_BASE, rled_output);
  800850:	e0ffa443 	ldbu	r3,-367(fp)
  800854:	00804074 	movhi	r2,257
  800858:	10842004 	addi	r2,r2,4224
  80085c:	10c00035 	stwio	r3,0(r2)

    		// Fetch button inputs (active low, so invert the bits)
    		AS_input = (~IORD_ALTERA_AVALON_PIO_DATA(KEYS_BASE) & (1 << 1)) ? 1 : 0;
  800860:	00804074 	movhi	r2,257
  800864:	10842804 	addi	r2,r2,4256
  800868:	10800037 	ldwio	r2,0(r2)
  80086c:	1080008c 	andi	r2,r2,2
  800870:	1005003a 	cmpeq	r2,r2,zero
  800874:	d0a75205 	stb	r2,-25272(gp)
    		VS_input = (~IORD_ALTERA_AVALON_PIO_DATA(KEYS_BASE) & (1 << 0)) ? 1 : 0;
  800878:	00804074 	movhi	r2,257
  80087c:	10842804 	addi	r2,r2,4256
  800880:	10800037 	ldwio	r2,0(r2)
  800884:	1080004c 	andi	r2,r2,1
  800888:	1005003a 	cmpeq	r2,r2,zero
  80088c:	d0a74f45 	stb	r2,-25283(gp)
  800890:	00000d06 	br	8008c8 <main+0x1d0>

    	}

    	else {
    			// set switch led to output when on
				rled_output |= 0x01;
  800894:	e0bfa443 	ldbu	r2,-367(fp)
  800898:	10800054 	ori	r2,r2,1
  80089c:	e0bfa445 	stb	r2,-367(fp)
				IOWR_ALTERA_AVALON_PIO_DATA(LEDS_RED_BASE, rled_output);
  8008a0:	e0ffa443 	ldbu	r3,-367(fp)
  8008a4:	00804074 	movhi	r2,257
  8008a8:	10842004 	addi	r2,r2,4224
  8008ac:	10c00035 	stwio	r3,0(r2)

				// assign temp variables to input when in uart mode
				AS_input = AS_temp;
  8008b0:	d0a75403 	ldbu	r2,-25264(gp)
  8008b4:	d0a75205 	stb	r2,-25272(gp)
				VS_input = VS_temp;
  8008b8:	d0a74c03 	ldbu	r2,-25296(gp)
  8008bc:	d0a74f45 	stb	r2,-25283(gp)

				// reset temo variables
				AS_temp = 0;
  8008c0:	d0275405 	stb	zero,-25264(gp)
				VS_temp = 0;
  8008c4:	d0274c05 	stb	zero,-25296(gp)
    	    	}

    	if(implementation == 0) {
  8008c8:	e0bfa943 	ldbu	r2,-347(fp)
  8008cc:	1000671e 	bne	r2,zero,800a6c <main+0x374>

    		//reset leds
    		rled_output = (rled_output & ~0x02);
  8008d0:	e0ffa443 	ldbu	r3,-367(fp)
  8008d4:	00bfff44 	movi	r2,-3
  8008d8:	1884703a 	and	r2,r3,r2
  8008dc:	e0bfa445 	stb	r2,-367(fp)
			IOWR_ALTERA_AVALON_PIO_DATA(LEDS_RED_BASE, rled_output);
  8008e0:	e0ffa443 	ldbu	r3,-367(fp)
  8008e4:	00804074 	movhi	r2,257
  8008e8:	10842004 	addi	r2,r2,4224
  8008ec:	10c00035 	stwio	r3,0(r2)
    		IOWR_ALTERA_AVALON_PIO_DATA(LEDS_GREEN_BASE, led_reset);
  8008f0:	e0ffa717 	ldw	r3,-356(fp)
  8008f4:	00804074 	movhi	r2,257
  8008f8:	10841c04 	addi	r2,r2,4208
  8008fc:	10c00035 	stwio	r3,0(r2)


    		// set input to scchart variables
    		data.AS = AS_input;
  800900:	d0a75203 	ldbu	r2,-25272(gp)
  800904:	e0bfc805 	stb	r2,-224(fp)
    		data.VS = VS_input;
  800908:	d0a74f43 	ldbu	r2,-25283(gp)
  80090c:	e0bfc845 	stb	r2,-223(fp)

        	// Move ticker along
    		data.deltaT = systemTime - prevTime;
  800910:	e13fb017 	ldw	r4,-320(fp)
  800914:	e17fb117 	ldw	r5,-316(fp)
  800918:	e1bfa217 	ldw	r6,-376(fp)
  80091c:	e1ffa317 	ldw	r7,-372(fp)
  800920:	2185c83a 	sub	r2,r4,r6
  800924:	2091803a 	cmpltu	r8,r4,r2
  800928:	29c7c83a 	sub	r3,r5,r7
  80092c:	1a09c83a 	sub	r4,r3,r8
  800930:	2007883a 	mov	r3,r4
  800934:	100b883a 	mov	r5,r2
  800938:	180d883a 	mov	r6,r3
  80093c:	2809883a 	mov	r4,r5
  800940:	300b883a 	mov	r5,r6
  800944:	08050740 	call	805074 <__floatundidf>
  800948:	1009883a 	mov	r4,r2
  80094c:	180b883a 	mov	r5,r3
  800950:	e13fc415 	stw	r4,-240(fp)
  800954:	e17fc515 	stw	r5,-236(fp)
    		prevTime = systemTime;
  800958:	e0bfb017 	ldw	r2,-320(fp)
  80095c:	e0bfa215 	stw	r2,-376(fp)
  800960:	e0bfb117 	ldw	r2,-316(fp)
  800964:	e0bfa315 	stw	r2,-372(fp)
    		tick(&data);
  800968:	e0bfb204 	addi	r2,fp,-312
  80096c:	1009883a 	mov	r4,r2
  800970:	0804e280 	call	804e28 <tick>

    		// LED output based on AP and VP
    		uint32_t gled_output = 0x00;
  800974:	e03fa515 	stw	zero,-364(fp)
    		if (data.VP) {
  800978:	e0bfc8c3 	ldbu	r2,-221(fp)
  80097c:	10803fcc 	andi	r2,r2,255
  800980:	1080201c 	xori	r2,r2,128
  800984:	10bfe004 	addi	r2,r2,-128
  800988:	10000526 	beq	r2,zero,8009a0 <main+0x2a8>
    			gled_output |= 0x01;
  80098c:	e0bfa517 	ldw	r2,-364(fp)
  800990:	10800054 	ori	r2,r2,1
  800994:	e0bfa515 	stw	r2,-364(fp)
    			send_uart('V'); // VP -> LED 0
  800998:	01001584 	movi	r4,86
  80099c:	08003ec0 	call	8003ec <send_uart>
    		}
    		if (data.AP) {
  8009a0:	e0bfc883 	ldbu	r2,-222(fp)
  8009a4:	10803fcc 	andi	r2,r2,255
  8009a8:	1080201c 	xori	r2,r2,128
  8009ac:	10bfe004 	addi	r2,r2,-128
  8009b0:	10000526 	beq	r2,zero,8009c8 <main+0x2d0>
    			gled_output |= 0x04;
  8009b4:	e0bfa517 	ldw	r2,-364(fp)
  8009b8:	10800114 	ori	r2,r2,4
  8009bc:	e0bfa515 	stw	r2,-364(fp)
    			send_uart('A'); // AP -> LED 2
  8009c0:	01001044 	movi	r4,65
  8009c4:	08003ec0 	call	8003ec <send_uart>
    		}
    		IOWR_ALTERA_AVALON_PIO_DATA(LEDS_GREEN_BASE, gled_output);
  8009c8:	e0ffa517 	ldw	r3,-364(fp)
  8009cc:	00804074 	movhi	r2,257
  8009d0:	10841c04 	addi	r2,r2,4208
  8009d4:	10c00035 	stwio	r3,0(r2)

    		// Short delay to make LED flashes visible
    		for (volatile int i = 0; i < 100000; i++);
  8009d8:	e03ffe15 	stw	zero,-8(fp)
  8009dc:	00000306 	br	8009ec <main+0x2f4>
  8009e0:	e0bffe17 	ldw	r2,-8(fp)
  8009e4:	10800044 	addi	r2,r2,1
  8009e8:	e0bffe15 	stw	r2,-8(fp)
  8009ec:	e0fffe17 	ldw	r3,-8(fp)
  8009f0:	008000b4 	movhi	r2,2
  8009f4:	10a1a7c4 	addi	r2,r2,-31073
  8009f8:	10fff90e 	bge	r2,r3,8009e0 <__alt_mem_onchip_mem+0xff7f89e0>

    		// Reset leds
    		IOWR_ALTERA_AVALON_PIO_DATA(LEDS_GREEN_BASE, led_reset);
  8009fc:	e0ffa717 	ldw	r3,-356(fp)
  800a00:	00804074 	movhi	r2,257
  800a04:	10841c04 	addi	r2,r2,4208
  800a08:	10c00035 	stwio	r3,0(r2)

    		 // Print the state to console
    		 printf("SCCHART - AS: %d, VS: %d, AP: %d, VP: %d\n", data.AS, data.VS, data.AP, data.VP);
  800a0c:	e0bfc803 	ldbu	r2,-224(fp)
  800a10:	10c03fcc 	andi	r3,r2,255
  800a14:	18c0201c 	xori	r3,r3,128
  800a18:	18ffe004 	addi	r3,r3,-128
  800a1c:	e0bfc843 	ldbu	r2,-223(fp)
  800a20:	11003fcc 	andi	r4,r2,255
  800a24:	2100201c 	xori	r4,r4,128
  800a28:	213fe004 	addi	r4,r4,-128
  800a2c:	e0bfc883 	ldbu	r2,-222(fp)
  800a30:	11403fcc 	andi	r5,r2,255
  800a34:	2940201c 	xori	r5,r5,128
  800a38:	297fe004 	addi	r5,r5,-128
  800a3c:	e0bfc8c3 	ldbu	r2,-221(fp)
  800a40:	10803fcc 	andi	r2,r2,255
  800a44:	1080201c 	xori	r2,r2,128
  800a48:	10bfe004 	addi	r2,r2,-128
  800a4c:	d8800015 	stw	r2,0(sp)
  800a50:	280f883a 	mov	r7,r5
  800a54:	200d883a 	mov	r6,r4
  800a58:	180b883a 	mov	r5,r3
  800a5c:	01002074 	movhi	r4,129
  800a60:	21169404 	addi	r4,r4,23120
  800a64:	0806d8c0 	call	806d8c <printf>
  800a68:	00003f06 	br	800b68 <main+0x470>

    	}

    	else {
    		c_implementation();
  800a6c:	08004800 	call	800480 <c_implementation>

    		// set switch led to output when on
    		rled_output |= 0x02;
  800a70:	e0bfa443 	ldbu	r2,-367(fp)
  800a74:	10800094 	ori	r2,r2,2
  800a78:	e0bfa445 	stb	r2,-367(fp)

    		// reset leds
			IOWR_ALTERA_AVALON_PIO_DATA(LEDS_RED_BASE, rled_output);
  800a7c:	e0ffa443 	ldbu	r3,-367(fp)
  800a80:	00804074 	movhi	r2,257
  800a84:	10842004 	addi	r2,r2,4224
  800a88:	10c00035 	stwio	r3,0(r2)
    		IOWR_ALTERA_AVALON_PIO_DATA(LEDS_GREEN_BASE, led_reset);
  800a8c:	e0ffa717 	ldw	r3,-356(fp)
  800a90:	00804074 	movhi	r2,257
  800a94:	10841c04 	addi	r2,r2,4208
  800a98:	10c00035 	stwio	r3,0(r2)

    		// print to console
    		printf("C - AS: %d, VS: %d, AP: %d, VP: %d\n", AS_input, VS_input, AP_output, VP_output);
  800a9c:	d0a75203 	ldbu	r2,-25272(gp)
  800aa0:	10c03fcc 	andi	r3,r2,255
  800aa4:	d0a74f43 	ldbu	r2,-25283(gp)
  800aa8:	11003fcc 	andi	r4,r2,255
  800aac:	d0a74f03 	ldbu	r2,-25284(gp)
  800ab0:	11403fcc 	andi	r5,r2,255
  800ab4:	d0a75243 	ldbu	r2,-25271(gp)
  800ab8:	10803fcc 	andi	r2,r2,255
  800abc:	d8800015 	stw	r2,0(sp)
  800ac0:	280f883a 	mov	r7,r5
  800ac4:	200d883a 	mov	r6,r4
  800ac8:	180b883a 	mov	r5,r3
  800acc:	01002074 	movhi	r4,129
  800ad0:	21169f04 	addi	r4,r4,23164
  800ad4:	0806d8c0 	call	806d8c <printf>

    		// LED output based on AP and VP
    		uint32_t gled_output = 0x00;
  800ad8:	e03fa615 	stw	zero,-360(fp)
    		if (VP_output) {
  800adc:	d0a75243 	ldbu	r2,-25271(gp)
  800ae0:	10803fcc 	andi	r2,r2,255
  800ae4:	10000626 	beq	r2,zero,800b00 <main+0x408>
				gled_output |= 0x01;
  800ae8:	e0bfa617 	ldw	r2,-360(fp)
  800aec:	10800054 	ori	r2,r2,1
  800af0:	e0bfa615 	stw	r2,-360(fp)
				send_uart('V');
  800af4:	01001584 	movi	r4,86
  800af8:	08003ec0 	call	8003ec <send_uart>
				VP_output = 0;// VP -> LED 0
  800afc:	d0275245 	stb	zero,-25271(gp)
			}
			if (AP_output) {
  800b00:	d0a74f03 	ldbu	r2,-25284(gp)
  800b04:	10803fcc 	andi	r2,r2,255
  800b08:	10000626 	beq	r2,zero,800b24 <main+0x42c>
				gled_output |= 0x04;
  800b0c:	e0bfa617 	ldw	r2,-360(fp)
  800b10:	10800114 	ori	r2,r2,4
  800b14:	e0bfa615 	stw	r2,-360(fp)
				send_uart('A');
  800b18:	01001044 	movi	r4,65
  800b1c:	08003ec0 	call	8003ec <send_uart>
				AP_output = 0;// AP -> LED 2
  800b20:	d0274f05 	stb	zero,-25284(gp)
			}
			IOWR_ALTERA_AVALON_PIO_DATA(LEDS_GREEN_BASE, gled_output);
  800b24:	e0ffa617 	ldw	r3,-360(fp)
  800b28:	00804074 	movhi	r2,257
  800b2c:	10841c04 	addi	r2,r2,4208
  800b30:	10c00035 	stwio	r3,0(r2)

			// Short delay to make LED flashes visible
			for (volatile int i = 0; i < 100000; i++);
  800b34:	e03fff15 	stw	zero,-4(fp)
  800b38:	00000306 	br	800b48 <main+0x450>
  800b3c:	e0bfff17 	ldw	r2,-4(fp)
  800b40:	10800044 	addi	r2,r2,1
  800b44:	e0bfff15 	stw	r2,-4(fp)
  800b48:	e0ffff17 	ldw	r3,-4(fp)
  800b4c:	008000b4 	movhi	r2,2
  800b50:	10a1a7c4 	addi	r2,r2,-31073
  800b54:	10fff90e 	bge	r2,r3,800b3c <__alt_mem_onchip_mem+0xff7f8b3c>

			// Reset leds
			IOWR_ALTERA_AVALON_PIO_DATA(LEDS_GREEN_BASE, led_reset);
  800b58:	e0ffa717 	ldw	r3,-356(fp)
  800b5c:	00804074 	movhi	r2,257
  800b60:	10841c04 	addi	r2,r2,4208
  800b64:	10c00035 	stwio	r3,0(r2)
    	}

    	//reset inputs
    	AS_input = 0;
  800b68:	d0275205 	stb	zero,-25272(gp)
    	VS_input = 0;
  800b6c:	d0274f45 	stb	zero,-25283(gp)
  800b70:	003f0306 	br	800780 <__alt_mem_onchip_mem+0xff7f8780>
    			if ((~IORD_ALTERA_AVALON_PIO_DATA(KEYS_BASE) & (1 << 1)) ||
    				(~IORD_ALTERA_AVALON_PIO_DATA(KEYS_BASE) & (1 << 0))) {
    				reset_button = 0;
    				IOWR_ALTERA_AVALON_PIO_DATA(LEDS_RED_BASE, led_reset);
    			}
    			continue; // skip rest of the loop until input is detected
  800b74:	0001883a 	nop
    	}

    	//reset inputs
    	AS_input = 0;
    	VS_input = 0;
    }
  800b78:	003f0106 	br	800780 <__alt_mem_onchip_mem+0xff7f8780>

00800b7c <logic>:
#include "timing.h"
#include <stdio.h>

#include "sccharts.h"

void logic(TickData* d) {
  800b7c:	defffa04 	addi	sp,sp,-24
  800b80:	dfc00515 	stw	ra,20(sp)
  800b84:	df000415 	stw	fp,16(sp)
  800b88:	dc800315 	stw	r18,12(sp)
  800b8c:	dc400215 	stw	r17,8(sp)
  800b90:	dc000115 	stw	r16,4(sp)
  800b94:	df000404 	addi	fp,sp,16
  800b98:	e13ffc15 	stw	r4,-16(fp)
  d->AP = 0;
  800b9c:	e0bffc17 	ldw	r2,-16(fp)
  800ba0:	10001685 	stb	zero,90(r2)
  d->VP = 0;
  800ba4:	e0bffc17 	ldw	r2,-16(fp)
  800ba8:	100016c5 	stb	zero,91(r2)
  d->v_event = 0;
  800bac:	e0bffc17 	ldw	r2,-16(fp)
  800bb0:	10001705 	stb	zero,92(r2)
  d->a_event = 0;
  800bb4:	e0bffc17 	ldw	r2,-16(fp)
  800bb8:	10001745 	stb	zero,93(r2)
  d->URI_timeout = 0;
  800bbc:	e0bffc17 	ldw	r2,-16(fp)
  800bc0:	10001785 	stb	zero,94(r2)
  d->_g15 = d->_pg7;
  800bc4:	e0bffc17 	ldw	r2,-16(fp)
  800bc8:	10c043c3 	ldbu	r3,271(r2)
  800bcc:	e0bffc17 	ldw	r2,-16(fp)
  800bd0:	10c01d45 	stb	r3,117(r2)
  d->_g9 = d->_pg25;
  800bd4:	e0bffc17 	ldw	r2,-16(fp)
  800bd8:	10c04403 	ldbu	r3,272(r2)
  800bdc:	e0bffc17 	ldw	r2,-16(fp)
  800be0:	10c01c05 	stb	r3,112(r2)
  d->_g12_e1 = !(d->_g15 || d->_g9);
  800be4:	e0bffc17 	ldw	r2,-16(fp)
  800be8:	10801d43 	ldbu	r2,117(r2)
  800bec:	10803fcc 	andi	r2,r2,255
  800bf0:	1080201c 	xori	r2,r2,128
  800bf4:	10bfe004 	addi	r2,r2,-128
  800bf8:	1000081e 	bne	r2,zero,800c1c <logic+0xa0>
  800bfc:	e0bffc17 	ldw	r2,-16(fp)
  800c00:	10801c03 	ldbu	r2,112(r2)
  800c04:	10803fcc 	andi	r2,r2,255
  800c08:	1080201c 	xori	r2,r2,128
  800c0c:	10bfe004 	addi	r2,r2,-128
  800c10:	1000021e 	bne	r2,zero,800c1c <logic+0xa0>
  800c14:	00800044 	movi	r2,1
  800c18:	00000106 	br	800c20 <logic+0xa4>
  800c1c:	0005883a 	mov	r2,zero
  800c20:	1007883a 	mov	r3,r2
  800c24:	e0bffc17 	ldw	r2,-16(fp)
  800c28:	10c04045 	stb	r3,257(r2)
  d->_pre_v_event = d->_reg_v_event;
  800c2c:	e0bffc17 	ldw	r2,-16(fp)
  800c30:	10c01843 	ldbu	r3,97(r2)
  800c34:	e0bffc17 	ldw	r2,-16(fp)
  800c38:	10c01885 	stb	r3,98(r2)
  d->_g19 = d->_pg16;
  800c3c:	e0bffc17 	ldw	r2,-16(fp)
  800c40:	10c04443 	ldbu	r3,273(r2)
  800c44:	e0bffc17 	ldw	r2,-16(fp)
  800c48:	10c01dc5 	stb	r3,119(r2)
  d->_cg19 = d->_pre_v_event;
  800c4c:	e0bffc17 	ldw	r2,-16(fp)
  800c50:	10c01883 	ldbu	r3,98(r2)
  800c54:	e0bffc17 	ldw	r2,-16(fp)
  800c58:	10c03685 	stb	r3,218(r2)
  d->_g20 = d->_g19 && d->_cg19;
  800c5c:	e0bffc17 	ldw	r2,-16(fp)
  800c60:	10801dc3 	ldbu	r2,119(r2)
  800c64:	10803fcc 	andi	r2,r2,255
  800c68:	1080201c 	xori	r2,r2,128
  800c6c:	10bfe004 	addi	r2,r2,-128
  800c70:	10000826 	beq	r2,zero,800c94 <logic+0x118>
  800c74:	e0bffc17 	ldw	r2,-16(fp)
  800c78:	10803683 	ldbu	r2,218(r2)
  800c7c:	10803fcc 	andi	r2,r2,255
  800c80:	1080201c 	xori	r2,r2,128
  800c84:	10bfe004 	addi	r2,r2,-128
  800c88:	10000226 	beq	r2,zero,800c94 <logic+0x118>
  800c8c:	00800044 	movi	r2,1
  800c90:	00000106 	br	800c98 <logic+0x11c>
  800c94:	0005883a 	mov	r2,zero
  800c98:	1007883a 	mov	r3,r2
  800c9c:	e0bffc17 	ldw	r2,-16(fp)
  800ca0:	10c01e05 	stb	r3,120(r2)
  if (d->_g20) {
  800ca4:	e0bffc17 	ldw	r2,-16(fp)
  800ca8:	10801e03 	ldbu	r2,120(r2)
  800cac:	10803fcc 	andi	r2,r2,255
  800cb0:	1080201c 	xori	r2,r2,128
  800cb4:	10bfe004 	addi	r2,r2,-128
  800cb8:	10000326 	beq	r2,zero,800cc8 <logic+0x14c>
    d->_Pacemaker_local__Atrig = 1;
  800cbc:	e0bffc17 	ldw	r2,-16(fp)
  800cc0:	00c00044 	movi	r3,1
  800cc4:	10c018c5 	stb	r3,99(r2)
  }
  d->_g150 = d->_pg121;
  800cc8:	e0bffc17 	ldw	r2,-16(fp)
  800ccc:	10c04483 	ldbu	r3,274(r2)
  800cd0:	e0bffc17 	ldw	r2,-16(fp)
  800cd4:	10c03345 	stb	r3,205(r2)
  if (d->_g150) {
  800cd8:	e0bffc17 	ldw	r2,-16(fp)
  800cdc:	10803343 	ldbu	r2,205(r2)
  800ce0:	10803fcc 	andi	r2,r2,255
  800ce4:	1080201c 	xori	r2,r2,128
  800ce8:	10bfe004 	addi	r2,r2,-128
  800cec:	10001226 	beq	r2,zero,800d38 <logic+0x1bc>
    d->_region0_LRI_x += d->deltaT;
  800cf0:	e13ffc17 	ldw	r4,-16(fp)
  800cf4:	20800617 	ldw	r2,24(r4)
  800cf8:	20c00717 	ldw	r3,28(r4)
  800cfc:	e1bffc17 	ldw	r6,-16(fp)
  800d00:	31001217 	ldw	r4,72(r6)
  800d04:	31401317 	ldw	r5,76(r6)
  800d08:	200d883a 	mov	r6,r4
  800d0c:	280f883a 	mov	r7,r5
  800d10:	1009883a 	mov	r4,r2
  800d14:	180b883a 	mov	r5,r3
  800d18:	08050e40 	call	8050e4 <__adddf3>
  800d1c:	1009883a 	mov	r4,r2
  800d20:	180b883a 	mov	r5,r3
  800d24:	2005883a 	mov	r2,r4
  800d28:	2807883a 	mov	r3,r5
  800d2c:	e13ffc17 	ldw	r4,-16(fp)
  800d30:	20800615 	stw	r2,24(r4)
  800d34:	20c00715 	stw	r3,28(r4)
  }
  d->_g22 = d->_g19 && !d->_cg19;
  800d38:	e0bffc17 	ldw	r2,-16(fp)
  800d3c:	10801dc3 	ldbu	r2,119(r2)
  800d40:	10803fcc 	andi	r2,r2,255
  800d44:	1080201c 	xori	r2,r2,128
  800d48:	10bfe004 	addi	r2,r2,-128
  800d4c:	10000826 	beq	r2,zero,800d70 <logic+0x1f4>
  800d50:	e0bffc17 	ldw	r2,-16(fp)
  800d54:	10803683 	ldbu	r2,218(r2)
  800d58:	10803fcc 	andi	r2,r2,255
  800d5c:	1080201c 	xori	r2,r2,128
  800d60:	10bfe004 	addi	r2,r2,-128
  800d64:	1000021e 	bne	r2,zero,800d70 <logic+0x1f4>
  800d68:	00800044 	movi	r2,1
  800d6c:	00000106 	br	800d74 <logic+0x1f8>
  800d70:	0005883a 	mov	r2,zero
  800d74:	1007883a 	mov	r3,r2
  800d78:	e0bffc17 	ldw	r2,-16(fp)
  800d7c:	10c01e85 	stb	r3,122(r2)
  d->_cg22 = d->_region0_LRI_x >= d->LRI;
  800d80:	e0bffc17 	ldw	r2,-16(fp)
  800d84:	14000617 	ldw	r16,24(r2)
  800d88:	14400717 	ldw	r17,28(r2)
  800d8c:	e0bffc17 	ldw	r2,-16(fp)
  800d90:	10800417 	ldw	r2,16(r2)
  800d94:	1009883a 	mov	r4,r2
  800d98:	0806b740 	call	806b74 <__floatsidf>
  800d9c:	1009883a 	mov	r4,r2
  800da0:	180b883a 	mov	r5,r3
  800da4:	04800044 	movi	r18,1
  800da8:	200d883a 	mov	r6,r4
  800dac:	280f883a 	mov	r7,r5
  800db0:	8009883a 	mov	r4,r16
  800db4:	880b883a 	mov	r5,r17
  800db8:	08059900 	call	805990 <__gedf2>
  800dbc:	1000010e 	bge	r2,zero,800dc4 <logic+0x248>
  800dc0:	0025883a 	mov	r18,zero
  800dc4:	9007883a 	mov	r3,r18
  800dc8:	e0bffc17 	ldw	r2,-16(fp)
  800dcc:	10c03645 	stb	r3,217(r2)
  d->_g23 = d->_g22 && d->_cg22;
  800dd0:	e0bffc17 	ldw	r2,-16(fp)
  800dd4:	10801e83 	ldbu	r2,122(r2)
  800dd8:	10803fcc 	andi	r2,r2,255
  800ddc:	1080201c 	xori	r2,r2,128
  800de0:	10bfe004 	addi	r2,r2,-128
  800de4:	10000826 	beq	r2,zero,800e08 <logic+0x28c>
  800de8:	e0bffc17 	ldw	r2,-16(fp)
  800dec:	10803643 	ldbu	r2,217(r2)
  800df0:	10803fcc 	andi	r2,r2,255
  800df4:	1080201c 	xori	r2,r2,128
  800df8:	10bfe004 	addi	r2,r2,-128
  800dfc:	10000226 	beq	r2,zero,800e08 <logic+0x28c>
  800e00:	00800044 	movi	r2,1
  800e04:	00000106 	br	800e0c <logic+0x290>
  800e08:	0005883a 	mov	r2,zero
  800e0c:	1007883a 	mov	r3,r2
  800e10:	e0bffc17 	ldw	r2,-16(fp)
  800e14:	10c01ec5 	stb	r3,123(r2)
  if (d->_g23) {
  800e18:	e0bffc17 	ldw	r2,-16(fp)
  800e1c:	10801ec3 	ldbu	r2,123(r2)
  800e20:	10803fcc 	andi	r2,r2,255
  800e24:	1080201c 	xori	r2,r2,128
  800e28:	10bfe004 	addi	r2,r2,-128
  800e2c:	10000326 	beq	r2,zero,800e3c <logic+0x2c0>
    d->_Pacemaker_local__Atrig1 = 1;
  800e30:	e0bffc17 	ldw	r2,-16(fp)
  800e34:	00c00044 	movi	r3,1
  800e38:	10c01905 	stb	r3,100(r2)
  }
  d->sleepT = 1000.0;
  800e3c:	e0fffc17 	ldw	r3,-16(fp)
  800e40:	18001415 	stw	zero,80(r3)
  800e44:	009023f4 	movhi	r2,16527
  800e48:	10900004 	addi	r2,r2,16384
  800e4c:	18801515 	stw	r2,84(r3)
  d->_g15 = d->_g9 || d->_g15;
  800e50:	e0bffc17 	ldw	r2,-16(fp)
  800e54:	10801c03 	ldbu	r2,112(r2)
  800e58:	10803fcc 	andi	r2,r2,255
  800e5c:	1080201c 	xori	r2,r2,128
  800e60:	10bfe004 	addi	r2,r2,-128
  800e64:	1000061e 	bne	r2,zero,800e80 <logic+0x304>
  800e68:	e0bffc17 	ldw	r2,-16(fp)
  800e6c:	10801d43 	ldbu	r2,117(r2)
  800e70:	10803fcc 	andi	r2,r2,255
  800e74:	1080201c 	xori	r2,r2,128
  800e78:	10bfe004 	addi	r2,r2,-128
  800e7c:	10000226 	beq	r2,zero,800e88 <logic+0x30c>
  800e80:	00800044 	movi	r2,1
  800e84:	00000106 	br	800e8c <logic+0x310>
  800e88:	0005883a 	mov	r2,zero
  800e8c:	1007883a 	mov	r3,r2
  800e90:	e0bffc17 	ldw	r2,-16(fp)
  800e94:	10c01d45 	stb	r3,117(r2)
  d->_cg10 = d->_region0_LRI_x < d->LRI;
  800e98:	e0bffc17 	ldw	r2,-16(fp)
  800e9c:	14000617 	ldw	r16,24(r2)
  800ea0:	14400717 	ldw	r17,28(r2)
  800ea4:	e0bffc17 	ldw	r2,-16(fp)
  800ea8:	10800417 	ldw	r2,16(r2)
  800eac:	1009883a 	mov	r4,r2
  800eb0:	0806b740 	call	806b74 <__floatsidf>
  800eb4:	1009883a 	mov	r4,r2
  800eb8:	180b883a 	mov	r5,r3
  800ebc:	04800044 	movi	r18,1
  800ec0:	200d883a 	mov	r6,r4
  800ec4:	280f883a 	mov	r7,r5
  800ec8:	8009883a 	mov	r4,r16
  800ecc:	880b883a 	mov	r5,r17
  800ed0:	0805a6c0 	call	805a6c <__ledf2>
  800ed4:	10000116 	blt	r2,zero,800edc <logic+0x360>
  800ed8:	0025883a 	mov	r18,zero
  800edc:	9007883a 	mov	r3,r18
  800ee0:	e0bffc17 	ldw	r2,-16(fp)
  800ee4:	10c03585 	stb	r3,214(r2)
  d->_g9 = d->_g15 && d->_cg10;
  800ee8:	e0bffc17 	ldw	r2,-16(fp)
  800eec:	10801d43 	ldbu	r2,117(r2)
  800ef0:	10803fcc 	andi	r2,r2,255
  800ef4:	1080201c 	xori	r2,r2,128
  800ef8:	10bfe004 	addi	r2,r2,-128
  800efc:	10000826 	beq	r2,zero,800f20 <logic+0x3a4>
  800f00:	e0bffc17 	ldw	r2,-16(fp)
  800f04:	10803583 	ldbu	r2,214(r2)
  800f08:	10803fcc 	andi	r2,r2,255
  800f0c:	1080201c 	xori	r2,r2,128
  800f10:	10bfe004 	addi	r2,r2,-128
  800f14:	10000226 	beq	r2,zero,800f20 <logic+0x3a4>
  800f18:	00800044 	movi	r2,1
  800f1c:	00000106 	br	800f24 <logic+0x3a8>
  800f20:	0005883a 	mov	r2,zero
  800f24:	1007883a 	mov	r3,r2
  800f28:	e0bffc17 	ldw	r2,-16(fp)
  800f2c:	10c01c05 	stb	r3,112(r2)
  if (d->_g9) {
  800f30:	e0bffc17 	ldw	r2,-16(fp)
  800f34:	10801c03 	ldbu	r2,112(r2)
  800f38:	10803fcc 	andi	r2,r2,255
  800f3c:	1080201c 	xori	r2,r2,128
  800f40:	10bfe004 	addi	r2,r2,-128
  800f44:	10003426 	beq	r2,zero,801018 <logic+0x49c>
    d->sleepT = (d->sleepT < (d->LRI - d->_region0_LRI_x)) ? d->sleepT : (d->LRI - d->_region0_LRI_x);
  800f48:	e0bffc17 	ldw	r2,-16(fp)
  800f4c:	14001417 	ldw	r16,80(r2)
  800f50:	14401517 	ldw	r17,84(r2)
  800f54:	e0bffc17 	ldw	r2,-16(fp)
  800f58:	10800417 	ldw	r2,16(r2)
  800f5c:	1009883a 	mov	r4,r2
  800f60:	0806b740 	call	806b74 <__floatsidf>
  800f64:	1011883a 	mov	r8,r2
  800f68:	1813883a 	mov	r9,r3
  800f6c:	e13ffc17 	ldw	r4,-16(fp)
  800f70:	20800617 	ldw	r2,24(r4)
  800f74:	20c00717 	ldw	r3,28(r4)
  800f78:	100d883a 	mov	r6,r2
  800f7c:	180f883a 	mov	r7,r3
  800f80:	4009883a 	mov	r4,r8
  800f84:	480b883a 	mov	r5,r9
  800f88:	08062780 	call	806278 <__subdf3>
  800f8c:	1009883a 	mov	r4,r2
  800f90:	180b883a 	mov	r5,r3
  800f94:	2005883a 	mov	r2,r4
  800f98:	2807883a 	mov	r3,r5
  800f9c:	100d883a 	mov	r6,r2
  800fa0:	180f883a 	mov	r7,r3
  800fa4:	8009883a 	mov	r4,r16
  800fa8:	880b883a 	mov	r5,r17
  800fac:	0805a6c0 	call	805a6c <__ledf2>
  800fb0:	1000040e 	bge	r2,zero,800fc4 <logic+0x448>
  800fb4:	e13ffc17 	ldw	r4,-16(fp)
  800fb8:	20801417 	ldw	r2,80(r4)
  800fbc:	20c01517 	ldw	r3,84(r4)
  800fc0:	00001206 	br	80100c <logic+0x490>
  800fc4:	e0bffc17 	ldw	r2,-16(fp)
  800fc8:	10800417 	ldw	r2,16(r2)
  800fcc:	1009883a 	mov	r4,r2
  800fd0:	0806b740 	call	806b74 <__floatsidf>
  800fd4:	1011883a 	mov	r8,r2
  800fd8:	1813883a 	mov	r9,r3
  800fdc:	e13ffc17 	ldw	r4,-16(fp)
  800fe0:	20800617 	ldw	r2,24(r4)
  800fe4:	20c00717 	ldw	r3,28(r4)
  800fe8:	100d883a 	mov	r6,r2
  800fec:	180f883a 	mov	r7,r3
  800ff0:	4009883a 	mov	r4,r8
  800ff4:	480b883a 	mov	r5,r9
  800ff8:	08062780 	call	806278 <__subdf3>
  800ffc:	1009883a 	mov	r4,r2
  801000:	180b883a 	mov	r5,r3
  801004:	2005883a 	mov	r2,r4
  801008:	2807883a 	mov	r3,r5
  80100c:	e13ffc17 	ldw	r4,-16(fp)
  801010:	20801415 	stw	r2,80(r4)
  801014:	20c01515 	stw	r3,84(r4)
  }
  d->_cg11 = d->_Pacemaker_local__Atrig || d->_Pacemaker_local__Atrig1;
  801018:	e0bffc17 	ldw	r2,-16(fp)
  80101c:	108018c3 	ldbu	r2,99(r2)
  801020:	10803fcc 	andi	r2,r2,255
  801024:	1080201c 	xori	r2,r2,128
  801028:	10bfe004 	addi	r2,r2,-128
  80102c:	1000061e 	bne	r2,zero,801048 <logic+0x4cc>
  801030:	e0bffc17 	ldw	r2,-16(fp)
  801034:	10801903 	ldbu	r2,100(r2)
  801038:	10803fcc 	andi	r2,r2,255
  80103c:	1080201c 	xori	r2,r2,128
  801040:	10bfe004 	addi	r2,r2,-128
  801044:	10000226 	beq	r2,zero,801050 <logic+0x4d4>
  801048:	00800044 	movi	r2,1
  80104c:	00000106 	br	801054 <logic+0x4d8>
  801050:	0005883a 	mov	r2,zero
  801054:	1007883a 	mov	r3,r2
  801058:	e0bffc17 	ldw	r2,-16(fp)
  80105c:	10c03545 	stb	r3,213(r2)
  d->_g10 = d->_g15 && !d->_cg10;
  801060:	e0bffc17 	ldw	r2,-16(fp)
  801064:	10801d43 	ldbu	r2,117(r2)
  801068:	10803fcc 	andi	r2,r2,255
  80106c:	1080201c 	xori	r2,r2,128
  801070:	10bfe004 	addi	r2,r2,-128
  801074:	10000826 	beq	r2,zero,801098 <logic+0x51c>
  801078:	e0bffc17 	ldw	r2,-16(fp)
  80107c:	10803583 	ldbu	r2,214(r2)
  801080:	10803fcc 	andi	r2,r2,255
  801084:	1080201c 	xori	r2,r2,128
  801088:	10bfe004 	addi	r2,r2,-128
  80108c:	1000021e 	bne	r2,zero,801098 <logic+0x51c>
  801090:	00800044 	movi	r2,1
  801094:	00000106 	br	80109c <logic+0x520>
  801098:	0005883a 	mov	r2,zero
  80109c:	1007883a 	mov	r3,r2
  8010a0:	e0bffc17 	ldw	r2,-16(fp)
  8010a4:	10c01c45 	stb	r3,113(r2)
  d->_cg13 = d->_Pacemaker_local__Atrig || d->_Pacemaker_local__Atrig1;
  8010a8:	e0bffc17 	ldw	r2,-16(fp)
  8010ac:	108018c3 	ldbu	r2,99(r2)
  8010b0:	10803fcc 	andi	r2,r2,255
  8010b4:	1080201c 	xori	r2,r2,128
  8010b8:	10bfe004 	addi	r2,r2,-128
  8010bc:	1000061e 	bne	r2,zero,8010d8 <logic+0x55c>
  8010c0:	e0bffc17 	ldw	r2,-16(fp)
  8010c4:	10801903 	ldbu	r2,100(r2)
  8010c8:	10803fcc 	andi	r2,r2,255
  8010cc:	1080201c 	xori	r2,r2,128
  8010d0:	10bfe004 	addi	r2,r2,-128
  8010d4:	10000226 	beq	r2,zero,8010e0 <logic+0x564>
  8010d8:	00800044 	movi	r2,1
  8010dc:	00000106 	br	8010e4 <logic+0x568>
  8010e0:	0005883a 	mov	r2,zero
  8010e4:	1007883a 	mov	r3,r2
  8010e8:	e0bffc17 	ldw	r2,-16(fp)
  8010ec:	10c035c5 	stb	r3,215(r2)
  d->_g12 = (d->_g9 && d->_cg11) || (d->_g10 && d->_cg13);
  8010f0:	e0bffc17 	ldw	r2,-16(fp)
  8010f4:	10801c03 	ldbu	r2,112(r2)
  8010f8:	10803fcc 	andi	r2,r2,255
  8010fc:	1080201c 	xori	r2,r2,128
  801100:	10bfe004 	addi	r2,r2,-128
  801104:	10000626 	beq	r2,zero,801120 <logic+0x5a4>
  801108:	e0bffc17 	ldw	r2,-16(fp)
  80110c:	10803543 	ldbu	r2,213(r2)
  801110:	10803fcc 	andi	r2,r2,255
  801114:	1080201c 	xori	r2,r2,128
  801118:	10bfe004 	addi	r2,r2,-128
  80111c:	10000c1e 	bne	r2,zero,801150 <logic+0x5d4>
  801120:	e0bffc17 	ldw	r2,-16(fp)
  801124:	10801c43 	ldbu	r2,113(r2)
  801128:	10803fcc 	andi	r2,r2,255
  80112c:	1080201c 	xori	r2,r2,128
  801130:	10bfe004 	addi	r2,r2,-128
  801134:	10000826 	beq	r2,zero,801158 <logic+0x5dc>
  801138:	e0bffc17 	ldw	r2,-16(fp)
  80113c:	108035c3 	ldbu	r2,215(r2)
  801140:	10803fcc 	andi	r2,r2,255
  801144:	1080201c 	xori	r2,r2,128
  801148:	10bfe004 	addi	r2,r2,-128
  80114c:	10000226 	beq	r2,zero,801158 <logic+0x5dc>
  801150:	00800044 	movi	r2,1
  801154:	00000106 	br	80115c <logic+0x5e0>
  801158:	0005883a 	mov	r2,zero
  80115c:	1007883a 	mov	r3,r2
  801160:	e0bffc17 	ldw	r2,-16(fp)
  801164:	10c01cc5 	stb	r3,115(r2)
  d->_g19 = !d->_g19;
  801168:	e0bffc17 	ldw	r2,-16(fp)
  80116c:	10801dc3 	ldbu	r2,119(r2)
  801170:	10803fcc 	andi	r2,r2,255
  801174:	1080201c 	xori	r2,r2,128
  801178:	10bfe004 	addi	r2,r2,-128
  80117c:	1005003a 	cmpeq	r2,r2,zero
  801180:	1007883a 	mov	r3,r2
  801184:	e0bffc17 	ldw	r2,-16(fp)
  801188:	10c01dc5 	stb	r3,119(r2)
  d->_g23 = d->_g20 || d->_g23;
  80118c:	e0bffc17 	ldw	r2,-16(fp)
  801190:	10801e03 	ldbu	r2,120(r2)
  801194:	10803fcc 	andi	r2,r2,255
  801198:	1080201c 	xori	r2,r2,128
  80119c:	10bfe004 	addi	r2,r2,-128
  8011a0:	1000061e 	bne	r2,zero,8011bc <logic+0x640>
  8011a4:	e0bffc17 	ldw	r2,-16(fp)
  8011a8:	10801ec3 	ldbu	r2,123(r2)
  8011ac:	10803fcc 	andi	r2,r2,255
  8011b0:	1080201c 	xori	r2,r2,128
  8011b4:	10bfe004 	addi	r2,r2,-128
  8011b8:	10000226 	beq	r2,zero,8011c4 <logic+0x648>
  8011bc:	00800044 	movi	r2,1
  8011c0:	00000106 	br	8011c8 <logic+0x64c>
  8011c4:	0005883a 	mov	r2,zero
  8011c8:	1007883a 	mov	r3,r2
  8011cc:	e0bffc17 	ldw	r2,-16(fp)
  8011d0:	10c01ec5 	stb	r3,123(r2)
  d->_g20 = (d->_g12_e1 || d->_g12) && (d->_g19 || d->_g23) && (d->_g12 || d->_g23);
  8011d4:	e0bffc17 	ldw	r2,-16(fp)
  8011d8:	10804043 	ldbu	r2,257(r2)
  8011dc:	10803fcc 	andi	r2,r2,255
  8011e0:	1080201c 	xori	r2,r2,128
  8011e4:	10bfe004 	addi	r2,r2,-128
  8011e8:	1000061e 	bne	r2,zero,801204 <logic+0x688>
  8011ec:	e0bffc17 	ldw	r2,-16(fp)
  8011f0:	10801cc3 	ldbu	r2,115(r2)
  8011f4:	10803fcc 	andi	r2,r2,255
  8011f8:	1080201c 	xori	r2,r2,128
  8011fc:	10bfe004 	addi	r2,r2,-128
  801200:	10001a26 	beq	r2,zero,80126c <logic+0x6f0>
  801204:	e0bffc17 	ldw	r2,-16(fp)
  801208:	10801dc3 	ldbu	r2,119(r2)
  80120c:	10803fcc 	andi	r2,r2,255
  801210:	1080201c 	xori	r2,r2,128
  801214:	10bfe004 	addi	r2,r2,-128
  801218:	1000061e 	bne	r2,zero,801234 <logic+0x6b8>
  80121c:	e0bffc17 	ldw	r2,-16(fp)
  801220:	10801ec3 	ldbu	r2,123(r2)
  801224:	10803fcc 	andi	r2,r2,255
  801228:	1080201c 	xori	r2,r2,128
  80122c:	10bfe004 	addi	r2,r2,-128
  801230:	10000e26 	beq	r2,zero,80126c <logic+0x6f0>
  801234:	e0bffc17 	ldw	r2,-16(fp)
  801238:	10801cc3 	ldbu	r2,115(r2)
  80123c:	10803fcc 	andi	r2,r2,255
  801240:	1080201c 	xori	r2,r2,128
  801244:	10bfe004 	addi	r2,r2,-128
  801248:	1000061e 	bne	r2,zero,801264 <logic+0x6e8>
  80124c:	e0bffc17 	ldw	r2,-16(fp)
  801250:	10801ec3 	ldbu	r2,123(r2)
  801254:	10803fcc 	andi	r2,r2,255
  801258:	1080201c 	xori	r2,r2,128
  80125c:	10bfe004 	addi	r2,r2,-128
  801260:	10000226 	beq	r2,zero,80126c <logic+0x6f0>
  801264:	00800044 	movi	r2,1
  801268:	00000106 	br	801270 <logic+0x6f4>
  80126c:	0005883a 	mov	r2,zero
  801270:	1007883a 	mov	r3,r2
  801274:	e0bffc17 	ldw	r2,-16(fp)
  801278:	10c01e05 	stb	r3,120(r2)
  d->_cg24 = d->_Pacemaker_local__Atrig;
  80127c:	e0bffc17 	ldw	r2,-16(fp)
  801280:	10c018c3 	ldbu	r3,99(r2)
  801284:	e0bffc17 	ldw	r2,-16(fp)
  801288:	10c03485 	stb	r3,210(r2)
  d->_g21 = d->_g20 && !d->_cg24;
  80128c:	e0bffc17 	ldw	r2,-16(fp)
  801290:	10801e03 	ldbu	r2,120(r2)
  801294:	10803fcc 	andi	r2,r2,255
  801298:	1080201c 	xori	r2,r2,128
  80129c:	10bfe004 	addi	r2,r2,-128
  8012a0:	10000826 	beq	r2,zero,8012c4 <logic+0x748>
  8012a4:	e0bffc17 	ldw	r2,-16(fp)
  8012a8:	10803483 	ldbu	r2,210(r2)
  8012ac:	10803fcc 	andi	r2,r2,255
  8012b0:	1080201c 	xori	r2,r2,128
  8012b4:	10bfe004 	addi	r2,r2,-128
  8012b8:	1000021e 	bne	r2,zero,8012c4 <logic+0x748>
  8012bc:	00800044 	movi	r2,1
  8012c0:	00000106 	br	8012c8 <logic+0x74c>
  8012c4:	0005883a 	mov	r2,zero
  8012c8:	1007883a 	mov	r3,r2
  8012cc:	e0bffc17 	ldw	r2,-16(fp)
  8012d0:	10c01e45 	stb	r3,121(r2)
  if (d->_g21) {
  8012d4:	e0bffc17 	ldw	r2,-16(fp)
  8012d8:	10801e43 	ldbu	r2,121(r2)
  8012dc:	10803fcc 	andi	r2,r2,255
  8012e0:	1080201c 	xori	r2,r2,128
  8012e4:	10bfe004 	addi	r2,r2,-128
  8012e8:	10000626 	beq	r2,zero,801304 <logic+0x788>
    d->VP |= 1;
  8012ec:	e0bffc17 	ldw	r2,-16(fp)
  8012f0:	108016c3 	ldbu	r2,91(r2)
  8012f4:	10800054 	ori	r2,r2,1
  8012f8:	1007883a 	mov	r3,r2
  8012fc:	e0bffc17 	ldw	r2,-16(fp)
  801300:	10c016c5 	stb	r3,91(r2)
  }
  d->_g12 = d->_pg34;
  801304:	e0bffc17 	ldw	r2,-16(fp)
  801308:	10c044c3 	ldbu	r3,275(r2)
  80130c:	e0bffc17 	ldw	r2,-16(fp)
  801310:	10c01cc5 	stb	r3,115(r2)
  if (d->_g12) {
  801314:	e0bffc17 	ldw	r2,-16(fp)
  801318:	10801cc3 	ldbu	r2,115(r2)
  80131c:	10803fcc 	andi	r2,r2,255
  801320:	1080201c 	xori	r2,r2,128
  801324:	10bfe004 	addi	r2,r2,-128
  801328:	10000626 	beq	r2,zero,801344 <logic+0x7c8>
    d->URI_timeout |= 1;
  80132c:	e0bffc17 	ldw	r2,-16(fp)
  801330:	10801783 	ldbu	r2,94(r2)
  801334:	10800054 	ori	r2,r2,1
  801338:	1007883a 	mov	r3,r2
  80133c:	e0bffc17 	ldw	r2,-16(fp)
  801340:	10c01785 	stb	r3,94(r2)
  }
  d->_g21_e2 = d->_pg115;
  801344:	e0bffc17 	ldw	r2,-16(fp)
  801348:	10c04503 	ldbu	r3,276(r2)
  80134c:	e0bffc17 	ldw	r2,-16(fp)
  801350:	10c04085 	stb	r3,258(r2)
  d->_g12_e1 = d->_pg74;
  801354:	e0bffc17 	ldw	r2,-16(fp)
  801358:	10c04543 	ldbu	r3,277(r2)
  80135c:	e0bffc17 	ldw	r2,-16(fp)
  801360:	10c04045 	stb	r3,257(r2)
  d->_g101_e1 = !(d->_g21_e2 || d->_g12_e1);
  801364:	e0bffc17 	ldw	r2,-16(fp)
  801368:	10804083 	ldbu	r2,258(r2)
  80136c:	10803fcc 	andi	r2,r2,255
  801370:	1080201c 	xori	r2,r2,128
  801374:	10bfe004 	addi	r2,r2,-128
  801378:	1000081e 	bne	r2,zero,80139c <logic+0x820>
  80137c:	e0bffc17 	ldw	r2,-16(fp)
  801380:	10804043 	ldbu	r2,257(r2)
  801384:	10803fcc 	andi	r2,r2,255
  801388:	1080201c 	xori	r2,r2,128
  80138c:	10bfe004 	addi	r2,r2,-128
  801390:	1000021e 	bne	r2,zero,80139c <logic+0x820>
  801394:	00800044 	movi	r2,1
  801398:	00000106 	br	8013a0 <logic+0x824>
  80139c:	0005883a 	mov	r2,zero
  8013a0:	1007883a 	mov	r3,r2
  8013a4:	e0bffc17 	ldw	r2,-16(fp)
  8013a8:	10c04285 	stb	r3,266(r2)
  d->_g108 = d->_pg93;
  8013ac:	e0bffc17 	ldw	r2,-16(fp)
  8013b0:	10c04583 	ldbu	r3,278(r2)
  8013b4:	e0bffc17 	ldw	r2,-16(fp)
  8013b8:	10c02d05 	stb	r3,180(r2)
  d->_cg108 = d->_pre_v_event;
  8013bc:	e0bffc17 	ldw	r2,-16(fp)
  8013c0:	10c01883 	ldbu	r3,98(r2)
  8013c4:	e0bffc17 	ldw	r2,-16(fp)
  8013c8:	10c03d45 	stb	r3,245(r2)
  d->_g109 = d->_g108 && d->_cg108;
  8013cc:	e0bffc17 	ldw	r2,-16(fp)
  8013d0:	10802d03 	ldbu	r2,180(r2)
  8013d4:	10803fcc 	andi	r2,r2,255
  8013d8:	1080201c 	xori	r2,r2,128
  8013dc:	10bfe004 	addi	r2,r2,-128
  8013e0:	10000826 	beq	r2,zero,801404 <logic+0x888>
  8013e4:	e0bffc17 	ldw	r2,-16(fp)
  8013e8:	10803d43 	ldbu	r2,245(r2)
  8013ec:	10803fcc 	andi	r2,r2,255
  8013f0:	1080201c 	xori	r2,r2,128
  8013f4:	10bfe004 	addi	r2,r2,-128
  8013f8:	10000226 	beq	r2,zero,801404 <logic+0x888>
  8013fc:	00800044 	movi	r2,1
  801400:	00000106 	br	801408 <logic+0x88c>
  801404:	0005883a 	mov	r2,zero
  801408:	1007883a 	mov	r3,r2
  80140c:	e0bffc17 	ldw	r2,-16(fp)
  801410:	10c02d45 	stb	r3,181(r2)
  if (d->_g109) {
  801414:	e0bffc17 	ldw	r2,-16(fp)
  801418:	10802d43 	ldbu	r2,181(r2)
  80141c:	10803fcc 	andi	r2,r2,255
  801420:	1080201c 	xori	r2,r2,128
  801424:	10bfe004 	addi	r2,r2,-128
  801428:	10000326 	beq	r2,zero,801438 <logic+0x8bc>
    d->_Pacemaker_local__Atrig5 = 1;
  80142c:	e0bffc17 	ldw	r2,-16(fp)
  801430:	00c00044 	movi	r3,1
  801434:	10c01a05 	stb	r3,104(r2)
  }
  d->_g166 = d->_pg133;
  801438:	e0bffc17 	ldw	r2,-16(fp)
  80143c:	10c045c3 	ldbu	r3,279(r2)
  801440:	e0bffc17 	ldw	r2,-16(fp)
  801444:	10c03385 	stb	r3,206(r2)
  if (d->_g166) {
  801448:	e0bffc17 	ldw	r2,-16(fp)
  80144c:	10803383 	ldbu	r2,206(r2)
  801450:	10803fcc 	andi	r2,r2,255
  801454:	1080201c 	xori	r2,r2,128
  801458:	10bfe004 	addi	r2,r2,-128
  80145c:	10001226 	beq	r2,zero,8014a8 <logic+0x92c>
    d->_region4_AVI_x += d->deltaT;
  801460:	e13ffc17 	ldw	r4,-16(fp)
  801464:	20800e17 	ldw	r2,56(r4)
  801468:	20c00f17 	ldw	r3,60(r4)
  80146c:	e1bffc17 	ldw	r6,-16(fp)
  801470:	31001217 	ldw	r4,72(r6)
  801474:	31401317 	ldw	r5,76(r6)
  801478:	200d883a 	mov	r6,r4
  80147c:	280f883a 	mov	r7,r5
  801480:	1009883a 	mov	r4,r2
  801484:	180b883a 	mov	r5,r3
  801488:	08050e40 	call	8050e4 <__adddf3>
  80148c:	1009883a 	mov	r4,r2
  801490:	180b883a 	mov	r5,r3
  801494:	2005883a 	mov	r2,r4
  801498:	2807883a 	mov	r3,r5
  80149c:	e13ffc17 	ldw	r4,-16(fp)
  8014a0:	20800e15 	stw	r2,56(r4)
  8014a4:	20c00f15 	stw	r3,60(r4)
  }
  d->_g111 = d->_g108 && !d->_cg108;
  8014a8:	e0bffc17 	ldw	r2,-16(fp)
  8014ac:	10802d03 	ldbu	r2,180(r2)
  8014b0:	10803fcc 	andi	r2,r2,255
  8014b4:	1080201c 	xori	r2,r2,128
  8014b8:	10bfe004 	addi	r2,r2,-128
  8014bc:	10000826 	beq	r2,zero,8014e0 <logic+0x964>
  8014c0:	e0bffc17 	ldw	r2,-16(fp)
  8014c4:	10803d43 	ldbu	r2,245(r2)
  8014c8:	10803fcc 	andi	r2,r2,255
  8014cc:	1080201c 	xori	r2,r2,128
  8014d0:	10bfe004 	addi	r2,r2,-128
  8014d4:	1000021e 	bne	r2,zero,8014e0 <logic+0x964>
  8014d8:	00800044 	movi	r2,1
  8014dc:	00000106 	br	8014e4 <logic+0x968>
  8014e0:	0005883a 	mov	r2,zero
  8014e4:	1007883a 	mov	r3,r2
  8014e8:	e0bffc17 	ldw	r2,-16(fp)
  8014ec:	10c02dc5 	stb	r3,183(r2)
  d->_cg111 = d->_region4_AVI_x >= d->AVI;
  8014f0:	e0bffc17 	ldw	r2,-16(fp)
  8014f4:	14000e17 	ldw	r16,56(r2)
  8014f8:	14400f17 	ldw	r17,60(r2)
  8014fc:	e0bffc17 	ldw	r2,-16(fp)
  801500:	10800017 	ldw	r2,0(r2)
  801504:	1009883a 	mov	r4,r2
  801508:	0806b740 	call	806b74 <__floatsidf>
  80150c:	1009883a 	mov	r4,r2
  801510:	180b883a 	mov	r5,r3
  801514:	04800044 	movi	r18,1
  801518:	200d883a 	mov	r6,r4
  80151c:	280f883a 	mov	r7,r5
  801520:	8009883a 	mov	r4,r16
  801524:	880b883a 	mov	r5,r17
  801528:	08059900 	call	805990 <__gedf2>
  80152c:	1000010e 	bge	r2,zero,801534 <logic+0x9b8>
  801530:	0025883a 	mov	r18,zero
  801534:	9007883a 	mov	r3,r18
  801538:	e0bffc17 	ldw	r2,-16(fp)
  80153c:	10c03d05 	stb	r3,244(r2)
  d->_g112 = d->_g111 && d->_cg111;
  801540:	e0bffc17 	ldw	r2,-16(fp)
  801544:	10802dc3 	ldbu	r2,183(r2)
  801548:	10803fcc 	andi	r2,r2,255
  80154c:	1080201c 	xori	r2,r2,128
  801550:	10bfe004 	addi	r2,r2,-128
  801554:	10000826 	beq	r2,zero,801578 <logic+0x9fc>
  801558:	e0bffc17 	ldw	r2,-16(fp)
  80155c:	10803d03 	ldbu	r2,244(r2)
  801560:	10803fcc 	andi	r2,r2,255
  801564:	1080201c 	xori	r2,r2,128
  801568:	10bfe004 	addi	r2,r2,-128
  80156c:	10000226 	beq	r2,zero,801578 <logic+0x9fc>
  801570:	00800044 	movi	r2,1
  801574:	00000106 	br	80157c <logic+0xa00>
  801578:	0005883a 	mov	r2,zero
  80157c:	1007883a 	mov	r3,r2
  801580:	e0bffc17 	ldw	r2,-16(fp)
  801584:	10c02e05 	stb	r3,184(r2)
  if (d->_g112) {
  801588:	e0bffc17 	ldw	r2,-16(fp)
  80158c:	10802e03 	ldbu	r2,184(r2)
  801590:	10803fcc 	andi	r2,r2,255
  801594:	1080201c 	xori	r2,r2,128
  801598:	10bfe004 	addi	r2,r2,-128
  80159c:	10000326 	beq	r2,zero,8015ac <logic+0xa30>
    d->_Pacemaker_local__Atrig6 = 1;
  8015a0:	e0bffc17 	ldw	r2,-16(fp)
  8015a4:	00c00044 	movi	r3,1
  8015a8:	10c01a45 	stb	r3,105(r2)
  }
  d->_g98 = d->_g12_e1 || d->_g21_e2;
  8015ac:	e0bffc17 	ldw	r2,-16(fp)
  8015b0:	10804043 	ldbu	r2,257(r2)
  8015b4:	10803fcc 	andi	r2,r2,255
  8015b8:	1080201c 	xori	r2,r2,128
  8015bc:	10bfe004 	addi	r2,r2,-128
  8015c0:	1000061e 	bne	r2,zero,8015dc <logic+0xa60>
  8015c4:	e0bffc17 	ldw	r2,-16(fp)
  8015c8:	10804083 	ldbu	r2,258(r2)
  8015cc:	10803fcc 	andi	r2,r2,255
  8015d0:	1080201c 	xori	r2,r2,128
  8015d4:	10bfe004 	addi	r2,r2,-128
  8015d8:	10000226 	beq	r2,zero,8015e4 <logic+0xa68>
  8015dc:	00800044 	movi	r2,1
  8015e0:	00000106 	br	8015e8 <logic+0xa6c>
  8015e4:	0005883a 	mov	r2,zero
  8015e8:	1007883a 	mov	r3,r2
  8015ec:	e0bffc17 	ldw	r2,-16(fp)
  8015f0:	10c02b45 	stb	r3,173(r2)
  d->_cg99 = d->_region4_AVI_x < d->AVI;
  8015f4:	e0bffc17 	ldw	r2,-16(fp)
  8015f8:	14000e17 	ldw	r16,56(r2)
  8015fc:	14400f17 	ldw	r17,60(r2)
  801600:	e0bffc17 	ldw	r2,-16(fp)
  801604:	10800017 	ldw	r2,0(r2)
  801608:	1009883a 	mov	r4,r2
  80160c:	0806b740 	call	806b74 <__floatsidf>
  801610:	1009883a 	mov	r4,r2
  801614:	180b883a 	mov	r5,r3
  801618:	04800044 	movi	r18,1
  80161c:	200d883a 	mov	r6,r4
  801620:	280f883a 	mov	r7,r5
  801624:	8009883a 	mov	r4,r16
  801628:	880b883a 	mov	r5,r17
  80162c:	0805a6c0 	call	805a6c <__ledf2>
  801630:	10000116 	blt	r2,zero,801638 <logic+0xabc>
  801634:	0025883a 	mov	r18,zero
  801638:	9007883a 	mov	r3,r18
  80163c:	e0bffc17 	ldw	r2,-16(fp)
  801640:	10c03c45 	stb	r3,241(r2)
  d->_g104 = d->_g98 && d->_cg99;
  801644:	e0bffc17 	ldw	r2,-16(fp)
  801648:	10802b43 	ldbu	r2,173(r2)
  80164c:	10803fcc 	andi	r2,r2,255
  801650:	1080201c 	xori	r2,r2,128
  801654:	10bfe004 	addi	r2,r2,-128
  801658:	10000826 	beq	r2,zero,80167c <logic+0xb00>
  80165c:	e0bffc17 	ldw	r2,-16(fp)
  801660:	10803c43 	ldbu	r2,241(r2)
  801664:	10803fcc 	andi	r2,r2,255
  801668:	1080201c 	xori	r2,r2,128
  80166c:	10bfe004 	addi	r2,r2,-128
  801670:	10000226 	beq	r2,zero,80167c <logic+0xb00>
  801674:	00800044 	movi	r2,1
  801678:	00000106 	br	801680 <logic+0xb04>
  80167c:	0005883a 	mov	r2,zero
  801680:	1007883a 	mov	r3,r2
  801684:	e0bffc17 	ldw	r2,-16(fp)
  801688:	10c02c85 	stb	r3,178(r2)
  if (d->_g104) {
  80168c:	e0bffc17 	ldw	r2,-16(fp)
  801690:	10802c83 	ldbu	r2,178(r2)
  801694:	10803fcc 	andi	r2,r2,255
  801698:	1080201c 	xori	r2,r2,128
  80169c:	10bfe004 	addi	r2,r2,-128
  8016a0:	10003426 	beq	r2,zero,801774 <logic+0xbf8>
    d->sleepT = (d->sleepT < (d->AVI - d->_region4_AVI_x)) ? d->sleepT : (d->AVI - d->_region4_AVI_x);
  8016a4:	e0bffc17 	ldw	r2,-16(fp)
  8016a8:	14001417 	ldw	r16,80(r2)
  8016ac:	14401517 	ldw	r17,84(r2)
  8016b0:	e0bffc17 	ldw	r2,-16(fp)
  8016b4:	10800017 	ldw	r2,0(r2)
  8016b8:	1009883a 	mov	r4,r2
  8016bc:	0806b740 	call	806b74 <__floatsidf>
  8016c0:	1011883a 	mov	r8,r2
  8016c4:	1813883a 	mov	r9,r3
  8016c8:	e13ffc17 	ldw	r4,-16(fp)
  8016cc:	20800e17 	ldw	r2,56(r4)
  8016d0:	20c00f17 	ldw	r3,60(r4)
  8016d4:	100d883a 	mov	r6,r2
  8016d8:	180f883a 	mov	r7,r3
  8016dc:	4009883a 	mov	r4,r8
  8016e0:	480b883a 	mov	r5,r9
  8016e4:	08062780 	call	806278 <__subdf3>
  8016e8:	1009883a 	mov	r4,r2
  8016ec:	180b883a 	mov	r5,r3
  8016f0:	2005883a 	mov	r2,r4
  8016f4:	2807883a 	mov	r3,r5
  8016f8:	100d883a 	mov	r6,r2
  8016fc:	180f883a 	mov	r7,r3
  801700:	8009883a 	mov	r4,r16
  801704:	880b883a 	mov	r5,r17
  801708:	0805a6c0 	call	805a6c <__ledf2>
  80170c:	1000040e 	bge	r2,zero,801720 <logic+0xba4>
  801710:	e13ffc17 	ldw	r4,-16(fp)
  801714:	20801417 	ldw	r2,80(r4)
  801718:	20c01517 	ldw	r3,84(r4)
  80171c:	00001206 	br	801768 <logic+0xbec>
  801720:	e0bffc17 	ldw	r2,-16(fp)
  801724:	10800017 	ldw	r2,0(r2)
  801728:	1009883a 	mov	r4,r2
  80172c:	0806b740 	call	806b74 <__floatsidf>
  801730:	1011883a 	mov	r8,r2
  801734:	1813883a 	mov	r9,r3
  801738:	e13ffc17 	ldw	r4,-16(fp)
  80173c:	20800e17 	ldw	r2,56(r4)
  801740:	20c00f17 	ldw	r3,60(r4)
  801744:	100d883a 	mov	r6,r2
  801748:	180f883a 	mov	r7,r3
  80174c:	4009883a 	mov	r4,r8
  801750:	480b883a 	mov	r5,r9
  801754:	08062780 	call	806278 <__subdf3>
  801758:	1009883a 	mov	r4,r2
  80175c:	180b883a 	mov	r5,r3
  801760:	2005883a 	mov	r2,r4
  801764:	2807883a 	mov	r3,r5
  801768:	e13ffc17 	ldw	r4,-16(fp)
  80176c:	20801415 	stw	r2,80(r4)
  801770:	20c01515 	stw	r3,84(r4)
  }
  d->_cg100 = d->_Pacemaker_local__Atrig5 || d->_Pacemaker_local__Atrig6;
  801774:	e0bffc17 	ldw	r2,-16(fp)
  801778:	10801a03 	ldbu	r2,104(r2)
  80177c:	10803fcc 	andi	r2,r2,255
  801780:	1080201c 	xori	r2,r2,128
  801784:	10bfe004 	addi	r2,r2,-128
  801788:	1000061e 	bne	r2,zero,8017a4 <logic+0xc28>
  80178c:	e0bffc17 	ldw	r2,-16(fp)
  801790:	10801a43 	ldbu	r2,105(r2)
  801794:	10803fcc 	andi	r2,r2,255
  801798:	1080201c 	xori	r2,r2,128
  80179c:	10bfe004 	addi	r2,r2,-128
  8017a0:	10000226 	beq	r2,zero,8017ac <logic+0xc30>
  8017a4:	00800044 	movi	r2,1
  8017a8:	00000106 	br	8017b0 <logic+0xc34>
  8017ac:	0005883a 	mov	r2,zero
  8017b0:	1007883a 	mov	r3,r2
  8017b4:	e0bffc17 	ldw	r2,-16(fp)
  8017b8:	10c03c05 	stb	r3,240(r2)
  d->_g99 = d->_g98 && !d->_cg99;
  8017bc:	e0bffc17 	ldw	r2,-16(fp)
  8017c0:	10802b43 	ldbu	r2,173(r2)
  8017c4:	10803fcc 	andi	r2,r2,255
  8017c8:	1080201c 	xori	r2,r2,128
  8017cc:	10bfe004 	addi	r2,r2,-128
  8017d0:	10000826 	beq	r2,zero,8017f4 <logic+0xc78>
  8017d4:	e0bffc17 	ldw	r2,-16(fp)
  8017d8:	10803c43 	ldbu	r2,241(r2)
  8017dc:	10803fcc 	andi	r2,r2,255
  8017e0:	1080201c 	xori	r2,r2,128
  8017e4:	10bfe004 	addi	r2,r2,-128
  8017e8:	1000021e 	bne	r2,zero,8017f4 <logic+0xc78>
  8017ec:	00800044 	movi	r2,1
  8017f0:	00000106 	br	8017f8 <logic+0xc7c>
  8017f4:	0005883a 	mov	r2,zero
  8017f8:	1007883a 	mov	r3,r2
  8017fc:	e0bffc17 	ldw	r2,-16(fp)
  801800:	10c02b85 	stb	r3,174(r2)
  d->_cg102 = d->_Pacemaker_local__Atrig5 || d->_Pacemaker_local__Atrig6;
  801804:	e0bffc17 	ldw	r2,-16(fp)
  801808:	10801a03 	ldbu	r2,104(r2)
  80180c:	10803fcc 	andi	r2,r2,255
  801810:	1080201c 	xori	r2,r2,128
  801814:	10bfe004 	addi	r2,r2,-128
  801818:	1000061e 	bne	r2,zero,801834 <logic+0xcb8>
  80181c:	e0bffc17 	ldw	r2,-16(fp)
  801820:	10801a43 	ldbu	r2,105(r2)
  801824:	10803fcc 	andi	r2,r2,255
  801828:	1080201c 	xori	r2,r2,128
  80182c:	10bfe004 	addi	r2,r2,-128
  801830:	10000226 	beq	r2,zero,80183c <logic+0xcc0>
  801834:	00800044 	movi	r2,1
  801838:	00000106 	br	801840 <logic+0xcc4>
  80183c:	0005883a 	mov	r2,zero
  801840:	1007883a 	mov	r3,r2
  801844:	e0bffc17 	ldw	r2,-16(fp)
  801848:	10c03c85 	stb	r3,242(r2)
  d->_g101 = (d->_g104 && d->_cg100) || (d->_g99 && d->_cg102);
  80184c:	e0bffc17 	ldw	r2,-16(fp)
  801850:	10802c83 	ldbu	r2,178(r2)
  801854:	10803fcc 	andi	r2,r2,255
  801858:	1080201c 	xori	r2,r2,128
  80185c:	10bfe004 	addi	r2,r2,-128
  801860:	10000626 	beq	r2,zero,80187c <logic+0xd00>
  801864:	e0bffc17 	ldw	r2,-16(fp)
  801868:	10803c03 	ldbu	r2,240(r2)
  80186c:	10803fcc 	andi	r2,r2,255
  801870:	1080201c 	xori	r2,r2,128
  801874:	10bfe004 	addi	r2,r2,-128
  801878:	10000c1e 	bne	r2,zero,8018ac <logic+0xd30>
  80187c:	e0bffc17 	ldw	r2,-16(fp)
  801880:	10802b83 	ldbu	r2,174(r2)
  801884:	10803fcc 	andi	r2,r2,255
  801888:	1080201c 	xori	r2,r2,128
  80188c:	10bfe004 	addi	r2,r2,-128
  801890:	10000826 	beq	r2,zero,8018b4 <logic+0xd38>
  801894:	e0bffc17 	ldw	r2,-16(fp)
  801898:	10803c83 	ldbu	r2,242(r2)
  80189c:	10803fcc 	andi	r2,r2,255
  8018a0:	1080201c 	xori	r2,r2,128
  8018a4:	10bfe004 	addi	r2,r2,-128
  8018a8:	10000226 	beq	r2,zero,8018b4 <logic+0xd38>
  8018ac:	00800044 	movi	r2,1
  8018b0:	00000106 	br	8018b8 <logic+0xd3c>
  8018b4:	0005883a 	mov	r2,zero
  8018b8:	1007883a 	mov	r3,r2
  8018bc:	e0bffc17 	ldw	r2,-16(fp)
  8018c0:	10c02c05 	stb	r3,176(r2)
  d->_g108 = !d->_g108;
  8018c4:	e0bffc17 	ldw	r2,-16(fp)
  8018c8:	10802d03 	ldbu	r2,180(r2)
  8018cc:	10803fcc 	andi	r2,r2,255
  8018d0:	1080201c 	xori	r2,r2,128
  8018d4:	10bfe004 	addi	r2,r2,-128
  8018d8:	1005003a 	cmpeq	r2,r2,zero
  8018dc:	1007883a 	mov	r3,r2
  8018e0:	e0bffc17 	ldw	r2,-16(fp)
  8018e4:	10c02d05 	stb	r3,180(r2)
  d->_g112 = d->_g109 || d->_g112;
  8018e8:	e0bffc17 	ldw	r2,-16(fp)
  8018ec:	10802d43 	ldbu	r2,181(r2)
  8018f0:	10803fcc 	andi	r2,r2,255
  8018f4:	1080201c 	xori	r2,r2,128
  8018f8:	10bfe004 	addi	r2,r2,-128
  8018fc:	1000061e 	bne	r2,zero,801918 <logic+0xd9c>
  801900:	e0bffc17 	ldw	r2,-16(fp)
  801904:	10802e03 	ldbu	r2,184(r2)
  801908:	10803fcc 	andi	r2,r2,255
  80190c:	1080201c 	xori	r2,r2,128
  801910:	10bfe004 	addi	r2,r2,-128
  801914:	10000226 	beq	r2,zero,801920 <logic+0xda4>
  801918:	00800044 	movi	r2,1
  80191c:	00000106 	br	801924 <logic+0xda8>
  801920:	0005883a 	mov	r2,zero
  801924:	1007883a 	mov	r3,r2
  801928:	e0bffc17 	ldw	r2,-16(fp)
  80192c:	10c02e05 	stb	r3,184(r2)
  d->_g109 = (d->_g101_e1 || d->_g101) && (d->_g108 || d->_g112) && (d->_g101 || d->_g112);
  801930:	e0bffc17 	ldw	r2,-16(fp)
  801934:	10804283 	ldbu	r2,266(r2)
  801938:	10803fcc 	andi	r2,r2,255
  80193c:	1080201c 	xori	r2,r2,128
  801940:	10bfe004 	addi	r2,r2,-128
  801944:	1000061e 	bne	r2,zero,801960 <logic+0xde4>
  801948:	e0bffc17 	ldw	r2,-16(fp)
  80194c:	10802c03 	ldbu	r2,176(r2)
  801950:	10803fcc 	andi	r2,r2,255
  801954:	1080201c 	xori	r2,r2,128
  801958:	10bfe004 	addi	r2,r2,-128
  80195c:	10001a26 	beq	r2,zero,8019c8 <logic+0xe4c>
  801960:	e0bffc17 	ldw	r2,-16(fp)
  801964:	10802d03 	ldbu	r2,180(r2)
  801968:	10803fcc 	andi	r2,r2,255
  80196c:	1080201c 	xori	r2,r2,128
  801970:	10bfe004 	addi	r2,r2,-128
  801974:	1000061e 	bne	r2,zero,801990 <logic+0xe14>
  801978:	e0bffc17 	ldw	r2,-16(fp)
  80197c:	10802e03 	ldbu	r2,184(r2)
  801980:	10803fcc 	andi	r2,r2,255
  801984:	1080201c 	xori	r2,r2,128
  801988:	10bfe004 	addi	r2,r2,-128
  80198c:	10000e26 	beq	r2,zero,8019c8 <logic+0xe4c>
  801990:	e0bffc17 	ldw	r2,-16(fp)
  801994:	10802c03 	ldbu	r2,176(r2)
  801998:	10803fcc 	andi	r2,r2,255
  80199c:	1080201c 	xori	r2,r2,128
  8019a0:	10bfe004 	addi	r2,r2,-128
  8019a4:	1000061e 	bne	r2,zero,8019c0 <logic+0xe44>
  8019a8:	e0bffc17 	ldw	r2,-16(fp)
  8019ac:	10802e03 	ldbu	r2,184(r2)
  8019b0:	10803fcc 	andi	r2,r2,255
  8019b4:	1080201c 	xori	r2,r2,128
  8019b8:	10bfe004 	addi	r2,r2,-128
  8019bc:	10000226 	beq	r2,zero,8019c8 <logic+0xe4c>
  8019c0:	00800044 	movi	r2,1
  8019c4:	00000106 	br	8019cc <logic+0xe50>
  8019c8:	0005883a 	mov	r2,zero
  8019cc:	1007883a 	mov	r3,r2
  8019d0:	e0bffc17 	ldw	r2,-16(fp)
  8019d4:	10c02d45 	stb	r3,181(r2)
  d->_cg113 = d->_Pacemaker_local__Atrig5;
  8019d8:	e0bffc17 	ldw	r2,-16(fp)
  8019dc:	10c01a03 	ldbu	r3,104(r2)
  8019e0:	e0bffc17 	ldw	r2,-16(fp)
  8019e4:	10c03b05 	stb	r3,236(r2)
  d->_g101 = d->_pg96;
  8019e8:	e0bffc17 	ldw	r2,-16(fp)
  8019ec:	10c04603 	ldbu	r3,280(r2)
  8019f0:	e0bffc17 	ldw	r2,-16(fp)
  8019f4:	10c02c05 	stb	r3,176(r2)
  d->_g110 = (d->_g109 && !d->_cg113) || d->_g101;
  8019f8:	e0bffc17 	ldw	r2,-16(fp)
  8019fc:	10802d43 	ldbu	r2,181(r2)
  801a00:	10803fcc 	andi	r2,r2,255
  801a04:	1080201c 	xori	r2,r2,128
  801a08:	10bfe004 	addi	r2,r2,-128
  801a0c:	10000626 	beq	r2,zero,801a28 <logic+0xeac>
  801a10:	e0bffc17 	ldw	r2,-16(fp)
  801a14:	10803b03 	ldbu	r2,236(r2)
  801a18:	10803fcc 	andi	r2,r2,255
  801a1c:	1080201c 	xori	r2,r2,128
  801a20:	10bfe004 	addi	r2,r2,-128
  801a24:	10000626 	beq	r2,zero,801a40 <logic+0xec4>
  801a28:	e0bffc17 	ldw	r2,-16(fp)
  801a2c:	10802c03 	ldbu	r2,176(r2)
  801a30:	10803fcc 	andi	r2,r2,255
  801a34:	1080201c 	xori	r2,r2,128
  801a38:	10bfe004 	addi	r2,r2,-128
  801a3c:	10000226 	beq	r2,zero,801a48 <logic+0xecc>
  801a40:	00800044 	movi	r2,1
  801a44:	00000106 	br	801a4c <logic+0xed0>
  801a48:	0005883a 	mov	r2,zero
  801a4c:	1007883a 	mov	r3,r2
  801a50:	e0bffc17 	ldw	r2,-16(fp)
  801a54:	10c02d85 	stb	r3,182(r2)
  d->_cg114 = !d->URI_timeout;
  801a58:	e0bffc17 	ldw	r2,-16(fp)
  801a5c:	10801783 	ldbu	r2,94(r2)
  801a60:	10803fcc 	andi	r2,r2,255
  801a64:	1080201c 	xori	r2,r2,128
  801a68:	10bfe004 	addi	r2,r2,-128
  801a6c:	1005003a 	cmpeq	r2,r2,zero
  801a70:	1007883a 	mov	r3,r2
  801a74:	e0bffc17 	ldw	r2,-16(fp)
  801a78:	10c03d85 	stb	r3,246(r2)
  d->_g101_e1 = d->_g110 && d->_cg114;
  801a7c:	e0bffc17 	ldw	r2,-16(fp)
  801a80:	10802d83 	ldbu	r2,182(r2)
  801a84:	10803fcc 	andi	r2,r2,255
  801a88:	1080201c 	xori	r2,r2,128
  801a8c:	10bfe004 	addi	r2,r2,-128
  801a90:	10000826 	beq	r2,zero,801ab4 <logic+0xf38>
  801a94:	e0bffc17 	ldw	r2,-16(fp)
  801a98:	10803d83 	ldbu	r2,246(r2)
  801a9c:	10803fcc 	andi	r2,r2,255
  801aa0:	1080201c 	xori	r2,r2,128
  801aa4:	10bfe004 	addi	r2,r2,-128
  801aa8:	10000226 	beq	r2,zero,801ab4 <logic+0xf38>
  801aac:	00800044 	movi	r2,1
  801ab0:	00000106 	br	801ab8 <logic+0xf3c>
  801ab4:	0005883a 	mov	r2,zero
  801ab8:	1007883a 	mov	r3,r2
  801abc:	e0bffc17 	ldw	r2,-16(fp)
  801ac0:	10c04285 	stb	r3,266(r2)
  if (d->_g101_e1) {
  801ac4:	e0bffc17 	ldw	r2,-16(fp)
  801ac8:	10804283 	ldbu	r2,266(r2)
  801acc:	10803fcc 	andi	r2,r2,255
  801ad0:	1080201c 	xori	r2,r2,128
  801ad4:	10bfe004 	addi	r2,r2,-128
  801ad8:	10000626 	beq	r2,zero,801af4 <logic+0xf78>
    d->VP |= 1;
  801adc:	e0bffc17 	ldw	r2,-16(fp)
  801ae0:	108016c3 	ldbu	r2,91(r2)
  801ae4:	10800054 	ori	r2,r2,1
  801ae8:	1007883a 	mov	r3,r2
  801aec:	e0bffc17 	ldw	r2,-16(fp)
  801af0:	10c016c5 	stb	r3,91(r2)
  }
  d->_g110_e2 = d->_pg79_e1;
  801af4:	e0bffc17 	ldw	r2,-16(fp)
  801af8:	10c04643 	ldbu	r3,281(r2)
  801afc:	e0bffc17 	ldw	r2,-16(fp)
  801b00:	10c042c5 	stb	r3,267(r2)
  d->_cg74 = d->VS || d->VP;
  801b04:	e0bffc17 	ldw	r2,-16(fp)
  801b08:	10801643 	ldbu	r2,89(r2)
  801b0c:	10803fcc 	andi	r2,r2,255
  801b10:	1080201c 	xori	r2,r2,128
  801b14:	10bfe004 	addi	r2,r2,-128
  801b18:	1000061e 	bne	r2,zero,801b34 <logic+0xfb8>
  801b1c:	e0bffc17 	ldw	r2,-16(fp)
  801b20:	108016c3 	ldbu	r2,91(r2)
  801b24:	10803fcc 	andi	r2,r2,255
  801b28:	1080201c 	xori	r2,r2,128
  801b2c:	10bfe004 	addi	r2,r2,-128
  801b30:	10000226 	beq	r2,zero,801b3c <logic+0xfc0>
  801b34:	00800044 	movi	r2,1
  801b38:	00000106 	br	801b40 <logic+0xfc4>
  801b3c:	0005883a 	mov	r2,zero
  801b40:	1007883a 	mov	r3,r2
  801b44:	e0bffc17 	ldw	r2,-16(fp)
  801b48:	10c039c5 	stb	r3,231(r2)
  d->_g117 = d->_g110_e2 && d->_cg74;
  801b4c:	e0bffc17 	ldw	r2,-16(fp)
  801b50:	108042c3 	ldbu	r2,267(r2)
  801b54:	10803fcc 	andi	r2,r2,255
  801b58:	1080201c 	xori	r2,r2,128
  801b5c:	10bfe004 	addi	r2,r2,-128
  801b60:	10000826 	beq	r2,zero,801b84 <logic+0x1008>
  801b64:	e0bffc17 	ldw	r2,-16(fp)
  801b68:	108039c3 	ldbu	r2,231(r2)
  801b6c:	10803fcc 	andi	r2,r2,255
  801b70:	1080201c 	xori	r2,r2,128
  801b74:	10bfe004 	addi	r2,r2,-128
  801b78:	10000226 	beq	r2,zero,801b84 <logic+0x1008>
  801b7c:	00800044 	movi	r2,1
  801b80:	00000106 	br	801b88 <logic+0x100c>
  801b84:	0005883a 	mov	r2,zero
  801b88:	1007883a 	mov	r3,r2
  801b8c:	e0bffc17 	ldw	r2,-16(fp)
  801b90:	10c02f05 	stb	r3,188(r2)
  if (d->_g117) {
  801b94:	e0bffc17 	ldw	r2,-16(fp)
  801b98:	10802f03 	ldbu	r2,188(r2)
  801b9c:	10803fcc 	andi	r2,r2,255
  801ba0:	1080201c 	xori	r2,r2,128
  801ba4:	10bfe004 	addi	r2,r2,-128
  801ba8:	10000626 	beq	r2,zero,801bc4 <logic+0x1048>
    d->v_event |= 1;
  801bac:	e0bffc17 	ldw	r2,-16(fp)
  801bb0:	10801703 	ldbu	r2,92(r2)
  801bb4:	10800054 	ori	r2,r2,1
  801bb8:	1007883a 	mov	r3,r2
  801bbc:	e0bffc17 	ldw	r2,-16(fp)
  801bc0:	10c01705 	stb	r3,92(r2)
  }
  d->_g4 = d->_pg3;
  801bc4:	e0bffc17 	ldw	r2,-16(fp)
  801bc8:	10c04683 	ldbu	r3,282(r2)
  801bcc:	e0bffc17 	ldw	r2,-16(fp)
  801bd0:	10c01b45 	stb	r3,109(r2)
  d->_cg4 = d->v_event;
  801bd4:	e0bffc17 	ldw	r2,-16(fp)
  801bd8:	10c01703 	ldbu	r3,92(r2)
  801bdc:	e0bffc17 	ldw	r2,-16(fp)
  801be0:	10c03445 	stb	r3,209(r2)
  d->_g3 = d->_GO || (d->_g4 && !d->_cg4);
  801be4:	e0bffc17 	ldw	r2,-16(fp)
  801be8:	10803403 	ldbu	r2,208(r2)
  801bec:	10803fcc 	andi	r2,r2,255
  801bf0:	1080201c 	xori	r2,r2,128
  801bf4:	10bfe004 	addi	r2,r2,-128
  801bf8:	10000c1e 	bne	r2,zero,801c2c <logic+0x10b0>
  801bfc:	e0bffc17 	ldw	r2,-16(fp)
  801c00:	10801b43 	ldbu	r2,109(r2)
  801c04:	10803fcc 	andi	r2,r2,255
  801c08:	1080201c 	xori	r2,r2,128
  801c0c:	10bfe004 	addi	r2,r2,-128
  801c10:	10000826 	beq	r2,zero,801c34 <logic+0x10b8>
  801c14:	e0bffc17 	ldw	r2,-16(fp)
  801c18:	10803443 	ldbu	r2,209(r2)
  801c1c:	10803fcc 	andi	r2,r2,255
  801c20:	1080201c 	xori	r2,r2,128
  801c24:	10bfe004 	addi	r2,r2,-128
  801c28:	1000021e 	bne	r2,zero,801c34 <logic+0x10b8>
  801c2c:	00800044 	movi	r2,1
  801c30:	00000106 	br	801c38 <logic+0x10bc>
  801c34:	0005883a 	mov	r2,zero
  801c38:	1007883a 	mov	r3,r2
  801c3c:	e0bffc17 	ldw	r2,-16(fp)
  801c40:	10c01b05 	stb	r3,108(r2)
  d->_g4 = (d->_g4 && d->_cg4) || (d->_g20 && d->_cg24) || d->_g21;
  801c44:	e0bffc17 	ldw	r2,-16(fp)
  801c48:	10801b43 	ldbu	r2,109(r2)
  801c4c:	10803fcc 	andi	r2,r2,255
  801c50:	1080201c 	xori	r2,r2,128
  801c54:	10bfe004 	addi	r2,r2,-128
  801c58:	10000626 	beq	r2,zero,801c74 <logic+0x10f8>
  801c5c:	e0bffc17 	ldw	r2,-16(fp)
  801c60:	10803443 	ldbu	r2,209(r2)
  801c64:	10803fcc 	andi	r2,r2,255
  801c68:	1080201c 	xori	r2,r2,128
  801c6c:	10bfe004 	addi	r2,r2,-128
  801c70:	1000121e 	bne	r2,zero,801cbc <logic+0x1140>
  801c74:	e0bffc17 	ldw	r2,-16(fp)
  801c78:	10801e03 	ldbu	r2,120(r2)
  801c7c:	10803fcc 	andi	r2,r2,255
  801c80:	1080201c 	xori	r2,r2,128
  801c84:	10bfe004 	addi	r2,r2,-128
  801c88:	10000626 	beq	r2,zero,801ca4 <logic+0x1128>
  801c8c:	e0bffc17 	ldw	r2,-16(fp)
  801c90:	10803483 	ldbu	r2,210(r2)
  801c94:	10803fcc 	andi	r2,r2,255
  801c98:	1080201c 	xori	r2,r2,128
  801c9c:	10bfe004 	addi	r2,r2,-128
  801ca0:	1000061e 	bne	r2,zero,801cbc <logic+0x1140>
  801ca4:	e0bffc17 	ldw	r2,-16(fp)
  801ca8:	10801e43 	ldbu	r2,121(r2)
  801cac:	10803fcc 	andi	r2,r2,255
  801cb0:	1080201c 	xori	r2,r2,128
  801cb4:	10bfe004 	addi	r2,r2,-128
  801cb8:	10000226 	beq	r2,zero,801cc4 <logic+0x1148>
  801cbc:	00800044 	movi	r2,1
  801cc0:	00000106 	br	801cc8 <logic+0x114c>
  801cc4:	0005883a 	mov	r2,zero
  801cc8:	1007883a 	mov	r3,r2
  801ccc:	e0bffc17 	ldw	r2,-16(fp)
  801cd0:	10c01b45 	stb	r3,109(r2)
  if (d->_g4) {
  801cd4:	e0bffc17 	ldw	r2,-16(fp)
  801cd8:	10801b43 	ldbu	r2,109(r2)
  801cdc:	10803fcc 	andi	r2,r2,255
  801ce0:	1080201c 	xori	r2,r2,128
  801ce4:	10bfe004 	addi	r2,r2,-128
  801ce8:	10000726 	beq	r2,zero,801d08 <logic+0x118c>
    d->_region0_LRI_x = 0;
  801cec:	e0bffc17 	ldw	r2,-16(fp)
  801cf0:	10000615 	stw	zero,24(r2)
  801cf4:	10000715 	stw	zero,28(r2)
    d->_Pacemaker_local__Atrig = 0;
  801cf8:	e0bffc17 	ldw	r2,-16(fp)
  801cfc:	100018c5 	stb	zero,99(r2)
    d->_Pacemaker_local__Atrig1 = 0;
  801d00:	e0bffc17 	ldw	r2,-16(fp)
  801d04:	10001905 	stb	zero,100(r2)
  }
  d->_cg6 = d->_region0_LRI_x < d->LRI;
  801d08:	e0bffc17 	ldw	r2,-16(fp)
  801d0c:	14000617 	ldw	r16,24(r2)
  801d10:	14400717 	ldw	r17,28(r2)
  801d14:	e0bffc17 	ldw	r2,-16(fp)
  801d18:	10800417 	ldw	r2,16(r2)
  801d1c:	1009883a 	mov	r4,r2
  801d20:	0806b740 	call	806b74 <__floatsidf>
  801d24:	1009883a 	mov	r4,r2
  801d28:	180b883a 	mov	r5,r3
  801d2c:	04800044 	movi	r18,1
  801d30:	200d883a 	mov	r6,r4
  801d34:	280f883a 	mov	r7,r5
  801d38:	8009883a 	mov	r4,r16
  801d3c:	880b883a 	mov	r5,r17
  801d40:	0805a6c0 	call	805a6c <__ledf2>
  801d44:	10000116 	blt	r2,zero,801d4c <logic+0x11d0>
  801d48:	0025883a 	mov	r18,zero
  801d4c:	9007883a 	mov	r3,r18
  801d50:	e0bffc17 	ldw	r2,-16(fp)
  801d54:	10c034c5 	stb	r3,211(r2)
  d->_g24 = d->_g4 && d->_cg6;
  801d58:	e0bffc17 	ldw	r2,-16(fp)
  801d5c:	10801b43 	ldbu	r2,109(r2)
  801d60:	10803fcc 	andi	r2,r2,255
  801d64:	1080201c 	xori	r2,r2,128
  801d68:	10bfe004 	addi	r2,r2,-128
  801d6c:	10000826 	beq	r2,zero,801d90 <logic+0x1214>
  801d70:	e0bffc17 	ldw	r2,-16(fp)
  801d74:	108034c3 	ldbu	r2,211(r2)
  801d78:	10803fcc 	andi	r2,r2,255
  801d7c:	1080201c 	xori	r2,r2,128
  801d80:	10bfe004 	addi	r2,r2,-128
  801d84:	10000226 	beq	r2,zero,801d90 <logic+0x1214>
  801d88:	00800044 	movi	r2,1
  801d8c:	00000106 	br	801d94 <logic+0x1218>
  801d90:	0005883a 	mov	r2,zero
  801d94:	1007883a 	mov	r3,r2
  801d98:	e0bffc17 	ldw	r2,-16(fp)
  801d9c:	10c01f05 	stb	r3,124(r2)
  if (d->_g24) {
  801da0:	e0bffc17 	ldw	r2,-16(fp)
  801da4:	10801f03 	ldbu	r2,124(r2)
  801da8:	10803fcc 	andi	r2,r2,255
  801dac:	1080201c 	xori	r2,r2,128
  801db0:	10bfe004 	addi	r2,r2,-128
  801db4:	10003426 	beq	r2,zero,801e88 <logic+0x130c>
    d->sleepT = (d->sleepT < (d->LRI - d->_region0_LRI_x)) ? d->sleepT : (d->LRI - d->_region0_LRI_x);
  801db8:	e0bffc17 	ldw	r2,-16(fp)
  801dbc:	14001417 	ldw	r16,80(r2)
  801dc0:	14401517 	ldw	r17,84(r2)
  801dc4:	e0bffc17 	ldw	r2,-16(fp)
  801dc8:	10800417 	ldw	r2,16(r2)
  801dcc:	1009883a 	mov	r4,r2
  801dd0:	0806b740 	call	806b74 <__floatsidf>
  801dd4:	1011883a 	mov	r8,r2
  801dd8:	1813883a 	mov	r9,r3
  801ddc:	e13ffc17 	ldw	r4,-16(fp)
  801de0:	20800617 	ldw	r2,24(r4)
  801de4:	20c00717 	ldw	r3,28(r4)
  801de8:	100d883a 	mov	r6,r2
  801dec:	180f883a 	mov	r7,r3
  801df0:	4009883a 	mov	r4,r8
  801df4:	480b883a 	mov	r5,r9
  801df8:	08062780 	call	806278 <__subdf3>
  801dfc:	1009883a 	mov	r4,r2
  801e00:	180b883a 	mov	r5,r3
  801e04:	2005883a 	mov	r2,r4
  801e08:	2807883a 	mov	r3,r5
  801e0c:	100d883a 	mov	r6,r2
  801e10:	180f883a 	mov	r7,r3
  801e14:	8009883a 	mov	r4,r16
  801e18:	880b883a 	mov	r5,r17
  801e1c:	0805a6c0 	call	805a6c <__ledf2>
  801e20:	1000040e 	bge	r2,zero,801e34 <logic+0x12b8>
  801e24:	e13ffc17 	ldw	r4,-16(fp)
  801e28:	20801417 	ldw	r2,80(r4)
  801e2c:	20c01517 	ldw	r3,84(r4)
  801e30:	00001206 	br	801e7c <logic+0x1300>
  801e34:	e0bffc17 	ldw	r2,-16(fp)
  801e38:	10800417 	ldw	r2,16(r2)
  801e3c:	1009883a 	mov	r4,r2
  801e40:	0806b740 	call	806b74 <__floatsidf>
  801e44:	1011883a 	mov	r8,r2
  801e48:	1813883a 	mov	r9,r3
  801e4c:	e13ffc17 	ldw	r4,-16(fp)
  801e50:	20800617 	ldw	r2,24(r4)
  801e54:	20c00717 	ldw	r3,28(r4)
  801e58:	100d883a 	mov	r6,r2
  801e5c:	180f883a 	mov	r7,r3
  801e60:	4009883a 	mov	r4,r8
  801e64:	480b883a 	mov	r5,r9
  801e68:	08062780 	call	806278 <__subdf3>
  801e6c:	1009883a 	mov	r4,r2
  801e70:	180b883a 	mov	r5,r3
  801e74:	2005883a 	mov	r2,r4
  801e78:	2807883a 	mov	r3,r5
  801e7c:	e13ffc17 	ldw	r4,-16(fp)
  801e80:	20801415 	stw	r2,80(r4)
  801e84:	20c01515 	stw	r3,84(r4)
  }
  d->_cg7 = d->_Pacemaker_local__Atrig || d->_Pacemaker_local__Atrig1;
  801e88:	e0bffc17 	ldw	r2,-16(fp)
  801e8c:	108018c3 	ldbu	r2,99(r2)
  801e90:	10803fcc 	andi	r2,r2,255
  801e94:	1080201c 	xori	r2,r2,128
  801e98:	10bfe004 	addi	r2,r2,-128
  801e9c:	1000061e 	bne	r2,zero,801eb8 <logic+0x133c>
  801ea0:	e0bffc17 	ldw	r2,-16(fp)
  801ea4:	10801903 	ldbu	r2,100(r2)
  801ea8:	10803fcc 	andi	r2,r2,255
  801eac:	1080201c 	xori	r2,r2,128
  801eb0:	10bfe004 	addi	r2,r2,-128
  801eb4:	10000226 	beq	r2,zero,801ec0 <logic+0x1344>
  801eb8:	00800044 	movi	r2,1
  801ebc:	00000106 	br	801ec4 <logic+0x1348>
  801ec0:	0005883a 	mov	r2,zero
  801ec4:	1007883a 	mov	r3,r2
  801ec8:	e0bffc17 	ldw	r2,-16(fp)
  801ecc:	10c03505 	stb	r3,212(r2)
  d->_g25 = (d->_g24 && !d->_cg7) || (d->_g9 && !d->_cg11);
  801ed0:	e0bffc17 	ldw	r2,-16(fp)
  801ed4:	10801f03 	ldbu	r2,124(r2)
  801ed8:	10803fcc 	andi	r2,r2,255
  801edc:	1080201c 	xori	r2,r2,128
  801ee0:	10bfe004 	addi	r2,r2,-128
  801ee4:	10000626 	beq	r2,zero,801f00 <logic+0x1384>
  801ee8:	e0bffc17 	ldw	r2,-16(fp)
  801eec:	10803503 	ldbu	r2,212(r2)
  801ef0:	10803fcc 	andi	r2,r2,255
  801ef4:	1080201c 	xori	r2,r2,128
  801ef8:	10bfe004 	addi	r2,r2,-128
  801efc:	10000c26 	beq	r2,zero,801f30 <logic+0x13b4>
  801f00:	e0bffc17 	ldw	r2,-16(fp)
  801f04:	10801c03 	ldbu	r2,112(r2)
  801f08:	10803fcc 	andi	r2,r2,255
  801f0c:	1080201c 	xori	r2,r2,128
  801f10:	10bfe004 	addi	r2,r2,-128
  801f14:	10000826 	beq	r2,zero,801f38 <logic+0x13bc>
  801f18:	e0bffc17 	ldw	r2,-16(fp)
  801f1c:	10803543 	ldbu	r2,213(r2)
  801f20:	10803fcc 	andi	r2,r2,255
  801f24:	1080201c 	xori	r2,r2,128
  801f28:	10bfe004 	addi	r2,r2,-128
  801f2c:	1000021e 	bne	r2,zero,801f38 <logic+0x13bc>
  801f30:	00800044 	movi	r2,1
  801f34:	00000106 	br	801f3c <logic+0x13c0>
  801f38:	0005883a 	mov	r2,zero
  801f3c:	1007883a 	mov	r3,r2
  801f40:	e0bffc17 	ldw	r2,-16(fp)
  801f44:	10c01f45 	stb	r3,125(r2)
  d->_g11 = d->_g4 && !d->_cg6;
  801f48:	e0bffc17 	ldw	r2,-16(fp)
  801f4c:	10801b43 	ldbu	r2,109(r2)
  801f50:	10803fcc 	andi	r2,r2,255
  801f54:	1080201c 	xori	r2,r2,128
  801f58:	10bfe004 	addi	r2,r2,-128
  801f5c:	10000826 	beq	r2,zero,801f80 <logic+0x1404>
  801f60:	e0bffc17 	ldw	r2,-16(fp)
  801f64:	108034c3 	ldbu	r2,211(r2)
  801f68:	10803fcc 	andi	r2,r2,255
  801f6c:	1080201c 	xori	r2,r2,128
  801f70:	10bfe004 	addi	r2,r2,-128
  801f74:	1000021e 	bne	r2,zero,801f80 <logic+0x1404>
  801f78:	00800044 	movi	r2,1
  801f7c:	00000106 	br	801f84 <logic+0x1408>
  801f80:	0005883a 	mov	r2,zero
  801f84:	1007883a 	mov	r3,r2
  801f88:	e0bffc17 	ldw	r2,-16(fp)
  801f8c:	10c01c85 	stb	r3,114(r2)
  d->_cg16 = d->_Pacemaker_local__Atrig || d->_Pacemaker_local__Atrig1;
  801f90:	e0bffc17 	ldw	r2,-16(fp)
  801f94:	108018c3 	ldbu	r2,99(r2)
  801f98:	10803fcc 	andi	r2,r2,255
  801f9c:	1080201c 	xori	r2,r2,128
  801fa0:	10bfe004 	addi	r2,r2,-128
  801fa4:	1000061e 	bne	r2,zero,801fc0 <logic+0x1444>
  801fa8:	e0bffc17 	ldw	r2,-16(fp)
  801fac:	10801903 	ldbu	r2,100(r2)
  801fb0:	10803fcc 	andi	r2,r2,255
  801fb4:	1080201c 	xori	r2,r2,128
  801fb8:	10bfe004 	addi	r2,r2,-128
  801fbc:	10000226 	beq	r2,zero,801fc8 <logic+0x144c>
  801fc0:	00800044 	movi	r2,1
  801fc4:	00000106 	br	801fcc <logic+0x1450>
  801fc8:	0005883a 	mov	r2,zero
  801fcc:	1007883a 	mov	r3,r2
  801fd0:	e0bffc17 	ldw	r2,-16(fp)
  801fd4:	10c03605 	stb	r3,216(r2)
  d->_g7 = (d->_g10 && !d->_cg13) || (d->_g11 && !d->_cg16);
  801fd8:	e0bffc17 	ldw	r2,-16(fp)
  801fdc:	10801c43 	ldbu	r2,113(r2)
  801fe0:	10803fcc 	andi	r2,r2,255
  801fe4:	1080201c 	xori	r2,r2,128
  801fe8:	10bfe004 	addi	r2,r2,-128
  801fec:	10000626 	beq	r2,zero,802008 <logic+0x148c>
  801ff0:	e0bffc17 	ldw	r2,-16(fp)
  801ff4:	108035c3 	ldbu	r2,215(r2)
  801ff8:	10803fcc 	andi	r2,r2,255
  801ffc:	1080201c 	xori	r2,r2,128
  802000:	10bfe004 	addi	r2,r2,-128
  802004:	10000c26 	beq	r2,zero,802038 <logic+0x14bc>
  802008:	e0bffc17 	ldw	r2,-16(fp)
  80200c:	10801c83 	ldbu	r2,114(r2)
  802010:	10803fcc 	andi	r2,r2,255
  802014:	1080201c 	xori	r2,r2,128
  802018:	10bfe004 	addi	r2,r2,-128
  80201c:	10000826 	beq	r2,zero,802040 <logic+0x14c4>
  802020:	e0bffc17 	ldw	r2,-16(fp)
  802024:	10803603 	ldbu	r2,216(r2)
  802028:	10803fcc 	andi	r2,r2,255
  80202c:	1080201c 	xori	r2,r2,128
  802030:	10bfe004 	addi	r2,r2,-128
  802034:	1000021e 	bne	r2,zero,802040 <logic+0x14c4>
  802038:	00800044 	movi	r2,1
  80203c:	00000106 	br	802044 <logic+0x14c8>
  802040:	0005883a 	mov	r2,zero
  802044:	1007883a 	mov	r3,r2
  802048:	e0bffc17 	ldw	r2,-16(fp)
  80204c:	10c01bc5 	stb	r3,111(r2)
  d->_g16 = d->_g4 || (d->_g22 && !d->_cg22);
  802050:	e0bffc17 	ldw	r2,-16(fp)
  802054:	10801b43 	ldbu	r2,109(r2)
  802058:	10803fcc 	andi	r2,r2,255
  80205c:	1080201c 	xori	r2,r2,128
  802060:	10bfe004 	addi	r2,r2,-128
  802064:	10000c1e 	bne	r2,zero,802098 <logic+0x151c>
  802068:	e0bffc17 	ldw	r2,-16(fp)
  80206c:	10801e83 	ldbu	r2,122(r2)
  802070:	10803fcc 	andi	r2,r2,255
  802074:	1080201c 	xori	r2,r2,128
  802078:	10bfe004 	addi	r2,r2,-128
  80207c:	10000826 	beq	r2,zero,8020a0 <logic+0x1524>
  802080:	e0bffc17 	ldw	r2,-16(fp)
  802084:	10803643 	ldbu	r2,217(r2)
  802088:	10803fcc 	andi	r2,r2,255
  80208c:	1080201c 	xori	r2,r2,128
  802090:	10bfe004 	addi	r2,r2,-128
  802094:	1000021e 	bne	r2,zero,8020a0 <logic+0x1524>
  802098:	00800044 	movi	r2,1
  80209c:	00000106 	br	8020a4 <logic+0x1528>
  8020a0:	0005883a 	mov	r2,zero
  8020a4:	1007883a 	mov	r3,r2
  8020a8:	e0bffc17 	ldw	r2,-16(fp)
  8020ac:	10c01d85 	stb	r3,118(r2)
  d->_g13 = d->_pg124;
  8020b0:	e0bffc17 	ldw	r2,-16(fp)
  8020b4:	10c046c3 	ldbu	r3,283(r2)
  8020b8:	e0bffc17 	ldw	r2,-16(fp)
  8020bc:	10c01d05 	stb	r3,116(r2)
  if (d->_g13) {
  8020c0:	e0bffc17 	ldw	r2,-16(fp)
  8020c4:	10801d03 	ldbu	r2,116(r2)
  8020c8:	10803fcc 	andi	r2,r2,255
  8020cc:	1080201c 	xori	r2,r2,128
  8020d0:	10bfe004 	addi	r2,r2,-128
  8020d4:	10001226 	beq	r2,zero,802120 <logic+0x15a4>
    d->_region1_URI_x += d->deltaT;
  8020d8:	e13ffc17 	ldw	r4,-16(fp)
  8020dc:	20800817 	ldw	r2,32(r4)
  8020e0:	20c00917 	ldw	r3,36(r4)
  8020e4:	e1bffc17 	ldw	r6,-16(fp)
  8020e8:	31001217 	ldw	r4,72(r6)
  8020ec:	31401317 	ldw	r5,76(r6)
  8020f0:	200d883a 	mov	r6,r4
  8020f4:	280f883a 	mov	r7,r5
  8020f8:	1009883a 	mov	r4,r2
  8020fc:	180b883a 	mov	r5,r3
  802100:	08050e40 	call	8050e4 <__adddf3>
  802104:	1009883a 	mov	r4,r2
  802108:	180b883a 	mov	r5,r3
  80210c:	2005883a 	mov	r2,r4
  802110:	2807883a 	mov	r3,r5
  802114:	e13ffc17 	ldw	r4,-16(fp)
  802118:	20800815 	stw	r2,32(r4)
  80211c:	20c00915 	stw	r3,36(r4)
  }
  d->_g22 = d->_pg42;
  802120:	e0bffc17 	ldw	r2,-16(fp)
  802124:	10c04703 	ldbu	r3,284(r2)
  802128:	e0bffc17 	ldw	r2,-16(fp)
  80212c:	10c01e85 	stb	r3,122(r2)
  d->_cg47 = d->_region1_URI_x >= d->URI;
  802130:	e0bffc17 	ldw	r2,-16(fp)
  802134:	14000817 	ldw	r16,32(r2)
  802138:	14400917 	ldw	r17,36(r2)
  80213c:	e0bffc17 	ldw	r2,-16(fp)
  802140:	10800517 	ldw	r2,20(r2)
  802144:	1009883a 	mov	r4,r2
  802148:	0806b740 	call	806b74 <__floatsidf>
  80214c:	1009883a 	mov	r4,r2
  802150:	180b883a 	mov	r5,r3
  802154:	04800044 	movi	r18,1
  802158:	200d883a 	mov	r6,r4
  80215c:	280f883a 	mov	r7,r5
  802160:	8009883a 	mov	r4,r16
  802164:	880b883a 	mov	r5,r17
  802168:	08059900 	call	805990 <__gedf2>
  80216c:	1000010e 	bge	r2,zero,802174 <logic+0x15f8>
  802170:	0025883a 	mov	r18,zero
  802174:	9007883a 	mov	r3,r18
  802178:	e0bffc17 	ldw	r2,-16(fp)
  80217c:	10c03805 	stb	r3,224(r2)
  d->_g5 = d->_g22 && d->_cg47;
  802180:	e0bffc17 	ldw	r2,-16(fp)
  802184:	10801e83 	ldbu	r2,122(r2)
  802188:	10803fcc 	andi	r2,r2,255
  80218c:	1080201c 	xori	r2,r2,128
  802190:	10bfe004 	addi	r2,r2,-128
  802194:	10000826 	beq	r2,zero,8021b8 <logic+0x163c>
  802198:	e0bffc17 	ldw	r2,-16(fp)
  80219c:	10803803 	ldbu	r2,224(r2)
  8021a0:	10803fcc 	andi	r2,r2,255
  8021a4:	1080201c 	xori	r2,r2,128
  8021a8:	10bfe004 	addi	r2,r2,-128
  8021ac:	10000226 	beq	r2,zero,8021b8 <logic+0x163c>
  8021b0:	00800044 	movi	r2,1
  8021b4:	00000106 	br	8021bc <logic+0x1640>
  8021b8:	0005883a 	mov	r2,zero
  8021bc:	1007883a 	mov	r3,r2
  8021c0:	e0bffc17 	ldw	r2,-16(fp)
  8021c4:	10c01b85 	stb	r3,110(r2)
  if (d->_g5) {
  8021c8:	e0bffc17 	ldw	r2,-16(fp)
  8021cc:	10801b83 	ldbu	r2,110(r2)
  8021d0:	10803fcc 	andi	r2,r2,255
  8021d4:	1080201c 	xori	r2,r2,128
  8021d8:	10bfe004 	addi	r2,r2,-128
  8021dc:	10000326 	beq	r2,zero,8021ec <logic+0x1670>
    d->_Pacemaker_local__Atrig2 = 1;
  8021e0:	e0bffc17 	ldw	r2,-16(fp)
  8021e4:	00c00044 	movi	r3,1
  8021e8:	10c01945 	stb	r3,101(r2)
  }
  d->_g29 = d->_pg48;
  8021ec:	e0bffc17 	ldw	r2,-16(fp)
  8021f0:	10c04743 	ldbu	r3,285(r2)
  8021f4:	e0bffc17 	ldw	r2,-16(fp)
  8021f8:	10c01f85 	stb	r3,126(r2)
  d->_cg29 = d->v_event;
  8021fc:	e0bffc17 	ldw	r2,-16(fp)
  802200:	10c01703 	ldbu	r3,92(r2)
  802204:	e0bffc17 	ldw	r2,-16(fp)
  802208:	10c036c5 	stb	r3,219(r2)
  d->_g30 = d->_g29 && d->_cg29;
  80220c:	e0bffc17 	ldw	r2,-16(fp)
  802210:	10801f83 	ldbu	r2,126(r2)
  802214:	10803fcc 	andi	r2,r2,255
  802218:	1080201c 	xori	r2,r2,128
  80221c:	10bfe004 	addi	r2,r2,-128
  802220:	10000826 	beq	r2,zero,802244 <logic+0x16c8>
  802224:	e0bffc17 	ldw	r2,-16(fp)
  802228:	108036c3 	ldbu	r2,219(r2)
  80222c:	10803fcc 	andi	r2,r2,255
  802230:	1080201c 	xori	r2,r2,128
  802234:	10bfe004 	addi	r2,r2,-128
  802238:	10000226 	beq	r2,zero,802244 <logic+0x16c8>
  80223c:	00800044 	movi	r2,1
  802240:	00000106 	br	802248 <logic+0x16cc>
  802244:	0005883a 	mov	r2,zero
  802248:	1007883a 	mov	r3,r2
  80224c:	e0bffc17 	ldw	r2,-16(fp)
  802250:	10c01fc5 	stb	r3,127(r2)
  if (d->_g30) {
  802254:	e0bffc17 	ldw	r2,-16(fp)
  802258:	10801fc3 	ldbu	r2,127(r2)
  80225c:	10803fcc 	andi	r2,r2,255
  802260:	1080201c 	xori	r2,r2,128
  802264:	10bfe004 	addi	r2,r2,-128
  802268:	10000526 	beq	r2,zero,802280 <logic+0x1704>
    d->_region1_URI_x = 0;
  80226c:	e0bffc17 	ldw	r2,-16(fp)
  802270:	10000815 	stw	zero,32(r2)
  802274:	10000915 	stw	zero,36(r2)
    d->_Pacemaker_local__Atrig2 = 0;
  802278:	e0bffc17 	ldw	r2,-16(fp)
  80227c:	10001945 	stb	zero,101(r2)
  }
  d->_g35 = d->_g30 || d->_g12;
  802280:	e0bffc17 	ldw	r2,-16(fp)
  802284:	10801fc3 	ldbu	r2,127(r2)
  802288:	10803fcc 	andi	r2,r2,255
  80228c:	1080201c 	xori	r2,r2,128
  802290:	10bfe004 	addi	r2,r2,-128
  802294:	1000061e 	bne	r2,zero,8022b0 <logic+0x1734>
  802298:	e0bffc17 	ldw	r2,-16(fp)
  80229c:	10801cc3 	ldbu	r2,115(r2)
  8022a0:	10803fcc 	andi	r2,r2,255
  8022a4:	1080201c 	xori	r2,r2,128
  8022a8:	10bfe004 	addi	r2,r2,-128
  8022ac:	10000226 	beq	r2,zero,8022b8 <logic+0x173c>
  8022b0:	00800044 	movi	r2,1
  8022b4:	00000106 	br	8022bc <logic+0x1740>
  8022b8:	0005883a 	mov	r2,zero
  8022bc:	1007883a 	mov	r3,r2
  8022c0:	e0bffc17 	ldw	r2,-16(fp)
  8022c4:	10c020c5 	stb	r3,131(r2)
  d->_cg32 = d->_Pacemaker_local__Atrig2;
  8022c8:	e0bffc17 	ldw	r2,-16(fp)
  8022cc:	10c01943 	ldbu	r3,101(r2)
  8022d0:	e0bffc17 	ldw	r2,-16(fp)
  8022d4:	10c03705 	stb	r3,220(r2)
  d->_g34 = d->_g35 && !d->_cg32;
  8022d8:	e0bffc17 	ldw	r2,-16(fp)
  8022dc:	108020c3 	ldbu	r2,131(r2)
  8022e0:	10803fcc 	andi	r2,r2,255
  8022e4:	1080201c 	xori	r2,r2,128
  8022e8:	10bfe004 	addi	r2,r2,-128
  8022ec:	10000826 	beq	r2,zero,802310 <logic+0x1794>
  8022f0:	e0bffc17 	ldw	r2,-16(fp)
  8022f4:	10803703 	ldbu	r2,220(r2)
  8022f8:	10803fcc 	andi	r2,r2,255
  8022fc:	1080201c 	xori	r2,r2,128
  802300:	10bfe004 	addi	r2,r2,-128
  802304:	1000021e 	bne	r2,zero,802310 <logic+0x1794>
  802308:	00800044 	movi	r2,1
  80230c:	00000106 	br	802314 <logic+0x1798>
  802310:	0005883a 	mov	r2,zero
  802314:	1007883a 	mov	r3,r2
  802318:	e0bffc17 	ldw	r2,-16(fp)
  80231c:	10c02085 	stb	r3,130(r2)
  d->_g33_e1 = !d->_g34;
  802320:	e0bffc17 	ldw	r2,-16(fp)
  802324:	10802083 	ldbu	r2,130(r2)
  802328:	10803fcc 	andi	r2,r2,255
  80232c:	1080201c 	xori	r2,r2,128
  802330:	10bfe004 	addi	r2,r2,-128
  802334:	1005003a 	cmpeq	r2,r2,zero
  802338:	1007883a 	mov	r3,r2
  80233c:	e0bffc17 	ldw	r2,-16(fp)
  802340:	10c040c5 	stb	r3,259(r2)
  d->_g32 = d->_g35 && d->_cg32;
  802344:	e0bffc17 	ldw	r2,-16(fp)
  802348:	108020c3 	ldbu	r2,131(r2)
  80234c:	10803fcc 	andi	r2,r2,255
  802350:	1080201c 	xori	r2,r2,128
  802354:	10bfe004 	addi	r2,r2,-128
  802358:	10000826 	beq	r2,zero,80237c <logic+0x1800>
  80235c:	e0bffc17 	ldw	r2,-16(fp)
  802360:	10803703 	ldbu	r2,220(r2)
  802364:	10803fcc 	andi	r2,r2,255
  802368:	1080201c 	xori	r2,r2,128
  80236c:	10bfe004 	addi	r2,r2,-128
  802370:	10000226 	beq	r2,zero,80237c <logic+0x1800>
  802374:	00800044 	movi	r2,1
  802378:	00000106 	br	802380 <logic+0x1804>
  80237c:	0005883a 	mov	r2,zero
  802380:	1007883a 	mov	r3,r2
  802384:	e0bffc17 	ldw	r2,-16(fp)
  802388:	10c02005 	stb	r3,128(r2)
  d->_g41 = d->_pg40;
  80238c:	e0bffc17 	ldw	r2,-16(fp)
  802390:	10c04783 	ldbu	r3,286(r2)
  802394:	e0bffc17 	ldw	r2,-16(fp)
  802398:	10c02205 	stb	r3,136(r2)
  d->_g44 = d->_pg43;
  80239c:	e0bffc17 	ldw	r2,-16(fp)
  8023a0:	10c047c3 	ldbu	r3,287(r2)
  8023a4:	e0bffc17 	ldw	r2,-16(fp)
  8023a8:	10c022c5 	stb	r3,139(r2)
  d->_g44 = d->_g30 || d->_g41 || d->_g44;
  8023ac:	e0bffc17 	ldw	r2,-16(fp)
  8023b0:	10801fc3 	ldbu	r2,127(r2)
  8023b4:	10803fcc 	andi	r2,r2,255
  8023b8:	1080201c 	xori	r2,r2,128
  8023bc:	10bfe004 	addi	r2,r2,-128
  8023c0:	10000c1e 	bne	r2,zero,8023f4 <logic+0x1878>
  8023c4:	e0bffc17 	ldw	r2,-16(fp)
  8023c8:	10802203 	ldbu	r2,136(r2)
  8023cc:	10803fcc 	andi	r2,r2,255
  8023d0:	1080201c 	xori	r2,r2,128
  8023d4:	10bfe004 	addi	r2,r2,-128
  8023d8:	1000061e 	bne	r2,zero,8023f4 <logic+0x1878>
  8023dc:	e0bffc17 	ldw	r2,-16(fp)
  8023e0:	108022c3 	ldbu	r2,139(r2)
  8023e4:	10803fcc 	andi	r2,r2,255
  8023e8:	1080201c 	xori	r2,r2,128
  8023ec:	10bfe004 	addi	r2,r2,-128
  8023f0:	10000226 	beq	r2,zero,8023fc <logic+0x1880>
  8023f4:	00800044 	movi	r2,1
  8023f8:	00000106 	br	802400 <logic+0x1884>
  8023fc:	0005883a 	mov	r2,zero
  802400:	1007883a 	mov	r3,r2
  802404:	e0bffc17 	ldw	r2,-16(fp)
  802408:	10c022c5 	stb	r3,139(r2)
  d->_cg37 = d->_region1_URI_x < d->URI;
  80240c:	e0bffc17 	ldw	r2,-16(fp)
  802410:	14000817 	ldw	r16,32(r2)
  802414:	14400917 	ldw	r17,36(r2)
  802418:	e0bffc17 	ldw	r2,-16(fp)
  80241c:	10800517 	ldw	r2,20(r2)
  802420:	1009883a 	mov	r4,r2
  802424:	0806b740 	call	806b74 <__floatsidf>
  802428:	1009883a 	mov	r4,r2
  80242c:	180b883a 	mov	r5,r3
  802430:	04800044 	movi	r18,1
  802434:	200d883a 	mov	r6,r4
  802438:	280f883a 	mov	r7,r5
  80243c:	8009883a 	mov	r4,r16
  802440:	880b883a 	mov	r5,r17
  802444:	0805a6c0 	call	805a6c <__ledf2>
  802448:	10000116 	blt	r2,zero,802450 <logic+0x18d4>
  80244c:	0025883a 	mov	r18,zero
  802450:	9007883a 	mov	r3,r18
  802454:	e0bffc17 	ldw	r2,-16(fp)
  802458:	10c03745 	stb	r3,221(r2)
  d->_g41 = d->_g44 && !d->_cg37;
  80245c:	e0bffc17 	ldw	r2,-16(fp)
  802460:	108022c3 	ldbu	r2,139(r2)
  802464:	10803fcc 	andi	r2,r2,255
  802468:	1080201c 	xori	r2,r2,128
  80246c:	10bfe004 	addi	r2,r2,-128
  802470:	10000826 	beq	r2,zero,802494 <logic+0x1918>
  802474:	e0bffc17 	ldw	r2,-16(fp)
  802478:	10803743 	ldbu	r2,221(r2)
  80247c:	10803fcc 	andi	r2,r2,255
  802480:	1080201c 	xori	r2,r2,128
  802484:	10bfe004 	addi	r2,r2,-128
  802488:	1000021e 	bne	r2,zero,802494 <logic+0x1918>
  80248c:	00800044 	movi	r2,1
  802490:	00000106 	br	802498 <logic+0x191c>
  802494:	0005883a 	mov	r2,zero
  802498:	1007883a 	mov	r3,r2
  80249c:	e0bffc17 	ldw	r2,-16(fp)
  8024a0:	10c02205 	stb	r3,136(r2)
  d->_cg42 = d->_Pacemaker_local__Atrig2;
  8024a4:	e0bffc17 	ldw	r2,-16(fp)
  8024a8:	10c01943 	ldbu	r3,101(r2)
  8024ac:	e0bffc17 	ldw	r2,-16(fp)
  8024b0:	10c037c5 	stb	r3,223(r2)
  d->_g43 = d->_g41 && !d->_cg42;
  8024b4:	e0bffc17 	ldw	r2,-16(fp)
  8024b8:	10802203 	ldbu	r2,136(r2)
  8024bc:	10803fcc 	andi	r2,r2,255
  8024c0:	1080201c 	xori	r2,r2,128
  8024c4:	10bfe004 	addi	r2,r2,-128
  8024c8:	10000826 	beq	r2,zero,8024ec <logic+0x1970>
  8024cc:	e0bffc17 	ldw	r2,-16(fp)
  8024d0:	108037c3 	ldbu	r2,223(r2)
  8024d4:	10803fcc 	andi	r2,r2,255
  8024d8:	1080201c 	xori	r2,r2,128
  8024dc:	10bfe004 	addi	r2,r2,-128
  8024e0:	1000021e 	bne	r2,zero,8024ec <logic+0x1970>
  8024e4:	00800044 	movi	r2,1
  8024e8:	00000106 	br	8024f0 <logic+0x1974>
  8024ec:	0005883a 	mov	r2,zero
  8024f0:	1007883a 	mov	r3,r2
  8024f4:	e0bffc17 	ldw	r2,-16(fp)
  8024f8:	10c02285 	stb	r3,138(r2)
  d->_g37 = d->_g44 && d->_cg37;
  8024fc:	e0bffc17 	ldw	r2,-16(fp)
  802500:	108022c3 	ldbu	r2,139(r2)
  802504:	10803fcc 	andi	r2,r2,255
  802508:	1080201c 	xori	r2,r2,128
  80250c:	10bfe004 	addi	r2,r2,-128
  802510:	10000826 	beq	r2,zero,802534 <logic+0x19b8>
  802514:	e0bffc17 	ldw	r2,-16(fp)
  802518:	10803743 	ldbu	r2,221(r2)
  80251c:	10803fcc 	andi	r2,r2,255
  802520:	1080201c 	xori	r2,r2,128
  802524:	10bfe004 	addi	r2,r2,-128
  802528:	10000226 	beq	r2,zero,802534 <logic+0x19b8>
  80252c:	00800044 	movi	r2,1
  802530:	00000106 	br	802538 <logic+0x19bc>
  802534:	0005883a 	mov	r2,zero
  802538:	1007883a 	mov	r3,r2
  80253c:	e0bffc17 	ldw	r2,-16(fp)
  802540:	10c02105 	stb	r3,132(r2)
  if (d->_g37) {
  802544:	e0bffc17 	ldw	r2,-16(fp)
  802548:	10802103 	ldbu	r2,132(r2)
  80254c:	10803fcc 	andi	r2,r2,255
  802550:	1080201c 	xori	r2,r2,128
  802554:	10bfe004 	addi	r2,r2,-128
  802558:	10003426 	beq	r2,zero,80262c <logic+0x1ab0>
    d->sleepT = (d->sleepT < (d->URI - d->_region1_URI_x)) ? d->sleepT : (d->URI - d->_region1_URI_x);
  80255c:	e0bffc17 	ldw	r2,-16(fp)
  802560:	14001417 	ldw	r16,80(r2)
  802564:	14401517 	ldw	r17,84(r2)
  802568:	e0bffc17 	ldw	r2,-16(fp)
  80256c:	10800517 	ldw	r2,20(r2)
  802570:	1009883a 	mov	r4,r2
  802574:	0806b740 	call	806b74 <__floatsidf>
  802578:	1011883a 	mov	r8,r2
  80257c:	1813883a 	mov	r9,r3
  802580:	e13ffc17 	ldw	r4,-16(fp)
  802584:	20800817 	ldw	r2,32(r4)
  802588:	20c00917 	ldw	r3,36(r4)
  80258c:	100d883a 	mov	r6,r2
  802590:	180f883a 	mov	r7,r3
  802594:	4009883a 	mov	r4,r8
  802598:	480b883a 	mov	r5,r9
  80259c:	08062780 	call	806278 <__subdf3>
  8025a0:	1009883a 	mov	r4,r2
  8025a4:	180b883a 	mov	r5,r3
  8025a8:	2005883a 	mov	r2,r4
  8025ac:	2807883a 	mov	r3,r5
  8025b0:	100d883a 	mov	r6,r2
  8025b4:	180f883a 	mov	r7,r3
  8025b8:	8009883a 	mov	r4,r16
  8025bc:	880b883a 	mov	r5,r17
  8025c0:	0805a6c0 	call	805a6c <__ledf2>
  8025c4:	1000040e 	bge	r2,zero,8025d8 <logic+0x1a5c>
  8025c8:	e13ffc17 	ldw	r4,-16(fp)
  8025cc:	20801417 	ldw	r2,80(r4)
  8025d0:	20c01517 	ldw	r3,84(r4)
  8025d4:	00001206 	br	802620 <logic+0x1aa4>
  8025d8:	e0bffc17 	ldw	r2,-16(fp)
  8025dc:	10800517 	ldw	r2,20(r2)
  8025e0:	1009883a 	mov	r4,r2
  8025e4:	0806b740 	call	806b74 <__floatsidf>
  8025e8:	1011883a 	mov	r8,r2
  8025ec:	1813883a 	mov	r9,r3
  8025f0:	e13ffc17 	ldw	r4,-16(fp)
  8025f4:	20800817 	ldw	r2,32(r4)
  8025f8:	20c00917 	ldw	r3,36(r4)
  8025fc:	100d883a 	mov	r6,r2
  802600:	180f883a 	mov	r7,r3
  802604:	4009883a 	mov	r4,r8
  802608:	480b883a 	mov	r5,r9
  80260c:	08062780 	call	806278 <__subdf3>
  802610:	1009883a 	mov	r4,r2
  802614:	180b883a 	mov	r5,r3
  802618:	2005883a 	mov	r2,r4
  80261c:	2807883a 	mov	r3,r5
  802620:	e13ffc17 	ldw	r4,-16(fp)
  802624:	20801415 	stw	r2,80(r4)
  802628:	20c01515 	stw	r3,84(r4)
  }
  d->_cg38 = d->_Pacemaker_local__Atrig2;
  80262c:	e0bffc17 	ldw	r2,-16(fp)
  802630:	10c01943 	ldbu	r3,101(r2)
  802634:	e0bffc17 	ldw	r2,-16(fp)
  802638:	10c03785 	stb	r3,222(r2)
  d->_g40 = d->_g37 && !d->_cg38;
  80263c:	e0bffc17 	ldw	r2,-16(fp)
  802640:	10802103 	ldbu	r2,132(r2)
  802644:	10803fcc 	andi	r2,r2,255
  802648:	1080201c 	xori	r2,r2,128
  80264c:	10bfe004 	addi	r2,r2,-128
  802650:	10000826 	beq	r2,zero,802674 <logic+0x1af8>
  802654:	e0bffc17 	ldw	r2,-16(fp)
  802658:	10803783 	ldbu	r2,222(r2)
  80265c:	10803fcc 	andi	r2,r2,255
  802660:	1080201c 	xori	r2,r2,128
  802664:	10bfe004 	addi	r2,r2,-128
  802668:	1000021e 	bne	r2,zero,802674 <logic+0x1af8>
  80266c:	00800044 	movi	r2,1
  802670:	00000106 	br	802678 <logic+0x1afc>
  802674:	0005883a 	mov	r2,zero
  802678:	1007883a 	mov	r3,r2
  80267c:	e0bffc17 	ldw	r2,-16(fp)
  802680:	10c021c5 	stb	r3,135(r2)
  d->_g39_e2 = !(d->_g43 || d->_g40);
  802684:	e0bffc17 	ldw	r2,-16(fp)
  802688:	10802283 	ldbu	r2,138(r2)
  80268c:	10803fcc 	andi	r2,r2,255
  802690:	1080201c 	xori	r2,r2,128
  802694:	10bfe004 	addi	r2,r2,-128
  802698:	1000081e 	bne	r2,zero,8026bc <logic+0x1b40>
  80269c:	e0bffc17 	ldw	r2,-16(fp)
  8026a0:	108021c3 	ldbu	r2,135(r2)
  8026a4:	10803fcc 	andi	r2,r2,255
  8026a8:	1080201c 	xori	r2,r2,128
  8026ac:	10bfe004 	addi	r2,r2,-128
  8026b0:	1000021e 	bne	r2,zero,8026bc <logic+0x1b40>
  8026b4:	00800044 	movi	r2,1
  8026b8:	00000106 	br	8026c0 <logic+0x1b44>
  8026bc:	0005883a 	mov	r2,zero
  8026c0:	1007883a 	mov	r3,r2
  8026c4:	e0bffc17 	ldw	r2,-16(fp)
  8026c8:	10c04105 	stb	r3,260(r2)
  d->_g38 = (d->_g37 && d->_cg38) || (d->_g41 && d->_cg42);
  8026cc:	e0bffc17 	ldw	r2,-16(fp)
  8026d0:	10802103 	ldbu	r2,132(r2)
  8026d4:	10803fcc 	andi	r2,r2,255
  8026d8:	1080201c 	xori	r2,r2,128
  8026dc:	10bfe004 	addi	r2,r2,-128
  8026e0:	10000626 	beq	r2,zero,8026fc <logic+0x1b80>
  8026e4:	e0bffc17 	ldw	r2,-16(fp)
  8026e8:	10803783 	ldbu	r2,222(r2)
  8026ec:	10803fcc 	andi	r2,r2,255
  8026f0:	1080201c 	xori	r2,r2,128
  8026f4:	10bfe004 	addi	r2,r2,-128
  8026f8:	10000c1e 	bne	r2,zero,80272c <logic+0x1bb0>
  8026fc:	e0bffc17 	ldw	r2,-16(fp)
  802700:	10802203 	ldbu	r2,136(r2)
  802704:	10803fcc 	andi	r2,r2,255
  802708:	1080201c 	xori	r2,r2,128
  80270c:	10bfe004 	addi	r2,r2,-128
  802710:	10000826 	beq	r2,zero,802734 <logic+0x1bb8>
  802714:	e0bffc17 	ldw	r2,-16(fp)
  802718:	108037c3 	ldbu	r2,223(r2)
  80271c:	10803fcc 	andi	r2,r2,255
  802720:	1080201c 	xori	r2,r2,128
  802724:	10bfe004 	addi	r2,r2,-128
  802728:	10000226 	beq	r2,zero,802734 <logic+0x1bb8>
  80272c:	00800044 	movi	r2,1
  802730:	00000106 	br	802738 <logic+0x1bbc>
  802734:	0005883a 	mov	r2,zero
  802738:	1007883a 	mov	r3,r2
  80273c:	e0bffc17 	ldw	r2,-16(fp)
  802740:	10c02145 	stb	r3,133(r2)
  d->_g42 = d->_g30 || (d->_g22 && !d->_cg47);
  802744:	e0bffc17 	ldw	r2,-16(fp)
  802748:	10801fc3 	ldbu	r2,127(r2)
  80274c:	10803fcc 	andi	r2,r2,255
  802750:	1080201c 	xori	r2,r2,128
  802754:	10bfe004 	addi	r2,r2,-128
  802758:	10000c1e 	bne	r2,zero,80278c <logic+0x1c10>
  80275c:	e0bffc17 	ldw	r2,-16(fp)
  802760:	10801e83 	ldbu	r2,122(r2)
  802764:	10803fcc 	andi	r2,r2,255
  802768:	1080201c 	xori	r2,r2,128
  80276c:	10bfe004 	addi	r2,r2,-128
  802770:	10000826 	beq	r2,zero,802794 <logic+0x1c18>
  802774:	e0bffc17 	ldw	r2,-16(fp)
  802778:	10803803 	ldbu	r2,224(r2)
  80277c:	10803fcc 	andi	r2,r2,255
  802780:	1080201c 	xori	r2,r2,128
  802784:	10bfe004 	addi	r2,r2,-128
  802788:	1000021e 	bne	r2,zero,802794 <logic+0x1c18>
  80278c:	00800044 	movi	r2,1
  802790:	00000106 	br	802798 <logic+0x1c1c>
  802794:	0005883a 	mov	r2,zero
  802798:	1007883a 	mov	r3,r2
  80279c:	e0bffc17 	ldw	r2,-16(fp)
  8027a0:	10c02245 	stb	r3,137(r2)
  d->_g30 = !d->_g42;
  8027a4:	e0bffc17 	ldw	r2,-16(fp)
  8027a8:	10802243 	ldbu	r2,137(r2)
  8027ac:	10803fcc 	andi	r2,r2,255
  8027b0:	1080201c 	xori	r2,r2,128
  8027b4:	10bfe004 	addi	r2,r2,-128
  8027b8:	1005003a 	cmpeq	r2,r2,zero
  8027bc:	1007883a 	mov	r3,r2
  8027c0:	e0bffc17 	ldw	r2,-16(fp)
  8027c4:	10c01fc5 	stb	r3,127(r2)
  d->_g47 = (d->_g33_e1 || d->_g32) && (d->_g39_e2 || d->_g38) && (d->_g30 || d->_g5) && (d->_g32 || d->_g38 || d->_g5);
  8027c8:	e0bffc17 	ldw	r2,-16(fp)
  8027cc:	108040c3 	ldbu	r2,259(r2)
  8027d0:	10803fcc 	andi	r2,r2,255
  8027d4:	1080201c 	xori	r2,r2,128
  8027d8:	10bfe004 	addi	r2,r2,-128
  8027dc:	1000061e 	bne	r2,zero,8027f8 <logic+0x1c7c>
  8027e0:	e0bffc17 	ldw	r2,-16(fp)
  8027e4:	10802003 	ldbu	r2,128(r2)
  8027e8:	10803fcc 	andi	r2,r2,255
  8027ec:	1080201c 	xori	r2,r2,128
  8027f0:	10bfe004 	addi	r2,r2,-128
  8027f4:	10002c26 	beq	r2,zero,8028a8 <logic+0x1d2c>
  8027f8:	e0bffc17 	ldw	r2,-16(fp)
  8027fc:	10804103 	ldbu	r2,260(r2)
  802800:	10803fcc 	andi	r2,r2,255
  802804:	1080201c 	xori	r2,r2,128
  802808:	10bfe004 	addi	r2,r2,-128
  80280c:	1000061e 	bne	r2,zero,802828 <logic+0x1cac>
  802810:	e0bffc17 	ldw	r2,-16(fp)
  802814:	10802143 	ldbu	r2,133(r2)
  802818:	10803fcc 	andi	r2,r2,255
  80281c:	1080201c 	xori	r2,r2,128
  802820:	10bfe004 	addi	r2,r2,-128
  802824:	10002026 	beq	r2,zero,8028a8 <logic+0x1d2c>
  802828:	e0bffc17 	ldw	r2,-16(fp)
  80282c:	10801fc3 	ldbu	r2,127(r2)
  802830:	10803fcc 	andi	r2,r2,255
  802834:	1080201c 	xori	r2,r2,128
  802838:	10bfe004 	addi	r2,r2,-128
  80283c:	1000061e 	bne	r2,zero,802858 <logic+0x1cdc>
  802840:	e0bffc17 	ldw	r2,-16(fp)
  802844:	10801b83 	ldbu	r2,110(r2)
  802848:	10803fcc 	andi	r2,r2,255
  80284c:	1080201c 	xori	r2,r2,128
  802850:	10bfe004 	addi	r2,r2,-128
  802854:	10001426 	beq	r2,zero,8028a8 <logic+0x1d2c>
  802858:	e0bffc17 	ldw	r2,-16(fp)
  80285c:	10802003 	ldbu	r2,128(r2)
  802860:	10803fcc 	andi	r2,r2,255
  802864:	1080201c 	xori	r2,r2,128
  802868:	10bfe004 	addi	r2,r2,-128
  80286c:	10000c1e 	bne	r2,zero,8028a0 <logic+0x1d24>
  802870:	e0bffc17 	ldw	r2,-16(fp)
  802874:	10802143 	ldbu	r2,133(r2)
  802878:	10803fcc 	andi	r2,r2,255
  80287c:	1080201c 	xori	r2,r2,128
  802880:	10bfe004 	addi	r2,r2,-128
  802884:	1000061e 	bne	r2,zero,8028a0 <logic+0x1d24>
  802888:	e0bffc17 	ldw	r2,-16(fp)
  80288c:	10801b83 	ldbu	r2,110(r2)
  802890:	10803fcc 	andi	r2,r2,255
  802894:	1080201c 	xori	r2,r2,128
  802898:	10bfe004 	addi	r2,r2,-128
  80289c:	10000226 	beq	r2,zero,8028a8 <logic+0x1d2c>
  8028a0:	00800044 	movi	r2,1
  8028a4:	00000106 	br	8028ac <logic+0x1d30>
  8028a8:	0005883a 	mov	r2,zero
  8028ac:	1007883a 	mov	r3,r2
  8028b0:	e0bffc17 	ldw	r2,-16(fp)
  8028b4:	10c02305 	stb	r3,140(r2)
  d->_g48 = d->_GO || d->_g47 || (d->_g29 && !d->_cg29);
  8028b8:	e0bffc17 	ldw	r2,-16(fp)
  8028bc:	10803403 	ldbu	r2,208(r2)
  8028c0:	10803fcc 	andi	r2,r2,255
  8028c4:	1080201c 	xori	r2,r2,128
  8028c8:	10bfe004 	addi	r2,r2,-128
  8028cc:	1000121e 	bne	r2,zero,802918 <logic+0x1d9c>
  8028d0:	e0bffc17 	ldw	r2,-16(fp)
  8028d4:	10802303 	ldbu	r2,140(r2)
  8028d8:	10803fcc 	andi	r2,r2,255
  8028dc:	1080201c 	xori	r2,r2,128
  8028e0:	10bfe004 	addi	r2,r2,-128
  8028e4:	10000c1e 	bne	r2,zero,802918 <logic+0x1d9c>
  8028e8:	e0bffc17 	ldw	r2,-16(fp)
  8028ec:	10801f83 	ldbu	r2,126(r2)
  8028f0:	10803fcc 	andi	r2,r2,255
  8028f4:	1080201c 	xori	r2,r2,128
  8028f8:	10bfe004 	addi	r2,r2,-128
  8028fc:	10000826 	beq	r2,zero,802920 <logic+0x1da4>
  802900:	e0bffc17 	ldw	r2,-16(fp)
  802904:	108036c3 	ldbu	r2,219(r2)
  802908:	10803fcc 	andi	r2,r2,255
  80290c:	1080201c 	xori	r2,r2,128
  802910:	10bfe004 	addi	r2,r2,-128
  802914:	1000021e 	bne	r2,zero,802920 <logic+0x1da4>
  802918:	00800044 	movi	r2,1
  80291c:	00000106 	br	802924 <logic+0x1da8>
  802920:	0005883a 	mov	r2,zero
  802924:	1007883a 	mov	r3,r2
  802928:	e0bffc17 	ldw	r2,-16(fp)
  80292c:	10c02345 	stb	r3,141(r2)
  d->_g33_e1 = d->_pg141;
  802930:	e0bffc17 	ldw	r2,-16(fp)
  802934:	10c04803 	ldbu	r3,288(r2)
  802938:	e0bffc17 	ldw	r2,-16(fp)
  80293c:	10c040c5 	stb	r3,259(r2)
  d->_g39 = d->_pg111;
  802940:	e0bffc17 	ldw	r2,-16(fp)
  802944:	10c04843 	ldbu	r3,289(r2)
  802948:	e0bffc17 	ldw	r2,-16(fp)
  80294c:	10c02185 	stb	r3,134(r2)
  d->_g48_e3 = !(d->_g33_e1 || d->_g39);
  802950:	e0bffc17 	ldw	r2,-16(fp)
  802954:	108040c3 	ldbu	r2,259(r2)
  802958:	10803fcc 	andi	r2,r2,255
  80295c:	1080201c 	xori	r2,r2,128
  802960:	10bfe004 	addi	r2,r2,-128
  802964:	1000081e 	bne	r2,zero,802988 <logic+0x1e0c>
  802968:	e0bffc17 	ldw	r2,-16(fp)
  80296c:	10802183 	ldbu	r2,134(r2)
  802970:	10803fcc 	andi	r2,r2,255
  802974:	1080201c 	xori	r2,r2,128
  802978:	10bfe004 	addi	r2,r2,-128
  80297c:	1000021e 	bne	r2,zero,802988 <logic+0x1e0c>
  802980:	00800044 	movi	r2,1
  802984:	00000106 	br	80298c <logic+0x1e10>
  802988:	0005883a 	mov	r2,zero
  80298c:	1007883a 	mov	r3,r2
  802990:	e0bffc17 	ldw	r2,-16(fp)
  802994:	10c04145 	stb	r3,261(r2)
  d->_g39_e2 = d->_pg33;
  802998:	e0bffc17 	ldw	r2,-16(fp)
  80299c:	10c04883 	ldbu	r3,290(r2)
  8029a0:	e0bffc17 	ldw	r2,-16(fp)
  8029a4:	10c04105 	stb	r3,260(r2)
  d->_g33 = d->_GO || d->_g39_e2;
  8029a8:	e0bffc17 	ldw	r2,-16(fp)
  8029ac:	10803403 	ldbu	r2,208(r2)
  8029b0:	10803fcc 	andi	r2,r2,255
  8029b4:	1080201c 	xori	r2,r2,128
  8029b8:	10bfe004 	addi	r2,r2,-128
  8029bc:	1000061e 	bne	r2,zero,8029d8 <logic+0x1e5c>
  8029c0:	e0bffc17 	ldw	r2,-16(fp)
  8029c4:	10804103 	ldbu	r2,260(r2)
  8029c8:	10803fcc 	andi	r2,r2,255
  8029cc:	1080201c 	xori	r2,r2,128
  8029d0:	10bfe004 	addi	r2,r2,-128
  8029d4:	10000226 	beq	r2,zero,8029e0 <logic+0x1e64>
  8029d8:	00800044 	movi	r2,1
  8029dc:	00000106 	br	8029e4 <logic+0x1e68>
  8029e0:	0005883a 	mov	r2,zero
  8029e4:	1007883a 	mov	r3,r2
  8029e8:	e0bffc17 	ldw	r2,-16(fp)
  8029ec:	10c02045 	stb	r3,129(r2)
  if (d->_g33) {
  8029f0:	e0bffc17 	ldw	r2,-16(fp)
  8029f4:	10802043 	ldbu	r2,129(r2)
  8029f8:	10803fcc 	andi	r2,r2,255
  8029fc:	1080201c 	xori	r2,r2,128
  802a00:	10bfe004 	addi	r2,r2,-128
  802a04:	10000426 	beq	r2,zero,802a18 <logic+0x1e9c>
    d->_pre_a_event = d->_reg_a_event;
  802a08:	e0bffc17 	ldw	r2,-16(fp)
  802a0c:	10c017c3 	ldbu	r3,95(r2)
  802a10:	e0bffc17 	ldw	r2,-16(fp)
  802a14:	10c01805 	stb	r3,96(r2)
  }
  d->_g49 = d->_pg142;
  802a18:	e0bffc17 	ldw	r2,-16(fp)
  802a1c:	10c048c3 	ldbu	r3,291(r2)
  802a20:	e0bffc17 	ldw	r2,-16(fp)
  802a24:	10c02385 	stb	r3,142(r2)
  d->_cg136 = d->_pre_a_event;
  802a28:	e0bffc17 	ldw	r2,-16(fp)
  802a2c:	10c01803 	ldbu	r3,96(r2)
  802a30:	e0bffc17 	ldw	r2,-16(fp)
  802a34:	10c04005 	stb	r3,256(r2)
  d->_g29 = d->_g49 && d->_cg136;
  802a38:	e0bffc17 	ldw	r2,-16(fp)
  802a3c:	10802383 	ldbu	r2,142(r2)
  802a40:	10803fcc 	andi	r2,r2,255
  802a44:	1080201c 	xori	r2,r2,128
  802a48:	10bfe004 	addi	r2,r2,-128
  802a4c:	10000826 	beq	r2,zero,802a70 <logic+0x1ef4>
  802a50:	e0bffc17 	ldw	r2,-16(fp)
  802a54:	10804003 	ldbu	r2,256(r2)
  802a58:	10803fcc 	andi	r2,r2,255
  802a5c:	1080201c 	xori	r2,r2,128
  802a60:	10bfe004 	addi	r2,r2,-128
  802a64:	10000226 	beq	r2,zero,802a70 <logic+0x1ef4>
  802a68:	00800044 	movi	r2,1
  802a6c:	00000106 	br	802a74 <logic+0x1ef8>
  802a70:	0005883a 	mov	r2,zero
  802a74:	1007883a 	mov	r3,r2
  802a78:	e0bffc17 	ldw	r2,-16(fp)
  802a7c:	10c01f85 	stb	r3,126(r2)
  if (d->_g29) {
  802a80:	e0bffc17 	ldw	r2,-16(fp)
  802a84:	10801f83 	ldbu	r2,126(r2)
  802a88:	10803fcc 	andi	r2,r2,255
  802a8c:	1080201c 	xori	r2,r2,128
  802a90:	10bfe004 	addi	r2,r2,-128
  802a94:	10000326 	beq	r2,zero,802aa4 <logic+0x1f28>
    d->_Pacemaker_local__Atrig7 = 1;
  802a98:	e0bffc17 	ldw	r2,-16(fp)
  802a9c:	00c00044 	movi	r3,1
  802aa0:	10c01a85 	stb	r3,106(r2)
  }
  d->_g179 = d->_pg139;
  802aa4:	e0bffc17 	ldw	r2,-16(fp)
  802aa8:	10c04903 	ldbu	r3,292(r2)
  802aac:	e0bffc17 	ldw	r2,-16(fp)
  802ab0:	10c033c5 	stb	r3,207(r2)
  if (d->_g179) {
  802ab4:	e0bffc17 	ldw	r2,-16(fp)
  802ab8:	108033c3 	ldbu	r2,207(r2)
  802abc:	10803fcc 	andi	r2,r2,255
  802ac0:	1080201c 	xori	r2,r2,128
  802ac4:	10bfe004 	addi	r2,r2,-128
  802ac8:	10001226 	beq	r2,zero,802b14 <logic+0x1f98>
    d->_region5_AEI_x += d->deltaT;
  802acc:	e13ffc17 	ldw	r4,-16(fp)
  802ad0:	20801017 	ldw	r2,64(r4)
  802ad4:	20c01117 	ldw	r3,68(r4)
  802ad8:	e1bffc17 	ldw	r6,-16(fp)
  802adc:	31001217 	ldw	r4,72(r6)
  802ae0:	31401317 	ldw	r5,76(r6)
  802ae4:	200d883a 	mov	r6,r4
  802ae8:	280f883a 	mov	r7,r5
  802aec:	1009883a 	mov	r4,r2
  802af0:	180b883a 	mov	r5,r3
  802af4:	08050e40 	call	8050e4 <__adddf3>
  802af8:	1009883a 	mov	r4,r2
  802afc:	180b883a 	mov	r5,r3
  802b00:	2005883a 	mov	r2,r4
  802b04:	2807883a 	mov	r3,r5
  802b08:	e13ffc17 	ldw	r4,-16(fp)
  802b0c:	20801015 	stw	r2,64(r4)
  802b10:	20c01115 	stw	r3,68(r4)
  }
  d->_g139 = d->_g49 && !d->_cg136;
  802b14:	e0bffc17 	ldw	r2,-16(fp)
  802b18:	10802383 	ldbu	r2,142(r2)
  802b1c:	10803fcc 	andi	r2,r2,255
  802b20:	1080201c 	xori	r2,r2,128
  802b24:	10bfe004 	addi	r2,r2,-128
  802b28:	10000826 	beq	r2,zero,802b4c <logic+0x1fd0>
  802b2c:	e0bffc17 	ldw	r2,-16(fp)
  802b30:	10804003 	ldbu	r2,256(r2)
  802b34:	10803fcc 	andi	r2,r2,255
  802b38:	1080201c 	xori	r2,r2,128
  802b3c:	10bfe004 	addi	r2,r2,-128
  802b40:	1000021e 	bne	r2,zero,802b4c <logic+0x1fd0>
  802b44:	00800044 	movi	r2,1
  802b48:	00000106 	br	802b50 <logic+0x1fd4>
  802b4c:	0005883a 	mov	r2,zero
  802b50:	1007883a 	mov	r3,r2
  802b54:	e0bffc17 	ldw	r2,-16(fp)
  802b58:	10c03245 	stb	r3,201(r2)
  d->_cg139 = d->_region5_AEI_x >= d->AEI;
  802b5c:	e0bffc17 	ldw	r2,-16(fp)
  802b60:	14001017 	ldw	r16,64(r2)
  802b64:	14401117 	ldw	r17,68(r2)
  802b68:	e0bffc17 	ldw	r2,-16(fp)
  802b6c:	10800117 	ldw	r2,4(r2)
  802b70:	1009883a 	mov	r4,r2
  802b74:	0806b740 	call	806b74 <__floatsidf>
  802b78:	1009883a 	mov	r4,r2
  802b7c:	180b883a 	mov	r5,r3
  802b80:	04800044 	movi	r18,1
  802b84:	200d883a 	mov	r6,r4
  802b88:	280f883a 	mov	r7,r5
  802b8c:	8009883a 	mov	r4,r16
  802b90:	880b883a 	mov	r5,r17
  802b94:	08059900 	call	805990 <__gedf2>
  802b98:	1000010e 	bge	r2,zero,802ba0 <logic+0x2024>
  802b9c:	0025883a 	mov	r18,zero
  802ba0:	9007883a 	mov	r3,r18
  802ba4:	e0bffc17 	ldw	r2,-16(fp)
  802ba8:	10c03fc5 	stb	r3,255(r2)
  d->_g140 = d->_g139 && d->_cg139;
  802bac:	e0bffc17 	ldw	r2,-16(fp)
  802bb0:	10803243 	ldbu	r2,201(r2)
  802bb4:	10803fcc 	andi	r2,r2,255
  802bb8:	1080201c 	xori	r2,r2,128
  802bbc:	10bfe004 	addi	r2,r2,-128
  802bc0:	10000826 	beq	r2,zero,802be4 <logic+0x2068>
  802bc4:	e0bffc17 	ldw	r2,-16(fp)
  802bc8:	10803fc3 	ldbu	r2,255(r2)
  802bcc:	10803fcc 	andi	r2,r2,255
  802bd0:	1080201c 	xori	r2,r2,128
  802bd4:	10bfe004 	addi	r2,r2,-128
  802bd8:	10000226 	beq	r2,zero,802be4 <logic+0x2068>
  802bdc:	00800044 	movi	r2,1
  802be0:	00000106 	br	802be8 <logic+0x206c>
  802be4:	0005883a 	mov	r2,zero
  802be8:	1007883a 	mov	r3,r2
  802bec:	e0bffc17 	ldw	r2,-16(fp)
  802bf0:	10c03285 	stb	r3,202(r2)
  if (d->_g140) {
  802bf4:	e0bffc17 	ldw	r2,-16(fp)
  802bf8:	10803283 	ldbu	r2,202(r2)
  802bfc:	10803fcc 	andi	r2,r2,255
  802c00:	1080201c 	xori	r2,r2,128
  802c04:	10bfe004 	addi	r2,r2,-128
  802c08:	10000326 	beq	r2,zero,802c18 <logic+0x209c>
    d->_Pacemaker_local__Atrig8 = 1;
  802c0c:	e0bffc17 	ldw	r2,-16(fp)
  802c10:	00c00044 	movi	r3,1
  802c14:	10c01ac5 	stb	r3,107(r2)
  }
  d->_g132 = d->_g39 || d->_g33_e1;
  802c18:	e0bffc17 	ldw	r2,-16(fp)
  802c1c:	10802183 	ldbu	r2,134(r2)
  802c20:	10803fcc 	andi	r2,r2,255
  802c24:	1080201c 	xori	r2,r2,128
  802c28:	10bfe004 	addi	r2,r2,-128
  802c2c:	1000061e 	bne	r2,zero,802c48 <logic+0x20cc>
  802c30:	e0bffc17 	ldw	r2,-16(fp)
  802c34:	108040c3 	ldbu	r2,259(r2)
  802c38:	10803fcc 	andi	r2,r2,255
  802c3c:	1080201c 	xori	r2,r2,128
  802c40:	10bfe004 	addi	r2,r2,-128
  802c44:	10000226 	beq	r2,zero,802c50 <logic+0x20d4>
  802c48:	00800044 	movi	r2,1
  802c4c:	00000106 	br	802c54 <logic+0x20d8>
  802c50:	0005883a 	mov	r2,zero
  802c54:	1007883a 	mov	r3,r2
  802c58:	e0bffc17 	ldw	r2,-16(fp)
  802c5c:	10c03105 	stb	r3,196(r2)
  d->_cg127 = d->_region5_AEI_x < d->AEI;
  802c60:	e0bffc17 	ldw	r2,-16(fp)
  802c64:	14001017 	ldw	r16,64(r2)
  802c68:	14401117 	ldw	r17,68(r2)
  802c6c:	e0bffc17 	ldw	r2,-16(fp)
  802c70:	10800117 	ldw	r2,4(r2)
  802c74:	1009883a 	mov	r4,r2
  802c78:	0806b740 	call	806b74 <__floatsidf>
  802c7c:	1009883a 	mov	r4,r2
  802c80:	180b883a 	mov	r5,r3
  802c84:	04800044 	movi	r18,1
  802c88:	200d883a 	mov	r6,r4
  802c8c:	280f883a 	mov	r7,r5
  802c90:	8009883a 	mov	r4,r16
  802c94:	880b883a 	mov	r5,r17
  802c98:	0805a6c0 	call	805a6c <__ledf2>
  802c9c:	10000116 	blt	r2,zero,802ca4 <logic+0x2128>
  802ca0:	0025883a 	mov	r18,zero
  802ca4:	9007883a 	mov	r3,r18
  802ca8:	e0bffc17 	ldw	r2,-16(fp)
  802cac:	10c03f05 	stb	r3,252(r2)
  d->_g126 = d->_g132 && d->_cg127;
  802cb0:	e0bffc17 	ldw	r2,-16(fp)
  802cb4:	10803103 	ldbu	r2,196(r2)
  802cb8:	10803fcc 	andi	r2,r2,255
  802cbc:	1080201c 	xori	r2,r2,128
  802cc0:	10bfe004 	addi	r2,r2,-128
  802cc4:	10000826 	beq	r2,zero,802ce8 <logic+0x216c>
  802cc8:	e0bffc17 	ldw	r2,-16(fp)
  802ccc:	10803f03 	ldbu	r2,252(r2)
  802cd0:	10803fcc 	andi	r2,r2,255
  802cd4:	1080201c 	xori	r2,r2,128
  802cd8:	10bfe004 	addi	r2,r2,-128
  802cdc:	10000226 	beq	r2,zero,802ce8 <logic+0x216c>
  802ce0:	00800044 	movi	r2,1
  802ce4:	00000106 	br	802cec <logic+0x2170>
  802ce8:	0005883a 	mov	r2,zero
  802cec:	1007883a 	mov	r3,r2
  802cf0:	e0bffc17 	ldw	r2,-16(fp)
  802cf4:	10c02fc5 	stb	r3,191(r2)
  if (d->_g126) {
  802cf8:	e0bffc17 	ldw	r2,-16(fp)
  802cfc:	10802fc3 	ldbu	r2,191(r2)
  802d00:	10803fcc 	andi	r2,r2,255
  802d04:	1080201c 	xori	r2,r2,128
  802d08:	10bfe004 	addi	r2,r2,-128
  802d0c:	10003426 	beq	r2,zero,802de0 <logic+0x2264>
    d->sleepT = (d->sleepT < (d->AEI - d->_region5_AEI_x)) ? d->sleepT : (d->AEI - d->_region5_AEI_x);
  802d10:	e0bffc17 	ldw	r2,-16(fp)
  802d14:	14001417 	ldw	r16,80(r2)
  802d18:	14401517 	ldw	r17,84(r2)
  802d1c:	e0bffc17 	ldw	r2,-16(fp)
  802d20:	10800117 	ldw	r2,4(r2)
  802d24:	1009883a 	mov	r4,r2
  802d28:	0806b740 	call	806b74 <__floatsidf>
  802d2c:	1011883a 	mov	r8,r2
  802d30:	1813883a 	mov	r9,r3
  802d34:	e13ffc17 	ldw	r4,-16(fp)
  802d38:	20801017 	ldw	r2,64(r4)
  802d3c:	20c01117 	ldw	r3,68(r4)
  802d40:	100d883a 	mov	r6,r2
  802d44:	180f883a 	mov	r7,r3
  802d48:	4009883a 	mov	r4,r8
  802d4c:	480b883a 	mov	r5,r9
  802d50:	08062780 	call	806278 <__subdf3>
  802d54:	1009883a 	mov	r4,r2
  802d58:	180b883a 	mov	r5,r3
  802d5c:	2005883a 	mov	r2,r4
  802d60:	2807883a 	mov	r3,r5
  802d64:	100d883a 	mov	r6,r2
  802d68:	180f883a 	mov	r7,r3
  802d6c:	8009883a 	mov	r4,r16
  802d70:	880b883a 	mov	r5,r17
  802d74:	0805a6c0 	call	805a6c <__ledf2>
  802d78:	1000040e 	bge	r2,zero,802d8c <logic+0x2210>
  802d7c:	e13ffc17 	ldw	r4,-16(fp)
  802d80:	20801417 	ldw	r2,80(r4)
  802d84:	20c01517 	ldw	r3,84(r4)
  802d88:	00001206 	br	802dd4 <logic+0x2258>
  802d8c:	e0bffc17 	ldw	r2,-16(fp)
  802d90:	10800117 	ldw	r2,4(r2)
  802d94:	1009883a 	mov	r4,r2
  802d98:	0806b740 	call	806b74 <__floatsidf>
  802d9c:	1011883a 	mov	r8,r2
  802da0:	1813883a 	mov	r9,r3
  802da4:	e13ffc17 	ldw	r4,-16(fp)
  802da8:	20801017 	ldw	r2,64(r4)
  802dac:	20c01117 	ldw	r3,68(r4)
  802db0:	100d883a 	mov	r6,r2
  802db4:	180f883a 	mov	r7,r3
  802db8:	4009883a 	mov	r4,r8
  802dbc:	480b883a 	mov	r5,r9
  802dc0:	08062780 	call	806278 <__subdf3>
  802dc4:	1009883a 	mov	r4,r2
  802dc8:	180b883a 	mov	r5,r3
  802dcc:	2005883a 	mov	r2,r4
  802dd0:	2807883a 	mov	r3,r5
  802dd4:	e13ffc17 	ldw	r4,-16(fp)
  802dd8:	20801415 	stw	r2,80(r4)
  802ddc:	20c01515 	stw	r3,84(r4)
  }
  d->_cg128 = d->_Pacemaker_local__Atrig7 || d->_Pacemaker_local__Atrig8;
  802de0:	e0bffc17 	ldw	r2,-16(fp)
  802de4:	10801a83 	ldbu	r2,106(r2)
  802de8:	10803fcc 	andi	r2,r2,255
  802dec:	1080201c 	xori	r2,r2,128
  802df0:	10bfe004 	addi	r2,r2,-128
  802df4:	1000061e 	bne	r2,zero,802e10 <logic+0x2294>
  802df8:	e0bffc17 	ldw	r2,-16(fp)
  802dfc:	10801ac3 	ldbu	r2,107(r2)
  802e00:	10803fcc 	andi	r2,r2,255
  802e04:	1080201c 	xori	r2,r2,128
  802e08:	10bfe004 	addi	r2,r2,-128
  802e0c:	10000226 	beq	r2,zero,802e18 <logic+0x229c>
  802e10:	00800044 	movi	r2,1
  802e14:	00000106 	br	802e1c <logic+0x22a0>
  802e18:	0005883a 	mov	r2,zero
  802e1c:	1007883a 	mov	r3,r2
  802e20:	e0bffc17 	ldw	r2,-16(fp)
  802e24:	10c03ec5 	stb	r3,251(r2)
  d->_g127 = d->_g132 && !d->_cg127;
  802e28:	e0bffc17 	ldw	r2,-16(fp)
  802e2c:	10803103 	ldbu	r2,196(r2)
  802e30:	10803fcc 	andi	r2,r2,255
  802e34:	1080201c 	xori	r2,r2,128
  802e38:	10bfe004 	addi	r2,r2,-128
  802e3c:	10000826 	beq	r2,zero,802e60 <logic+0x22e4>
  802e40:	e0bffc17 	ldw	r2,-16(fp)
  802e44:	10803f03 	ldbu	r2,252(r2)
  802e48:	10803fcc 	andi	r2,r2,255
  802e4c:	1080201c 	xori	r2,r2,128
  802e50:	10bfe004 	addi	r2,r2,-128
  802e54:	1000021e 	bne	r2,zero,802e60 <logic+0x22e4>
  802e58:	00800044 	movi	r2,1
  802e5c:	00000106 	br	802e64 <logic+0x22e8>
  802e60:	0005883a 	mov	r2,zero
  802e64:	1007883a 	mov	r3,r2
  802e68:	e0bffc17 	ldw	r2,-16(fp)
  802e6c:	10c03005 	stb	r3,192(r2)
  d->_cg130 = d->_Pacemaker_local__Atrig7 || d->_Pacemaker_local__Atrig8;
  802e70:	e0bffc17 	ldw	r2,-16(fp)
  802e74:	10801a83 	ldbu	r2,106(r2)
  802e78:	10803fcc 	andi	r2,r2,255
  802e7c:	1080201c 	xori	r2,r2,128
  802e80:	10bfe004 	addi	r2,r2,-128
  802e84:	1000061e 	bne	r2,zero,802ea0 <logic+0x2324>
  802e88:	e0bffc17 	ldw	r2,-16(fp)
  802e8c:	10801ac3 	ldbu	r2,107(r2)
  802e90:	10803fcc 	andi	r2,r2,255
  802e94:	1080201c 	xori	r2,r2,128
  802e98:	10bfe004 	addi	r2,r2,-128
  802e9c:	10000226 	beq	r2,zero,802ea8 <logic+0x232c>
  802ea0:	00800044 	movi	r2,1
  802ea4:	00000106 	br	802eac <logic+0x2330>
  802ea8:	0005883a 	mov	r2,zero
  802eac:	1007883a 	mov	r3,r2
  802eb0:	e0bffc17 	ldw	r2,-16(fp)
  802eb4:	10c03f45 	stb	r3,253(r2)
  d->_g129 = (d->_g126 && d->_cg128) || (d->_g127 && d->_cg130);
  802eb8:	e0bffc17 	ldw	r2,-16(fp)
  802ebc:	10802fc3 	ldbu	r2,191(r2)
  802ec0:	10803fcc 	andi	r2,r2,255
  802ec4:	1080201c 	xori	r2,r2,128
  802ec8:	10bfe004 	addi	r2,r2,-128
  802ecc:	10000626 	beq	r2,zero,802ee8 <logic+0x236c>
  802ed0:	e0bffc17 	ldw	r2,-16(fp)
  802ed4:	10803ec3 	ldbu	r2,251(r2)
  802ed8:	10803fcc 	andi	r2,r2,255
  802edc:	1080201c 	xori	r2,r2,128
  802ee0:	10bfe004 	addi	r2,r2,-128
  802ee4:	10000c1e 	bne	r2,zero,802f18 <logic+0x239c>
  802ee8:	e0bffc17 	ldw	r2,-16(fp)
  802eec:	10803003 	ldbu	r2,192(r2)
  802ef0:	10803fcc 	andi	r2,r2,255
  802ef4:	1080201c 	xori	r2,r2,128
  802ef8:	10bfe004 	addi	r2,r2,-128
  802efc:	10000826 	beq	r2,zero,802f20 <logic+0x23a4>
  802f00:	e0bffc17 	ldw	r2,-16(fp)
  802f04:	10803f43 	ldbu	r2,253(r2)
  802f08:	10803fcc 	andi	r2,r2,255
  802f0c:	1080201c 	xori	r2,r2,128
  802f10:	10bfe004 	addi	r2,r2,-128
  802f14:	10000226 	beq	r2,zero,802f20 <logic+0x23a4>
  802f18:	00800044 	movi	r2,1
  802f1c:	00000106 	br	802f24 <logic+0x23a8>
  802f20:	0005883a 	mov	r2,zero
  802f24:	1007883a 	mov	r3,r2
  802f28:	e0bffc17 	ldw	r2,-16(fp)
  802f2c:	10c03085 	stb	r3,194(r2)
  d->_g136 = !d->_g49;
  802f30:	e0bffc17 	ldw	r2,-16(fp)
  802f34:	10802383 	ldbu	r2,142(r2)
  802f38:	10803fcc 	andi	r2,r2,255
  802f3c:	1080201c 	xori	r2,r2,128
  802f40:	10bfe004 	addi	r2,r2,-128
  802f44:	1005003a 	cmpeq	r2,r2,zero
  802f48:	1007883a 	mov	r3,r2
  802f4c:	e0bffc17 	ldw	r2,-16(fp)
  802f50:	10c03185 	stb	r3,198(r2)
  d->_g137 = d->_g29 || d->_g140;
  802f54:	e0bffc17 	ldw	r2,-16(fp)
  802f58:	10801f83 	ldbu	r2,126(r2)
  802f5c:	10803fcc 	andi	r2,r2,255
  802f60:	1080201c 	xori	r2,r2,128
  802f64:	10bfe004 	addi	r2,r2,-128
  802f68:	1000061e 	bne	r2,zero,802f84 <logic+0x2408>
  802f6c:	e0bffc17 	ldw	r2,-16(fp)
  802f70:	10803283 	ldbu	r2,202(r2)
  802f74:	10803fcc 	andi	r2,r2,255
  802f78:	1080201c 	xori	r2,r2,128
  802f7c:	10bfe004 	addi	r2,r2,-128
  802f80:	10000226 	beq	r2,zero,802f8c <logic+0x2410>
  802f84:	00800044 	movi	r2,1
  802f88:	00000106 	br	802f90 <logic+0x2414>
  802f8c:	0005883a 	mov	r2,zero
  802f90:	1007883a 	mov	r3,r2
  802f94:	e0bffc17 	ldw	r2,-16(fp)
  802f98:	10c031c5 	stb	r3,199(r2)
  d->_g140 = (d->_g48_e3 || d->_g129) && (d->_g136 || d->_g137) && (d->_g129 || d->_g137);
  802f9c:	e0bffc17 	ldw	r2,-16(fp)
  802fa0:	10804143 	ldbu	r2,261(r2)
  802fa4:	10803fcc 	andi	r2,r2,255
  802fa8:	1080201c 	xori	r2,r2,128
  802fac:	10bfe004 	addi	r2,r2,-128
  802fb0:	1000061e 	bne	r2,zero,802fcc <logic+0x2450>
  802fb4:	e0bffc17 	ldw	r2,-16(fp)
  802fb8:	10803083 	ldbu	r2,194(r2)
  802fbc:	10803fcc 	andi	r2,r2,255
  802fc0:	1080201c 	xori	r2,r2,128
  802fc4:	10bfe004 	addi	r2,r2,-128
  802fc8:	10001a26 	beq	r2,zero,803034 <logic+0x24b8>
  802fcc:	e0bffc17 	ldw	r2,-16(fp)
  802fd0:	10803183 	ldbu	r2,198(r2)
  802fd4:	10803fcc 	andi	r2,r2,255
  802fd8:	1080201c 	xori	r2,r2,128
  802fdc:	10bfe004 	addi	r2,r2,-128
  802fe0:	1000061e 	bne	r2,zero,802ffc <logic+0x2480>
  802fe4:	e0bffc17 	ldw	r2,-16(fp)
  802fe8:	108031c3 	ldbu	r2,199(r2)
  802fec:	10803fcc 	andi	r2,r2,255
  802ff0:	1080201c 	xori	r2,r2,128
  802ff4:	10bfe004 	addi	r2,r2,-128
  802ff8:	10000e26 	beq	r2,zero,803034 <logic+0x24b8>
  802ffc:	e0bffc17 	ldw	r2,-16(fp)
  803000:	10803083 	ldbu	r2,194(r2)
  803004:	10803fcc 	andi	r2,r2,255
  803008:	1080201c 	xori	r2,r2,128
  80300c:	10bfe004 	addi	r2,r2,-128
  803010:	1000061e 	bne	r2,zero,80302c <logic+0x24b0>
  803014:	e0bffc17 	ldw	r2,-16(fp)
  803018:	108031c3 	ldbu	r2,199(r2)
  80301c:	10803fcc 	andi	r2,r2,255
  803020:	1080201c 	xori	r2,r2,128
  803024:	10bfe004 	addi	r2,r2,-128
  803028:	10000226 	beq	r2,zero,803034 <logic+0x24b8>
  80302c:	00800044 	movi	r2,1
  803030:	00000106 	br	803038 <logic+0x24bc>
  803034:	0005883a 	mov	r2,zero
  803038:	1007883a 	mov	r3,r2
  80303c:	e0bffc17 	ldw	r2,-16(fp)
  803040:	10c03285 	stb	r3,202(r2)
  d->_cg141 = d->_Pacemaker_local__Atrig7;
  803044:	e0bffc17 	ldw	r2,-16(fp)
  803048:	10c01a83 	ldbu	r3,106(r2)
  80304c:	e0bffc17 	ldw	r2,-16(fp)
  803050:	10c03dc5 	stb	r3,247(r2)
  d->_g129_e1 = d->_g140 && !d->_cg141;
  803054:	e0bffc17 	ldw	r2,-16(fp)
  803058:	10803283 	ldbu	r2,202(r2)
  80305c:	10803fcc 	andi	r2,r2,255
  803060:	1080201c 	xori	r2,r2,128
  803064:	10bfe004 	addi	r2,r2,-128
  803068:	10000826 	beq	r2,zero,80308c <logic+0x2510>
  80306c:	e0bffc17 	ldw	r2,-16(fp)
  803070:	10803dc3 	ldbu	r2,247(r2)
  803074:	10803fcc 	andi	r2,r2,255
  803078:	1080201c 	xori	r2,r2,128
  80307c:	10bfe004 	addi	r2,r2,-128
  803080:	1000021e 	bne	r2,zero,80308c <logic+0x2510>
  803084:	00800044 	movi	r2,1
  803088:	00000106 	br	803090 <logic+0x2514>
  80308c:	0005883a 	mov	r2,zero
  803090:	1007883a 	mov	r3,r2
  803094:	e0bffc17 	ldw	r2,-16(fp)
  803098:	10c04305 	stb	r3,268(r2)
  if (d->_g129_e1) {
  80309c:	e0bffc17 	ldw	r2,-16(fp)
  8030a0:	10804303 	ldbu	r2,268(r2)
  8030a4:	10803fcc 	andi	r2,r2,255
  8030a8:	1080201c 	xori	r2,r2,128
  8030ac:	10bfe004 	addi	r2,r2,-128
  8030b0:	10000626 	beq	r2,zero,8030cc <logic+0x2550>
    d->AP |= 1;
  8030b4:	e0bffc17 	ldw	r2,-16(fp)
  8030b8:	10801683 	ldbu	r2,90(r2)
  8030bc:	10800054 	ori	r2,r2,1
  8030c0:	1007883a 	mov	r3,r2
  8030c4:	e0bffc17 	ldw	r2,-16(fp)
  8030c8:	10c01685 	stb	r3,90(r2)
  }
  d->_g129 = d->_pg60_e1;
  8030cc:	e0bffc17 	ldw	r2,-16(fp)
  8030d0:	10c04943 	ldbu	r3,293(r2)
  8030d4:	e0bffc17 	ldw	r2,-16(fp)
  8030d8:	10c03085 	stb	r3,194(r2)
  d->_cg53 = d->AS || d->AP;
  8030dc:	e0bffc17 	ldw	r2,-16(fp)
  8030e0:	10801603 	ldbu	r2,88(r2)
  8030e4:	10803fcc 	andi	r2,r2,255
  8030e8:	1080201c 	xori	r2,r2,128
  8030ec:	10bfe004 	addi	r2,r2,-128
  8030f0:	1000061e 	bne	r2,zero,80310c <logic+0x2590>
  8030f4:	e0bffc17 	ldw	r2,-16(fp)
  8030f8:	10801683 	ldbu	r2,90(r2)
  8030fc:	10803fcc 	andi	r2,r2,255
  803100:	1080201c 	xori	r2,r2,128
  803104:	10bfe004 	addi	r2,r2,-128
  803108:	10000226 	beq	r2,zero,803114 <logic+0x2598>
  80310c:	00800044 	movi	r2,1
  803110:	00000106 	br	803118 <logic+0x259c>
  803114:	0005883a 	mov	r2,zero
  803118:	1007883a 	mov	r3,r2
  80311c:	e0bffc17 	ldw	r2,-16(fp)
  803120:	10c03885 	stb	r3,226(r2)
  d->_g138 = d->_g129 && d->_cg53;
  803124:	e0bffc17 	ldw	r2,-16(fp)
  803128:	10803083 	ldbu	r2,194(r2)
  80312c:	10803fcc 	andi	r2,r2,255
  803130:	1080201c 	xori	r2,r2,128
  803134:	10bfe004 	addi	r2,r2,-128
  803138:	10000826 	beq	r2,zero,80315c <logic+0x25e0>
  80313c:	e0bffc17 	ldw	r2,-16(fp)
  803140:	10803883 	ldbu	r2,226(r2)
  803144:	10803fcc 	andi	r2,r2,255
  803148:	1080201c 	xori	r2,r2,128
  80314c:	10bfe004 	addi	r2,r2,-128
  803150:	10000226 	beq	r2,zero,80315c <logic+0x25e0>
  803154:	00800044 	movi	r2,1
  803158:	00000106 	br	803160 <logic+0x25e4>
  80315c:	0005883a 	mov	r2,zero
  803160:	1007883a 	mov	r3,r2
  803164:	e0bffc17 	ldw	r2,-16(fp)
  803168:	10c03205 	stb	r3,200(r2)
  if (d->_g138) {
  80316c:	e0bffc17 	ldw	r2,-16(fp)
  803170:	10803203 	ldbu	r2,200(r2)
  803174:	10803fcc 	andi	r2,r2,255
  803178:	1080201c 	xori	r2,r2,128
  80317c:	10bfe004 	addi	r2,r2,-128
  803180:	10000626 	beq	r2,zero,80319c <logic+0x2620>
    d->a_event |= 1;
  803184:	e0bffc17 	ldw	r2,-16(fp)
  803188:	10801743 	ldbu	r2,93(r2)
  80318c:	10800054 	ori	r2,r2,1
  803190:	1007883a 	mov	r3,r2
  803194:	e0bffc17 	ldw	r2,-16(fp)
  803198:	10c01745 	stb	r3,93(r2)
  }
  d->_g138_e2 = d->_pg128;
  80319c:	e0bffc17 	ldw	r2,-16(fp)
  8031a0:	10c04983 	ldbu	r3,294(r2)
  8031a4:	e0bffc17 	ldw	r2,-16(fp)
  8031a8:	10c04345 	stb	r3,269(r2)
  if (d->_g138_e2) {
  8031ac:	e0bffc17 	ldw	r2,-16(fp)
  8031b0:	10804343 	ldbu	r2,269(r2)
  8031b4:	10803fcc 	andi	r2,r2,255
  8031b8:	1080201c 	xori	r2,r2,128
  8031bc:	10bfe004 	addi	r2,r2,-128
  8031c0:	10001226 	beq	r2,zero,80320c <logic+0x2690>
    d->_region2_PVARP_x += d->deltaT;
  8031c4:	e13ffc17 	ldw	r4,-16(fp)
  8031c8:	20800a17 	ldw	r2,40(r4)
  8031cc:	20c00b17 	ldw	r3,44(r4)
  8031d0:	e1bffc17 	ldw	r6,-16(fp)
  8031d4:	31001217 	ldw	r4,72(r6)
  8031d8:	31401317 	ldw	r5,76(r6)
  8031dc:	200d883a 	mov	r6,r4
  8031e0:	280f883a 	mov	r7,r5
  8031e4:	1009883a 	mov	r4,r2
  8031e8:	180b883a 	mov	r5,r3
  8031ec:	08050e40 	call	8050e4 <__adddf3>
  8031f0:	1009883a 	mov	r4,r2
  8031f4:	180b883a 	mov	r5,r3
  8031f8:	2005883a 	mov	r2,r4
  8031fc:	2807883a 	mov	r3,r5
  803200:	e13ffc17 	ldw	r4,-16(fp)
  803204:	20800a15 	stw	r2,40(r4)
  803208:	20c00b15 	stw	r3,44(r4)
  }
  d->_g68 = d->_pg63;
  80320c:	e0bffc17 	ldw	r2,-16(fp)
  803210:	10c049c3 	ldbu	r3,295(r2)
  803214:	e0bffc17 	ldw	r2,-16(fp)
  803218:	10c026c5 	stb	r3,155(r2)
  d->_cg68 = d->_region2_PVARP_x >= d->PVARP;
  80321c:	e0bffc17 	ldw	r2,-16(fp)
  803220:	14000a17 	ldw	r16,40(r2)
  803224:	14400b17 	ldw	r17,44(r2)
  803228:	e0bffc17 	ldw	r2,-16(fp)
  80322c:	10800217 	ldw	r2,8(r2)
  803230:	1009883a 	mov	r4,r2
  803234:	0806b740 	call	806b74 <__floatsidf>
  803238:	1009883a 	mov	r4,r2
  80323c:	180b883a 	mov	r5,r3
  803240:	04800044 	movi	r18,1
  803244:	200d883a 	mov	r6,r4
  803248:	280f883a 	mov	r7,r5
  80324c:	8009883a 	mov	r4,r16
  803250:	880b883a 	mov	r5,r17
  803254:	08059900 	call	805990 <__gedf2>
  803258:	1000010e 	bge	r2,zero,803260 <logic+0x26e4>
  80325c:	0025883a 	mov	r18,zero
  803260:	9007883a 	mov	r3,r18
  803264:	e0bffc17 	ldw	r2,-16(fp)
  803268:	10c03985 	stb	r3,230(r2)
  d->_g69 = d->_g68 && d->_cg68;
  80326c:	e0bffc17 	ldw	r2,-16(fp)
  803270:	108026c3 	ldbu	r2,155(r2)
  803274:	10803fcc 	andi	r2,r2,255
  803278:	1080201c 	xori	r2,r2,128
  80327c:	10bfe004 	addi	r2,r2,-128
  803280:	10000826 	beq	r2,zero,8032a4 <logic+0x2728>
  803284:	e0bffc17 	ldw	r2,-16(fp)
  803288:	10803983 	ldbu	r2,230(r2)
  80328c:	10803fcc 	andi	r2,r2,255
  803290:	1080201c 	xori	r2,r2,128
  803294:	10bfe004 	addi	r2,r2,-128
  803298:	10000226 	beq	r2,zero,8032a4 <logic+0x2728>
  80329c:	00800044 	movi	r2,1
  8032a0:	00000106 	br	8032a8 <logic+0x272c>
  8032a4:	0005883a 	mov	r2,zero
  8032a8:	1007883a 	mov	r3,r2
  8032ac:	e0bffc17 	ldw	r2,-16(fp)
  8032b0:	10c02705 	stb	r3,156(r2)
  if (d->_g69) {
  8032b4:	e0bffc17 	ldw	r2,-16(fp)
  8032b8:	10802703 	ldbu	r2,156(r2)
  8032bc:	10803fcc 	andi	r2,r2,255
  8032c0:	1080201c 	xori	r2,r2,128
  8032c4:	10bfe004 	addi	r2,r2,-128
  8032c8:	10000326 	beq	r2,zero,8032d8 <logic+0x275c>
    d->_Pacemaker_local__Atrig3 = 1;
  8032cc:	e0bffc17 	ldw	r2,-16(fp)
  8032d0:	00c00044 	movi	r3,1
  8032d4:	10c01985 	stb	r3,102(r2)
  }
  d->_g53 = d->_g129 && !d->_cg53;
  8032d8:	e0bffc17 	ldw	r2,-16(fp)
  8032dc:	10803083 	ldbu	r2,194(r2)
  8032e0:	10803fcc 	andi	r2,r2,255
  8032e4:	1080201c 	xori	r2,r2,128
  8032e8:	10bfe004 	addi	r2,r2,-128
  8032ec:	10000826 	beq	r2,zero,803310 <logic+0x2794>
  8032f0:	e0bffc17 	ldw	r2,-16(fp)
  8032f4:	10803883 	ldbu	r2,226(r2)
  8032f8:	10803fcc 	andi	r2,r2,255
  8032fc:	1080201c 	xori	r2,r2,128
  803300:	10bfe004 	addi	r2,r2,-128
  803304:	1000021e 	bne	r2,zero,803310 <logic+0x2794>
  803308:	00800044 	movi	r2,1
  80330c:	00000106 	br	803314 <logic+0x2798>
  803310:	0005883a 	mov	r2,zero
  803314:	1007883a 	mov	r3,r2
  803318:	e0bffc17 	ldw	r2,-16(fp)
  80331c:	10c023c5 	stb	r3,143(r2)
  d->_cg55 = d->v_event;
  803320:	e0bffc17 	ldw	r2,-16(fp)
  803324:	10c01703 	ldbu	r3,92(r2)
  803328:	e0bffc17 	ldw	r2,-16(fp)
  80332c:	10c03845 	stb	r3,225(r2)
  d->_g56 = d->_g53 && d->_cg55;
  803330:	e0bffc17 	ldw	r2,-16(fp)
  803334:	108023c3 	ldbu	r2,143(r2)
  803338:	10803fcc 	andi	r2,r2,255
  80333c:	1080201c 	xori	r2,r2,128
  803340:	10bfe004 	addi	r2,r2,-128
  803344:	10000826 	beq	r2,zero,803368 <logic+0x27ec>
  803348:	e0bffc17 	ldw	r2,-16(fp)
  80334c:	10803843 	ldbu	r2,225(r2)
  803350:	10803fcc 	andi	r2,r2,255
  803354:	1080201c 	xori	r2,r2,128
  803358:	10bfe004 	addi	r2,r2,-128
  80335c:	10000226 	beq	r2,zero,803368 <logic+0x27ec>
  803360:	00800044 	movi	r2,1
  803364:	00000106 	br	80336c <logic+0x27f0>
  803368:	0005883a 	mov	r2,zero
  80336c:	1007883a 	mov	r3,r2
  803370:	e0bffc17 	ldw	r2,-16(fp)
  803374:	10c02485 	stb	r3,146(r2)
  if (d->_g56) {
  803378:	e0bffc17 	ldw	r2,-16(fp)
  80337c:	10802483 	ldbu	r2,146(r2)
  803380:	10803fcc 	andi	r2,r2,255
  803384:	1080201c 	xori	r2,r2,128
  803388:	10bfe004 	addi	r2,r2,-128
  80338c:	10000526 	beq	r2,zero,8033a4 <logic+0x2828>
    d->_region2_PVARP_x = 0;
  803390:	e0bffc17 	ldw	r2,-16(fp)
  803394:	10000a15 	stw	zero,40(r2)
  803398:	10000b15 	stw	zero,44(r2)
    d->_Pacemaker_local__Atrig3 = 0;
  80339c:	e0bffc17 	ldw	r2,-16(fp)
  8033a0:	10001985 	stb	zero,102(r2)
  }
  d->_g62 = d->_pg61;
  8033a4:	e0bffc17 	ldw	r2,-16(fp)
  8033a8:	10c04a03 	ldbu	r3,296(r2)
  8033ac:	e0bffc17 	ldw	r2,-16(fp)
  8033b0:	10c025c5 	stb	r3,151(r2)
  d->_g65 = d->_pg64;
  8033b4:	e0bffc17 	ldw	r2,-16(fp)
  8033b8:	10c04a43 	ldbu	r3,297(r2)
  8033bc:	e0bffc17 	ldw	r2,-16(fp)
  8033c0:	10c02685 	stb	r3,154(r2)
  d->_g62 = d->_g56 || d->_g62 || d->_g65;
  8033c4:	e0bffc17 	ldw	r2,-16(fp)
  8033c8:	10802483 	ldbu	r2,146(r2)
  8033cc:	10803fcc 	andi	r2,r2,255
  8033d0:	1080201c 	xori	r2,r2,128
  8033d4:	10bfe004 	addi	r2,r2,-128
  8033d8:	10000c1e 	bne	r2,zero,80340c <logic+0x2890>
  8033dc:	e0bffc17 	ldw	r2,-16(fp)
  8033e0:	108025c3 	ldbu	r2,151(r2)
  8033e4:	10803fcc 	andi	r2,r2,255
  8033e8:	1080201c 	xori	r2,r2,128
  8033ec:	10bfe004 	addi	r2,r2,-128
  8033f0:	1000061e 	bne	r2,zero,80340c <logic+0x2890>
  8033f4:	e0bffc17 	ldw	r2,-16(fp)
  8033f8:	10802683 	ldbu	r2,154(r2)
  8033fc:	10803fcc 	andi	r2,r2,255
  803400:	1080201c 	xori	r2,r2,128
  803404:	10bfe004 	addi	r2,r2,-128
  803408:	10000226 	beq	r2,zero,803414 <logic+0x2898>
  80340c:	00800044 	movi	r2,1
  803410:	00000106 	br	803418 <logic+0x289c>
  803414:	0005883a 	mov	r2,zero
  803418:	1007883a 	mov	r3,r2
  80341c:	e0bffc17 	ldw	r2,-16(fp)
  803420:	10c025c5 	stb	r3,151(r2)
  d->_cg58 = d->_region2_PVARP_x < d->PVARP;
  803424:	e0bffc17 	ldw	r2,-16(fp)
  803428:	14000a17 	ldw	r16,40(r2)
  80342c:	14400b17 	ldw	r17,44(r2)
  803430:	e0bffc17 	ldw	r2,-16(fp)
  803434:	10800217 	ldw	r2,8(r2)
  803438:	1009883a 	mov	r4,r2
  80343c:	0806b740 	call	806b74 <__floatsidf>
  803440:	1009883a 	mov	r4,r2
  803444:	180b883a 	mov	r5,r3
  803448:	04800044 	movi	r18,1
  80344c:	200d883a 	mov	r6,r4
  803450:	280f883a 	mov	r7,r5
  803454:	8009883a 	mov	r4,r16
  803458:	880b883a 	mov	r5,r17
  80345c:	0805a6c0 	call	805a6c <__ledf2>
  803460:	10000116 	blt	r2,zero,803468 <logic+0x28ec>
  803464:	0025883a 	mov	r18,zero
  803468:	9007883a 	mov	r3,r18
  80346c:	e0bffc17 	ldw	r2,-16(fp)
  803470:	10c038c5 	stb	r3,227(r2)
  d->_g65 = d->_g62 && !d->_cg58;
  803474:	e0bffc17 	ldw	r2,-16(fp)
  803478:	108025c3 	ldbu	r2,151(r2)
  80347c:	10803fcc 	andi	r2,r2,255
  803480:	1080201c 	xori	r2,r2,128
  803484:	10bfe004 	addi	r2,r2,-128
  803488:	10000826 	beq	r2,zero,8034ac <logic+0x2930>
  80348c:	e0bffc17 	ldw	r2,-16(fp)
  803490:	108038c3 	ldbu	r2,227(r2)
  803494:	10803fcc 	andi	r2,r2,255
  803498:	1080201c 	xori	r2,r2,128
  80349c:	10bfe004 	addi	r2,r2,-128
  8034a0:	1000021e 	bne	r2,zero,8034ac <logic+0x2930>
  8034a4:	00800044 	movi	r2,1
  8034a8:	00000106 	br	8034b0 <logic+0x2934>
  8034ac:	0005883a 	mov	r2,zero
  8034b0:	1007883a 	mov	r3,r2
  8034b4:	e0bffc17 	ldw	r2,-16(fp)
  8034b8:	10c02685 	stb	r3,154(r2)
  d->_cg63 = d->_Pacemaker_local__Atrig3;
  8034bc:	e0bffc17 	ldw	r2,-16(fp)
  8034c0:	10c01983 	ldbu	r3,102(r2)
  8034c4:	e0bffc17 	ldw	r2,-16(fp)
  8034c8:	10c03945 	stb	r3,229(r2)
  d->_g64 = d->_g65 && !d->_cg63;
  8034cc:	e0bffc17 	ldw	r2,-16(fp)
  8034d0:	10802683 	ldbu	r2,154(r2)
  8034d4:	10803fcc 	andi	r2,r2,255
  8034d8:	1080201c 	xori	r2,r2,128
  8034dc:	10bfe004 	addi	r2,r2,-128
  8034e0:	10000826 	beq	r2,zero,803504 <logic+0x2988>
  8034e4:	e0bffc17 	ldw	r2,-16(fp)
  8034e8:	10803943 	ldbu	r2,229(r2)
  8034ec:	10803fcc 	andi	r2,r2,255
  8034f0:	1080201c 	xori	r2,r2,128
  8034f4:	10bfe004 	addi	r2,r2,-128
  8034f8:	1000021e 	bne	r2,zero,803504 <logic+0x2988>
  8034fc:	00800044 	movi	r2,1
  803500:	00000106 	br	803508 <logic+0x298c>
  803504:	0005883a 	mov	r2,zero
  803508:	1007883a 	mov	r3,r2
  80350c:	e0bffc17 	ldw	r2,-16(fp)
  803510:	10c02645 	stb	r3,153(r2)
  d->_g58 = d->_g62 && d->_cg58;
  803514:	e0bffc17 	ldw	r2,-16(fp)
  803518:	108025c3 	ldbu	r2,151(r2)
  80351c:	10803fcc 	andi	r2,r2,255
  803520:	1080201c 	xori	r2,r2,128
  803524:	10bfe004 	addi	r2,r2,-128
  803528:	10000826 	beq	r2,zero,80354c <logic+0x29d0>
  80352c:	e0bffc17 	ldw	r2,-16(fp)
  803530:	108038c3 	ldbu	r2,227(r2)
  803534:	10803fcc 	andi	r2,r2,255
  803538:	1080201c 	xori	r2,r2,128
  80353c:	10bfe004 	addi	r2,r2,-128
  803540:	10000226 	beq	r2,zero,80354c <logic+0x29d0>
  803544:	00800044 	movi	r2,1
  803548:	00000106 	br	803550 <logic+0x29d4>
  80354c:	0005883a 	mov	r2,zero
  803550:	1007883a 	mov	r3,r2
  803554:	e0bffc17 	ldw	r2,-16(fp)
  803558:	10c024c5 	stb	r3,147(r2)
  if (d->_g58) {
  80355c:	e0bffc17 	ldw	r2,-16(fp)
  803560:	108024c3 	ldbu	r2,147(r2)
  803564:	10803fcc 	andi	r2,r2,255
  803568:	1080201c 	xori	r2,r2,128
  80356c:	10bfe004 	addi	r2,r2,-128
  803570:	10003426 	beq	r2,zero,803644 <logic+0x2ac8>
    d->sleepT = (d->sleepT < (d->PVARP - d->_region2_PVARP_x)) ? d->sleepT : (d->PVARP - d->_region2_PVARP_x);
  803574:	e0bffc17 	ldw	r2,-16(fp)
  803578:	14001417 	ldw	r16,80(r2)
  80357c:	14401517 	ldw	r17,84(r2)
  803580:	e0bffc17 	ldw	r2,-16(fp)
  803584:	10800217 	ldw	r2,8(r2)
  803588:	1009883a 	mov	r4,r2
  80358c:	0806b740 	call	806b74 <__floatsidf>
  803590:	1011883a 	mov	r8,r2
  803594:	1813883a 	mov	r9,r3
  803598:	e13ffc17 	ldw	r4,-16(fp)
  80359c:	20800a17 	ldw	r2,40(r4)
  8035a0:	20c00b17 	ldw	r3,44(r4)
  8035a4:	100d883a 	mov	r6,r2
  8035a8:	180f883a 	mov	r7,r3
  8035ac:	4009883a 	mov	r4,r8
  8035b0:	480b883a 	mov	r5,r9
  8035b4:	08062780 	call	806278 <__subdf3>
  8035b8:	1009883a 	mov	r4,r2
  8035bc:	180b883a 	mov	r5,r3
  8035c0:	2005883a 	mov	r2,r4
  8035c4:	2807883a 	mov	r3,r5
  8035c8:	100d883a 	mov	r6,r2
  8035cc:	180f883a 	mov	r7,r3
  8035d0:	8009883a 	mov	r4,r16
  8035d4:	880b883a 	mov	r5,r17
  8035d8:	0805a6c0 	call	805a6c <__ledf2>
  8035dc:	1000040e 	bge	r2,zero,8035f0 <logic+0x2a74>
  8035e0:	e13ffc17 	ldw	r4,-16(fp)
  8035e4:	20801417 	ldw	r2,80(r4)
  8035e8:	20c01517 	ldw	r3,84(r4)
  8035ec:	00001206 	br	803638 <logic+0x2abc>
  8035f0:	e0bffc17 	ldw	r2,-16(fp)
  8035f4:	10800217 	ldw	r2,8(r2)
  8035f8:	1009883a 	mov	r4,r2
  8035fc:	0806b740 	call	806b74 <__floatsidf>
  803600:	1011883a 	mov	r8,r2
  803604:	1813883a 	mov	r9,r3
  803608:	e13ffc17 	ldw	r4,-16(fp)
  80360c:	20800a17 	ldw	r2,40(r4)
  803610:	20c00b17 	ldw	r3,44(r4)
  803614:	100d883a 	mov	r6,r2
  803618:	180f883a 	mov	r7,r3
  80361c:	4009883a 	mov	r4,r8
  803620:	480b883a 	mov	r5,r9
  803624:	08062780 	call	806278 <__subdf3>
  803628:	1009883a 	mov	r4,r2
  80362c:	180b883a 	mov	r5,r3
  803630:	2005883a 	mov	r2,r4
  803634:	2807883a 	mov	r3,r5
  803638:	e13ffc17 	ldw	r4,-16(fp)
  80363c:	20801415 	stw	r2,80(r4)
  803640:	20c01515 	stw	r3,84(r4)
  }
  d->_cg59 = d->_Pacemaker_local__Atrig3;
  803644:	e0bffc17 	ldw	r2,-16(fp)
  803648:	10c01983 	ldbu	r3,102(r2)
  80364c:	e0bffc17 	ldw	r2,-16(fp)
  803650:	10c03905 	stb	r3,228(r2)
  d->_g61 = d->_g58 && !d->_cg59;
  803654:	e0bffc17 	ldw	r2,-16(fp)
  803658:	108024c3 	ldbu	r2,147(r2)
  80365c:	10803fcc 	andi	r2,r2,255
  803660:	1080201c 	xori	r2,r2,128
  803664:	10bfe004 	addi	r2,r2,-128
  803668:	10000826 	beq	r2,zero,80368c <logic+0x2b10>
  80366c:	e0bffc17 	ldw	r2,-16(fp)
  803670:	10803903 	ldbu	r2,228(r2)
  803674:	10803fcc 	andi	r2,r2,255
  803678:	1080201c 	xori	r2,r2,128
  80367c:	10bfe004 	addi	r2,r2,-128
  803680:	1000021e 	bne	r2,zero,80368c <logic+0x2b10>
  803684:	00800044 	movi	r2,1
  803688:	00000106 	br	803690 <logic+0x2b14>
  80368c:	0005883a 	mov	r2,zero
  803690:	1007883a 	mov	r3,r2
  803694:	e0bffc17 	ldw	r2,-16(fp)
  803698:	10c02585 	stb	r3,150(r2)
  d->_g60_e1 = !(d->_g64 || d->_g61);
  80369c:	e0bffc17 	ldw	r2,-16(fp)
  8036a0:	10802643 	ldbu	r2,153(r2)
  8036a4:	10803fcc 	andi	r2,r2,255
  8036a8:	1080201c 	xori	r2,r2,128
  8036ac:	10bfe004 	addi	r2,r2,-128
  8036b0:	1000081e 	bne	r2,zero,8036d4 <logic+0x2b58>
  8036b4:	e0bffc17 	ldw	r2,-16(fp)
  8036b8:	10802583 	ldbu	r2,150(r2)
  8036bc:	10803fcc 	andi	r2,r2,255
  8036c0:	1080201c 	xori	r2,r2,128
  8036c4:	10bfe004 	addi	r2,r2,-128
  8036c8:	1000021e 	bne	r2,zero,8036d4 <logic+0x2b58>
  8036cc:	00800044 	movi	r2,1
  8036d0:	00000106 	br	8036d8 <logic+0x2b5c>
  8036d4:	0005883a 	mov	r2,zero
  8036d8:	1007883a 	mov	r3,r2
  8036dc:	e0bffc17 	ldw	r2,-16(fp)
  8036e0:	10c04185 	stb	r3,262(r2)
  d->_g59 = (d->_g58 && d->_cg59) || (d->_g65 && d->_cg63);
  8036e4:	e0bffc17 	ldw	r2,-16(fp)
  8036e8:	108024c3 	ldbu	r2,147(r2)
  8036ec:	10803fcc 	andi	r2,r2,255
  8036f0:	1080201c 	xori	r2,r2,128
  8036f4:	10bfe004 	addi	r2,r2,-128
  8036f8:	10000626 	beq	r2,zero,803714 <logic+0x2b98>
  8036fc:	e0bffc17 	ldw	r2,-16(fp)
  803700:	10803903 	ldbu	r2,228(r2)
  803704:	10803fcc 	andi	r2,r2,255
  803708:	1080201c 	xori	r2,r2,128
  80370c:	10bfe004 	addi	r2,r2,-128
  803710:	10000c1e 	bne	r2,zero,803744 <logic+0x2bc8>
  803714:	e0bffc17 	ldw	r2,-16(fp)
  803718:	10802683 	ldbu	r2,154(r2)
  80371c:	10803fcc 	andi	r2,r2,255
  803720:	1080201c 	xori	r2,r2,128
  803724:	10bfe004 	addi	r2,r2,-128
  803728:	10000826 	beq	r2,zero,80374c <logic+0x2bd0>
  80372c:	e0bffc17 	ldw	r2,-16(fp)
  803730:	10803943 	ldbu	r2,229(r2)
  803734:	10803fcc 	andi	r2,r2,255
  803738:	1080201c 	xori	r2,r2,128
  80373c:	10bfe004 	addi	r2,r2,-128
  803740:	10000226 	beq	r2,zero,80374c <logic+0x2bd0>
  803744:	00800044 	movi	r2,1
  803748:	00000106 	br	803750 <logic+0x2bd4>
  80374c:	0005883a 	mov	r2,zero
  803750:	1007883a 	mov	r3,r2
  803754:	e0bffc17 	ldw	r2,-16(fp)
  803758:	10c02505 	stb	r3,148(r2)
  d->_g63 = d->_g56 || (d->_g68 && !d->_cg68);
  80375c:	e0bffc17 	ldw	r2,-16(fp)
  803760:	10802483 	ldbu	r2,146(r2)
  803764:	10803fcc 	andi	r2,r2,255
  803768:	1080201c 	xori	r2,r2,128
  80376c:	10bfe004 	addi	r2,r2,-128
  803770:	10000c1e 	bne	r2,zero,8037a4 <logic+0x2c28>
  803774:	e0bffc17 	ldw	r2,-16(fp)
  803778:	108026c3 	ldbu	r2,155(r2)
  80377c:	10803fcc 	andi	r2,r2,255
  803780:	1080201c 	xori	r2,r2,128
  803784:	10bfe004 	addi	r2,r2,-128
  803788:	10000826 	beq	r2,zero,8037ac <logic+0x2c30>
  80378c:	e0bffc17 	ldw	r2,-16(fp)
  803790:	10803983 	ldbu	r2,230(r2)
  803794:	10803fcc 	andi	r2,r2,255
  803798:	1080201c 	xori	r2,r2,128
  80379c:	10bfe004 	addi	r2,r2,-128
  8037a0:	1000021e 	bne	r2,zero,8037ac <logic+0x2c30>
  8037a4:	00800044 	movi	r2,1
  8037a8:	00000106 	br	8037b0 <logic+0x2c34>
  8037ac:	0005883a 	mov	r2,zero
  8037b0:	1007883a 	mov	r3,r2
  8037b4:	e0bffc17 	ldw	r2,-16(fp)
  8037b8:	10c02605 	stb	r3,152(r2)
  d->_g56 = !d->_g63;
  8037bc:	e0bffc17 	ldw	r2,-16(fp)
  8037c0:	10802603 	ldbu	r2,152(r2)
  8037c4:	10803fcc 	andi	r2,r2,255
  8037c8:	1080201c 	xori	r2,r2,128
  8037cc:	10bfe004 	addi	r2,r2,-128
  8037d0:	1005003a 	cmpeq	r2,r2,zero
  8037d4:	1007883a 	mov	r3,r2
  8037d8:	e0bffc17 	ldw	r2,-16(fp)
  8037dc:	10c02485 	stb	r3,146(r2)
  d->_g68 = (d->_g60_e1 || d->_g59) && (d->_g56 || d->_g69) && (d->_g59 || d->_g69);
  8037e0:	e0bffc17 	ldw	r2,-16(fp)
  8037e4:	10804183 	ldbu	r2,262(r2)
  8037e8:	10803fcc 	andi	r2,r2,255
  8037ec:	1080201c 	xori	r2,r2,128
  8037f0:	10bfe004 	addi	r2,r2,-128
  8037f4:	1000061e 	bne	r2,zero,803810 <logic+0x2c94>
  8037f8:	e0bffc17 	ldw	r2,-16(fp)
  8037fc:	10802503 	ldbu	r2,148(r2)
  803800:	10803fcc 	andi	r2,r2,255
  803804:	1080201c 	xori	r2,r2,128
  803808:	10bfe004 	addi	r2,r2,-128
  80380c:	10001a26 	beq	r2,zero,803878 <logic+0x2cfc>
  803810:	e0bffc17 	ldw	r2,-16(fp)
  803814:	10802483 	ldbu	r2,146(r2)
  803818:	10803fcc 	andi	r2,r2,255
  80381c:	1080201c 	xori	r2,r2,128
  803820:	10bfe004 	addi	r2,r2,-128
  803824:	1000061e 	bne	r2,zero,803840 <logic+0x2cc4>
  803828:	e0bffc17 	ldw	r2,-16(fp)
  80382c:	10802703 	ldbu	r2,156(r2)
  803830:	10803fcc 	andi	r2,r2,255
  803834:	1080201c 	xori	r2,r2,128
  803838:	10bfe004 	addi	r2,r2,-128
  80383c:	10000e26 	beq	r2,zero,803878 <logic+0x2cfc>
  803840:	e0bffc17 	ldw	r2,-16(fp)
  803844:	10802503 	ldbu	r2,148(r2)
  803848:	10803fcc 	andi	r2,r2,255
  80384c:	1080201c 	xori	r2,r2,128
  803850:	10bfe004 	addi	r2,r2,-128
  803854:	1000061e 	bne	r2,zero,803870 <logic+0x2cf4>
  803858:	e0bffc17 	ldw	r2,-16(fp)
  80385c:	10802703 	ldbu	r2,156(r2)
  803860:	10803fcc 	andi	r2,r2,255
  803864:	1080201c 	xori	r2,r2,128
  803868:	10bfe004 	addi	r2,r2,-128
  80386c:	10000226 	beq	r2,zero,803878 <logic+0x2cfc>
  803870:	00800044 	movi	r2,1
  803874:	00000106 	br	80387c <logic+0x2d00>
  803878:	0005883a 	mov	r2,zero
  80387c:	1007883a 	mov	r3,r2
  803880:	e0bffc17 	ldw	r2,-16(fp)
  803884:	10c026c5 	stb	r3,155(r2)
  d->_g60_e1 = d->_GO || d->_g138 || d->_g68 || (d->_g53 && !d->_cg55);
  803888:	e0bffc17 	ldw	r2,-16(fp)
  80388c:	10803403 	ldbu	r2,208(r2)
  803890:	10803fcc 	andi	r2,r2,255
  803894:	1080201c 	xori	r2,r2,128
  803898:	10bfe004 	addi	r2,r2,-128
  80389c:	1000181e 	bne	r2,zero,803900 <logic+0x2d84>
  8038a0:	e0bffc17 	ldw	r2,-16(fp)
  8038a4:	10803203 	ldbu	r2,200(r2)
  8038a8:	10803fcc 	andi	r2,r2,255
  8038ac:	1080201c 	xori	r2,r2,128
  8038b0:	10bfe004 	addi	r2,r2,-128
  8038b4:	1000121e 	bne	r2,zero,803900 <logic+0x2d84>
  8038b8:	e0bffc17 	ldw	r2,-16(fp)
  8038bc:	108026c3 	ldbu	r2,155(r2)
  8038c0:	10803fcc 	andi	r2,r2,255
  8038c4:	1080201c 	xori	r2,r2,128
  8038c8:	10bfe004 	addi	r2,r2,-128
  8038cc:	10000c1e 	bne	r2,zero,803900 <logic+0x2d84>
  8038d0:	e0bffc17 	ldw	r2,-16(fp)
  8038d4:	108023c3 	ldbu	r2,143(r2)
  8038d8:	10803fcc 	andi	r2,r2,255
  8038dc:	1080201c 	xori	r2,r2,128
  8038e0:	10bfe004 	addi	r2,r2,-128
  8038e4:	10000826 	beq	r2,zero,803908 <logic+0x2d8c>
  8038e8:	e0bffc17 	ldw	r2,-16(fp)
  8038ec:	10803843 	ldbu	r2,225(r2)
  8038f0:	10803fcc 	andi	r2,r2,255
  8038f4:	1080201c 	xori	r2,r2,128
  8038f8:	10bfe004 	addi	r2,r2,-128
  8038fc:	1000021e 	bne	r2,zero,803908 <logic+0x2d8c>
  803900:	00800044 	movi	r2,1
  803904:	00000106 	br	80390c <logic+0x2d90>
  803908:	0005883a 	mov	r2,zero
  80390c:	1007883a 	mov	r3,r2
  803910:	e0bffc17 	ldw	r2,-16(fp)
  803914:	10c04185 	stb	r3,262(r2)
  d->_g60 = d->_pg130;
  803918:	e0bffc17 	ldw	r2,-16(fp)
  80391c:	10c04a83 	ldbu	r3,298(r2)
  803920:	e0bffc17 	ldw	r2,-16(fp)
  803924:	10c02545 	stb	r3,149(r2)
  if (d->_g60) {
  803928:	e0bffc17 	ldw	r2,-16(fp)
  80392c:	10802543 	ldbu	r2,149(r2)
  803930:	10803fcc 	andi	r2,r2,255
  803934:	1080201c 	xori	r2,r2,128
  803938:	10bfe004 	addi	r2,r2,-128
  80393c:	10001226 	beq	r2,zero,803988 <logic+0x2e0c>
    d->_region3_VRP_x += d->deltaT;
  803940:	e13ffc17 	ldw	r4,-16(fp)
  803944:	20800c17 	ldw	r2,48(r4)
  803948:	20c00d17 	ldw	r3,52(r4)
  80394c:	e1bffc17 	ldw	r6,-16(fp)
  803950:	31001217 	ldw	r4,72(r6)
  803954:	31401317 	ldw	r5,76(r6)
  803958:	200d883a 	mov	r6,r4
  80395c:	280f883a 	mov	r7,r5
  803960:	1009883a 	mov	r4,r2
  803964:	180b883a 	mov	r5,r3
  803968:	08050e40 	call	8050e4 <__adddf3>
  80396c:	1009883a 	mov	r4,r2
  803970:	180b883a 	mov	r5,r3
  803974:	2005883a 	mov	r2,r4
  803978:	2807883a 	mov	r3,r5
  80397c:	e13ffc17 	ldw	r4,-16(fp)
  803980:	20800c15 	stw	r2,48(r4)
  803984:	20c00d15 	stw	r3,52(r4)
  }
  d->_g69_e2 = d->_pg82;
  803988:	e0bffc17 	ldw	r2,-16(fp)
  80398c:	10c04ac3 	ldbu	r3,299(r2)
  803990:	e0bffc17 	ldw	r2,-16(fp)
  803994:	10c041c5 	stb	r3,263(r2)
  d->_cg87 = d->_region3_VRP_x >= d->VRP;
  803998:	e0bffc17 	ldw	r2,-16(fp)
  80399c:	14000c17 	ldw	r16,48(r2)
  8039a0:	14400d17 	ldw	r17,52(r2)
  8039a4:	e0bffc17 	ldw	r2,-16(fp)
  8039a8:	10800317 	ldw	r2,12(r2)
  8039ac:	1009883a 	mov	r4,r2
  8039b0:	0806b740 	call	806b74 <__floatsidf>
  8039b4:	1009883a 	mov	r4,r2
  8039b8:	180b883a 	mov	r5,r3
  8039bc:	04800044 	movi	r18,1
  8039c0:	200d883a 	mov	r6,r4
  8039c4:	280f883a 	mov	r7,r5
  8039c8:	8009883a 	mov	r4,r16
  8039cc:	880b883a 	mov	r5,r17
  8039d0:	08059900 	call	805990 <__gedf2>
  8039d4:	1000010e 	bge	r2,zero,8039dc <logic+0x2e60>
  8039d8:	0025883a 	mov	r18,zero
  8039dc:	9007883a 	mov	r3,r18
  8039e0:	e0bffc17 	ldw	r2,-16(fp)
  8039e4:	10c03ac5 	stb	r3,235(r2)
  d->_g69 = d->_g69_e2 && d->_cg87;
  8039e8:	e0bffc17 	ldw	r2,-16(fp)
  8039ec:	108041c3 	ldbu	r2,263(r2)
  8039f0:	10803fcc 	andi	r2,r2,255
  8039f4:	1080201c 	xori	r2,r2,128
  8039f8:	10bfe004 	addi	r2,r2,-128
  8039fc:	10000826 	beq	r2,zero,803a20 <logic+0x2ea4>
  803a00:	e0bffc17 	ldw	r2,-16(fp)
  803a04:	10803ac3 	ldbu	r2,235(r2)
  803a08:	10803fcc 	andi	r2,r2,255
  803a0c:	1080201c 	xori	r2,r2,128
  803a10:	10bfe004 	addi	r2,r2,-128
  803a14:	10000226 	beq	r2,zero,803a20 <logic+0x2ea4>
  803a18:	00800044 	movi	r2,1
  803a1c:	00000106 	br	803a24 <logic+0x2ea8>
  803a20:	0005883a 	mov	r2,zero
  803a24:	1007883a 	mov	r3,r2
  803a28:	e0bffc17 	ldw	r2,-16(fp)
  803a2c:	10c02705 	stb	r3,156(r2)
  if (d->_g69) {
  803a30:	e0bffc17 	ldw	r2,-16(fp)
  803a34:	10802703 	ldbu	r2,156(r2)
  803a38:	10803fcc 	andi	r2,r2,255
  803a3c:	1080201c 	xori	r2,r2,128
  803a40:	10bfe004 	addi	r2,r2,-128
  803a44:	10000326 	beq	r2,zero,803a54 <logic+0x2ed8>
    d->_Pacemaker_local__Atrig4 = 1;
  803a48:	e0bffc17 	ldw	r2,-16(fp)
  803a4c:	00c00044 	movi	r3,1
  803a50:	10c019c5 	stb	r3,103(r2)
  }
  if (d->_g117) {
  803a54:	e0bffc17 	ldw	r2,-16(fp)
  803a58:	10802f03 	ldbu	r2,188(r2)
  803a5c:	10803fcc 	andi	r2,r2,255
  803a60:	1080201c 	xori	r2,r2,128
  803a64:	10bfe004 	addi	r2,r2,-128
  803a68:	10000526 	beq	r2,zero,803a80 <logic+0x2f04>
    d->_region3_VRP_x = 0;
  803a6c:	e0bffc17 	ldw	r2,-16(fp)
  803a70:	10000c15 	stw	zero,48(r2)
  803a74:	10000d15 	stw	zero,52(r2)
    d->_Pacemaker_local__Atrig4 = 0;
  803a78:	e0bffc17 	ldw	r2,-16(fp)
  803a7c:	100019c5 	stb	zero,103(r2)
  }
  d->_g55 = d->_pg80;
  803a80:	e0bffc17 	ldw	r2,-16(fp)
  803a84:	10c04b03 	ldbu	r3,300(r2)
  803a88:	e0bffc17 	ldw	r2,-16(fp)
  803a8c:	10c02445 	stb	r3,145(r2)
  d->_g70 = d->_pg81;
  803a90:	e0bffc17 	ldw	r2,-16(fp)
  803a94:	10c04b43 	ldbu	r3,301(r2)
  803a98:	e0bffc17 	ldw	r2,-16(fp)
  803a9c:	10c02745 	stb	r3,157(r2)
  d->_g54 = d->_g117 || d->_g55 || d->_g70;
  803aa0:	e0bffc17 	ldw	r2,-16(fp)
  803aa4:	10802f03 	ldbu	r2,188(r2)
  803aa8:	10803fcc 	andi	r2,r2,255
  803aac:	1080201c 	xori	r2,r2,128
  803ab0:	10bfe004 	addi	r2,r2,-128
  803ab4:	10000c1e 	bne	r2,zero,803ae8 <logic+0x2f6c>
  803ab8:	e0bffc17 	ldw	r2,-16(fp)
  803abc:	10802443 	ldbu	r2,145(r2)
  803ac0:	10803fcc 	andi	r2,r2,255
  803ac4:	1080201c 	xori	r2,r2,128
  803ac8:	10bfe004 	addi	r2,r2,-128
  803acc:	1000061e 	bne	r2,zero,803ae8 <logic+0x2f6c>
  803ad0:	e0bffc17 	ldw	r2,-16(fp)
  803ad4:	10802743 	ldbu	r2,157(r2)
  803ad8:	10803fcc 	andi	r2,r2,255
  803adc:	1080201c 	xori	r2,r2,128
  803ae0:	10bfe004 	addi	r2,r2,-128
  803ae4:	10000226 	beq	r2,zero,803af0 <logic+0x2f74>
  803ae8:	00800044 	movi	r2,1
  803aec:	00000106 	br	803af4 <logic+0x2f78>
  803af0:	0005883a 	mov	r2,zero
  803af4:	1007883a 	mov	r3,r2
  803af8:	e0bffc17 	ldw	r2,-16(fp)
  803afc:	10c02405 	stb	r3,144(r2)
  d->_cg77 = d->_region3_VRP_x < d->VRP;
  803b00:	e0bffc17 	ldw	r2,-16(fp)
  803b04:	14000c17 	ldw	r16,48(r2)
  803b08:	14400d17 	ldw	r17,52(r2)
  803b0c:	e0bffc17 	ldw	r2,-16(fp)
  803b10:	10800317 	ldw	r2,12(r2)
  803b14:	1009883a 	mov	r4,r2
  803b18:	0806b740 	call	806b74 <__floatsidf>
  803b1c:	1009883a 	mov	r4,r2
  803b20:	180b883a 	mov	r5,r3
  803b24:	04800044 	movi	r18,1
  803b28:	200d883a 	mov	r6,r4
  803b2c:	280f883a 	mov	r7,r5
  803b30:	8009883a 	mov	r4,r16
  803b34:	880b883a 	mov	r5,r17
  803b38:	0805a6c0 	call	805a6c <__ledf2>
  803b3c:	10000116 	blt	r2,zero,803b44 <logic+0x2fc8>
  803b40:	0025883a 	mov	r18,zero
  803b44:	9007883a 	mov	r3,r18
  803b48:	e0bffc17 	ldw	r2,-16(fp)
  803b4c:	10c03a05 	stb	r3,232(r2)
  d->_g84 = d->_g54 && !d->_cg77;
  803b50:	e0bffc17 	ldw	r2,-16(fp)
  803b54:	10802403 	ldbu	r2,144(r2)
  803b58:	10803fcc 	andi	r2,r2,255
  803b5c:	1080201c 	xori	r2,r2,128
  803b60:	10bfe004 	addi	r2,r2,-128
  803b64:	10000826 	beq	r2,zero,803b88 <logic+0x300c>
  803b68:	e0bffc17 	ldw	r2,-16(fp)
  803b6c:	10803a03 	ldbu	r2,232(r2)
  803b70:	10803fcc 	andi	r2,r2,255
  803b74:	1080201c 	xori	r2,r2,128
  803b78:	10bfe004 	addi	r2,r2,-128
  803b7c:	1000021e 	bne	r2,zero,803b88 <logic+0x300c>
  803b80:	00800044 	movi	r2,1
  803b84:	00000106 	br	803b8c <logic+0x3010>
  803b88:	0005883a 	mov	r2,zero
  803b8c:	1007883a 	mov	r3,r2
  803b90:	e0bffc17 	ldw	r2,-16(fp)
  803b94:	10c02985 	stb	r3,166(r2)
  d->_cg82 = d->_Pacemaker_local__Atrig4;
  803b98:	e0bffc17 	ldw	r2,-16(fp)
  803b9c:	10c019c3 	ldbu	r3,103(r2)
  803ba0:	e0bffc17 	ldw	r2,-16(fp)
  803ba4:	10c03a85 	stb	r3,234(r2)
  d->_g81 = d->_g84 && !d->_cg82;
  803ba8:	e0bffc17 	ldw	r2,-16(fp)
  803bac:	10802983 	ldbu	r2,166(r2)
  803bb0:	10803fcc 	andi	r2,r2,255
  803bb4:	1080201c 	xori	r2,r2,128
  803bb8:	10bfe004 	addi	r2,r2,-128
  803bbc:	10000826 	beq	r2,zero,803be0 <logic+0x3064>
  803bc0:	e0bffc17 	ldw	r2,-16(fp)
  803bc4:	10803a83 	ldbu	r2,234(r2)
  803bc8:	10803fcc 	andi	r2,r2,255
  803bcc:	1080201c 	xori	r2,r2,128
  803bd0:	10bfe004 	addi	r2,r2,-128
  803bd4:	1000021e 	bne	r2,zero,803be0 <logic+0x3064>
  803bd8:	00800044 	movi	r2,1
  803bdc:	00000106 	br	803be4 <logic+0x3068>
  803be0:	0005883a 	mov	r2,zero
  803be4:	1007883a 	mov	r3,r2
  803be8:	e0bffc17 	ldw	r2,-16(fp)
  803bec:	10c02905 	stb	r3,164(r2)
  d->_g77 = d->_g54 && d->_cg77;
  803bf0:	e0bffc17 	ldw	r2,-16(fp)
  803bf4:	10802403 	ldbu	r2,144(r2)
  803bf8:	10803fcc 	andi	r2,r2,255
  803bfc:	1080201c 	xori	r2,r2,128
  803c00:	10bfe004 	addi	r2,r2,-128
  803c04:	10000826 	beq	r2,zero,803c28 <logic+0x30ac>
  803c08:	e0bffc17 	ldw	r2,-16(fp)
  803c0c:	10803a03 	ldbu	r2,232(r2)
  803c10:	10803fcc 	andi	r2,r2,255
  803c14:	1080201c 	xori	r2,r2,128
  803c18:	10bfe004 	addi	r2,r2,-128
  803c1c:	10000226 	beq	r2,zero,803c28 <logic+0x30ac>
  803c20:	00800044 	movi	r2,1
  803c24:	00000106 	br	803c2c <logic+0x30b0>
  803c28:	0005883a 	mov	r2,zero
  803c2c:	1007883a 	mov	r3,r2
  803c30:	e0bffc17 	ldw	r2,-16(fp)
  803c34:	10c02805 	stb	r3,160(r2)
  if (d->_g77) {
  803c38:	e0bffc17 	ldw	r2,-16(fp)
  803c3c:	10802803 	ldbu	r2,160(r2)
  803c40:	10803fcc 	andi	r2,r2,255
  803c44:	1080201c 	xori	r2,r2,128
  803c48:	10bfe004 	addi	r2,r2,-128
  803c4c:	10003426 	beq	r2,zero,803d20 <logic+0x31a4>
    d->sleepT = (d->sleepT < (d->VRP - d->_region3_VRP_x)) ? d->sleepT : (d->VRP - d->_region3_VRP_x);
  803c50:	e0bffc17 	ldw	r2,-16(fp)
  803c54:	14001417 	ldw	r16,80(r2)
  803c58:	14401517 	ldw	r17,84(r2)
  803c5c:	e0bffc17 	ldw	r2,-16(fp)
  803c60:	10800317 	ldw	r2,12(r2)
  803c64:	1009883a 	mov	r4,r2
  803c68:	0806b740 	call	806b74 <__floatsidf>
  803c6c:	1011883a 	mov	r8,r2
  803c70:	1813883a 	mov	r9,r3
  803c74:	e13ffc17 	ldw	r4,-16(fp)
  803c78:	20800c17 	ldw	r2,48(r4)
  803c7c:	20c00d17 	ldw	r3,52(r4)
  803c80:	100d883a 	mov	r6,r2
  803c84:	180f883a 	mov	r7,r3
  803c88:	4009883a 	mov	r4,r8
  803c8c:	480b883a 	mov	r5,r9
  803c90:	08062780 	call	806278 <__subdf3>
  803c94:	1009883a 	mov	r4,r2
  803c98:	180b883a 	mov	r5,r3
  803c9c:	2005883a 	mov	r2,r4
  803ca0:	2807883a 	mov	r3,r5
  803ca4:	100d883a 	mov	r6,r2
  803ca8:	180f883a 	mov	r7,r3
  803cac:	8009883a 	mov	r4,r16
  803cb0:	880b883a 	mov	r5,r17
  803cb4:	0805a6c0 	call	805a6c <__ledf2>
  803cb8:	1000040e 	bge	r2,zero,803ccc <logic+0x3150>
  803cbc:	e13ffc17 	ldw	r4,-16(fp)
  803cc0:	20801417 	ldw	r2,80(r4)
  803cc4:	20c01517 	ldw	r3,84(r4)
  803cc8:	00001206 	br	803d14 <logic+0x3198>
  803ccc:	e0bffc17 	ldw	r2,-16(fp)
  803cd0:	10800317 	ldw	r2,12(r2)
  803cd4:	1009883a 	mov	r4,r2
  803cd8:	0806b740 	call	806b74 <__floatsidf>
  803cdc:	1011883a 	mov	r8,r2
  803ce0:	1813883a 	mov	r9,r3
  803ce4:	e13ffc17 	ldw	r4,-16(fp)
  803ce8:	20800c17 	ldw	r2,48(r4)
  803cec:	20c00d17 	ldw	r3,52(r4)
  803cf0:	100d883a 	mov	r6,r2
  803cf4:	180f883a 	mov	r7,r3
  803cf8:	4009883a 	mov	r4,r8
  803cfc:	480b883a 	mov	r5,r9
  803d00:	08062780 	call	806278 <__subdf3>
  803d04:	1009883a 	mov	r4,r2
  803d08:	180b883a 	mov	r5,r3
  803d0c:	2005883a 	mov	r2,r4
  803d10:	2807883a 	mov	r3,r5
  803d14:	e13ffc17 	ldw	r4,-16(fp)
  803d18:	20801415 	stw	r2,80(r4)
  803d1c:	20c01515 	stw	r3,84(r4)
  }
  d->_cg78 = d->_Pacemaker_local__Atrig4;
  803d20:	e0bffc17 	ldw	r2,-16(fp)
  803d24:	10c019c3 	ldbu	r3,103(r2)
  803d28:	e0bffc17 	ldw	r2,-16(fp)
  803d2c:	10c03a45 	stb	r3,233(r2)
  d->_g80 = d->_g77 && !d->_cg78;
  803d30:	e0bffc17 	ldw	r2,-16(fp)
  803d34:	10802803 	ldbu	r2,160(r2)
  803d38:	10803fcc 	andi	r2,r2,255
  803d3c:	1080201c 	xori	r2,r2,128
  803d40:	10bfe004 	addi	r2,r2,-128
  803d44:	10000826 	beq	r2,zero,803d68 <logic+0x31ec>
  803d48:	e0bffc17 	ldw	r2,-16(fp)
  803d4c:	10803a43 	ldbu	r2,233(r2)
  803d50:	10803fcc 	andi	r2,r2,255
  803d54:	1080201c 	xori	r2,r2,128
  803d58:	10bfe004 	addi	r2,r2,-128
  803d5c:	1000021e 	bne	r2,zero,803d68 <logic+0x31ec>
  803d60:	00800044 	movi	r2,1
  803d64:	00000106 	br	803d6c <logic+0x31f0>
  803d68:	0005883a 	mov	r2,zero
  803d6c:	1007883a 	mov	r3,r2
  803d70:	e0bffc17 	ldw	r2,-16(fp)
  803d74:	10c028c5 	stb	r3,163(r2)
  d->_g79_e1 = !(d->_g81 || d->_g80);
  803d78:	e0bffc17 	ldw	r2,-16(fp)
  803d7c:	10802903 	ldbu	r2,164(r2)
  803d80:	10803fcc 	andi	r2,r2,255
  803d84:	1080201c 	xori	r2,r2,128
  803d88:	10bfe004 	addi	r2,r2,-128
  803d8c:	1000081e 	bne	r2,zero,803db0 <logic+0x3234>
  803d90:	e0bffc17 	ldw	r2,-16(fp)
  803d94:	108028c3 	ldbu	r2,163(r2)
  803d98:	10803fcc 	andi	r2,r2,255
  803d9c:	1080201c 	xori	r2,r2,128
  803da0:	10bfe004 	addi	r2,r2,-128
  803da4:	1000021e 	bne	r2,zero,803db0 <logic+0x3234>
  803da8:	00800044 	movi	r2,1
  803dac:	00000106 	br	803db4 <logic+0x3238>
  803db0:	0005883a 	mov	r2,zero
  803db4:	1007883a 	mov	r3,r2
  803db8:	e0bffc17 	ldw	r2,-16(fp)
  803dbc:	10c04205 	stb	r3,264(r2)
  d->_g78 = (d->_g77 && d->_cg78) || (d->_g84 && d->_cg82);
  803dc0:	e0bffc17 	ldw	r2,-16(fp)
  803dc4:	10802803 	ldbu	r2,160(r2)
  803dc8:	10803fcc 	andi	r2,r2,255
  803dcc:	1080201c 	xori	r2,r2,128
  803dd0:	10bfe004 	addi	r2,r2,-128
  803dd4:	10000626 	beq	r2,zero,803df0 <logic+0x3274>
  803dd8:	e0bffc17 	ldw	r2,-16(fp)
  803ddc:	10803a43 	ldbu	r2,233(r2)
  803de0:	10803fcc 	andi	r2,r2,255
  803de4:	1080201c 	xori	r2,r2,128
  803de8:	10bfe004 	addi	r2,r2,-128
  803dec:	10000c1e 	bne	r2,zero,803e20 <logic+0x32a4>
  803df0:	e0bffc17 	ldw	r2,-16(fp)
  803df4:	10802983 	ldbu	r2,166(r2)
  803df8:	10803fcc 	andi	r2,r2,255
  803dfc:	1080201c 	xori	r2,r2,128
  803e00:	10bfe004 	addi	r2,r2,-128
  803e04:	10000826 	beq	r2,zero,803e28 <logic+0x32ac>
  803e08:	e0bffc17 	ldw	r2,-16(fp)
  803e0c:	10803a83 	ldbu	r2,234(r2)
  803e10:	10803fcc 	andi	r2,r2,255
  803e14:	1080201c 	xori	r2,r2,128
  803e18:	10bfe004 	addi	r2,r2,-128
  803e1c:	10000226 	beq	r2,zero,803e28 <logic+0x32ac>
  803e20:	00800044 	movi	r2,1
  803e24:	00000106 	br	803e2c <logic+0x32b0>
  803e28:	0005883a 	mov	r2,zero
  803e2c:	1007883a 	mov	r3,r2
  803e30:	e0bffc17 	ldw	r2,-16(fp)
  803e34:	10c02845 	stb	r3,161(r2)
  d->_g82 = d->_g117 || (d->_g69_e2 && !d->_cg87);
  803e38:	e0bffc17 	ldw	r2,-16(fp)
  803e3c:	10802f03 	ldbu	r2,188(r2)
  803e40:	10803fcc 	andi	r2,r2,255
  803e44:	1080201c 	xori	r2,r2,128
  803e48:	10bfe004 	addi	r2,r2,-128
  803e4c:	10000c1e 	bne	r2,zero,803e80 <logic+0x3304>
  803e50:	e0bffc17 	ldw	r2,-16(fp)
  803e54:	108041c3 	ldbu	r2,263(r2)
  803e58:	10803fcc 	andi	r2,r2,255
  803e5c:	1080201c 	xori	r2,r2,128
  803e60:	10bfe004 	addi	r2,r2,-128
  803e64:	10000826 	beq	r2,zero,803e88 <logic+0x330c>
  803e68:	e0bffc17 	ldw	r2,-16(fp)
  803e6c:	10803ac3 	ldbu	r2,235(r2)
  803e70:	10803fcc 	andi	r2,r2,255
  803e74:	1080201c 	xori	r2,r2,128
  803e78:	10bfe004 	addi	r2,r2,-128
  803e7c:	1000021e 	bne	r2,zero,803e88 <logic+0x330c>
  803e80:	00800044 	movi	r2,1
  803e84:	00000106 	br	803e8c <logic+0x3310>
  803e88:	0005883a 	mov	r2,zero
  803e8c:	1007883a 	mov	r3,r2
  803e90:	e0bffc17 	ldw	r2,-16(fp)
  803e94:	10c02945 	stb	r3,165(r2)
  d->_g75 = !d->_g82;
  803e98:	e0bffc17 	ldw	r2,-16(fp)
  803e9c:	10802943 	ldbu	r2,165(r2)
  803ea0:	10803fcc 	andi	r2,r2,255
  803ea4:	1080201c 	xori	r2,r2,128
  803ea8:	10bfe004 	addi	r2,r2,-128
  803eac:	1005003a 	cmpeq	r2,r2,zero
  803eb0:	1007883a 	mov	r3,r2
  803eb4:	e0bffc17 	ldw	r2,-16(fp)
  803eb8:	10c027c5 	stb	r3,159(r2)
  d->_g87 = (d->_g79_e1 || d->_g78) && (d->_g75 || d->_g69) && (d->_g78 || d->_g69);
  803ebc:	e0bffc17 	ldw	r2,-16(fp)
  803ec0:	10804203 	ldbu	r2,264(r2)
  803ec4:	10803fcc 	andi	r2,r2,255
  803ec8:	1080201c 	xori	r2,r2,128
  803ecc:	10bfe004 	addi	r2,r2,-128
  803ed0:	1000061e 	bne	r2,zero,803eec <logic+0x3370>
  803ed4:	e0bffc17 	ldw	r2,-16(fp)
  803ed8:	10802843 	ldbu	r2,161(r2)
  803edc:	10803fcc 	andi	r2,r2,255
  803ee0:	1080201c 	xori	r2,r2,128
  803ee4:	10bfe004 	addi	r2,r2,-128
  803ee8:	10001a26 	beq	r2,zero,803f54 <logic+0x33d8>
  803eec:	e0bffc17 	ldw	r2,-16(fp)
  803ef0:	108027c3 	ldbu	r2,159(r2)
  803ef4:	10803fcc 	andi	r2,r2,255
  803ef8:	1080201c 	xori	r2,r2,128
  803efc:	10bfe004 	addi	r2,r2,-128
  803f00:	1000061e 	bne	r2,zero,803f1c <logic+0x33a0>
  803f04:	e0bffc17 	ldw	r2,-16(fp)
  803f08:	10802703 	ldbu	r2,156(r2)
  803f0c:	10803fcc 	andi	r2,r2,255
  803f10:	1080201c 	xori	r2,r2,128
  803f14:	10bfe004 	addi	r2,r2,-128
  803f18:	10000e26 	beq	r2,zero,803f54 <logic+0x33d8>
  803f1c:	e0bffc17 	ldw	r2,-16(fp)
  803f20:	10802843 	ldbu	r2,161(r2)
  803f24:	10803fcc 	andi	r2,r2,255
  803f28:	1080201c 	xori	r2,r2,128
  803f2c:	10bfe004 	addi	r2,r2,-128
  803f30:	1000061e 	bne	r2,zero,803f4c <logic+0x33d0>
  803f34:	e0bffc17 	ldw	r2,-16(fp)
  803f38:	10802703 	ldbu	r2,156(r2)
  803f3c:	10803fcc 	andi	r2,r2,255
  803f40:	1080201c 	xori	r2,r2,128
  803f44:	10bfe004 	addi	r2,r2,-128
  803f48:	10000226 	beq	r2,zero,803f54 <logic+0x33d8>
  803f4c:	00800044 	movi	r2,1
  803f50:	00000106 	br	803f58 <logic+0x33dc>
  803f54:	0005883a 	mov	r2,zero
  803f58:	1007883a 	mov	r3,r2
  803f5c:	e0bffc17 	ldw	r2,-16(fp)
  803f60:	10c029c5 	stb	r3,167(r2)
  d->_g79_e1 = d->_GO || d->_g87 || (d->_g110_e2 && !d->_cg74);
  803f64:	e0bffc17 	ldw	r2,-16(fp)
  803f68:	10803403 	ldbu	r2,208(r2)
  803f6c:	10803fcc 	andi	r2,r2,255
  803f70:	1080201c 	xori	r2,r2,128
  803f74:	10bfe004 	addi	r2,r2,-128
  803f78:	1000121e 	bne	r2,zero,803fc4 <logic+0x3448>
  803f7c:	e0bffc17 	ldw	r2,-16(fp)
  803f80:	108029c3 	ldbu	r2,167(r2)
  803f84:	10803fcc 	andi	r2,r2,255
  803f88:	1080201c 	xori	r2,r2,128
  803f8c:	10bfe004 	addi	r2,r2,-128
  803f90:	10000c1e 	bne	r2,zero,803fc4 <logic+0x3448>
  803f94:	e0bffc17 	ldw	r2,-16(fp)
  803f98:	108042c3 	ldbu	r2,267(r2)
  803f9c:	10803fcc 	andi	r2,r2,255
  803fa0:	1080201c 	xori	r2,r2,128
  803fa4:	10bfe004 	addi	r2,r2,-128
  803fa8:	10000826 	beq	r2,zero,803fcc <logic+0x3450>
  803fac:	e0bffc17 	ldw	r2,-16(fp)
  803fb0:	108039c3 	ldbu	r2,231(r2)
  803fb4:	10803fcc 	andi	r2,r2,255
  803fb8:	1080201c 	xori	r2,r2,128
  803fbc:	10bfe004 	addi	r2,r2,-128
  803fc0:	1000021e 	bne	r2,zero,803fcc <logic+0x3450>
  803fc4:	00800044 	movi	r2,1
  803fc8:	00000106 	br	803fd0 <logic+0x3454>
  803fcc:	0005883a 	mov	r2,zero
  803fd0:	1007883a 	mov	r3,r2
  803fd4:	e0bffc17 	ldw	r2,-16(fp)
  803fd8:	10c04205 	stb	r3,264(r2)
  d->_g88 = d->_pg79;
  803fdc:	e0bffc17 	ldw	r2,-16(fp)
  803fe0:	10c04b83 	ldbu	r3,302(r2)
  803fe4:	e0bffc17 	ldw	r2,-16(fp)
  803fe8:	10c02a05 	stb	r3,168(r2)
  d->_cg93 = d->a_event;
  803fec:	e0bffc17 	ldw	r2,-16(fp)
  803ff0:	10c01743 	ldbu	r3,93(r2)
  803ff4:	e0bffc17 	ldw	r2,-16(fp)
  803ff8:	10c03b45 	stb	r3,237(r2)
  d->_g79 = d->_GO || (d->_g109 && d->_cg113) || d->_g101_e1 || (d->_g88 && !d->_cg93);
  803ffc:	e0bffc17 	ldw	r2,-16(fp)
  804000:	10803403 	ldbu	r2,208(r2)
  804004:	10803fcc 	andi	r2,r2,255
  804008:	1080201c 	xori	r2,r2,128
  80400c:	10bfe004 	addi	r2,r2,-128
  804010:	10001e1e 	bne	r2,zero,80408c <logic+0x3510>
  804014:	e0bffc17 	ldw	r2,-16(fp)
  804018:	10802d43 	ldbu	r2,181(r2)
  80401c:	10803fcc 	andi	r2,r2,255
  804020:	1080201c 	xori	r2,r2,128
  804024:	10bfe004 	addi	r2,r2,-128
  804028:	10000626 	beq	r2,zero,804044 <logic+0x34c8>
  80402c:	e0bffc17 	ldw	r2,-16(fp)
  804030:	10803b03 	ldbu	r2,236(r2)
  804034:	10803fcc 	andi	r2,r2,255
  804038:	1080201c 	xori	r2,r2,128
  80403c:	10bfe004 	addi	r2,r2,-128
  804040:	1000121e 	bne	r2,zero,80408c <logic+0x3510>
  804044:	e0bffc17 	ldw	r2,-16(fp)
  804048:	10804283 	ldbu	r2,266(r2)
  80404c:	10803fcc 	andi	r2,r2,255
  804050:	1080201c 	xori	r2,r2,128
  804054:	10bfe004 	addi	r2,r2,-128
  804058:	10000c1e 	bne	r2,zero,80408c <logic+0x3510>
  80405c:	e0bffc17 	ldw	r2,-16(fp)
  804060:	10802a03 	ldbu	r2,168(r2)
  804064:	10803fcc 	andi	r2,r2,255
  804068:	1080201c 	xori	r2,r2,128
  80406c:	10bfe004 	addi	r2,r2,-128
  804070:	10000826 	beq	r2,zero,804094 <logic+0x3518>
  804074:	e0bffc17 	ldw	r2,-16(fp)
  804078:	10803b43 	ldbu	r2,237(r2)
  80407c:	10803fcc 	andi	r2,r2,255
  804080:	1080201c 	xori	r2,r2,128
  804084:	10bfe004 	addi	r2,r2,-128
  804088:	1000021e 	bne	r2,zero,804094 <logic+0x3518>
  80408c:	00800044 	movi	r2,1
  804090:	00000106 	br	804098 <logic+0x351c>
  804094:	0005883a 	mov	r2,zero
  804098:	1007883a 	mov	r3,r2
  80409c:	e0bffc17 	ldw	r2,-16(fp)
  8040a0:	10c02885 	stb	r3,162(r2)
  d->_g88_e2 = d->_g88 && d->_cg93;
  8040a4:	e0bffc17 	ldw	r2,-16(fp)
  8040a8:	10802a03 	ldbu	r2,168(r2)
  8040ac:	10803fcc 	andi	r2,r2,255
  8040b0:	1080201c 	xori	r2,r2,128
  8040b4:	10bfe004 	addi	r2,r2,-128
  8040b8:	10000826 	beq	r2,zero,8040dc <logic+0x3560>
  8040bc:	e0bffc17 	ldw	r2,-16(fp)
  8040c0:	10803b43 	ldbu	r2,237(r2)
  8040c4:	10803fcc 	andi	r2,r2,255
  8040c8:	1080201c 	xori	r2,r2,128
  8040cc:	10bfe004 	addi	r2,r2,-128
  8040d0:	10000226 	beq	r2,zero,8040dc <logic+0x3560>
  8040d4:	00800044 	movi	r2,1
  8040d8:	00000106 	br	8040e0 <logic+0x3564>
  8040dc:	0005883a 	mov	r2,zero
  8040e0:	1007883a 	mov	r3,r2
  8040e4:	e0bffc17 	ldw	r2,-16(fp)
  8040e8:	10c04245 	stb	r3,265(r2)
  if (d->_g88_e2) {
  8040ec:	e0bffc17 	ldw	r2,-16(fp)
  8040f0:	10804243 	ldbu	r2,265(r2)
  8040f4:	10803fcc 	andi	r2,r2,255
  8040f8:	1080201c 	xori	r2,r2,128
  8040fc:	10bfe004 	addi	r2,r2,-128
  804100:	10000726 	beq	r2,zero,804120 <logic+0x35a4>
    d->_region4_AVI_x = 0;
  804104:	e0bffc17 	ldw	r2,-16(fp)
  804108:	10000e15 	stw	zero,56(r2)
  80410c:	10000f15 	stw	zero,60(r2)
    d->_Pacemaker_local__Atrig5 = 0;
  804110:	e0bffc17 	ldw	r2,-16(fp)
  804114:	10001a05 	stb	zero,104(r2)
    d->_Pacemaker_local__Atrig6 = 0;
  804118:	e0bffc17 	ldw	r2,-16(fp)
  80411c:	10001a45 	stb	zero,105(r2)
  }
  d->_cg95 = d->_region4_AVI_x < d->AVI;
  804120:	e0bffc17 	ldw	r2,-16(fp)
  804124:	14000e17 	ldw	r16,56(r2)
  804128:	14400f17 	ldw	r17,60(r2)
  80412c:	e0bffc17 	ldw	r2,-16(fp)
  804130:	10800017 	ldw	r2,0(r2)
  804134:	1009883a 	mov	r4,r2
  804138:	0806b740 	call	806b74 <__floatsidf>
  80413c:	1009883a 	mov	r4,r2
  804140:	180b883a 	mov	r5,r3
  804144:	04800044 	movi	r18,1
  804148:	200d883a 	mov	r6,r4
  80414c:	280f883a 	mov	r7,r5
  804150:	8009883a 	mov	r4,r16
  804154:	880b883a 	mov	r5,r17
  804158:	0805a6c0 	call	805a6c <__ledf2>
  80415c:	10000116 	blt	r2,zero,804164 <logic+0x35e8>
  804160:	0025883a 	mov	r18,zero
  804164:	9007883a 	mov	r3,r18
  804168:	e0bffc17 	ldw	r2,-16(fp)
  80416c:	10c03b85 	stb	r3,238(r2)
  d->_g89 = d->_g88_e2 && d->_cg95;
  804170:	e0bffc17 	ldw	r2,-16(fp)
  804174:	10804243 	ldbu	r2,265(r2)
  804178:	10803fcc 	andi	r2,r2,255
  80417c:	1080201c 	xori	r2,r2,128
  804180:	10bfe004 	addi	r2,r2,-128
  804184:	10000826 	beq	r2,zero,8041a8 <logic+0x362c>
  804188:	e0bffc17 	ldw	r2,-16(fp)
  80418c:	10803b83 	ldbu	r2,238(r2)
  804190:	10803fcc 	andi	r2,r2,255
  804194:	1080201c 	xori	r2,r2,128
  804198:	10bfe004 	addi	r2,r2,-128
  80419c:	10000226 	beq	r2,zero,8041a8 <logic+0x362c>
  8041a0:	00800044 	movi	r2,1
  8041a4:	00000106 	br	8041ac <logic+0x3630>
  8041a8:	0005883a 	mov	r2,zero
  8041ac:	1007883a 	mov	r3,r2
  8041b0:	e0bffc17 	ldw	r2,-16(fp)
  8041b4:	10c02a45 	stb	r3,169(r2)
  if (d->_g89) {
  8041b8:	e0bffc17 	ldw	r2,-16(fp)
  8041bc:	10802a43 	ldbu	r2,169(r2)
  8041c0:	10803fcc 	andi	r2,r2,255
  8041c4:	1080201c 	xori	r2,r2,128
  8041c8:	10bfe004 	addi	r2,r2,-128
  8041cc:	10003426 	beq	r2,zero,8042a0 <logic+0x3724>
    d->sleepT = (d->sleepT < (d->AVI - d->_region4_AVI_x)) ? d->sleepT : (d->AVI - d->_region4_AVI_x);
  8041d0:	e0bffc17 	ldw	r2,-16(fp)
  8041d4:	14001417 	ldw	r16,80(r2)
  8041d8:	14401517 	ldw	r17,84(r2)
  8041dc:	e0bffc17 	ldw	r2,-16(fp)
  8041e0:	10800017 	ldw	r2,0(r2)
  8041e4:	1009883a 	mov	r4,r2
  8041e8:	0806b740 	call	806b74 <__floatsidf>
  8041ec:	1011883a 	mov	r8,r2
  8041f0:	1813883a 	mov	r9,r3
  8041f4:	e13ffc17 	ldw	r4,-16(fp)
  8041f8:	20800e17 	ldw	r2,56(r4)
  8041fc:	20c00f17 	ldw	r3,60(r4)
  804200:	100d883a 	mov	r6,r2
  804204:	180f883a 	mov	r7,r3
  804208:	4009883a 	mov	r4,r8
  80420c:	480b883a 	mov	r5,r9
  804210:	08062780 	call	806278 <__subdf3>
  804214:	1009883a 	mov	r4,r2
  804218:	180b883a 	mov	r5,r3
  80421c:	2005883a 	mov	r2,r4
  804220:	2807883a 	mov	r3,r5
  804224:	100d883a 	mov	r6,r2
  804228:	180f883a 	mov	r7,r3
  80422c:	8009883a 	mov	r4,r16
  804230:	880b883a 	mov	r5,r17
  804234:	0805a6c0 	call	805a6c <__ledf2>
  804238:	1000040e 	bge	r2,zero,80424c <logic+0x36d0>
  80423c:	e13ffc17 	ldw	r4,-16(fp)
  804240:	20801417 	ldw	r2,80(r4)
  804244:	20c01517 	ldw	r3,84(r4)
  804248:	00001206 	br	804294 <logic+0x3718>
  80424c:	e0bffc17 	ldw	r2,-16(fp)
  804250:	10800017 	ldw	r2,0(r2)
  804254:	1009883a 	mov	r4,r2
  804258:	0806b740 	call	806b74 <__floatsidf>
  80425c:	1011883a 	mov	r8,r2
  804260:	1813883a 	mov	r9,r3
  804264:	e13ffc17 	ldw	r4,-16(fp)
  804268:	20800e17 	ldw	r2,56(r4)
  80426c:	20c00f17 	ldw	r3,60(r4)
  804270:	100d883a 	mov	r6,r2
  804274:	180f883a 	mov	r7,r3
  804278:	4009883a 	mov	r4,r8
  80427c:	480b883a 	mov	r5,r9
  804280:	08062780 	call	806278 <__subdf3>
  804284:	1009883a 	mov	r4,r2
  804288:	180b883a 	mov	r5,r3
  80428c:	2005883a 	mov	r2,r4
  804290:	2807883a 	mov	r3,r5
  804294:	e13ffc17 	ldw	r4,-16(fp)
  804298:	20801415 	stw	r2,80(r4)
  80429c:	20c01515 	stw	r3,84(r4)
  }
  d->_cg96 = d->_Pacemaker_local__Atrig5 || d->_Pacemaker_local__Atrig6;
  8042a0:	e0bffc17 	ldw	r2,-16(fp)
  8042a4:	10801a03 	ldbu	r2,104(r2)
  8042a8:	10803fcc 	andi	r2,r2,255
  8042ac:	1080201c 	xori	r2,r2,128
  8042b0:	10bfe004 	addi	r2,r2,-128
  8042b4:	1000061e 	bne	r2,zero,8042d0 <logic+0x3754>
  8042b8:	e0bffc17 	ldw	r2,-16(fp)
  8042bc:	10801a43 	ldbu	r2,105(r2)
  8042c0:	10803fcc 	andi	r2,r2,255
  8042c4:	1080201c 	xori	r2,r2,128
  8042c8:	10bfe004 	addi	r2,r2,-128
  8042cc:	10000226 	beq	r2,zero,8042d8 <logic+0x375c>
  8042d0:	00800044 	movi	r2,1
  8042d4:	00000106 	br	8042dc <logic+0x3760>
  8042d8:	0005883a 	mov	r2,zero
  8042dc:	1007883a 	mov	r3,r2
  8042e0:	e0bffc17 	ldw	r2,-16(fp)
  8042e4:	10c03bc5 	stb	r3,239(r2)
  d->_g74 = (d->_g89 && !d->_cg96) || (d->_g104 && !d->_cg100);
  8042e8:	e0bffc17 	ldw	r2,-16(fp)
  8042ec:	10802a43 	ldbu	r2,169(r2)
  8042f0:	10803fcc 	andi	r2,r2,255
  8042f4:	1080201c 	xori	r2,r2,128
  8042f8:	10bfe004 	addi	r2,r2,-128
  8042fc:	10000626 	beq	r2,zero,804318 <logic+0x379c>
  804300:	e0bffc17 	ldw	r2,-16(fp)
  804304:	10803bc3 	ldbu	r2,239(r2)
  804308:	10803fcc 	andi	r2,r2,255
  80430c:	1080201c 	xori	r2,r2,128
  804310:	10bfe004 	addi	r2,r2,-128
  804314:	10000c26 	beq	r2,zero,804348 <logic+0x37cc>
  804318:	e0bffc17 	ldw	r2,-16(fp)
  80431c:	10802c83 	ldbu	r2,178(r2)
  804320:	10803fcc 	andi	r2,r2,255
  804324:	1080201c 	xori	r2,r2,128
  804328:	10bfe004 	addi	r2,r2,-128
  80432c:	10000826 	beq	r2,zero,804350 <logic+0x37d4>
  804330:	e0bffc17 	ldw	r2,-16(fp)
  804334:	10803c03 	ldbu	r2,240(r2)
  804338:	10803fcc 	andi	r2,r2,255
  80433c:	1080201c 	xori	r2,r2,128
  804340:	10bfe004 	addi	r2,r2,-128
  804344:	1000021e 	bne	r2,zero,804350 <logic+0x37d4>
  804348:	00800044 	movi	r2,1
  80434c:	00000106 	br	804354 <logic+0x37d8>
  804350:	0005883a 	mov	r2,zero
  804354:	1007883a 	mov	r3,r2
  804358:	e0bffc17 	ldw	r2,-16(fp)
  80435c:	10c02785 	stb	r3,158(r2)
  d->_g113 = d->_g88_e2 && !d->_cg95;
  804360:	e0bffc17 	ldw	r2,-16(fp)
  804364:	10804243 	ldbu	r2,265(r2)
  804368:	10803fcc 	andi	r2,r2,255
  80436c:	1080201c 	xori	r2,r2,128
  804370:	10bfe004 	addi	r2,r2,-128
  804374:	10000826 	beq	r2,zero,804398 <logic+0x381c>
  804378:	e0bffc17 	ldw	r2,-16(fp)
  80437c:	10803b83 	ldbu	r2,238(r2)
  804380:	10803fcc 	andi	r2,r2,255
  804384:	1080201c 	xori	r2,r2,128
  804388:	10bfe004 	addi	r2,r2,-128
  80438c:	1000021e 	bne	r2,zero,804398 <logic+0x381c>
  804390:	00800044 	movi	r2,1
  804394:	00000106 	br	80439c <logic+0x3820>
  804398:	0005883a 	mov	r2,zero
  80439c:	1007883a 	mov	r3,r2
  8043a0:	e0bffc17 	ldw	r2,-16(fp)
  8043a4:	10c02e45 	stb	r3,185(r2)
  d->_cg105 = d->_Pacemaker_local__Atrig5 || d->_Pacemaker_local__Atrig6;
  8043a8:	e0bffc17 	ldw	r2,-16(fp)
  8043ac:	10801a03 	ldbu	r2,104(r2)
  8043b0:	10803fcc 	andi	r2,r2,255
  8043b4:	1080201c 	xori	r2,r2,128
  8043b8:	10bfe004 	addi	r2,r2,-128
  8043bc:	1000061e 	bne	r2,zero,8043d8 <logic+0x385c>
  8043c0:	e0bffc17 	ldw	r2,-16(fp)
  8043c4:	10801a43 	ldbu	r2,105(r2)
  8043c8:	10803fcc 	andi	r2,r2,255
  8043cc:	1080201c 	xori	r2,r2,128
  8043d0:	10bfe004 	addi	r2,r2,-128
  8043d4:	10000226 	beq	r2,zero,8043e0 <logic+0x3864>
  8043d8:	00800044 	movi	r2,1
  8043dc:	00000106 	br	8043e4 <logic+0x3868>
  8043e0:	0005883a 	mov	r2,zero
  8043e4:	1007883a 	mov	r3,r2
  8043e8:	e0bffc17 	ldw	r2,-16(fp)
  8043ec:	10c03cc5 	stb	r3,243(r2)
  d->_g115 = (d->_g99 && !d->_cg102) || (d->_g113 && !d->_cg105);
  8043f0:	e0bffc17 	ldw	r2,-16(fp)
  8043f4:	10802b83 	ldbu	r2,174(r2)
  8043f8:	10803fcc 	andi	r2,r2,255
  8043fc:	1080201c 	xori	r2,r2,128
  804400:	10bfe004 	addi	r2,r2,-128
  804404:	10000626 	beq	r2,zero,804420 <logic+0x38a4>
  804408:	e0bffc17 	ldw	r2,-16(fp)
  80440c:	10803c83 	ldbu	r2,242(r2)
  804410:	10803fcc 	andi	r2,r2,255
  804414:	1080201c 	xori	r2,r2,128
  804418:	10bfe004 	addi	r2,r2,-128
  80441c:	10000c26 	beq	r2,zero,804450 <logic+0x38d4>
  804420:	e0bffc17 	ldw	r2,-16(fp)
  804424:	10802e43 	ldbu	r2,185(r2)
  804428:	10803fcc 	andi	r2,r2,255
  80442c:	1080201c 	xori	r2,r2,128
  804430:	10bfe004 	addi	r2,r2,-128
  804434:	10000826 	beq	r2,zero,804458 <logic+0x38dc>
  804438:	e0bffc17 	ldw	r2,-16(fp)
  80443c:	10803cc3 	ldbu	r2,243(r2)
  804440:	10803fcc 	andi	r2,r2,255
  804444:	1080201c 	xori	r2,r2,128
  804448:	10bfe004 	addi	r2,r2,-128
  80444c:	1000021e 	bne	r2,zero,804458 <logic+0x38dc>
  804450:	00800044 	movi	r2,1
  804454:	00000106 	br	80445c <logic+0x38e0>
  804458:	0005883a 	mov	r2,zero
  80445c:	1007883a 	mov	r3,r2
  804460:	e0bffc17 	ldw	r2,-16(fp)
  804464:	10c02ec5 	stb	r3,187(r2)
  d->_g93 = d->_g88_e2 || (d->_g111 && !d->_cg111);
  804468:	e0bffc17 	ldw	r2,-16(fp)
  80446c:	10804243 	ldbu	r2,265(r2)
  804470:	10803fcc 	andi	r2,r2,255
  804474:	1080201c 	xori	r2,r2,128
  804478:	10bfe004 	addi	r2,r2,-128
  80447c:	10000c1e 	bne	r2,zero,8044b0 <logic+0x3934>
  804480:	e0bffc17 	ldw	r2,-16(fp)
  804484:	10802dc3 	ldbu	r2,183(r2)
  804488:	10803fcc 	andi	r2,r2,255
  80448c:	1080201c 	xori	r2,r2,128
  804490:	10bfe004 	addi	r2,r2,-128
  804494:	10000826 	beq	r2,zero,8044b8 <logic+0x393c>
  804498:	e0bffc17 	ldw	r2,-16(fp)
  80449c:	10803d03 	ldbu	r2,244(r2)
  8044a0:	10803fcc 	andi	r2,r2,255
  8044a4:	1080201c 	xori	r2,r2,128
  8044a8:	10bfe004 	addi	r2,r2,-128
  8044ac:	1000021e 	bne	r2,zero,8044b8 <logic+0x393c>
  8044b0:	00800044 	movi	r2,1
  8044b4:	00000106 	br	8044bc <logic+0x3940>
  8044b8:	0005883a 	mov	r2,zero
  8044bc:	1007883a 	mov	r3,r2
  8044c0:	e0bffc17 	ldw	r2,-16(fp)
  8044c4:	10c02a85 	stb	r3,170(r2)
  d->_g96 = d->_g110 && !d->_cg114;
  8044c8:	e0bffc17 	ldw	r2,-16(fp)
  8044cc:	10802d83 	ldbu	r2,182(r2)
  8044d0:	10803fcc 	andi	r2,r2,255
  8044d4:	1080201c 	xori	r2,r2,128
  8044d8:	10bfe004 	addi	r2,r2,-128
  8044dc:	10000826 	beq	r2,zero,804500 <logic+0x3984>
  8044e0:	e0bffc17 	ldw	r2,-16(fp)
  8044e4:	10803d83 	ldbu	r2,246(r2)
  8044e8:	10803fcc 	andi	r2,r2,255
  8044ec:	1080201c 	xori	r2,r2,128
  8044f0:	10bfe004 	addi	r2,r2,-128
  8044f4:	1000021e 	bne	r2,zero,804500 <logic+0x3984>
  8044f8:	00800044 	movi	r2,1
  8044fc:	00000106 	br	804504 <logic+0x3988>
  804500:	0005883a 	mov	r2,zero
  804504:	1007883a 	mov	r3,r2
  804508:	e0bffc17 	ldw	r2,-16(fp)
  80450c:	10c02b05 	stb	r3,172(r2)
  d->_g100 = d->_pg105;
  804510:	e0bffc17 	ldw	r2,-16(fp)
  804514:	10c04bc3 	ldbu	r3,303(r2)
  804518:	e0bffc17 	ldw	r2,-16(fp)
  80451c:	10c02bc5 	stb	r3,175(r2)
  d->_cg121 = d->v_event;
  804520:	e0bffc17 	ldw	r2,-16(fp)
  804524:	10c01703 	ldbu	r3,92(r2)
  804528:	e0bffc17 	ldw	r2,-16(fp)
  80452c:	10c03e05 	stb	r3,248(r2)
  d->_g105 = d->_GO || (d->_g140 && d->_cg141) || d->_g129_e1 || (d->_g100 && !d->_cg121);
  804530:	e0bffc17 	ldw	r2,-16(fp)
  804534:	10803403 	ldbu	r2,208(r2)
  804538:	10803fcc 	andi	r2,r2,255
  80453c:	1080201c 	xori	r2,r2,128
  804540:	10bfe004 	addi	r2,r2,-128
  804544:	10001e1e 	bne	r2,zero,8045c0 <logic+0x3a44>
  804548:	e0bffc17 	ldw	r2,-16(fp)
  80454c:	10803283 	ldbu	r2,202(r2)
  804550:	10803fcc 	andi	r2,r2,255
  804554:	1080201c 	xori	r2,r2,128
  804558:	10bfe004 	addi	r2,r2,-128
  80455c:	10000626 	beq	r2,zero,804578 <logic+0x39fc>
  804560:	e0bffc17 	ldw	r2,-16(fp)
  804564:	10803dc3 	ldbu	r2,247(r2)
  804568:	10803fcc 	andi	r2,r2,255
  80456c:	1080201c 	xori	r2,r2,128
  804570:	10bfe004 	addi	r2,r2,-128
  804574:	1000121e 	bne	r2,zero,8045c0 <logic+0x3a44>
  804578:	e0bffc17 	ldw	r2,-16(fp)
  80457c:	10804303 	ldbu	r2,268(r2)
  804580:	10803fcc 	andi	r2,r2,255
  804584:	1080201c 	xori	r2,r2,128
  804588:	10bfe004 	addi	r2,r2,-128
  80458c:	10000c1e 	bne	r2,zero,8045c0 <logic+0x3a44>
  804590:	e0bffc17 	ldw	r2,-16(fp)
  804594:	10802bc3 	ldbu	r2,175(r2)
  804598:	10803fcc 	andi	r2,r2,255
  80459c:	1080201c 	xori	r2,r2,128
  8045a0:	10bfe004 	addi	r2,r2,-128
  8045a4:	10000826 	beq	r2,zero,8045c8 <logic+0x3a4c>
  8045a8:	e0bffc17 	ldw	r2,-16(fp)
  8045ac:	10803e03 	ldbu	r2,248(r2)
  8045b0:	10803fcc 	andi	r2,r2,255
  8045b4:	1080201c 	xori	r2,r2,128
  8045b8:	10bfe004 	addi	r2,r2,-128
  8045bc:	1000021e 	bne	r2,zero,8045c8 <logic+0x3a4c>
  8045c0:	00800044 	movi	r2,1
  8045c4:	00000106 	br	8045cc <logic+0x3a50>
  8045c8:	0005883a 	mov	r2,zero
  8045cc:	1007883a 	mov	r3,r2
  8045d0:	e0bffc17 	ldw	r2,-16(fp)
  8045d4:	10c02cc5 	stb	r3,179(r2)
  d->_g102 = d->_g100 && d->_cg121;
  8045d8:	e0bffc17 	ldw	r2,-16(fp)
  8045dc:	10802bc3 	ldbu	r2,175(r2)
  8045e0:	10803fcc 	andi	r2,r2,255
  8045e4:	1080201c 	xori	r2,r2,128
  8045e8:	10bfe004 	addi	r2,r2,-128
  8045ec:	10000826 	beq	r2,zero,804610 <logic+0x3a94>
  8045f0:	e0bffc17 	ldw	r2,-16(fp)
  8045f4:	10803e03 	ldbu	r2,248(r2)
  8045f8:	10803fcc 	andi	r2,r2,255
  8045fc:	1080201c 	xori	r2,r2,128
  804600:	10bfe004 	addi	r2,r2,-128
  804604:	10000226 	beq	r2,zero,804610 <logic+0x3a94>
  804608:	00800044 	movi	r2,1
  80460c:	00000106 	br	804614 <logic+0x3a98>
  804610:	0005883a 	mov	r2,zero
  804614:	1007883a 	mov	r3,r2
  804618:	e0bffc17 	ldw	r2,-16(fp)
  80461c:	10c02c45 	stb	r3,177(r2)
  if (d->_g102) {
  804620:	e0bffc17 	ldw	r2,-16(fp)
  804624:	10802c43 	ldbu	r2,177(r2)
  804628:	10803fcc 	andi	r2,r2,255
  80462c:	1080201c 	xori	r2,r2,128
  804630:	10bfe004 	addi	r2,r2,-128
  804634:	10000726 	beq	r2,zero,804654 <logic+0x3ad8>
    d->_region5_AEI_x = 0;
  804638:	e0bffc17 	ldw	r2,-16(fp)
  80463c:	10001015 	stw	zero,64(r2)
  804640:	10001115 	stw	zero,68(r2)
    d->_Pacemaker_local__Atrig7 = 0;
  804644:	e0bffc17 	ldw	r2,-16(fp)
  804648:	10001a85 	stb	zero,106(r2)
    d->_Pacemaker_local__Atrig8 = 0;
  80464c:	e0bffc17 	ldw	r2,-16(fp)
  804650:	10001ac5 	stb	zero,107(r2)
  }
  d->_cg123 = d->_region5_AEI_x < d->AEI;
  804654:	e0bffc17 	ldw	r2,-16(fp)
  804658:	14001017 	ldw	r16,64(r2)
  80465c:	14401117 	ldw	r17,68(r2)
  804660:	e0bffc17 	ldw	r2,-16(fp)
  804664:	10800117 	ldw	r2,4(r2)
  804668:	1009883a 	mov	r4,r2
  80466c:	0806b740 	call	806b74 <__floatsidf>
  804670:	1009883a 	mov	r4,r2
  804674:	180b883a 	mov	r5,r3
  804678:	04800044 	movi	r18,1
  80467c:	200d883a 	mov	r6,r4
  804680:	280f883a 	mov	r7,r5
  804684:	8009883a 	mov	r4,r16
  804688:	880b883a 	mov	r5,r17
  80468c:	0805a6c0 	call	805a6c <__ledf2>
  804690:	10000116 	blt	r2,zero,804698 <logic+0x3b1c>
  804694:	0025883a 	mov	r18,zero
  804698:	9007883a 	mov	r3,r18
  80469c:	e0bffc17 	ldw	r2,-16(fp)
  8046a0:	10c03e45 	stb	r3,249(r2)
  d->_g94 = d->_g102 && d->_cg123;
  8046a4:	e0bffc17 	ldw	r2,-16(fp)
  8046a8:	10802c43 	ldbu	r2,177(r2)
  8046ac:	10803fcc 	andi	r2,r2,255
  8046b0:	1080201c 	xori	r2,r2,128
  8046b4:	10bfe004 	addi	r2,r2,-128
  8046b8:	10000826 	beq	r2,zero,8046dc <logic+0x3b60>
  8046bc:	e0bffc17 	ldw	r2,-16(fp)
  8046c0:	10803e43 	ldbu	r2,249(r2)
  8046c4:	10803fcc 	andi	r2,r2,255
  8046c8:	1080201c 	xori	r2,r2,128
  8046cc:	10bfe004 	addi	r2,r2,-128
  8046d0:	10000226 	beq	r2,zero,8046dc <logic+0x3b60>
  8046d4:	00800044 	movi	r2,1
  8046d8:	00000106 	br	8046e0 <logic+0x3b64>
  8046dc:	0005883a 	mov	r2,zero
  8046e0:	1007883a 	mov	r3,r2
  8046e4:	e0bffc17 	ldw	r2,-16(fp)
  8046e8:	10c02ac5 	stb	r3,171(r2)
  if (d->_g94) {
  8046ec:	e0bffc17 	ldw	r2,-16(fp)
  8046f0:	10802ac3 	ldbu	r2,171(r2)
  8046f4:	10803fcc 	andi	r2,r2,255
  8046f8:	1080201c 	xori	r2,r2,128
  8046fc:	10bfe004 	addi	r2,r2,-128
  804700:	10003426 	beq	r2,zero,8047d4 <logic+0x3c58>
    d->sleepT = (d->sleepT < (d->AEI - d->_region5_AEI_x)) ? d->sleepT : (d->AEI - d->_region5_AEI_x);
  804704:	e0bffc17 	ldw	r2,-16(fp)
  804708:	14001417 	ldw	r16,80(r2)
  80470c:	14401517 	ldw	r17,84(r2)
  804710:	e0bffc17 	ldw	r2,-16(fp)
  804714:	10800117 	ldw	r2,4(r2)
  804718:	1009883a 	mov	r4,r2
  80471c:	0806b740 	call	806b74 <__floatsidf>
  804720:	1011883a 	mov	r8,r2
  804724:	1813883a 	mov	r9,r3
  804728:	e13ffc17 	ldw	r4,-16(fp)
  80472c:	20801017 	ldw	r2,64(r4)
  804730:	20c01117 	ldw	r3,68(r4)
  804734:	100d883a 	mov	r6,r2
  804738:	180f883a 	mov	r7,r3
  80473c:	4009883a 	mov	r4,r8
  804740:	480b883a 	mov	r5,r9
  804744:	08062780 	call	806278 <__subdf3>
  804748:	1009883a 	mov	r4,r2
  80474c:	180b883a 	mov	r5,r3
  804750:	2005883a 	mov	r2,r4
  804754:	2807883a 	mov	r3,r5
  804758:	100d883a 	mov	r6,r2
  80475c:	180f883a 	mov	r7,r3
  804760:	8009883a 	mov	r4,r16
  804764:	880b883a 	mov	r5,r17
  804768:	0805a6c0 	call	805a6c <__ledf2>
  80476c:	1000040e 	bge	r2,zero,804780 <logic+0x3c04>
  804770:	e13ffc17 	ldw	r4,-16(fp)
  804774:	20801417 	ldw	r2,80(r4)
  804778:	20c01517 	ldw	r3,84(r4)
  80477c:	00001206 	br	8047c8 <logic+0x3c4c>
  804780:	e0bffc17 	ldw	r2,-16(fp)
  804784:	10800117 	ldw	r2,4(r2)
  804788:	1009883a 	mov	r4,r2
  80478c:	0806b740 	call	806b74 <__floatsidf>
  804790:	1011883a 	mov	r8,r2
  804794:	1813883a 	mov	r9,r3
  804798:	e13ffc17 	ldw	r4,-16(fp)
  80479c:	20801017 	ldw	r2,64(r4)
  8047a0:	20c01117 	ldw	r3,68(r4)
  8047a4:	100d883a 	mov	r6,r2
  8047a8:	180f883a 	mov	r7,r3
  8047ac:	4009883a 	mov	r4,r8
  8047b0:	480b883a 	mov	r5,r9
  8047b4:	08062780 	call	806278 <__subdf3>
  8047b8:	1009883a 	mov	r4,r2
  8047bc:	180b883a 	mov	r5,r3
  8047c0:	2005883a 	mov	r2,r4
  8047c4:	2807883a 	mov	r3,r5
  8047c8:	e13ffc17 	ldw	r4,-16(fp)
  8047cc:	20801415 	stw	r2,80(r4)
  8047d0:	20c01515 	stw	r3,84(r4)
  }
  d->_cg124 = d->_Pacemaker_local__Atrig7 || d->_Pacemaker_local__Atrig8;
  8047d4:	e0bffc17 	ldw	r2,-16(fp)
  8047d8:	10801a83 	ldbu	r2,106(r2)
  8047dc:	10803fcc 	andi	r2,r2,255
  8047e0:	1080201c 	xori	r2,r2,128
  8047e4:	10bfe004 	addi	r2,r2,-128
  8047e8:	1000061e 	bne	r2,zero,804804 <logic+0x3c88>
  8047ec:	e0bffc17 	ldw	r2,-16(fp)
  8047f0:	10801ac3 	ldbu	r2,107(r2)
  8047f4:	10803fcc 	andi	r2,r2,255
  8047f8:	1080201c 	xori	r2,r2,128
  8047fc:	10bfe004 	addi	r2,r2,-128
  804800:	10000226 	beq	r2,zero,80480c <logic+0x3c90>
  804804:	00800044 	movi	r2,1
  804808:	00000106 	br	804810 <logic+0x3c94>
  80480c:	0005883a 	mov	r2,zero
  804810:	1007883a 	mov	r3,r2
  804814:	e0bffc17 	ldw	r2,-16(fp)
  804818:	10c03e85 	stb	r3,250(r2)
  d->_g111 = (d->_g94 && !d->_cg124) || (d->_g126 && !d->_cg128);
  80481c:	e0bffc17 	ldw	r2,-16(fp)
  804820:	10802ac3 	ldbu	r2,171(r2)
  804824:	10803fcc 	andi	r2,r2,255
  804828:	1080201c 	xori	r2,r2,128
  80482c:	10bfe004 	addi	r2,r2,-128
  804830:	10000626 	beq	r2,zero,80484c <logic+0x3cd0>
  804834:	e0bffc17 	ldw	r2,-16(fp)
  804838:	10803e83 	ldbu	r2,250(r2)
  80483c:	10803fcc 	andi	r2,r2,255
  804840:	1080201c 	xori	r2,r2,128
  804844:	10bfe004 	addi	r2,r2,-128
  804848:	10000c26 	beq	r2,zero,80487c <logic+0x3d00>
  80484c:	e0bffc17 	ldw	r2,-16(fp)
  804850:	10802fc3 	ldbu	r2,191(r2)
  804854:	10803fcc 	andi	r2,r2,255
  804858:	1080201c 	xori	r2,r2,128
  80485c:	10bfe004 	addi	r2,r2,-128
  804860:	10000826 	beq	r2,zero,804884 <logic+0x3d08>
  804864:	e0bffc17 	ldw	r2,-16(fp)
  804868:	10803ec3 	ldbu	r2,251(r2)
  80486c:	10803fcc 	andi	r2,r2,255
  804870:	1080201c 	xori	r2,r2,128
  804874:	10bfe004 	addi	r2,r2,-128
  804878:	1000021e 	bne	r2,zero,804884 <logic+0x3d08>
  80487c:	00800044 	movi	r2,1
  804880:	00000106 	br	804888 <logic+0x3d0c>
  804884:	0005883a 	mov	r2,zero
  804888:	1007883a 	mov	r3,r2
  80488c:	e0bffc17 	ldw	r2,-16(fp)
  804890:	10c02dc5 	stb	r3,183(r2)
  d->_g114 = d->_g102 && !d->_cg123;
  804894:	e0bffc17 	ldw	r2,-16(fp)
  804898:	10802c43 	ldbu	r2,177(r2)
  80489c:	10803fcc 	andi	r2,r2,255
  8048a0:	1080201c 	xori	r2,r2,128
  8048a4:	10bfe004 	addi	r2,r2,-128
  8048a8:	10000826 	beq	r2,zero,8048cc <logic+0x3d50>
  8048ac:	e0bffc17 	ldw	r2,-16(fp)
  8048b0:	10803e43 	ldbu	r2,249(r2)
  8048b4:	10803fcc 	andi	r2,r2,255
  8048b8:	1080201c 	xori	r2,r2,128
  8048bc:	10bfe004 	addi	r2,r2,-128
  8048c0:	1000021e 	bne	r2,zero,8048cc <logic+0x3d50>
  8048c4:	00800044 	movi	r2,1
  8048c8:	00000106 	br	8048d0 <logic+0x3d54>
  8048cc:	0005883a 	mov	r2,zero
  8048d0:	1007883a 	mov	r3,r2
  8048d4:	e0bffc17 	ldw	r2,-16(fp)
  8048d8:	10c02e85 	stb	r3,186(r2)
  d->_cg133 = d->_Pacemaker_local__Atrig7 || d->_Pacemaker_local__Atrig8;
  8048dc:	e0bffc17 	ldw	r2,-16(fp)
  8048e0:	10801a83 	ldbu	r2,106(r2)
  8048e4:	10803fcc 	andi	r2,r2,255
  8048e8:	1080201c 	xori	r2,r2,128
  8048ec:	10bfe004 	addi	r2,r2,-128
  8048f0:	1000061e 	bne	r2,zero,80490c <logic+0x3d90>
  8048f4:	e0bffc17 	ldw	r2,-16(fp)
  8048f8:	10801ac3 	ldbu	r2,107(r2)
  8048fc:	10803fcc 	andi	r2,r2,255
  804900:	1080201c 	xori	r2,r2,128
  804904:	10bfe004 	addi	r2,r2,-128
  804908:	10000226 	beq	r2,zero,804914 <logic+0x3d98>
  80490c:	00800044 	movi	r2,1
  804910:	00000106 	br	804918 <logic+0x3d9c>
  804914:	0005883a 	mov	r2,zero
  804918:	1007883a 	mov	r3,r2
  80491c:	e0bffc17 	ldw	r2,-16(fp)
  804920:	10c03f85 	stb	r3,254(r2)
  d->_g141 = (d->_g127 && !d->_cg130) || (d->_g114 && !d->_cg133);
  804924:	e0bffc17 	ldw	r2,-16(fp)
  804928:	10803003 	ldbu	r2,192(r2)
  80492c:	10803fcc 	andi	r2,r2,255
  804930:	1080201c 	xori	r2,r2,128
  804934:	10bfe004 	addi	r2,r2,-128
  804938:	10000626 	beq	r2,zero,804954 <logic+0x3dd8>
  80493c:	e0bffc17 	ldw	r2,-16(fp)
  804940:	10803f43 	ldbu	r2,253(r2)
  804944:	10803fcc 	andi	r2,r2,255
  804948:	1080201c 	xori	r2,r2,128
  80494c:	10bfe004 	addi	r2,r2,-128
  804950:	10000c26 	beq	r2,zero,804984 <logic+0x3e08>
  804954:	e0bffc17 	ldw	r2,-16(fp)
  804958:	10802e83 	ldbu	r2,186(r2)
  80495c:	10803fcc 	andi	r2,r2,255
  804960:	1080201c 	xori	r2,r2,128
  804964:	10bfe004 	addi	r2,r2,-128
  804968:	10000826 	beq	r2,zero,80498c <logic+0x3e10>
  80496c:	e0bffc17 	ldw	r2,-16(fp)
  804970:	10803f83 	ldbu	r2,254(r2)
  804974:	10803fcc 	andi	r2,r2,255
  804978:	1080201c 	xori	r2,r2,128
  80497c:	10bfe004 	addi	r2,r2,-128
  804980:	1000021e 	bne	r2,zero,80498c <logic+0x3e10>
  804984:	00800044 	movi	r2,1
  804988:	00000106 	br	804990 <logic+0x3e14>
  80498c:	0005883a 	mov	r2,zero
  804990:	1007883a 	mov	r3,r2
  804994:	e0bffc17 	ldw	r2,-16(fp)
  804998:	10c032c5 	stb	r3,203(r2)
  d->_g142 = d->_g102 || (d->_g139 && !d->_cg139);
  80499c:	e0bffc17 	ldw	r2,-16(fp)
  8049a0:	10802c43 	ldbu	r2,177(r2)
  8049a4:	10803fcc 	andi	r2,r2,255
  8049a8:	1080201c 	xori	r2,r2,128
  8049ac:	10bfe004 	addi	r2,r2,-128
  8049b0:	10000c1e 	bne	r2,zero,8049e4 <logic+0x3e68>
  8049b4:	e0bffc17 	ldw	r2,-16(fp)
  8049b8:	10803243 	ldbu	r2,201(r2)
  8049bc:	10803fcc 	andi	r2,r2,255
  8049c0:	1080201c 	xori	r2,r2,128
  8049c4:	10bfe004 	addi	r2,r2,-128
  8049c8:	10000826 	beq	r2,zero,8049ec <logic+0x3e70>
  8049cc:	e0bffc17 	ldw	r2,-16(fp)
  8049d0:	10803fc3 	ldbu	r2,255(r2)
  8049d4:	10803fcc 	andi	r2,r2,255
  8049d8:	1080201c 	xori	r2,r2,128
  8049dc:	10bfe004 	addi	r2,r2,-128
  8049e0:	1000021e 	bne	r2,zero,8049ec <logic+0x3e70>
  8049e4:	00800044 	movi	r2,1
  8049e8:	00000106 	br	8049f0 <logic+0x3e74>
  8049ec:	0005883a 	mov	r2,zero
  8049f0:	1007883a 	mov	r3,r2
  8049f4:	e0bffc17 	ldw	r2,-16(fp)
  8049f8:	10c03305 	stb	r3,204(r2)
  d->_g121 = d->_GO || d->_g150;
  8049fc:	e0bffc17 	ldw	r2,-16(fp)
  804a00:	10803403 	ldbu	r2,208(r2)
  804a04:	10803fcc 	andi	r2,r2,255
  804a08:	1080201c 	xori	r2,r2,128
  804a0c:	10bfe004 	addi	r2,r2,-128
  804a10:	1000061e 	bne	r2,zero,804a2c <logic+0x3eb0>
  804a14:	e0bffc17 	ldw	r2,-16(fp)
  804a18:	10803343 	ldbu	r2,205(r2)
  804a1c:	10803fcc 	andi	r2,r2,255
  804a20:	1080201c 	xori	r2,r2,128
  804a24:	10bfe004 	addi	r2,r2,-128
  804a28:	10000226 	beq	r2,zero,804a34 <logic+0x3eb8>
  804a2c:	00800044 	movi	r2,1
  804a30:	00000106 	br	804a38 <logic+0x3ebc>
  804a34:	0005883a 	mov	r2,zero
  804a38:	1007883a 	mov	r3,r2
  804a3c:	e0bffc17 	ldw	r2,-16(fp)
  804a40:	10c02f45 	stb	r3,189(r2)
  d->_g124 = d->_GO || d->_g13;
  804a44:	e0bffc17 	ldw	r2,-16(fp)
  804a48:	10803403 	ldbu	r2,208(r2)
  804a4c:	10803fcc 	andi	r2,r2,255
  804a50:	1080201c 	xori	r2,r2,128
  804a54:	10bfe004 	addi	r2,r2,-128
  804a58:	1000061e 	bne	r2,zero,804a74 <logic+0x3ef8>
  804a5c:	e0bffc17 	ldw	r2,-16(fp)
  804a60:	10801d03 	ldbu	r2,116(r2)
  804a64:	10803fcc 	andi	r2,r2,255
  804a68:	1080201c 	xori	r2,r2,128
  804a6c:	10bfe004 	addi	r2,r2,-128
  804a70:	10000226 	beq	r2,zero,804a7c <logic+0x3f00>
  804a74:	00800044 	movi	r2,1
  804a78:	00000106 	br	804a80 <logic+0x3f04>
  804a7c:	0005883a 	mov	r2,zero
  804a80:	1007883a 	mov	r3,r2
  804a84:	e0bffc17 	ldw	r2,-16(fp)
  804a88:	10c02f85 	stb	r3,190(r2)
  d->_g128 = d->_GO || d->_g138_e2;
  804a8c:	e0bffc17 	ldw	r2,-16(fp)
  804a90:	10803403 	ldbu	r2,208(r2)
  804a94:	10803fcc 	andi	r2,r2,255
  804a98:	1080201c 	xori	r2,r2,128
  804a9c:	10bfe004 	addi	r2,r2,-128
  804aa0:	1000061e 	bne	r2,zero,804abc <logic+0x3f40>
  804aa4:	e0bffc17 	ldw	r2,-16(fp)
  804aa8:	10804343 	ldbu	r2,269(r2)
  804aac:	10803fcc 	andi	r2,r2,255
  804ab0:	1080201c 	xori	r2,r2,128
  804ab4:	10bfe004 	addi	r2,r2,-128
  804ab8:	10000226 	beq	r2,zero,804ac4 <logic+0x3f48>
  804abc:	00800044 	movi	r2,1
  804ac0:	00000106 	br	804ac8 <logic+0x3f4c>
  804ac4:	0005883a 	mov	r2,zero
  804ac8:	1007883a 	mov	r3,r2
  804acc:	e0bffc17 	ldw	r2,-16(fp)
  804ad0:	10c03045 	stb	r3,193(r2)
  d->_g130 = d->_GO || d->_g60;
  804ad4:	e0bffc17 	ldw	r2,-16(fp)
  804ad8:	10803403 	ldbu	r2,208(r2)
  804adc:	10803fcc 	andi	r2,r2,255
  804ae0:	1080201c 	xori	r2,r2,128
  804ae4:	10bfe004 	addi	r2,r2,-128
  804ae8:	1000061e 	bne	r2,zero,804b04 <logic+0x3f88>
  804aec:	e0bffc17 	ldw	r2,-16(fp)
  804af0:	10802543 	ldbu	r2,149(r2)
  804af4:	10803fcc 	andi	r2,r2,255
  804af8:	1080201c 	xori	r2,r2,128
  804afc:	10bfe004 	addi	r2,r2,-128
  804b00:	10000226 	beq	r2,zero,804b0c <logic+0x3f90>
  804b04:	00800044 	movi	r2,1
  804b08:	00000106 	br	804b10 <logic+0x3f94>
  804b0c:	0005883a 	mov	r2,zero
  804b10:	1007883a 	mov	r3,r2
  804b14:	e0bffc17 	ldw	r2,-16(fp)
  804b18:	10c030c5 	stb	r3,195(r2)
  d->_g133 = d->_GO || d->_g166;
  804b1c:	e0bffc17 	ldw	r2,-16(fp)
  804b20:	10803403 	ldbu	r2,208(r2)
  804b24:	10803fcc 	andi	r2,r2,255
  804b28:	1080201c 	xori	r2,r2,128
  804b2c:	10bfe004 	addi	r2,r2,-128
  804b30:	1000061e 	bne	r2,zero,804b4c <logic+0x3fd0>
  804b34:	e0bffc17 	ldw	r2,-16(fp)
  804b38:	10803383 	ldbu	r2,206(r2)
  804b3c:	10803fcc 	andi	r2,r2,255
  804b40:	1080201c 	xori	r2,r2,128
  804b44:	10bfe004 	addi	r2,r2,-128
  804b48:	10000226 	beq	r2,zero,804b54 <logic+0x3fd8>
  804b4c:	00800044 	movi	r2,1
  804b50:	00000106 	br	804b58 <logic+0x3fdc>
  804b54:	0005883a 	mov	r2,zero
  804b58:	1007883a 	mov	r3,r2
  804b5c:	e0bffc17 	ldw	r2,-16(fp)
  804b60:	10c03145 	stb	r3,197(r2)
  d->_g139 = d->_GO || d->_g179;
  804b64:	e0bffc17 	ldw	r2,-16(fp)
  804b68:	10803403 	ldbu	r2,208(r2)
  804b6c:	10803fcc 	andi	r2,r2,255
  804b70:	1080201c 	xori	r2,r2,128
  804b74:	10bfe004 	addi	r2,r2,-128
  804b78:	1000061e 	bne	r2,zero,804b94 <logic+0x4018>
  804b7c:	e0bffc17 	ldw	r2,-16(fp)
  804b80:	108033c3 	ldbu	r2,207(r2)
  804b84:	10803fcc 	andi	r2,r2,255
  804b88:	1080201c 	xori	r2,r2,128
  804b8c:	10bfe004 	addi	r2,r2,-128
  804b90:	10000226 	beq	r2,zero,804b9c <logic+0x4020>
  804b94:	00800044 	movi	r2,1
  804b98:	00000106 	br	804ba0 <logic+0x4024>
  804b9c:	0005883a 	mov	r2,zero
  804ba0:	1007883a 	mov	r3,r2
  804ba4:	e0bffc17 	ldw	r2,-16(fp)
  804ba8:	10c03245 	stb	r3,201(r2)
  if (d->_g33) {
  804bac:	e0bffc17 	ldw	r2,-16(fp)
  804bb0:	10802043 	ldbu	r2,129(r2)
  804bb4:	10803fcc 	andi	r2,r2,255
  804bb8:	1080201c 	xori	r2,r2,128
  804bbc:	10bfe004 	addi	r2,r2,-128
  804bc0:	10000426 	beq	r2,zero,804bd4 <logic+0x4058>
    d->_reg_a_event = d->a_event;
  804bc4:	e0bffc17 	ldw	r2,-16(fp)
  804bc8:	10c01743 	ldbu	r3,93(r2)
  804bcc:	e0bffc17 	ldw	r2,-16(fp)
  804bd0:	10c017c5 	stb	r3,95(r2)
  }
  d->_reg_v_event = d->v_event;
  804bd4:	e0bffc17 	ldw	r2,-16(fp)
  804bd8:	10c01703 	ldbu	r3,92(r2)
  804bdc:	e0bffc17 	ldw	r2,-16(fp)
  804be0:	10c01845 	stb	r3,97(r2)
}
  804be4:	0001883a 	nop
  804be8:	e6fffd04 	addi	sp,fp,-12
  804bec:	dfc00417 	ldw	ra,16(sp)
  804bf0:	df000317 	ldw	fp,12(sp)
  804bf4:	dc800217 	ldw	r18,8(sp)
  804bf8:	dc400117 	ldw	r17,4(sp)
  804bfc:	dc000017 	ldw	r16,0(sp)
  804c00:	dec00504 	addi	sp,sp,20
  804c04:	f800283a 	ret

00804c08 <reset>:

void reset(TickData* d) {
  804c08:	defffe04 	addi	sp,sp,-8
  804c0c:	df000115 	stw	fp,4(sp)
  804c10:	df000104 	addi	fp,sp,4
  804c14:	e13fff15 	stw	r4,-4(fp)
  d->_GO = 1;
  804c18:	e0bfff17 	ldw	r2,-4(fp)
  804c1c:	00c00044 	movi	r3,1
  804c20:	10c03405 	stb	r3,208(r2)
  d->_TERM = 0;
  804c24:	e0bfff17 	ldw	r2,-4(fp)
  804c28:	10004385 	stb	zero,270(r2)
  d->AVI = AVI_VALUE;
  804c2c:	e0bfff17 	ldw	r2,-4(fp)
  804c30:	00c04b04 	movi	r3,300
  804c34:	10c00015 	stw	r3,0(r2)
  d->AEI = AEI_VALUE;
  804c38:	e0bfff17 	ldw	r2,-4(fp)
  804c3c:	00c0c804 	movi	r3,800
  804c40:	10c00115 	stw	r3,4(r2)
  d->PVARP = PVARP_VALUE;
  804c44:	e0bfff17 	ldw	r2,-4(fp)
  804c48:	00c00c84 	movi	r3,50
  804c4c:	10c00215 	stw	r3,8(r2)
  d->VRP = VRP_VALUE;
  804c50:	e0bfff17 	ldw	r2,-4(fp)
  804c54:	00c02584 	movi	r3,150
  804c58:	10c00315 	stw	r3,12(r2)
  d->LRI = LRI_VALUE;
  804c5c:	e0bfff17 	ldw	r2,-4(fp)
  804c60:	00c0ed84 	movi	r3,950
  804c64:	10c00415 	stw	r3,16(r2)
  d->URI = URI_VALUE;
  804c68:	e0bfff17 	ldw	r2,-4(fp)
  804c6c:	00c0e104 	movi	r3,900
  804c70:	10c00515 	stw	r3,20(r2)
  d->_region0_LRI_x = 0;
  804c74:	e0bfff17 	ldw	r2,-4(fp)
  804c78:	10000615 	stw	zero,24(r2)
  804c7c:	10000715 	stw	zero,28(r2)
  d->_region1_URI_x = 0;
  804c80:	e0bfff17 	ldw	r2,-4(fp)
  804c84:	10000815 	stw	zero,32(r2)
  804c88:	10000915 	stw	zero,36(r2)
  d->_region2_PVARP_x = 0;
  804c8c:	e0bfff17 	ldw	r2,-4(fp)
  804c90:	10000a15 	stw	zero,40(r2)
  804c94:	10000b15 	stw	zero,44(r2)
  d->_region3_VRP_x = 0;
  804c98:	e0bfff17 	ldw	r2,-4(fp)
  804c9c:	10000c15 	stw	zero,48(r2)
  804ca0:	10000d15 	stw	zero,52(r2)
  d->_region4_AVI_x = 0;
  804ca4:	e0bfff17 	ldw	r2,-4(fp)
  804ca8:	10000e15 	stw	zero,56(r2)
  804cac:	10000f15 	stw	zero,60(r2)
  d->_region5_AEI_x = 0;
  804cb0:	e0bfff17 	ldw	r2,-4(fp)
  804cb4:	10001015 	stw	zero,64(r2)
  804cb8:	10001115 	stw	zero,68(r2)
  d->deltaT = 0.0;
  804cbc:	e0bfff17 	ldw	r2,-4(fp)
  804cc0:	10001215 	stw	zero,72(r2)
  804cc4:	10001315 	stw	zero,76(r2)
  d->sleepT = 0.0;
  804cc8:	e0bfff17 	ldw	r2,-4(fp)
  804ccc:	10001415 	stw	zero,80(r2)
  804cd0:	10001515 	stw	zero,84(r2)
  d->AP = 0;
  804cd4:	e0bfff17 	ldw	r2,-4(fp)
  804cd8:	10001685 	stb	zero,90(r2)
  d->VP = 0;
  804cdc:	e0bfff17 	ldw	r2,-4(fp)
  804ce0:	100016c5 	stb	zero,91(r2)
  d->v_event = 0;
  804ce4:	e0bfff17 	ldw	r2,-4(fp)
  804ce8:	10001705 	stb	zero,92(r2)
  d->a_event = 0;
  804cec:	e0bfff17 	ldw	r2,-4(fp)
  804cf0:	10001745 	stb	zero,93(r2)
  d->URI_timeout = 0;
  804cf4:	e0bfff17 	ldw	r2,-4(fp)
  804cf8:	10001785 	stb	zero,94(r2)
  d->_reg_a_event = 0;
  804cfc:	e0bfff17 	ldw	r2,-4(fp)
  804d00:	100017c5 	stb	zero,95(r2)
  d->_reg_v_event = 0;
  804d04:	e0bfff17 	ldw	r2,-4(fp)
  804d08:	10001845 	stb	zero,97(r2)
  d->_pg7 = 0;
  804d0c:	e0bfff17 	ldw	r2,-4(fp)
  804d10:	100043c5 	stb	zero,271(r2)
  d->_pg25 = 0;
  804d14:	e0bfff17 	ldw	r2,-4(fp)
  804d18:	10004405 	stb	zero,272(r2)
  d->_pg16 = 0;
  804d1c:	e0bfff17 	ldw	r2,-4(fp)
  804d20:	10004445 	stb	zero,273(r2)
  d->_pg121 = 0;
  804d24:	e0bfff17 	ldw	r2,-4(fp)
  804d28:	10004485 	stb	zero,274(r2)
  d->_pg34 = 0;
  804d2c:	e0bfff17 	ldw	r2,-4(fp)
  804d30:	100044c5 	stb	zero,275(r2)
  d->_pg115 = 0;
  804d34:	e0bfff17 	ldw	r2,-4(fp)
  804d38:	10004505 	stb	zero,276(r2)
  d->_pg74 = 0;
  804d3c:	e0bfff17 	ldw	r2,-4(fp)
  804d40:	10004545 	stb	zero,277(r2)
  d->_pg93 = 0;
  804d44:	e0bfff17 	ldw	r2,-4(fp)
  804d48:	10004585 	stb	zero,278(r2)
  d->_pg133 = 0;
  804d4c:	e0bfff17 	ldw	r2,-4(fp)
  804d50:	100045c5 	stb	zero,279(r2)
  d->_pg96 = 0;
  804d54:	e0bfff17 	ldw	r2,-4(fp)
  804d58:	10004605 	stb	zero,280(r2)
  d->_pg79_e1 = 0;
  804d5c:	e0bfff17 	ldw	r2,-4(fp)
  804d60:	10004645 	stb	zero,281(r2)
  d->_pg3 = 0;
  804d64:	e0bfff17 	ldw	r2,-4(fp)
  804d68:	10004685 	stb	zero,282(r2)
  d->_pg124 = 0;
  804d6c:	e0bfff17 	ldw	r2,-4(fp)
  804d70:	100046c5 	stb	zero,283(r2)
  d->_pg42 = 0;
  804d74:	e0bfff17 	ldw	r2,-4(fp)
  804d78:	10004705 	stb	zero,284(r2)
  d->_pg48 = 0;
  804d7c:	e0bfff17 	ldw	r2,-4(fp)
  804d80:	10004745 	stb	zero,285(r2)
  d->_pg40 = 0;
  804d84:	e0bfff17 	ldw	r2,-4(fp)
  804d88:	10004785 	stb	zero,286(r2)
  d->_pg43 = 0;
  804d8c:	e0bfff17 	ldw	r2,-4(fp)
  804d90:	100047c5 	stb	zero,287(r2)
  d->_pg141 = 0;
  804d94:	e0bfff17 	ldw	r2,-4(fp)
  804d98:	10004805 	stb	zero,288(r2)
  d->_pg111 = 0;
  804d9c:	e0bfff17 	ldw	r2,-4(fp)
  804da0:	10004845 	stb	zero,289(r2)
  d->_pg33 = 0;
  804da4:	e0bfff17 	ldw	r2,-4(fp)
  804da8:	10004885 	stb	zero,290(r2)
  d->_pg142 = 0;
  804dac:	e0bfff17 	ldw	r2,-4(fp)
  804db0:	100048c5 	stb	zero,291(r2)
  d->_pg139 = 0;
  804db4:	e0bfff17 	ldw	r2,-4(fp)
  804db8:	10004905 	stb	zero,292(r2)
  d->_pg60_e1 = 0;
  804dbc:	e0bfff17 	ldw	r2,-4(fp)
  804dc0:	10004945 	stb	zero,293(r2)
  d->_pg128 = 0;
  804dc4:	e0bfff17 	ldw	r2,-4(fp)
  804dc8:	10004985 	stb	zero,294(r2)
  d->_pg63 = 0;
  804dcc:	e0bfff17 	ldw	r2,-4(fp)
  804dd0:	100049c5 	stb	zero,295(r2)
  d->_pg61 = 0;
  804dd4:	e0bfff17 	ldw	r2,-4(fp)
  804dd8:	10004a05 	stb	zero,296(r2)
  d->_pg64 = 0;
  804ddc:	e0bfff17 	ldw	r2,-4(fp)
  804de0:	10004a45 	stb	zero,297(r2)
  d->_pg130 = 0;
  804de4:	e0bfff17 	ldw	r2,-4(fp)
  804de8:	10004a85 	stb	zero,298(r2)
  d->_pg82 = 0;
  804dec:	e0bfff17 	ldw	r2,-4(fp)
  804df0:	10004ac5 	stb	zero,299(r2)
  d->_pg80 = 0;
  804df4:	e0bfff17 	ldw	r2,-4(fp)
  804df8:	10004b05 	stb	zero,300(r2)
  d->_pg81 = 0;
  804dfc:	e0bfff17 	ldw	r2,-4(fp)
  804e00:	10004b45 	stb	zero,301(r2)
  d->_pg79 = 0;
  804e04:	e0bfff17 	ldw	r2,-4(fp)
  804e08:	10004b85 	stb	zero,302(r2)
  d->_pg105 = 0;
  804e0c:	e0bfff17 	ldw	r2,-4(fp)
  804e10:	10004bc5 	stb	zero,303(r2)
}
  804e14:	0001883a 	nop
  804e18:	e037883a 	mov	sp,fp
  804e1c:	df000017 	ldw	fp,0(sp)
  804e20:	dec00104 	addi	sp,sp,4
  804e24:	f800283a 	ret

00804e28 <tick>:

void tick(TickData* d) {
  804e28:	defffd04 	addi	sp,sp,-12
  804e2c:	dfc00215 	stw	ra,8(sp)
  804e30:	df000115 	stw	fp,4(sp)
  804e34:	df000104 	addi	fp,sp,4
  804e38:	e13fff15 	stw	r4,-4(fp)
  logic(d);
  804e3c:	e13fff17 	ldw	r4,-4(fp)
  804e40:	0800b7c0 	call	800b7c <logic>

  d->_pg7 = d->_g7;
  804e44:	e0bfff17 	ldw	r2,-4(fp)
  804e48:	10c01bc3 	ldbu	r3,111(r2)
  804e4c:	e0bfff17 	ldw	r2,-4(fp)
  804e50:	10c043c5 	stb	r3,271(r2)
  d->_pg25 = d->_g25;
  804e54:	e0bfff17 	ldw	r2,-4(fp)
  804e58:	10c01f43 	ldbu	r3,125(r2)
  804e5c:	e0bfff17 	ldw	r2,-4(fp)
  804e60:	10c04405 	stb	r3,272(r2)
  d->_pg16 = d->_g16;
  804e64:	e0bfff17 	ldw	r2,-4(fp)
  804e68:	10c01d83 	ldbu	r3,118(r2)
  804e6c:	e0bfff17 	ldw	r2,-4(fp)
  804e70:	10c04445 	stb	r3,273(r2)
  d->_pg121 = d->_g121;
  804e74:	e0bfff17 	ldw	r2,-4(fp)
  804e78:	10c02f43 	ldbu	r3,189(r2)
  804e7c:	e0bfff17 	ldw	r2,-4(fp)
  804e80:	10c04485 	stb	r3,274(r2)
  d->_pg34 = d->_g34;
  804e84:	e0bfff17 	ldw	r2,-4(fp)
  804e88:	10c02083 	ldbu	r3,130(r2)
  804e8c:	e0bfff17 	ldw	r2,-4(fp)
  804e90:	10c044c5 	stb	r3,275(r2)
  d->_pg115 = d->_g115;
  804e94:	e0bfff17 	ldw	r2,-4(fp)
  804e98:	10c02ec3 	ldbu	r3,187(r2)
  804e9c:	e0bfff17 	ldw	r2,-4(fp)
  804ea0:	10c04505 	stb	r3,276(r2)
  d->_pg74 = d->_g74;
  804ea4:	e0bfff17 	ldw	r2,-4(fp)
  804ea8:	10c02783 	ldbu	r3,158(r2)
  804eac:	e0bfff17 	ldw	r2,-4(fp)
  804eb0:	10c04545 	stb	r3,277(r2)
  d->_pg93 = d->_g93;
  804eb4:	e0bfff17 	ldw	r2,-4(fp)
  804eb8:	10c02a83 	ldbu	r3,170(r2)
  804ebc:	e0bfff17 	ldw	r2,-4(fp)
  804ec0:	10c04585 	stb	r3,278(r2)
  d->_pg133 = d->_g133;
  804ec4:	e0bfff17 	ldw	r2,-4(fp)
  804ec8:	10c03143 	ldbu	r3,197(r2)
  804ecc:	e0bfff17 	ldw	r2,-4(fp)
  804ed0:	10c045c5 	stb	r3,279(r2)
  d->_pg96 = d->_g96;
  804ed4:	e0bfff17 	ldw	r2,-4(fp)
  804ed8:	10c02b03 	ldbu	r3,172(r2)
  804edc:	e0bfff17 	ldw	r2,-4(fp)
  804ee0:	10c04605 	stb	r3,280(r2)
  d->_pg79_e1 = d->_g79_e1;
  804ee4:	e0bfff17 	ldw	r2,-4(fp)
  804ee8:	10c04203 	ldbu	r3,264(r2)
  804eec:	e0bfff17 	ldw	r2,-4(fp)
  804ef0:	10c04645 	stb	r3,281(r2)
  d->_pg3 = d->_g3;
  804ef4:	e0bfff17 	ldw	r2,-4(fp)
  804ef8:	10c01b03 	ldbu	r3,108(r2)
  804efc:	e0bfff17 	ldw	r2,-4(fp)
  804f00:	10c04685 	stb	r3,282(r2)
  d->_pg124 = d->_g124;
  804f04:	e0bfff17 	ldw	r2,-4(fp)
  804f08:	10c02f83 	ldbu	r3,190(r2)
  804f0c:	e0bfff17 	ldw	r2,-4(fp)
  804f10:	10c046c5 	stb	r3,283(r2)
  d->_pg42 = d->_g42;
  804f14:	e0bfff17 	ldw	r2,-4(fp)
  804f18:	10c02243 	ldbu	r3,137(r2)
  804f1c:	e0bfff17 	ldw	r2,-4(fp)
  804f20:	10c04705 	stb	r3,284(r2)
  d->_pg48 = d->_g48;
  804f24:	e0bfff17 	ldw	r2,-4(fp)
  804f28:	10c02343 	ldbu	r3,141(r2)
  804f2c:	e0bfff17 	ldw	r2,-4(fp)
  804f30:	10c04745 	stb	r3,285(r2)
  d->_pg40 = d->_g40;
  804f34:	e0bfff17 	ldw	r2,-4(fp)
  804f38:	10c021c3 	ldbu	r3,135(r2)
  804f3c:	e0bfff17 	ldw	r2,-4(fp)
  804f40:	10c04785 	stb	r3,286(r2)
  d->_pg43 = d->_g43;
  804f44:	e0bfff17 	ldw	r2,-4(fp)
  804f48:	10c02283 	ldbu	r3,138(r2)
  804f4c:	e0bfff17 	ldw	r2,-4(fp)
  804f50:	10c047c5 	stb	r3,287(r2)
  d->_pg141 = d->_g141;
  804f54:	e0bfff17 	ldw	r2,-4(fp)
  804f58:	10c032c3 	ldbu	r3,203(r2)
  804f5c:	e0bfff17 	ldw	r2,-4(fp)
  804f60:	10c04805 	stb	r3,288(r2)
  d->_pg111 = d->_g111;
  804f64:	e0bfff17 	ldw	r2,-4(fp)
  804f68:	10c02dc3 	ldbu	r3,183(r2)
  804f6c:	e0bfff17 	ldw	r2,-4(fp)
  804f70:	10c04845 	stb	r3,289(r2)
  d->_pg33 = d->_g33;
  804f74:	e0bfff17 	ldw	r2,-4(fp)
  804f78:	10c02043 	ldbu	r3,129(r2)
  804f7c:	e0bfff17 	ldw	r2,-4(fp)
  804f80:	10c04885 	stb	r3,290(r2)
  d->_pg142 = d->_g142;
  804f84:	e0bfff17 	ldw	r2,-4(fp)
  804f88:	10c03303 	ldbu	r3,204(r2)
  804f8c:	e0bfff17 	ldw	r2,-4(fp)
  804f90:	10c048c5 	stb	r3,291(r2)
  d->_pg139 = d->_g139;
  804f94:	e0bfff17 	ldw	r2,-4(fp)
  804f98:	10c03243 	ldbu	r3,201(r2)
  804f9c:	e0bfff17 	ldw	r2,-4(fp)
  804fa0:	10c04905 	stb	r3,292(r2)
  d->_pg60_e1 = d->_g60_e1;
  804fa4:	e0bfff17 	ldw	r2,-4(fp)
  804fa8:	10c04183 	ldbu	r3,262(r2)
  804fac:	e0bfff17 	ldw	r2,-4(fp)
  804fb0:	10c04945 	stb	r3,293(r2)
  d->_pg128 = d->_g128;
  804fb4:	e0bfff17 	ldw	r2,-4(fp)
  804fb8:	10c03043 	ldbu	r3,193(r2)
  804fbc:	e0bfff17 	ldw	r2,-4(fp)
  804fc0:	10c04985 	stb	r3,294(r2)
  d->_pg63 = d->_g63;
  804fc4:	e0bfff17 	ldw	r2,-4(fp)
  804fc8:	10c02603 	ldbu	r3,152(r2)
  804fcc:	e0bfff17 	ldw	r2,-4(fp)
  804fd0:	10c049c5 	stb	r3,295(r2)
  d->_pg61 = d->_g61;
  804fd4:	e0bfff17 	ldw	r2,-4(fp)
  804fd8:	10c02583 	ldbu	r3,150(r2)
  804fdc:	e0bfff17 	ldw	r2,-4(fp)
  804fe0:	10c04a05 	stb	r3,296(r2)
  d->_pg64 = d->_g64;
  804fe4:	e0bfff17 	ldw	r2,-4(fp)
  804fe8:	10c02643 	ldbu	r3,153(r2)
  804fec:	e0bfff17 	ldw	r2,-4(fp)
  804ff0:	10c04a45 	stb	r3,297(r2)
  d->_pg130 = d->_g130;
  804ff4:	e0bfff17 	ldw	r2,-4(fp)
  804ff8:	10c030c3 	ldbu	r3,195(r2)
  804ffc:	e0bfff17 	ldw	r2,-4(fp)
  805000:	10c04a85 	stb	r3,298(r2)
  d->_pg82 = d->_g82;
  805004:	e0bfff17 	ldw	r2,-4(fp)
  805008:	10c02943 	ldbu	r3,165(r2)
  80500c:	e0bfff17 	ldw	r2,-4(fp)
  805010:	10c04ac5 	stb	r3,299(r2)
  d->_pg80 = d->_g80;
  805014:	e0bfff17 	ldw	r2,-4(fp)
  805018:	10c028c3 	ldbu	r3,163(r2)
  80501c:	e0bfff17 	ldw	r2,-4(fp)
  805020:	10c04b05 	stb	r3,300(r2)
  d->_pg81 = d->_g81;
  805024:	e0bfff17 	ldw	r2,-4(fp)
  805028:	10c02903 	ldbu	r3,164(r2)
  80502c:	e0bfff17 	ldw	r2,-4(fp)
  805030:	10c04b45 	stb	r3,301(r2)
  d->_pg79 = d->_g79;
  805034:	e0bfff17 	ldw	r2,-4(fp)
  805038:	10c02883 	ldbu	r3,162(r2)
  80503c:	e0bfff17 	ldw	r2,-4(fp)
  805040:	10c04b85 	stb	r3,302(r2)
  d->_pg105 = d->_g105;
  805044:	e0bfff17 	ldw	r2,-4(fp)
  805048:	10c02cc3 	ldbu	r3,179(r2)
  80504c:	e0bfff17 	ldw	r2,-4(fp)
  805050:	10c04bc5 	stb	r3,303(r2)
  d->_GO = 0;
  805054:	e0bfff17 	ldw	r2,-4(fp)
  805058:	10003405 	stb	zero,208(r2)
}
  80505c:	0001883a 	nop
  805060:	e037883a 	mov	sp,fp
  805064:	dfc00117 	ldw	ra,4(sp)
  805068:	df000017 	ldw	fp,0(sp)
  80506c:	dec00204 	addi	sp,sp,8
  805070:	f800283a 	ret

00805074 <__floatundidf>:
  805074:	defffc04 	addi	sp,sp,-16
  805078:	dc800215 	stw	r18,8(sp)
  80507c:	2025883a 	mov	r18,r4
  805080:	2809883a 	mov	r4,r5
  805084:	dfc00315 	stw	ra,12(sp)
  805088:	dc400115 	stw	r17,4(sp)
  80508c:	dc000015 	stw	r16,0(sp)
  805090:	0806c500 	call	806c50 <__floatunsidf>
  805094:	000d883a 	mov	r6,zero
  805098:	01d07c34 	movhi	r7,16880
  80509c:	180b883a 	mov	r5,r3
  8050a0:	1009883a 	mov	r4,r2
  8050a4:	0805b600 	call	805b60 <__muldf3>
  8050a8:	9009883a 	mov	r4,r18
  8050ac:	1023883a 	mov	r17,r2
  8050b0:	1821883a 	mov	r16,r3
  8050b4:	0806c500 	call	806c50 <__floatunsidf>
  8050b8:	880d883a 	mov	r6,r17
  8050bc:	800f883a 	mov	r7,r16
  8050c0:	1009883a 	mov	r4,r2
  8050c4:	180b883a 	mov	r5,r3
  8050c8:	08050e40 	call	8050e4 <__adddf3>
  8050cc:	dfc00317 	ldw	ra,12(sp)
  8050d0:	dc800217 	ldw	r18,8(sp)
  8050d4:	dc400117 	ldw	r17,4(sp)
  8050d8:	dc000017 	ldw	r16,0(sp)
  8050dc:	dec00404 	addi	sp,sp,16
  8050e0:	f800283a 	ret

008050e4 <__adddf3>:
  8050e4:	02c00434 	movhi	r11,16
  8050e8:	5affffc4 	addi	r11,r11,-1
  8050ec:	2806d7fa 	srli	r3,r5,31
  8050f0:	2ad4703a 	and	r10,r5,r11
  8050f4:	3ad2703a 	and	r9,r7,r11
  8050f8:	3804d53a 	srli	r2,r7,20
  8050fc:	3018d77a 	srli	r12,r6,29
  805100:	280ad53a 	srli	r5,r5,20
  805104:	501490fa 	slli	r10,r10,3
  805108:	2010d77a 	srli	r8,r4,29
  80510c:	481290fa 	slli	r9,r9,3
  805110:	380ed7fa 	srli	r7,r7,31
  805114:	defffb04 	addi	sp,sp,-20
  805118:	dc800215 	stw	r18,8(sp)
  80511c:	dc400115 	stw	r17,4(sp)
  805120:	dc000015 	stw	r16,0(sp)
  805124:	dfc00415 	stw	ra,16(sp)
  805128:	dcc00315 	stw	r19,12(sp)
  80512c:	1c803fcc 	andi	r18,r3,255
  805130:	2c01ffcc 	andi	r16,r5,2047
  805134:	5210b03a 	or	r8,r10,r8
  805138:	202290fa 	slli	r17,r4,3
  80513c:	1081ffcc 	andi	r2,r2,2047
  805140:	4b12b03a 	or	r9,r9,r12
  805144:	300c90fa 	slli	r6,r6,3
  805148:	91c07526 	beq	r18,r7,805320 <__adddf3+0x23c>
  80514c:	8087c83a 	sub	r3,r16,r2
  805150:	00c0ab0e 	bge	zero,r3,805400 <__adddf3+0x31c>
  805154:	10002a1e 	bne	r2,zero,805200 <__adddf3+0x11c>
  805158:	4984b03a 	or	r2,r9,r6
  80515c:	1000961e 	bne	r2,zero,8053b8 <__adddf3+0x2d4>
  805160:	888001cc 	andi	r2,r17,7
  805164:	10000726 	beq	r2,zero,805184 <__adddf3+0xa0>
  805168:	888003cc 	andi	r2,r17,15
  80516c:	00c00104 	movi	r3,4
  805170:	10c00426 	beq	r2,r3,805184 <__adddf3+0xa0>
  805174:	88c7883a 	add	r3,r17,r3
  805178:	1c63803a 	cmpltu	r17,r3,r17
  80517c:	4451883a 	add	r8,r8,r17
  805180:	1823883a 	mov	r17,r3
  805184:	4080202c 	andhi	r2,r8,128
  805188:	10005926 	beq	r2,zero,8052f0 <__adddf3+0x20c>
  80518c:	84000044 	addi	r16,r16,1
  805190:	0081ffc4 	movi	r2,2047
  805194:	8080ba26 	beq	r16,r2,805480 <__adddf3+0x39c>
  805198:	00bfe034 	movhi	r2,65408
  80519c:	10bfffc4 	addi	r2,r2,-1
  8051a0:	4090703a 	and	r8,r8,r2
  8051a4:	4004977a 	slli	r2,r8,29
  8051a8:	4010927a 	slli	r8,r8,9
  8051ac:	8822d0fa 	srli	r17,r17,3
  8051b0:	8401ffcc 	andi	r16,r16,2047
  8051b4:	4010d33a 	srli	r8,r8,12
  8051b8:	9007883a 	mov	r3,r18
  8051bc:	1444b03a 	or	r2,r2,r17
  8051c0:	8401ffcc 	andi	r16,r16,2047
  8051c4:	8020953a 	slli	r16,r16,20
  8051c8:	18c03fcc 	andi	r3,r3,255
  8051cc:	01000434 	movhi	r4,16
  8051d0:	213fffc4 	addi	r4,r4,-1
  8051d4:	180697fa 	slli	r3,r3,31
  8051d8:	4110703a 	and	r8,r8,r4
  8051dc:	4410b03a 	or	r8,r8,r16
  8051e0:	40c6b03a 	or	r3,r8,r3
  8051e4:	dfc00417 	ldw	ra,16(sp)
  8051e8:	dcc00317 	ldw	r19,12(sp)
  8051ec:	dc800217 	ldw	r18,8(sp)
  8051f0:	dc400117 	ldw	r17,4(sp)
  8051f4:	dc000017 	ldw	r16,0(sp)
  8051f8:	dec00504 	addi	sp,sp,20
  8051fc:	f800283a 	ret
  805200:	0081ffc4 	movi	r2,2047
  805204:	80bfd626 	beq	r16,r2,805160 <__alt_mem_onchip_mem+0xff7fd160>
  805208:	4a402034 	orhi	r9,r9,128
  80520c:	00800e04 	movi	r2,56
  805210:	10c09f16 	blt	r2,r3,805490 <__adddf3+0x3ac>
  805214:	008007c4 	movi	r2,31
  805218:	10c0c216 	blt	r2,r3,805524 <__adddf3+0x440>
  80521c:	00800804 	movi	r2,32
  805220:	10c5c83a 	sub	r2,r2,r3
  805224:	488a983a 	sll	r5,r9,r2
  805228:	30c8d83a 	srl	r4,r6,r3
  80522c:	3084983a 	sll	r2,r6,r2
  805230:	48c6d83a 	srl	r3,r9,r3
  805234:	290cb03a 	or	r6,r5,r4
  805238:	1004c03a 	cmpne	r2,r2,zero
  80523c:	308cb03a 	or	r6,r6,r2
  805240:	898dc83a 	sub	r6,r17,r6
  805244:	89a3803a 	cmpltu	r17,r17,r6
  805248:	40d1c83a 	sub	r8,r8,r3
  80524c:	4451c83a 	sub	r8,r8,r17
  805250:	3023883a 	mov	r17,r6
  805254:	4080202c 	andhi	r2,r8,128
  805258:	10002326 	beq	r2,zero,8052e8 <__adddf3+0x204>
  80525c:	04c02034 	movhi	r19,128
  805260:	9cffffc4 	addi	r19,r19,-1
  805264:	44e6703a 	and	r19,r8,r19
  805268:	98007626 	beq	r19,zero,805444 <__adddf3+0x360>
  80526c:	9809883a 	mov	r4,r19
  805270:	0806cf80 	call	806cf8 <__clzsi2>
  805274:	10fffe04 	addi	r3,r2,-8
